

Microchip MPLAB XC8 Assembler V2.10 build 88905656 
                                                                                               Thu Dec 12 08:04:51 2019

Microchip MPLAB XC8 C Compiler v2.10 (Free license) build 20190730164152 Og1 
     1                           	processor	18F4550
     2                           	fnconf	rparam,??,?,0
     3                           	opt	pw 120
     4                           	opt	flic
     5                           	psect	mediumconst,global,reloc=2,class=MEDIUMCONST,delta=1,noexec
     6                           	psect	cinit,global,reloc=2,class=CODE,delta=1
     7                           	psect	bssCOMRAM,global,class=COMRAM,space=1,delta=1,noexec
     8                           	psect	bssBANK0,global,class=BANK0,space=1,delta=1,lowdata,noexec
     9                           	psect	cstackBANK0,global,class=BANK0,space=1,delta=1,noexec
    10                           	psect	cstackCOMRAM,global,class=COMRAM,space=1,delta=1,noexec
    11                           	psect	text0,global,reloc=2,class=CODE,delta=1
    12                           	psect	text1,global,reloc=2,class=CODE,delta=1
    13                           	psect	text2,global,reloc=2,class=CODE,delta=1
    14                           	psect	text3,global,reloc=2,class=CODE,delta=1
    15                           	psect	text4,global,reloc=2,class=CODE,delta=1
    16                           	psect	text5,global,reloc=2,class=CODE,delta=1
    17                           	psect	text6,global,reloc=2,class=CODE,delta=1
    18                           	psect	text7,global,reloc=2,class=CODE,delta=1
    19                           	psect	text8,global,reloc=2,class=CODE,delta=1
    20                           	psect	text9,global,reloc=2,class=CODE,delta=1
    21                           	psect	text10,global,reloc=2,class=CODE,delta=1
    22                           	psect	text11,global,reloc=2,class=CODE,delta=1
    23                           	psect	text12,global,reloc=2,class=CODE,delta=1
    24                           	psect	text13,global,reloc=2,class=CODE,delta=1
    25                           	psect	text14,global,reloc=2,class=CODE,delta=1
    26                           	psect	text15,global,reloc=2,class=CODE,delta=1,group=2
    27                           	psect	text16,global,reloc=2,class=CODE,delta=1,group=1
    28                           	psect	text17,global,reloc=2,class=CODE,delta=1
    29                           	psect	text18,global,reloc=2,class=CODE,delta=1
    30                           	psect	text19,global,reloc=2,class=CODE,delta=1
    31                           	psect	text20,global,reloc=2,class=CODE,delta=1
    32                           	psect	text21,global,reloc=2,class=CODE,delta=1
    33                           	psect	text22,global,reloc=2,class=CODE,delta=1
    34                           	psect	text23,global,reloc=2,class=CODE,delta=1
    35                           	psect	text24,global,reloc=2,class=CODE,delta=1
    36                           	psect	text25,global,reloc=2,class=CODE,delta=1
    37                           	psect	text26,global,reloc=2,class=CODE,delta=1
    38                           	psect	text27,global,reloc=2,class=CODE,delta=1
    39                           	psect	text28,global,reloc=2,class=CODE,delta=1,group=1
    40                           	psect	text29,global,reloc=2,class=CODE,delta=1,group=1
    41                           	psect	text30,global,reloc=2,class=CODE,delta=1,group=1
    42                           	psect	text31,global,reloc=2,class=CODE,delta=1,group=1
    43                           	psect	text32,global,reloc=2,class=CODE,delta=1,group=1
    44                           	psect	text33,global,reloc=2,class=CODE,delta=1
    45                           	psect	text34,global,reloc=2,class=CODE,delta=1
    46                           	psect	text35,global,reloc=2,class=CODE,delta=1
    47                           	psect	text36,global,reloc=2,class=CODE,delta=1
    48                           	psect	text37,global,reloc=2,class=CODE,delta=1
    49                           	psect	text38,global,reloc=2,class=CODE,delta=1
    50                           	psect	text39,global,reloc=2,class=CODE,delta=1
    51                           	psect	text40,global,reloc=2,class=CODE,delta=1
    52                           	psect	text41,global,reloc=2,class=CODE,delta=1
    53                           	psect	text42,global,reloc=2,class=CODE,delta=1
    54                           	psect	text43,global,reloc=2,class=CODE,delta=1
    55                           	psect	text44,global,reloc=2,class=CODE,delta=1
    56                           	psect	intcodelo,global,reloc=2,class=CODE,delta=1
    57                           	psect	intcode,global,reloc=2,class=CODE,delta=1
    58                           	psect	intcode_body,global,reloc=2,class=CODE,delta=1
    59                           	psect	text47,global,reloc=2,class=CODE,delta=1
    60                           	psect	text48,global,reloc=2,class=CODE,delta=1
    61                           	psect	text49,global,reloc=2,class=CODE,delta=1
    62                           	psect	text50,global,reloc=2,class=CODE,delta=1
    63                           	psect	text51,global,reloc=2,class=CODE,delta=1
    64                           	psect	text52,global,reloc=2,class=CODE,delta=1
    65                           	psect	text53,global,reloc=2,class=CODE,delta=1
    66                           	psect	text54,global,reloc=2,class=CODE,delta=1
    67                           	psect	text55,global,reloc=2,class=CODE,delta=1
    68                           	psect	text56,global,reloc=2,class=CODE,delta=1
    69                           	psect	intsave_regs,global,class=BIGRAM,space=1,delta=1,noexec
    70                           	psect	rparam,global,class=COMRAM,space=1,delta=1,noexec
    71                           	psect	temp,global,ovrld,common,class=COMRAM,space=1,delta=1
    72  0000                     
    73                           ; Version 2.10
    74                           ; Generated 31/07/2019 GMT
    75                           ; 
    76                           ; Copyright © 2019, Microchip Technology Inc. and its subsidiaries ("Microchip")
    77                           ; All rights reserved.
    78                           ; 
    79                           ; This software is developed by Microchip Technology Inc. and its subsidiaries ("Microch
      +                          ip").
    80                           ; 
    81                           ; Redistribution and use in source and binary forms, with or without modification, are
    82                           ; permitted provided that the following conditions are met:
    83                           ; 
    84                           ;     1. Redistributions of source code must retain the above copyright notice, this lis
      +                          t of
    85                           ;        conditions and the following disclaimer.
    86                           ; 
    87                           ;     2. Redistributions in binary form must reproduce the above copyright notice, this 
      +                          list
    88                           ;        of conditions and the following disclaimer in the documentation and/or other
    89                           ;        materials provided with the distribution.
    90                           ; 
    91                           ;     3. Microchip's name may not be used to endorse or promote products derived from th
      +                          is
    92                           ;        software without specific prior written permission.
    93                           ; 
    94                           ; THIS SOFTWARE IS PROVIDED BY MICROCHIP "AS IS" AND ANY EXPRESS OR IMPLIED WARRANTIES,
    95                           ; INCLUDING, BUT NOT LIMITED TO, THE IMPLIED WARRANTIES OF MERCHANTABILITY AND FITNESS F
      +                          OR
    96                           ; PURPOSE ARE DISCLAIMED.  IN NO EVENT SHALL MICROCHIP BE LIABLE FOR ANY DIRECT, INDIREC
      +                          T,
    97                           ; INCIDENTAL, SPECIAL, EXEMPLARY, OR CONSEQUENTIAL DAMAGES (INCLUDING BUT NOT LIMITED TO
    98                           ; PROCUREMENT OF SUBSTITUTE GOODS OR SERVICES; LOSS OF USE, DATA OR PROFITS; OR BUSINESS
    99                           ; INTERRUPTION) HOWSOEVER CAUSED AND ON ANY THEORY OF LIABILITY, WHETHER IN CONTRACT, ST
      +                          RICT
   100                           ; LIABILITY, OR TORT (INCLUDING NEGLIGENCE OR OTHERWISE) ARISING IN ANY WAY OUT OF THE U
      +                          SE OF
   101                           ; THIS SOFTWARE, EVEN IF ADVISED OF THE POSSIBILITY OF SUCH DAMAGE.
   102                           ; 
   103                           ; 
   104                           ; Code-generator required, PIC18F4550 Definitions
   105                           ; 
   106                           ; SFR Addresses
   107  0000                     _TMR0	set	4054
   108  0000                     _TMR1	set	4046
   109  0000                     _PORTBbits	set	3969
   110  0000                     _LATBbits	set	3978
   111  0000                     _PORTCbits	set	3970
   112  0000                     _PORTAbits	set	3968
   113  0000                     _TMR0L	set	4054
   114  0000                     _TMR0H	set	4055
   115  0000                     _TMR1L	set	4046
   116  0000                     _TMR1H	set	4047
   117  0000                     _T0CONbits	set	4053
   118  0000                     _T1CONbits	set	4045
   119  0000                     _PIE1bits	set	3997
   120  0000                     _INTCON3bits	set	4080
   121  0000                     _TRISBbits	set	3987
   122  0000                     _INTCON2bits	set	4081
   123  0000                     _INTCONbits	set	4082
   124  0000                     _RCONbits	set	4048
   125  0000                     _ADRESL	set	4035
   126  0000                     _ADRESH	set	4036
   127  0000                     _ADCON2bits	set	4032
   128  0000                     _ADCON0bits	set	4034
   129  0000                     _CCPR1L	set	4030
   130  0000                     _CCP1CONbits	set	4029
   131  0000                     _TMR2	set	4044
   132  0000                     _CCPR2L	set	4027
   133  0000                     _T2CONbits	set	4042
   134  0000                     _PR2	set	4043
   135  0000                     _CCP2CONbits	set	4026
   136  0000                     _RCREG	set	4014
   137  0000                     _TXREG1	set	4013
   138  0000                     _RCREG1	set	4014
   139  0000                     _PIR1bits	set	3998
   140  0000                     _RCSTA1bits	set	4011
   141  0000                     _BAUDCONbits	set	4024
   142  0000                     _TXSTA1bits	set	4012
   143  0000                     _SPBRG	set	4015
   144  0000                     _LATEbits	set	3981
   145  0000                     _TRISEbits	set	3990
   146  0000                     _TRISAbits	set	3986
   147  0000                     _LATCbits	set	3979
   148  0000                     _LATDbits	set	3980
   149  0000                     _TRISCbits	set	3988
   150  0000                     _TRISDbits	set	3989
   151  0000                     _UCFGbits	set	3951
   152  0000                     _UCONbits	set	3949
   153  0000                     _OSCCON	set	4051
   154  0000                     _ADCON1bits	set	4033
   155  0000                     _TXEN	set	32101
   156  0000                     _FERR	set	32090
   157  0000                     _CREN	set	32092
   158  0000                     _OERR	set	32089
   159                           
   160                           	psect	mediumconst
   161  007C90                     __pmediumconst:
   162                           	opt callstack 0
   163  007C90  00                 	db	0
   164  007C91                     STR_29:
   165  007C91  45                 	db	69	;'E'
   166  007C92  73                 	db	115	;'s'
   167  007C93  63                 	db	99	;'c'
   168  007C94  72                 	db	114	;'r'
   169  007C95  69                 	db	105	;'i'
   170  007C96  62                 	db	98	;'b'
   171  007C97  65                 	db	101	;'e'
   172  007C98  20                 	db	32
   173  007C99  69                 	db	105	;'i'
   174  007C9A  6E                 	db	110	;'n'
   175  007C9B  69                 	db	105	;'i'
   176  007C9C  74                 	db	116	;'t'
   177  007C9D  20                 	db	32
   178  007C9E  70                 	db	112	;'p'
   179  007C9F  61                 	db	97	;'a'
   180  007CA0  72                 	db	114	;'r'
   181  007CA1  61                 	db	97	;'a'
   182  007CA2  20                 	db	32
   183  007CA3  63                 	db	99	;'c'
   184  007CA4  61                 	db	97	;'a'
   185  007CA5  6C                 	db	108	;'l'
   186  007CA6  69                 	db	105	;'i'
   187  007CA7  62                 	db	98	;'b'
   188  007CA8  72                 	db	114	;'r'
   189  007CA9  61                 	db	97	;'a'
   190  007CAA  72                 	db	114	;'r'
   191  007CAB  20                 	db	32
   192  007CAC  65                 	db	101	;'e'
   193  007CAD  6C                 	db	108	;'l'
   194  007CAE  20                 	db	32
   195  007CAF  53                 	db	83	;'S'
   196  007CB0  50                 	db	80	;'P'
   197  007CB1  41                 	db	65	;'A'
   198  007CB2  52                 	db	82	;'R'
   199  007CB3  43                 	db	67	;'C'
   200  007CB4  20                 	db	32
   201  007CB5  79                 	db	121	;'y'
   202  007CB6  20                 	db	32
   203  007CB7  70                 	db	112	;'p'
   204  007CB8  6F                 	db	111	;'o'
   205  007CB9  64                 	db	100	;'d'
   206  007CBA  65                 	db	101	;'e'
   207  007CBB  72                 	db	114	;'r'
   208  007CBC  20                 	db	32
   209  007CBD  61                 	db	97	;'a'
   210  007CBE  63                 	db	99	;'c'
   211  007CBF  63                 	db	99	;'c'
   212  007CC0  65                 	db	101	;'e'
   213  007CC1  64                 	db	100	;'d'
   214  007CC2  65                 	db	101	;'e'
   215  007CC3  72                 	db	114	;'r'
   216  007CC4  20                 	db	32
   217  007CC5  61                 	db	97	;'a'
   218  007CC6  6C                 	db	108	;'l'
   219  007CC7  20                 	db	32
   220  007CC8  72                 	db	114	;'r'
   221  007CC9  65                 	db	101	;'e'
   222  007CCA  73                 	db	115	;'s'
   223  007CCB  74                 	db	116	;'t'
   224  007CCC  6F                 	db	111	;'o'
   225  007CCD  20                 	db	32
   226  007CCE  64                 	db	100	;'d'
   227  007CCF  65                 	db	101	;'e'
   228  007CD0  20                 	db	32
   229  007CD1  6C                 	db	108	;'l'
   230  007CD2  61                 	db	97	;'a'
   231  007CD3  73                 	db	115	;'s'
   232  007CD4  20                 	db	32
   233  007CD5  66                 	db	102	;'f'
   234  007CD6  75                 	db	117	;'u'
   235  007CD7  6E                 	db	110	;'n'
   236  007CD8  63                 	db	99	;'c'
   237  007CD9  69                 	db	105	;'i'
   238  007CDA  6F                 	db	111	;'o'
   239  007CDB  6E                 	db	110	;'n'
   240  007CDC  65                 	db	101	;'e'
   241  007CDD  73                 	db	115	;'s'
   242  007CDE  0A                 	db	10
   243  007CDF  00                 	db	0
   244  007CE0                     STR_24:
   245  007CE0  49                 	db	73	;'I'
   246  007CE1  6E                 	db	110	;'n'
   247  007CE2  74                 	db	116	;'t'
   248  007CE3  65                 	db	101	;'e'
   249  007CE4  72                 	db	114	;'r'
   250  007CE5  72                 	db	114	;'r'
   251  007CE6  75                 	db	117	;'u'
   252  007CE7  70                 	db	112	;'p'
   253  007CE8  63                 	db	99	;'c'
   254  007CE9  69                 	db	105	;'i'
   255  007CEA  6F                 	db	111	;'o'
   256  007CEB  6E                 	db	110	;'n'
   257  007CEC  20                 	db	32
   258  007CED  54                 	db	84	;'T'
   259  007CEE  4D                 	db	77	;'M'
   260  007CEF  52                 	db	82	;'R'
   261  007CF0  31                 	db	49	;'1'
   262  007CF1  2C                 	db	44
   263  007CF2  20                 	db	32
   264  007CF3  6C                 	db	108	;'l'
   265  007CF4  6C                 	db	108	;'l'
   266  007CF5  65                 	db	101	;'e'
   267  007CF6  67                 	db	103	;'g'
   268  007CF7  61                 	db	97	;'a'
   269  007CF8  73                 	db	115	;'s'
   270  007CF9  74                 	db	116	;'t'
   271  007CFA  65                 	db	101	;'e'
   272  007CFB  20                 	db	32
   273  007CFC  61                 	db	97	;'a'
   274  007CFD  20                 	db	32
   275  007CFE  63                 	db	99	;'c'
   276  007CFF  6F                 	db	111	;'o'
   277  007D00  6F                 	db	111	;'o'
   278  007D01  72                 	db	114	;'r'
   279  007D02  64                 	db	100	;'d'
   280  007D03  65                 	db	101	;'e'
   281  007D04  6E                 	db	110	;'n'
   282  007D05  61                 	db	97	;'a'
   283  007D06  64                 	db	100	;'d'
   284  007D07  61                 	db	97	;'a'
   285  007D08  20                 	db	32
   286  007D09  64                 	db	100	;'d'
   287  007D0A  65                 	db	101	;'e'
   288  007D0B  73                 	db	115	;'s'
   289  007D0C  65                 	db	101	;'e'
   290  007D0D  61                 	db	97	;'a'
   291  007D0E  64                 	db	100	;'d'
   292  007D0F  61                 	db	97	;'a'
   293  007D10  20                 	db	32
   294  007D11  58                 	db	88	;'X'
   295  007D12  0A                 	db	10
   296  007D13  00                 	db	0
   297  007D14                     STR_22:
   298  007D14  49                 	db	73	;'I'
   299  007D15  6E                 	db	110	;'n'
   300  007D16  74                 	db	116	;'t'
   301  007D17  65                 	db	101	;'e'
   302  007D18  72                 	db	114	;'r'
   303  007D19  72                 	db	114	;'r'
   304  007D1A  75                 	db	117	;'u'
   305  007D1B  70                 	db	112	;'p'
   306  007D1C  63                 	db	99	;'c'
   307  007D1D  69                 	db	105	;'i'
   308  007D1E  6F                 	db	111	;'o'
   309  007D1F  6E                 	db	110	;'n'
   310  007D20  20                 	db	32
   311  007D21  54                 	db	84	;'T'
   312  007D22  4D                 	db	77	;'M'
   313  007D23  52                 	db	82	;'R'
   314  007D24  30                 	db	48	;'0'
   315  007D25  2C                 	db	44
   316  007D26  20                 	db	32
   317  007D27  6C                 	db	108	;'l'
   318  007D28  6C                 	db	108	;'l'
   319  007D29  65                 	db	101	;'e'
   320  007D2A  67                 	db	103	;'g'
   321  007D2B  61                 	db	97	;'a'
   322  007D2C  73                 	db	115	;'s'
   323  007D2D  74                 	db	116	;'t'
   324  007D2E  65                 	db	101	;'e'
   325  007D2F  20                 	db	32
   326  007D30  61                 	db	97	;'a'
   327  007D31  20                 	db	32
   328  007D32  63                 	db	99	;'c'
   329  007D33  6F                 	db	111	;'o'
   330  007D34  6F                 	db	111	;'o'
   331  007D35  72                 	db	114	;'r'
   332  007D36  64                 	db	100	;'d'
   333  007D37  65                 	db	101	;'e'
   334  007D38  6E                 	db	110	;'n'
   335  007D39  61                 	db	97	;'a'
   336  007D3A  64                 	db	100	;'d'
   337  007D3B  61                 	db	97	;'a'
   338  007D3C  20                 	db	32
   339  007D3D  64                 	db	100	;'d'
   340  007D3E  65                 	db	101	;'e'
   341  007D3F  73                 	db	115	;'s'
   342  007D40  65                 	db	101	;'e'
   343  007D41  61                 	db	97	;'a'
   344  007D42  64                 	db	100	;'d'
   345  007D43  61                 	db	97	;'a'
   346  007D44  20                 	db	32
   347  007D45  59                 	db	89	;'Y'
   348  007D46  0A                 	db	10
   349  007D47  00                 	db	0
   350  007D48                     STR_3:
   351  007D48  4D                 	db	77	;'M'
   352  007D49  65                 	db	101	;'e'
   353  007D4A  74                 	db	116	;'t'
   354  007D4B  69                 	db	105	;'i'
   355  007D4C  73                 	db	115	;'s'
   356  007D4D  74                 	db	116	;'t'
   357  007D4E  65                 	db	101	;'e'
   358  007D4F  20                 	db	32
   359  007D50  75                 	db	117	;'u'
   360  007D51  6E                 	db	110	;'n'
   361  007D52  61                 	db	97	;'a'
   362  007D53  20                 	db	32
   363  007D54  63                 	db	99	;'c'
   364  007D55  6F                 	db	111	;'o'
   365  007D56  6F                 	db	111	;'o'
   366  007D57  72                 	db	114	;'r'
   367  007D58  64                 	db	100	;'d'
   368  007D59  65                 	db	101	;'e'
   369  007D5A  6E                 	db	110	;'n'
   370  007D5B  61                 	db	97	;'a'
   371  007D5C  64                 	db	100	;'d'
   372  007D5D  61                 	db	97	;'a'
   373  007D5E  20                 	db	32
   374  007D5F  69                 	db	105	;'i'
   375  007D60  6E                 	db	110	;'n'
   376  007D61  76                 	db	118	;'v'
   377  007D62  61                 	db	97	;'a'
   378  007D63  6C                 	db	108	;'l'
   379  007D64  69                 	db	105	;'i'
   380  007D65  64                 	db	100	;'d'
   381  007D66  61                 	db	97	;'a'
   382  007D67  2C                 	db	44
   383  007D68  20                 	db	32
   384  007D69  76                 	db	118	;'v'
   385  007D6A  75                 	db	117	;'u'
   386  007D6B  65                 	db	101	;'e'
   387  007D6C  6C                 	db	108	;'l'
   388  007D6D  76                 	db	118	;'v'
   389  007D6E  65                 	db	101	;'e'
   390  007D6F  20                 	db	32
   391  007D70  61                 	db	97	;'a'
   392  007D71  20                 	db	32
   393  007D72  69                 	db	105	;'i'
   394  007D73  6E                 	db	110	;'n'
   395  007D74  74                 	db	116	;'t'
   396  007D75  65                 	db	101	;'e'
   397  007D76  6E                 	db	110	;'n'
   398  007D77  74                 	db	116	;'t'
   399  007D78  61                 	db	97	;'a'
   400  007D79  72                 	db	114	;'r'
   401  007D7A  0A                 	db	10
   402  007D7B  00                 	db	0
   403  007D7C                     STR_37:
   404  007D7C  50                 	db	80	;'P'
   405  007D7D  72                 	db	114	;'r'
   406  007D7E  65                 	db	101	;'e'
   407  007D7F  73                 	db	115	;'s'
   408  007D80  69                 	db	105	;'i'
   409  007D81  6F                 	db	111	;'o'
   410  007D82  6E                 	db	110	;'n'
   411  007D83  61                 	db	97	;'a'
   412  007D84  72                 	db	114	;'r'
   413  007D85  20                 	db	32
   414  007D86  5A                 	db	90	;'Z'
   415  007D87  20                 	db	32
   416  007D88  63                 	db	99	;'c'
   417  007D89  69                 	db	105	;'i'
   418  007D8A  65                 	db	101	;'e'
   419  007D8B  72                 	db	114	;'r'
   420  007D8C  74                 	db	116	;'t'
   421  007D8D  6F                 	db	111	;'o'
   422  007D8E  20                 	db	32
   423  007D8F  6E                 	db	110	;'n'
   424  007D90  75                 	db	117	;'u'
   425  007D91  6D                 	db	109	;'m'
   426  007D92  65                 	db	101	;'e'
   427  007D93  72                 	db	114	;'r'
   428  007D94  6F                 	db	111	;'o'
   429  007D95  20                 	db	32
   430  007D96  64                 	db	100	;'d'
   431  007D97  65                 	db	101	;'e'
   432  007D98  20                 	db	32
   433  007D99  76                 	db	118	;'v'
   434  007D9A  65                 	db	101	;'e'
   435  007D9B  63                 	db	99	;'c'
   436  007D9C  65                 	db	101	;'e'
   437  007D9D  73                 	db	115	;'s'
   438  007D9E  20                 	db	32
   439  007D9F  72                 	db	114	;'r'
   440  007DA0  65                 	db	101	;'e'
   441  007DA1  63                 	db	99	;'c'
   442  007DA2  69                 	db	105	;'i'
   443  007DA3  62                 	db	98	;'b'
   444  007DA4  69                 	db	105	;'i'
   445  007DA5  64                 	db	100	;'d'
   446  007DA6  61                 	db	97	;'a'
   447  007DA7  73                 	db	115	;'s'
   448  007DA8  0A                 	db	10
   449  007DA9  00                 	db	0
   450  007DAA                     STR_26:
   451  007DAA  4F                 	db	79	;'O'
   452  007DAB  63                 	db	99	;'c'
   453  007DAC  75                 	db	117	;'u'
   454  007DAD  72                 	db	114	;'r'
   455  007DAE  72                 	db	114	;'r'
   456  007DAF  69                 	db	105	;'i'
   457  007DB0  6F                 	db	111	;'o'
   458  007DB1  20                 	db	32
   459  007DB2  6C                 	db	108	;'l'
   460  007DB3  61                 	db	97	;'a'
   461  007DB4  20                 	db	32
   462  007DB5  69                 	db	105	;'i'
   463  007DB6  6E                 	db	110	;'n'
   464  007DB7  74                 	db	116	;'t'
   465  007DB8  65                 	db	101	;'e'
   466  007DB9  72                 	db	114	;'r'
   467  007DBA  72                 	db	114	;'r'
   468  007DBB  75                 	db	117	;'u'
   469  007DBC  70                 	db	112	;'p'
   470  007DBD  63                 	db	99	;'c'
   471  007DBE  69                 	db	105	;'i'
   472  007DBF  6F                 	db	111	;'o'
   473  007DC0  6E                 	db	110	;'n'
   474  007DC1  20                 	db	32
   475  007DC2  6C                 	db	108	;'l'
   476  007DC3  69                 	db	105	;'i'
   477  007DC4  6D                 	db	109	;'m'
   478  007DC5  69                 	db	105	;'i'
   479  007DC6  74                 	db	116	;'t'
   480  007DC7  53                 	db	83	;'S'
   481  007DC8  77                 	db	119	;'w'
   482  007DC9  69                 	db	105	;'i'
   483  007DCA  74                 	db	116	;'t'
   484  007DCB  63                 	db	99	;'c'
   485  007DCC  68                 	db	104	;'h'
   486  007DCD  33                 	db	51	;'3'
   487  007DCE  45                 	db	69	;'E'
   488  007DCF  73                 	db	115	;'s'
   489  007DD0  71                 	db	113	;'q'
   490  007DD1  75                 	db	117	;'u'
   491  007DD2  69                 	db	105	;'i'
   492  007DD3  6E                 	db	110	;'n'
   493  007DD4  61                 	db	97	;'a'
   494  007DD5  73                 	db	115	;'s'
   495  007DD6  0A                 	db	10
   496  007DD7  00                 	db	0
   497  007DD8                     STR_5:
   498  007DD8  43                 	db	67	;'C'
   499  007DD9  6F                 	db	111	;'o'
   500  007DDA  6F                 	db	111	;'o'
   501  007DDB  72                 	db	114	;'r'
   502  007DDC  64                 	db	100	;'d'
   503  007DDD  65                 	db	101	;'e'
   504  007DDE  6E                 	db	110	;'n'
   505  007DDF  61                 	db	97	;'a'
   506  007DE0  64                 	db	100	;'d'
   507  007DE1  61                 	db	97	;'a'
   508  007DE2  20                 	db	32
   509  007DE3  72                 	db	114	;'r'
   510  007DE4  65                 	db	101	;'e'
   511  007DE5  63                 	db	99	;'c'
   512  007DE6  69                 	db	105	;'i'
   513  007DE7  62                 	db	98	;'b'
   514  007DE8  69                 	db	105	;'i'
   515  007DE9  64                 	db	100	;'d'
   516  007DEA  61                 	db	97	;'a'
   517  007DEB  2C                 	db	44
   518  007DEC  20                 	db	32
   519  007DED  6C                 	db	108	;'l'
   520  007DEE  6F                 	db	111	;'o'
   521  007DEF  20                 	db	32
   522  007DF0  71                 	db	113	;'q'
   523  007DF1  75                 	db	117	;'u'
   524  007DF2  65                 	db	101	;'e'
   525  007DF3  20                 	db	32
   526  007DF4  72                 	db	114	;'r'
   527  007DF5  65                 	db	101	;'e'
   528  007DF6  63                 	db	99	;'c'
   529  007DF7  69                 	db	105	;'i'
   530  007DF8  62                 	db	98	;'b'
   531  007DF9  69                 	db	105	;'i'
   532  007DFA  6D                 	db	109	;'m'
   533  007DFB  6F                 	db	111	;'o'
   534  007DFC  73                 	db	115	;'s'
   535  007DFD  20                 	db	32
   536  007DFE  66                 	db	102	;'f'
   537  007DFF  75                 	db	117	;'u'
   538  007E00  65                 	db	101	;'e'
   539  007E01  3A                 	db	58	;':'
   540  007E02  00                 	db	0
   541  007E03                     STR_27:
   542  007E03  4F                 	db	79	;'O'
   543  007E04  63                 	db	99	;'c'
   544  007E05  75                 	db	117	;'u'
   545  007E06  72                 	db	114	;'r'
   546  007E07  72                 	db	114	;'r'
   547  007E08  69                 	db	105	;'i'
   548  007E09  6F                 	db	111	;'o'
   549  007E0A  20                 	db	32
   550  007E0B  6C                 	db	108	;'l'
   551  007E0C  61                 	db	97	;'a'
   552  007E0D  20                 	db	32
   553  007E0E  69                 	db	105	;'i'
   554  007E0F  6E                 	db	110	;'n'
   555  007E10  74                 	db	116	;'t'
   556  007E11  65                 	db	101	;'e'
   557  007E12  72                 	db	114	;'r'
   558  007E13  72                 	db	114	;'r'
   559  007E14  75                 	db	117	;'u'
   560  007E15  70                 	db	112	;'p'
   561  007E16  63                 	db	99	;'c'
   562  007E17  69                 	db	105	;'i'
   563  007E18  6F                 	db	111	;'o'
   564  007E19  6E                 	db	110	;'n'
   565  007E1A  20                 	db	32
   566  007E1B  6C                 	db	108	;'l'
   567  007E1C  69                 	db	105	;'i'
   568  007E1D  6D                 	db	109	;'m'
   569  007E1E  69                 	db	105	;'i'
   570  007E1F  74                 	db	116	;'t'
   571  007E20  53                 	db	83	;'S'
   572  007E21  77                 	db	119	;'w'
   573  007E22  69                 	db	105	;'i'
   574  007E23  74                 	db	116	;'t'
   575  007E24  63                 	db	99	;'c'
   576  007E25  68                 	db	104	;'h'
   577  007E26  48                 	db	72	;'H'
   578  007E27  6F                 	db	111	;'o'
   579  007E28  6D                 	db	109	;'m'
   580  007E29  65                 	db	101	;'e'
   581  007E2A  58                 	db	88	;'X'
   582  007E2B  0A                 	db	10
   583  007E2C  00                 	db	0
   584  007E2D                     STR_28:
   585  007E2D  4F                 	db	79	;'O'
   586  007E2E  63                 	db	99	;'c'
   587  007E2F  75                 	db	117	;'u'
   588  007E30  72                 	db	114	;'r'
   589  007E31  72                 	db	114	;'r'
   590  007E32  69                 	db	105	;'i'
   591  007E33  6F                 	db	111	;'o'
   592  007E34  20                 	db	32
   593  007E35  6C                 	db	108	;'l'
   594  007E36  61                 	db	97	;'a'
   595  007E37  20                 	db	32
   596  007E38  69                 	db	105	;'i'
   597  007E39  6E                 	db	110	;'n'
   598  007E3A  74                 	db	116	;'t'
   599  007E3B  65                 	db	101	;'e'
   600  007E3C  72                 	db	114	;'r'
   601  007E3D  72                 	db	114	;'r'
   602  007E3E  75                 	db	117	;'u'
   603  007E3F  70                 	db	112	;'p'
   604  007E40  63                 	db	99	;'c'
   605  007E41  69                 	db	105	;'i'
   606  007E42  6F                 	db	111	;'o'
   607  007E43  6E                 	db	110	;'n'
   608  007E44  20                 	db	32
   609  007E45  6C                 	db	108	;'l'
   610  007E46  69                 	db	105	;'i'
   611  007E47  6D                 	db	109	;'m'
   612  007E48  69                 	db	105	;'i'
   613  007E49  74                 	db	116	;'t'
   614  007E4A  53                 	db	83	;'S'
   615  007E4B  77                 	db	119	;'w'
   616  007E4C  69                 	db	105	;'i'
   617  007E4D  74                 	db	116	;'t'
   618  007E4E  63                 	db	99	;'c'
   619  007E4F  68                 	db	104	;'h'
   620  007E50  48                 	db	72	;'H'
   621  007E51  6F                 	db	111	;'o'
   622  007E52  6D                 	db	109	;'m'
   623  007E53  65                 	db	101	;'e'
   624  007E54  59                 	db	89	;'Y'
   625  007E55  0A                 	db	10
   626  007E56  00                 	db	0
   627  007E57                     STR_39:
   628  007E57  50                 	db	80	;'P'
   629  007E58  69                 	db	105	;'i'
   630  007E59  73                 	db	115	;'s'
   631  007E5A  74                 	db	116	;'t'
   632  007E5B  6F                 	db	111	;'o'
   633  007E5C  6E                 	db	110	;'n'
   634  007E5D  20                 	db	32
   635  007E5E  70                 	db	112	;'p'
   636  007E5F  61                 	db	97	;'a'
   637  007E60  72                 	db	114	;'r'
   638  007E61  61                 	db	97	;'a'
   639  007E62  20                 	db	32
   640  007E63  64                 	db	100	;'d'
   641  007E64  65                 	db	101	;'e'
   642  007E65  73                 	db	115	;'s'
   643  007E66  6C                 	db	108	;'l'
   644  007E67  69                 	db	105	;'i'
   645  007E68  7A                 	db	122	;'z'
   646  007E69  61                 	db	97	;'a'
   647  007E6A  72                 	db	114	;'r'
   648  007E6B  20                 	db	32
   649  007E6C  6F                 	db	111	;'o'
   650  007E6D  20                 	db	32
   651  007E6E  64                 	db	100	;'d'
   652  007E6F  65                 	db	101	;'e'
   653  007E70  6A                 	db	106	;'j'
   654  007E71  61                 	db	97	;'a'
   655  007E72  72                 	db	114	;'r'
   656  007E73  20                 	db	32
   657  007E74  72                 	db	114	;'r'
   658  007E75  65                 	db	101	;'e'
   659  007E76  74                 	db	116	;'t'
   660  007E77  72                 	db	114	;'r'
   661  007E78  61                 	db	97	;'a'
   662  007E79  69                 	db	105	;'i'
   663  007E7A  64                 	db	100	;'d'
   664  007E7B  6F                 	db	111	;'o'
   665  007E7C  3F                 	db	63	;'?'
   666  007E7D  0A                 	db	10
   667  007E7E  00                 	db	0
   668  007E7F                     STR_33:
   669  007E7F  49                 	db	73	;'I'
   670  007E80  6E                 	db	110	;'n'
   671  007E81  74                 	db	116	;'t'
   672  007E82  33                 	db	51	;'3'
   673  007E83  20                 	db	32
   674  007E84  45                 	db	69	;'E'
   675  007E85  73                 	db	115	;'s'
   676  007E86  71                 	db	113	;'q'
   677  007E87  75                 	db	117	;'u'
   678  007E88  69                 	db	105	;'i'
   679  007E89  6E                 	db	110	;'n'
   680  007E8A  61                 	db	97	;'a'
   681  007E8B  73                 	db	115	;'s'
   682  007E8C  2C                 	db	44
   683  007E8D  20                 	db	32
   684  007E8E  72                 	db	114	;'r'
   685  007E8F  65                 	db	101	;'e'
   686  007E90  63                 	db	99	;'c'
   687  007E91  61                 	db	97	;'a'
   688  007E92  6C                 	db	108	;'l'
   689  007E93  69                 	db	105	;'i'
   690  007E94  62                 	db	98	;'b'
   691  007E95  72                 	db	114	;'r'
   692  007E96  61                 	db	97	;'a'
   693  007E97  6E                 	db	110	;'n'
   694  007E98  64                 	db	100	;'d'
   695  007E99  6F                 	db	111	;'o'
   696  007E9A  20                 	db	32
   697  007E9B  53                 	db	83	;'S'
   698  007E9C  50                 	db	80	;'P'
   699  007E9D  41                 	db	65	;'A'
   700  007E9E  52                 	db	82	;'R'
   701  007E9F  43                 	db	67	;'C'
   702  007EA0  0A                 	db	10
   703  007EA1  00                 	db	0
   704  007EA2                     STR_35:
   705  007EA2  56                 	db	86	;'V'
   706  007EA3  61                 	db	97	;'a'
   707  007EA4  73                 	db	115	;'s'
   708  007EA5  20                 	db	32
   709  007EA6  61                 	db	97	;'a'
   710  007EA7  20                 	db	32
   711  007EA8  6D                 	db	109	;'m'
   712  007EA9  6F                 	db	111	;'o'
   713  007EAA  76                 	db	118	;'v'
   714  007EAB  65                 	db	101	;'e'
   715  007EAC  72                 	db	114	;'r'
   716  007EAD  20                 	db	32
   717  007EAE  65                 	db	101	;'e'
   718  007EAF  6C                 	db	108	;'l'
   719  007EB0  20                 	db	32
   720  007EB1  53                 	db	83	;'S'
   721  007EB2  70                 	db	112	;'p'
   722  007EB3  61                 	db	97	;'a'
   723  007EB4  72                 	db	114	;'r'
   724  007EB5  63                 	db	99	;'c'
   725  007EB6  20                 	db	32
   726  007EB7  65                 	db	101	;'e'
   727  007EB8  6E                 	db	110	;'n'
   728  007EB9  20                 	db	32
   729  007EBA  58                 	db	88	;'X'
   730  007EBB  20                 	db	32
   731  007EBC  79                 	db	121	;'y'
   732  007EBD  20                 	db	32
   733  007EBE  59                 	db	89	;'Y'
   734  007EBF  0A                 	db	10
   735  007EC0  00                 	db	0
   736  007EC1                     STR_44:
   737  007EC1  49                 	db	73	;'I'
   738  007EC2  6D                 	db	109	;'m'
   739  007EC3  70                 	db	112	;'p'
   740  007EC4  72                 	db	114	;'r'
   741  007EC5  6D                 	db	109	;'m'
   742  007EC6  69                 	db	105	;'i'
   743  007EC7  72                 	db	114	;'r'
   744  007EC8  20                 	db	32
   745  007EC9  63                 	db	99	;'c'
   746  007ECA  6F                 	db	111	;'o'
   747  007ECB  6F                 	db	111	;'o'
   748  007ECC  72                 	db	114	;'r'
   749  007ECD  64                 	db	100	;'d'
   750  007ECE  65                 	db	101	;'e'
   751  007ECF  6E                 	db	110	;'n'
   752  007ED0  61                 	db	97	;'a'
   753  007ED1  64                 	db	100	;'d'
   754  007ED2  61                 	db	97	;'a'
   755  007ED3  20                 	db	32
   756  007ED4  61                 	db	97	;'a'
   757  007ED5  63                 	db	99	;'c'
   758  007ED6  74                 	db	116	;'t'
   759  007ED7  75                 	db	117	;'u'
   760  007ED8  61                 	db	97	;'a'
   761  007ED9  6C                 	db	108	;'l'
   762  007EDA  20                 	db	32
   763  007EDB  0A                 	db	10
   764  007EDC  00                 	db	0
   765  007EDD                     STR_32:
   766  007EDD  59                 	db	89	;'Y'
   767  007EDE  61                 	db	97	;'a'
   768  007EDF  20                 	db	32
   769  007EE0  65                 	db	101	;'e'
   770  007EE1  73                 	db	115	;'s'
   771  007EE2  74                 	db	116	;'t'
   772  007EE3  61                 	db	97	;'a'
   773  007EE4  20                 	db	32
   774  007EE5  63                 	db	99	;'c'
   775  007EE6  61                 	db	97	;'a'
   776  007EE7  6C                 	db	108	;'l'
   777  007EE8  69                 	db	105	;'i'
   778  007EE9  62                 	db	98	;'b'
   779  007EEA  72                 	db	114	;'r'
   780  007EEB  61                 	db	97	;'a'
   781  007EEC  64                 	db	100	;'d'
   782  007EED  6F                 	db	111	;'o'
   783  007EEE  20                 	db	32
   784  007EEF  65                 	db	101	;'e'
   785  007EF0  6C                 	db	108	;'l'
   786  007EF1  20                 	db	32
   787  007EF2  53                 	db	83	;'S'
   788  007EF3  50                 	db	80	;'P'
   789  007EF4  41                 	db	65	;'A'
   790  007EF5  52                 	db	82	;'R'
   791  007EF6  43                 	db	67	;'C'
   792  007EF7  0A                 	db	10
   793  007EF8  00                 	db	0
   794  007EF9                     STR_41:
   795  007EF9  56                 	db	86	;'V'
   796  007EFA  61                 	db	97	;'a'
   797  007EFB  73                 	db	115	;'s'
   798  007EFC  20                 	db	32
   799  007EFD  61                 	db	97	;'a'
   800  007EFE  20                 	db	32
   801  007EFF  69                 	db	105	;'i'
   802  007F00  72                 	db	114	;'r'
   803  007F01  20                 	db	32
   804  007F02  61                 	db	97	;'a'
   805  007F03  20                 	db	32
   806  007F04  68                 	db	104	;'h'
   807  007F05  6F                 	db	111	;'o'
   808  007F06  6D                 	db	109	;'m'
   809  007F07  65                 	db	101	;'e'
   810  007F08  58                 	db	88	;'X'
   811  007F09  20                 	db	32
   812  007F0A  79                 	db	121	;'y'
   813  007F0B  20                 	db	32
   814  007F0C  68                 	db	104	;'h'
   815  007F0D  6F                 	db	111	;'o'
   816  007F0E  6D                 	db	109	;'m'
   817  007F0F  65                 	db	101	;'e'
   818  007F10  20                 	db	32
   819  007F11  59                 	db	89	;'Y'
   820  007F12  0A                 	db	10
   821  007F13  00                 	db	0
   822  007F14                     STR_47:
   823  007F14  45                 	db	69	;'E'
   824  007F15  6E                 	db	110	;'n'
   825  007F16  74                 	db	116	;'t'
   826  007F17  72                 	db	114	;'r'
   827  007F18  61                 	db	97	;'a'
   828  007F19  73                 	db	115	;'s'
   829  007F1A  74                 	db	116	;'t'
   830  007F1B  65                 	db	101	;'e'
   831  007F1C  20                 	db	32
   832  007F1D  61                 	db	97	;'a'
   833  007F1E  20                 	db	32
   834  007F1F  6D                 	db	109	;'m'
   835  007F20  6F                 	db	111	;'o'
   836  007F21  76                 	db	118	;'v'
   837  007F22  65                 	db	101	;'e'
   838  007F23  72                 	db	114	;'r'
   839  007F24  20                 	db	32
   840  007F25  6C                 	db	108	;'l'
   841  007F26  61                 	db	97	;'a'
   842  007F27  20                 	db	32
   843  007F28  62                 	db	98	;'b'
   844  007F29  61                 	db	97	;'a'
   845  007F2A  73                 	db	115	;'s'
   846  007F2B  65                 	db	101	;'e'
   847  007F2C  0A                 	db	10
   848  007F2D  00                 	db	0
   849  007F2E                     STR_30:
   850  007F2E  49                 	db	73	;'I'
   851  007F2F  6E                 	db	110	;'n'
   852  007F30  69                 	db	105	;'i'
   853  007F31  63                 	db	99	;'c'
   854  007F32  69                 	db	105	;'i'
   855  007F33  61                 	db	97	;'a'
   856  007F34  6C                 	db	108	;'l'
   857  007F35  69                 	db	105	;'i'
   858  007F36  7A                 	db	122	;'z'
   859  007F37  61                 	db	97	;'a'
   860  007F38  6E                 	db	110	;'n'
   861  007F39  64                 	db	100	;'d'
   862  007F3A  6F                 	db	111	;'o'
   863  007F3B  2E                 	db	46
   864  007F3C  2E                 	db	46
   865  007F3D  2E                 	db	46
   866  007F3E  0A                 	db	10
   867  007F3F  00                 	db	0
   868  007F40                     STR_20:
   869  007F40  78                 	db	120	;'x'
   870  007F41  54                 	db	84	;'T'
   871  007F42  6F                 	db	111	;'o'
   872  007F43  41                 	db	65	;'A'
   873  007F44  64                 	db	100	;'d'
   874  007F45  76                 	db	118	;'v'
   875  007F46  61                 	db	97	;'a'
   876  007F47  6E                 	db	110	;'n'
   877  007F48  63                 	db	99	;'c'
   878  007F49  65                 	db	101	;'e'
   879  007F4A  20                 	db	32
   880  007F4B  69                 	db	105	;'i'
   881  007F4C  73                 	db	115	;'s'
   882  007F4D  3A                 	db	58	;':'
   883  007F4E  20                 	db	32
   884  007F4F  00                 	db	0
   885  007F50                     STR_18:
   886  007F50  79                 	db	121	;'y'
   887  007F51  54                 	db	84	;'T'
   888  007F52  6F                 	db	111	;'o'
   889  007F53  41                 	db	65	;'A'
   890  007F54  64                 	db	100	;'d'
   891  007F55  76                 	db	118	;'v'
   892  007F56  61                 	db	97	;'a'
   893  007F57  6E                 	db	110	;'n'
   894  007F58  63                 	db	99	;'c'
   895  007F59  65                 	db	101	;'e'
   896  007F5A  20                 	db	32
   897  007F5B  69                 	db	105	;'i'
   898  007F5C  73                 	db	115	;'s'
   899  007F5D  3A                 	db	58	;':'
   900  007F5E  20                 	db	32
   901  007F5F  00                 	db	0
   902  007F60                     STR_7:
   903  007F60  54                 	db	84	;'T'
   904  007F61  6F                 	db	111	;'o'
   905  007F62  63                 	db	99	;'c'
   906  007F63  61                 	db	97	;'a'
   907  007F64  72                 	db	114	;'r'
   908  007F65  50                 	db	80	;'P'
   909  007F66  61                 	db	97	;'a'
   910  007F67  6E                 	db	110	;'n'
   911  007F68  74                 	db	116	;'t'
   912  007F69  61                 	db	97	;'a'
   913  007F6A  6C                 	db	108	;'l'
   914  007F6B  6C                 	db	108	;'l'
   915  007F6C  61                 	db	97	;'a'
   916  007F6D  3A                 	db	58	;':'
   917  007F6E  0A                 	db	10
   918  007F6F  00                 	db	0
   919  007F70                     STR_21:
   920  007F70  45                 	db	69	;'E'
   921  007F71  2C                 	db	44
   922  007F72  63                 	db	99	;'c'
   923  007F73  6F                 	db	111	;'o'
   924  007F74  6F                 	db	111	;'o'
   925  007F75  72                 	db	114	;'r'
   926  007F76  41                 	db	65	;'A'
   927  007F77  63                 	db	99	;'c'
   928  007F78  58                 	db	88	;'X'
   929  007F79  0A                 	db	10
   930  007F7A  00                 	db	0
   931  007F7B                     STR_19:
   932  007F7B  45                 	db	69	;'E'
   933  007F7C  2C                 	db	44
   934  007F7D  63                 	db	99	;'c'
   935  007F7E  6F                 	db	111	;'o'
   936  007F7F  6F                 	db	111	;'o'
   937  007F80  72                 	db	114	;'r'
   938  007F81  41                 	db	65	;'A'
   939  007F82  63                 	db	99	;'c'
   940  007F83  59                 	db	89	;'Y'
   941  007F84  0A                 	db	10
   942  007F85  00                 	db	0
   943  007F86                     STR_16:
   944  007F86  4D                 	db	77	;'M'
   945  007F87  6F                 	db	111	;'o'
   946  007F88  76                 	db	118	;'v'
   947  007F89  41                 	db	65	;'A'
   948  007F8A  72                 	db	114	;'r'
   949  007F8B  72                 	db	114	;'r'
   950  007F8C  69                 	db	105	;'i'
   951  007F8D  62                 	db	98	;'b'
   952  007F8E  61                 	db	97	;'a'
   953  007F8F  0A                 	db	10
   954  007F90  00                 	db	0
   955  007F91                     STR_15:
   956  007F91  0A                 	db	10
   957  007F92  53                 	db	83	;'S'
   958  007F93  61                 	db	97	;'a'
   959  007F94  6C                 	db	108	;'l'
   960  007F95  69                 	db	105	;'i'
   961  007F96  65                 	db	101	;'e'
   962  007F97  6E                 	db	110	;'n'
   963  007F98  64                 	db	100	;'d'
   964  007F99  6F                 	db	111	;'o'
   965  007F9A  0A                 	db	10
   966  007F9B  00                 	db	0
   967  007F9C                     STR_25:
   968  007F9C  4F                 	db	79	;'O'
   969  007F9D  6B                 	db	107	;'k'
   970  007F9E  2C                 	db	44
   971  007F9F  63                 	db	99	;'c'
   972  007FA0  6F                 	db	111	;'o'
   973  007FA1  6F                 	db	111	;'o'
   974  007FA2  72                 	db	114	;'r'
   975  007FA3  58                 	db	88	;'X'
   976  007FA4  0A                 	db	10
   977  007FA5  00                 	db	0
   978  007FA6                     STR_23:
   979  007FA6  4F                 	db	79	;'O'
   980  007FA7  6B                 	db	107	;'k'
   981  007FA8  2C                 	db	44
   982  007FA9  63                 	db	99	;'c'
   983  007FAA  6F                 	db	111	;'o'
   984  007FAB  6F                 	db	111	;'o'
   985  007FAC  72                 	db	114	;'r'
   986  007FAD  59                 	db	89	;'Y'
   987  007FAE  0A                 	db	10
   988  007FAF  00                 	db	0
   989  007FB0                     STR_17:
   990  007FB0  4D                 	db	77	;'M'
   991  007FB1  6F                 	db	111	;'o'
   992  007FB2  76                 	db	118	;'v'
   993  007FB3  41                 	db	65	;'A'
   994  007FB4  42                 	db	66	;'B'
   995  007FB5  61                 	db	97	;'a'
   996  007FB6  6A                 	db	106	;'j'
   997  007FB7  6F                 	db	111	;'o'
   998  007FB8  0A                 	db	10
   999  007FB9  00                 	db	0
  1000  007FBA                     STR_34:
  1001  007FBA  4F                 	db	79	;'O'
  1002  007FBB  6B                 	db	107	;'k'
  1003  007FBC  2C                 	db	44
  1004  007FBD  63                 	db	99	;'c'
  1005  007FBE  6F                 	db	111	;'o'
  1006  007FBF  6D                 	db	109	;'m'
  1007  007FC0  4E                 	db	78	;'N'
  1008  007FC1  0A                 	db	10
  1009  007FC2  00                 	db	0
  1010  007FC3                     STR_31:
  1011  007FC3  53                 	db	83	;'S'
  1012  007FC4  41                 	db	65	;'A'
  1013  007FC5  43                 	db	67	;'C'
  1014  007FC6  41                 	db	65	;'A'
  1015  007FC7  4E                 	db	78	;'N'
  1016  007FC8  44                 	db	68	;'D'
  1017  007FC9  4F                 	db	79	;'O'
  1018  007FCA  0A                 	db	10
  1019  007FCB  00                 	db	0
  1020  007FCC                     STR_36:
  1021  007FCC  4F                 	db	79	;'O'
  1022  007FCD  6B                 	db	107	;'k'
  1023  007FCE  2C                 	db	44
  1024  007FCF  63                 	db	99	;'c'
  1025  007FD0  6F                 	db	111	;'o'
  1026  007FD1  6D                 	db	109	;'m'
  1027  007FD2  56                 	db	86	;'V'
  1028  007FD3  0A                 	db	10
  1029  007FD4  00                 	db	0
  1030  007FD5                     STR_6:
  1031  007FD5  4F                 	db	79	;'O'
  1032  007FD6  6B                 	db	107	;'k'
  1033  007FD7  2C                 	db	44
  1034  007FD8  63                 	db	99	;'c'
  1035  007FD9  6F                 	db	111	;'o'
  1036  007FDA  6D                 	db	109	;'m'
  1037  007FDB  46                 	db	70	;'F'
  1038  007FDC  0A                 	db	10
  1039  007FDD  00                 	db	0
  1040  007FDE                     STR_4:
  1041  007FDE  45                 	db	69	;'E'
  1042  007FDF  2C                 	db	44
  1043  007FE0  63                 	db	99	;'c'
  1044  007FE1  4E                 	db	78	;'N'
  1045  007FE2  6F                 	db	111	;'o'
  1046  007FE3  56                 	db	86	;'V'
  1047  007FE4  0A                 	db	10
  1048  007FE5  00                 	db	0
  1049  007FE6                     STR_50:
  1050  007FE6  45                 	db	69	;'E'
  1051  007FE7  2C                 	db	44
  1052  007FE8  63                 	db	99	;'c'
  1053  007FE9  6F                 	db	111	;'o'
  1054  007FEA  6D                 	db	109	;'m'
  1055  007FEB  0A                 	db	10
  1056  007FEC  00                 	db	0
  1057  007FED                     STR_14:
  1058  007FED  20                 	db	32
  1059  007FEE  2C                 	db	44
  1060  007FEF  59                 	db	89	;'Y'
  1061  007FF0  3A                 	db	58	;':'
  1062  007FF1  20                 	db	32
  1063  007FF2  00                 	db	0
  1064  007FF3                     STR_1:
  1065  007FF3  58                 	db	88	;'X'
  1066  007FF4  3A                 	db	58	;':'
  1067  007FF5  0A                 	db	10
  1068  007FF6  00                 	db	0
  1069  007FF7                     STR_2:
  1070  007FF7  59                 	db	89	;'Y'
  1071  007FF8  3A                 	db	58	;':'
  1072  007FF9  0A                 	db	10
  1073  007FFA  00                 	db	0
  1074  007FFB                     STR_13:
  1075  007FFB  58                 	db	88	;'X'
  1076  007FFC  3A                 	db	58	;':'
  1077  007FFD  20                 	db	32
  1078  007FFE  00                 	db	0
  1079  0000                     
  1080                           ; #config settings
  1081  007FFF  00                 	db	0	; dummy byte at the end
  1082  0000                     
  1083                           	psect	cinit
  1084  00291C                     __pcinit:
  1085                           	opt callstack 0
  1086  00291C                     start_initialization:
  1087                           	opt callstack 0
  1088  00291C                     __initialization:
  1089                           	opt callstack 0
  1090                           
  1091                           ; Clear objects allocated to BANK0 (28 bytes)
  1092  00291C  EE00  F0C9         	lfsr	0,__pbssBANK0
  1093  002920  0E1C               	movlw	28
  1094  002922                     clear_0:
  1095  002922  6AEE               	clrf	postinc0,c
  1096  002924  06E8               	decf	wreg,f,c
  1097  002926  E1FD               	bnz	clear_0
  1098                           
  1099                           ; Clear objects allocated to COMRAM (4 bytes)
  1100  002928  6A45               	clrf	(__pbssCOMRAM+3)& (0+255),c
  1101  00292A  6A44               	clrf	(__pbssCOMRAM+2)& (0+255),c
  1102  00292C  6A43               	clrf	(__pbssCOMRAM+1)& (0+255),c
  1103  00292E  6A42               	clrf	__pbssCOMRAM& (0+255),c
  1104  002930                     end_of_initialization:
  1105                           	opt callstack 0
  1106  002930                     __end_of__initialization:
  1107                           	opt callstack 0
  1108  002930  9046               	bcf	int$flags,0,c	;clear compiler interrupt flag (level 1)
  1109  002932  9246               	bcf	int$flags,1,c	;clear compiler interrupt flag (level 2)
  1110  002934  0E00               	movlw	low (__Lmediumconst shr (0+16))
  1111  002936  6EF8               	movwf	tblptru,c
  1112  002938  0100               	movlb	0
  1113  00293A  EF16  F000         	goto	_main	;jump to C main() function
  1114                           
  1115                           	psect	bssCOMRAM
  1116  000042                     __pbssCOMRAM:
  1117                           	opt callstack 0
  1118  000042                     _destinoHomeY:
  1119                           	opt callstack 0
  1120  000042                     	ds	1
  1121  000043                     _destinoHomeX:
  1122                           	opt callstack 0
  1123  000043                     	ds	1
  1124  000044                     _habilitarModCoord:
  1125                           	opt callstack 0
  1126  000044                     	ds	1
  1127  000045                     _coordenadaNueva:
  1128                           	opt callstack 0
  1129  000045                     	ds	1
  1130                           
  1131                           	psect	bssBANK0
  1132  0000C9                     __pbssBANK0:
  1133                           	opt callstack 0
  1134  0000C9                     _coordinates:
  1135                           	opt callstack 0
  1136  0000C9                     	ds	6
  1137  0000CF                     _CurrentPosY:
  1138                           	opt callstack 0
  1139  0000CF                     	ds	2
  1140  0000D1                     _yToAdvance:
  1141                           	opt callstack 0
  1142  0000D1                     	ds	2
  1143  0000D3                     _CurrentPosX:
  1144                           	opt callstack 0
  1145  0000D3                     	ds	2
  1146  0000D5                     _xToAdvance:
  1147                           	opt callstack 0
  1148  0000D5                     	ds	2
  1149  0000D7                     _OcurrioIntEsq:
  1150                           	opt callstack 0
  1151  0000D7                     	ds	1
  1152  0000D8                     _llegoHomeY:
  1153                           	opt callstack 0
  1154  0000D8                     	ds	1
  1155  0000D9                     _llegoHomeX:
  1156                           	opt callstack 0
  1157  0000D9                     	ds	1
  1158  0000DA                     _sparcEnMovimientoY:
  1159                           	opt callstack 0
  1160  0000DA                     	ds	1
  1161  0000DB                     _sparcEnMovimientoX:
  1162                           	opt callstack 0
  1163  0000DB                     	ds	1
  1164  0000DC                     _presionarZUnidades:
  1165                           	opt callstack 0
  1166  0000DC                     	ds	1
  1167  0000DD                     _presionarZDecenas:
  1168                           	opt callstack 0
  1169  0000DD                     	ds	1
  1170  0000DE                     _presionarZCentenas:
  1171                           	opt callstack 0
  1172  0000DE                     	ds	1
  1173  0000DF                     _coordYUnidades:
  1174                           	opt callstack 0
  1175  0000DF                     	ds	1
  1176  0000E0                     _coordYDecenas:
  1177                           	opt callstack 0
  1178  0000E0                     	ds	1
  1179  0000E1                     _coordYCentenas:
  1180                           	opt callstack 0
  1181  0000E1                     	ds	1
  1182  0000E2                     _coordXUnidades:
  1183                           	opt callstack 0
  1184  0000E2                     	ds	1
  1185  0000E3                     _coordXDecenas:
  1186                           	opt callstack 0
  1187  0000E3                     	ds	1
  1188  0000E4                     _coordXCentenas:
  1189                           	opt callstack 0
  1190  0000E4                     	ds	1
  1191                           
  1192                           	psect	cstackBANK0
  1193  000060                     __pcstackBANK0:
  1194                           	opt callstack 0
  1195  000060                     ??_low_isr:
  1196                           
  1197                           ; 1 bytes @ 0x0
  1198  000060                     	ds	1
  1199  000061                     ?_abs:
  1200                           	opt callstack 0
  1201  000061                     ?___lwmod:
  1202                           	opt callstack 0
  1203  000061                     errorUART@temp:
  1204                           	opt callstack 0
  1205  000061                     presionarPantalla@presionarZDecenas:
  1206                           	opt callstack 0
  1207  000061                     setNumPasosX@numPasosX:
  1208                           	opt callstack 0
  1209  000061                     setNumPasosY@numPasosY:
  1210                           	opt callstack 0
  1211  000061                     ___lwmod@dividend:
  1212                           	opt callstack 0
  1213  000061                     abs@a:
  1214                           	opt callstack 0
  1215                           
  1216                           ; 2 bytes @ 0x1
  1217  000061                     	ds	1
  1218  000062                     receive@recibido:
  1219                           	opt callstack 0
  1220  000062                     send@enviarpc:
  1221                           	opt callstack 0
  1222  000062                     presionarPantalla@presionarZUnidades:
  1223                           	opt callstack 0
  1224                           
  1225                           ; 1 bytes @ 0x2
  1226  000062                     	ds	1
  1227  000063                     ??_presionarPantalla:
  1228  000063                     ??_abs:
  1229  000063                     printf@PointString:
  1230                           	opt callstack 0
  1231  000063                     scanf@guardarscan:
  1232                           	opt callstack 0
  1233  000063                     setNumPasosX@resultado:
  1234                           	opt callstack 0
  1235  000063                     setNumPasosY@resultado:
  1236                           	opt callstack 0
  1237  000063                     ___lwmod@divisor:
  1238                           	opt callstack 0
  1239                           
  1240                           ; 2 bytes @ 0x3
  1241  000063                     	ds	2
  1242  000065                     ??_printf:
  1243  000065                     ?___wmul:
  1244                           	opt callstack 0
  1245  000065                     scanf@numcaracteres:
  1246                           	opt callstack 0
  1247  000065                     presionarPantalla@presionarZCentenas:
  1248                           	opt callstack 0
  1249  000065                     ___lwmod@counter:
  1250                           	opt callstack 0
  1251  000065                     ___wmul@multiplier:
  1252                           	opt callstack 0
  1253                           
  1254                           ; 2 bytes @ 0x5
  1255  000065                     	ds	1
  1256  000066                     ?___xxtofl:
  1257                           	opt callstack 0
  1258  000066                     scanf@i:
  1259                           	opt callstack 0
  1260  000066                     presionarPantalla@toques:
  1261                           	opt callstack 0
  1262  000066                     ___xxtofl@val:
  1263                           	opt callstack 0
  1264                           
  1265                           ; 4 bytes @ 0x6
  1266  000066                     	ds	1
  1267  000067                     printf@i:
  1268                           	opt callstack 0
  1269  000067                     ___wmul@multiplicand:
  1270                           	opt callstack 0
  1271                           
  1272                           ; 2 bytes @ 0x7
  1273  000067                     	ds	1
  1274  000068                     ??_modificarZ:
  1275  000068                     funcionToques@charNoNumerico:
  1276                           	opt callstack 0
  1277  000068                     slidePiston@selection:
  1278                           	opt callstack 0
  1279                           
  1280                           ; 1 bytes @ 0x8
  1281  000068                     	ds	1
  1282  000069                     modificarZ@OkEncendido:
  1283                           	opt callstack 0
  1284  000069                     ___wmul@product:
  1285                           	opt callstack 0
  1286                           
  1287                           ; 2 bytes @ 0x9
  1288  000069                     	ds	1
  1289  00006A                     ??___xxtofl:
  1290                           
  1291                           ; 1 bytes @ 0xA
  1292  00006A                     	ds	4
  1293  00006E                     ___xxtofl@sign:
  1294                           	opt callstack 0
  1295                           
  1296                           ; 1 bytes @ 0xE
  1297  00006E                     	ds	1
  1298  00006F                     ___xxtofl@exp:
  1299                           	opt callstack 0
  1300                           
  1301                           ; 1 bytes @ 0xF
  1302  00006F                     	ds	1
  1303  000070                     ___xxtofl@arg:
  1304                           	opt callstack 0
  1305                           
  1306                           ; 4 bytes @ 0x10
  1307  000070                     	ds	4
  1308  000074                     ?___flmul:
  1309                           	opt callstack 0
  1310  000074                     ___flmul@b:
  1311                           	opt callstack 0
  1312                           
  1313                           ; 4 bytes @ 0x14
  1314  000074                     	ds	4
  1315  000078                     ___flmul@a:
  1316                           	opt callstack 0
  1317                           
  1318                           ; 4 bytes @ 0x18
  1319  000078                     	ds	4
  1320  00007C                     ??___flmul:
  1321                           
  1322                           ; 1 bytes @ 0x1C
  1323  00007C                     	ds	4
  1324  000080                     ___flmul@sign:
  1325                           	opt callstack 0
  1326                           
  1327                           ; 1 bytes @ 0x20
  1328  000080                     	ds	1
  1329  000081                     ___flmul@grs:
  1330                           	opt callstack 0
  1331                           
  1332                           ; 4 bytes @ 0x21
  1333  000081                     	ds	4
  1334  000085                     ___flmul@aexp:
  1335                           	opt callstack 0
  1336                           
  1337                           ; 1 bytes @ 0x25
  1338  000085                     	ds	1
  1339  000086                     ___flmul@bexp:
  1340                           	opt callstack 0
  1341                           
  1342                           ; 1 bytes @ 0x26
  1343  000086                     	ds	1
  1344  000087                     ___flmul@prod:
  1345                           	opt callstack 0
  1346                           
  1347                           ; 4 bytes @ 0x27
  1348  000087                     	ds	4
  1349  00008B                     ___flmul@temp:
  1350                           	opt callstack 0
  1351                           
  1352                           ; 2 bytes @ 0x2B
  1353  00008B                     	ds	2
  1354  00008D                     ?___fladd:
  1355                           	opt callstack 0
  1356  00008D                     ___fladd@b:
  1357                           	opt callstack 0
  1358                           
  1359                           ; 4 bytes @ 0x2D
  1360  00008D                     	ds	4
  1361  000091                     ___fladd@a:
  1362                           	opt callstack 0
  1363                           
  1364                           ; 4 bytes @ 0x31
  1365  000091                     	ds	4
  1366  000095                     ??___fladd:
  1367                           
  1368                           ; 1 bytes @ 0x35
  1369  000095                     	ds	4
  1370  000099                     ___fladd@signs:
  1371                           	opt callstack 0
  1372                           
  1373                           ; 1 bytes @ 0x39
  1374  000099                     	ds	1
  1375  00009A                     ___fladd@aexp:
  1376                           	opt callstack 0
  1377                           
  1378                           ; 1 bytes @ 0x3A
  1379  00009A                     	ds	1
  1380  00009B                     ___fladd@bexp:
  1381                           	opt callstack 0
  1382                           
  1383                           ; 1 bytes @ 0x3B
  1384  00009B                     	ds	1
  1385  00009C                     ___fladd@grs:
  1386                           	opt callstack 0
  1387                           
  1388                           ; 1 bytes @ 0x3C
  1389  00009C                     	ds	1
  1390  00009D                     ?___fltol:
  1391                           	opt callstack 0
  1392  00009D                     ___fltol@f1:
  1393                           	opt callstack 0
  1394                           
  1395                           ; 4 bytes @ 0x3D
  1396  00009D                     	ds	4
  1397  0000A1                     ??___fltol:
  1398                           
  1399                           ; 1 bytes @ 0x41
  1400  0000A1                     	ds	4
  1401  0000A5                     ___fltol@sign1:
  1402                           	opt callstack 0
  1403                           
  1404                           ; 1 bytes @ 0x45
  1405  0000A5                     	ds	1
  1406  0000A6                     ___fltol@exp1:
  1407                           	opt callstack 0
  1408                           
  1409                           ; 1 bytes @ 0x46
  1410  0000A6                     	ds	1
  1411  0000A7                     ??_PWM_DutyCycleCCP2:
  1412  0000A7                     ??_PWM_DutyCycleCCP1:
  1413  0000A7                     _impCoordActual$2926:
  1414                           	opt callstack 0
  1415                           
  1416                           ; 2 bytes @ 0x47
  1417  0000A7                     	ds	2
  1418  0000A9                     _PWM_DutyCycleCCP2$2924:
  1419                           	opt callstack 0
  1420  0000A9                     _PWM_DutyCycleCCP1$2925:
  1421                           	opt callstack 0
  1422                           
  1423                           ; 4 bytes @ 0x49
  1424  0000A9                     	ds	4
  1425  0000AD                     PWM_DutyCycleCCP2@WantedDutyCycle:
  1426                           	opt callstack 0
  1427  0000AD                     PWM_DutyCycleCCP1@WantedDutyCycle:
  1428                           	opt callstack 0
  1429                           
  1430                           ; 1 bytes @ 0x4D
  1431  0000AD                     	ds	1
  1432  0000AE                     PWM_DutyCycleCCP2@PWMDutyValue:
  1433                           	opt callstack 0
  1434  0000AE                     PWM_DutyCycleCCP1@PWMDutyValue:
  1435                           	opt callstack 0
  1436                           
  1437                           ; 2 bytes @ 0x4E
  1438  0000AE                     	ds	2
  1439  0000B0                     moverHaciaY@coordYDecenas:
  1440                           	opt callstack 0
  1441  0000B0                     moverHaciaX@coordXDecenas:
  1442                           	opt callstack 0
  1443                           
  1444                           ; 1 bytes @ 0x50
  1445  0000B0                     	ds	1
  1446  0000B1                     moverHaciaY@coordYUnidades:
  1447                           	opt callstack 0
  1448  0000B1                     moverHaciaX@coordXUnidades:
  1449                           	opt callstack 0
  1450                           
  1451                           ; 1 bytes @ 0x51
  1452  0000B1                     	ds	1
  1453  0000B2                     ??_moverHaciaX:
  1454  0000B2                     ??_moverHaciaY:
  1455                           
  1456                           ; 1 bytes @ 0x52
  1457  0000B2                     	ds	2
  1458  0000B4                     moverHaciaY@coordYCentenas:
  1459                           	opt callstack 0
  1460  0000B4                     moverHaciaX@coordXCentenas:
  1461                           	opt callstack 0
  1462                           
  1463                           ; 1 bytes @ 0x54
  1464  0000B4                     	ds	1
  1465  0000B5                     ??_moverHaciaXY:
  1466                           
  1467                           ; 1 bytes @ 0x55
  1468  0000B5                     	ds	2
  1469  0000B7                     moverHaciaXY@validarCoordX:
  1470                           	opt callstack 0
  1471                           
  1472                           ; 2 bytes @ 0x57
  1473  0000B7                     	ds	2
  1474  0000B9                     moverHaciaXY@validarCoordY:
  1475                           	opt callstack 0
  1476                           
  1477                           ; 2 bytes @ 0x59
  1478  0000B9                     	ds	2
  1479  0000BB                     moverHaciaXY@charNoNumerico:
  1480                           	opt callstack 0
  1481                           
  1482                           ; 1 bytes @ 0x5B
  1483  0000BB                     	ds	1
  1484  0000BC                     ??_main:
  1485                           
  1486                           ; 1 bytes @ 0x5C
  1487  0000BC                     	ds	2
  1488  0000BE                     main@tamanoarray:
  1489                           	opt callstack 0
  1490                           
  1491                           ; 1 bytes @ 0x5E
  1492  0000BE                     	ds	2
  1493  0000C0                     main@pActMenu:
  1494                           	opt callstack 0
  1495                           
  1496                           ; 2 bytes @ 0x60
  1497  0000C0                     	ds	2
  1498  0000C2                     main@activarmenu:
  1499                           	opt callstack 0
  1500                           
  1501                           ; 5 bytes @ 0x62
  1502  0000C2                     	ds	5
  1503  0000C7                     main@calibrarSparc:
  1504                           	opt callstack 0
  1505                           
  1506                           ; 1 bytes @ 0x67
  1507  0000C7                     	ds	1
  1508  0000C8                     main@opcionsel:
  1509                           	opt callstack 0
  1510                           
  1511                           ; 1 bytes @ 0x68
  1512  0000C8                     	ds	1
  1513                           
  1514                           	psect	cstackCOMRAM
  1515  000001                     __pcstackCOMRAM:
  1516                           	opt callstack 0
  1517  000001                     ?i2___xxtofl:
  1518                           	opt callstack 0
  1519  000001                     i2errorUART@temp:
  1520                           	opt callstack 0
  1521  000001                     i2___xxtofl@val:
  1522                           	opt callstack 0
  1523                           
  1524                           ; 4 bytes @ 0x0
  1525  000001                     	ds	1
  1526  000002                     i2send@enviarpc:
  1527                           	opt callstack 0
  1528                           
  1529                           ; 1 bytes @ 0x1
  1530  000002                     	ds	1
  1531  000003                     i2printf@PointString:
  1532                           	opt callstack 0
  1533                           
  1534                           ; 2 bytes @ 0x2
  1535  000003                     	ds	2
  1536  000005                     ??i2_printf:
  1537  000005                     ??i2___xxtofl:
  1538                           
  1539                           ; 1 bytes @ 0x4
  1540  000005                     	ds	2
  1541  000007                     i2printf@i:
  1542                           	opt callstack 0
  1543                           
  1544                           ; 1 bytes @ 0x6
  1545  000007                     	ds	2
  1546  000009                     i2___xxtofl@sign:
  1547                           	opt callstack 0
  1548                           
  1549                           ; 1 bytes @ 0x8
  1550  000009                     	ds	1
  1551  00000A                     i2___xxtofl@exp:
  1552                           	opt callstack 0
  1553                           
  1554                           ; 1 bytes @ 0x9
  1555  00000A                     	ds	1
  1556  00000B                     i2___xxtofl@arg:
  1557                           	opt callstack 0
  1558                           
  1559                           ; 4 bytes @ 0xA
  1560  00000B                     	ds	4
  1561  00000F                     ?i2___flmul:
  1562                           	opt callstack 0
  1563  00000F                     i2___flmul@b:
  1564                           	opt callstack 0
  1565                           
  1566                           ; 4 bytes @ 0xE
  1567  00000F                     	ds	4
  1568  000013                     i2___flmul@a:
  1569                           	opt callstack 0
  1570                           
  1571                           ; 4 bytes @ 0x12
  1572  000013                     	ds	4
  1573  000017                     ??i2___flmul:
  1574                           
  1575                           ; 1 bytes @ 0x16
  1576  000017                     	ds	4
  1577  00001B                     i2___flmul@sign:
  1578                           	opt callstack 0
  1579                           
  1580                           ; 1 bytes @ 0x1A
  1581  00001B                     	ds	1
  1582  00001C                     i2___flmul@grs:
  1583                           	opt callstack 0
  1584                           
  1585                           ; 4 bytes @ 0x1B
  1586  00001C                     	ds	4
  1587  000020                     i2___flmul@aexp:
  1588                           	opt callstack 0
  1589                           
  1590                           ; 1 bytes @ 0x1F
  1591  000020                     	ds	1
  1592  000021                     i2___flmul@bexp:
  1593                           	opt callstack 0
  1594                           
  1595                           ; 1 bytes @ 0x20
  1596  000021                     	ds	1
  1597  000022                     i2___flmul@prod:
  1598                           	opt callstack 0
  1599                           
  1600                           ; 4 bytes @ 0x21
  1601  000022                     	ds	4
  1602  000026                     i2___flmul@temp:
  1603                           	opt callstack 0
  1604                           
  1605                           ; 2 bytes @ 0x25
  1606  000026                     	ds	2
  1607  000028                     ?i2___fltol:
  1608                           	opt callstack 0
  1609  000028                     i2___fltol@f1:
  1610                           	opt callstack 0
  1611                           
  1612                           ; 4 bytes @ 0x27
  1613  000028                     	ds	4
  1614  00002C                     ??i2___fltol:
  1615                           
  1616                           ; 1 bytes @ 0x2B
  1617  00002C                     	ds	4
  1618  000030                     i2___fltol@sign1:
  1619                           	opt callstack 0
  1620                           
  1621                           ; 1 bytes @ 0x2F
  1622  000030                     	ds	1
  1623  000031                     i2___fltol@exp1:
  1624                           	opt callstack 0
  1625                           
  1626                           ; 1 bytes @ 0x30
  1627  000031                     	ds	1
  1628  000032                     ??i2_PWM_DutyCycleCCP2:
  1629  000032                     ??i2_PWM_DutyCycleCCP1:
  1630                           
  1631                           ; 1 bytes @ 0x31
  1632  000032                     	ds	2
  1633  000034                     i2_PWM_DutyCycleCCP2$3016:
  1634                           	opt callstack 0
  1635  000034                     i2_PWM_DutyCycleCCP1$3017:
  1636                           	opt callstack 0
  1637                           
  1638                           ; 4 bytes @ 0x33
  1639  000034                     	ds	4
  1640  000038                     i2PWM_DutyCycleCCP2@WantedDutyCycle:
  1641                           	opt callstack 0
  1642  000038                     i2PWM_DutyCycleCCP1@WantedDutyCycle:
  1643                           	opt callstack 0
  1644                           
  1645                           ; 1 bytes @ 0x37
  1646  000038                     	ds	1
  1647  000039                     i2PWM_DutyCycleCCP2@PWMDutyValue:
  1648                           	opt callstack 0
  1649  000039                     i2PWM_DutyCycleCCP1@PWMDutyValue:
  1650                           	opt callstack 0
  1651                           
  1652                           ; 2 bytes @ 0x38
  1653  000039                     	ds	2
  1654  00003B                     ??_high_isr:
  1655  00003B                     
  1656                           ; 1 bytes @ 0x3A
  1657  00003B                     	ds	7
  1658                           
  1659 ;;
  1660 ;;Main: autosize = 0, tempsize = 2, incstack = 0, save=0
  1661 ;;
  1662 ;; *************** function _main *****************
  1663 ;; Defined at:
  1664 ;;		line 84 in file "main.c"
  1665 ;; Parameters:    Size  Location     Type
  1666 ;;		None
  1667 ;; Auto vars:     Size  Location     Type
  1668 ;;  opcionsel       1  104[BANK0 ] unsigned char 
  1669 ;;  activarmenu     5   98[BANK0 ] unsigned char [5]
  1670 ;;  pActMenu        2   96[BANK0 ] PTR unsigned char 
  1671 ;;		 -> main@activarmenu(5), 
  1672 ;;  calibrarSpar    1  103[BANK0 ] unsigned char 
  1673 ;;  desechable      1    0        unsigned char 
  1674 ;;  tamanoarray     1   94[BANK0 ] unsigned char 
  1675 ;; Return value:  Size  Location     Type
  1676 ;;                  1    wreg      void 
  1677 ;; Registers used:
  1678 ;;		wreg, fsr2l, fsr2h, status,2, status,0, tblptrl, tblptrh, tblptru, prodl, prodh, cstack
  1679 ;; Tracked objects:
  1680 ;;		On entry : 0/0
  1681 ;;		On exit  : 0/0
  1682 ;;		Unchanged: 0/0
  1683 ;; Data sizes:     COMRAM   BANK0   BANK1   BANK2   BANK3   BANK4   BANK5   BANK6   BANK7
  1684 ;;      Params:         0       0       0       0       0       0       0       0       0
  1685 ;;      Locals:         0      11       0       0       0       0       0       0       0
  1686 ;;      Temps:          0       2       0       0       0       0       0       0       0
  1687 ;;      Totals:         0      13       0       0       0       0       0       0       0
  1688 ;;Total ram usage:       13 bytes
  1689 ;; Hardware stack levels required when called:   10
  1690 ;; This function calls:
  1691 ;;		_PWM_CCP1_init
  1692 ;;		_PWM_CCP2_init
  1693 ;;		_PWM_DutyCycleCCP1
  1694 ;;		_PWM_DutyCycleCCP2
  1695 ;;		_UARTinit
  1696 ;;		_funcionToques
  1697 ;;		_habilitarIntExternas
  1698 ;;		_habilitarIntTMR0
  1699 ;;		_habilitarIntTMR1
  1700 ;;		_impCoordActual
  1701 ;;		_interruptsEnable
  1702 ;;		_limpiarIntExtF
  1703 ;;		_modificarZ
  1704 ;;		_motorXinit
  1705 ;;		_motorYinit
  1706 ;;		_motoresZinit
  1707 ;;		_moverHaciaX
  1708 ;;		_moverHaciaXY
  1709 ;;		_moverHaciaY
  1710 ;;		_moverHomeX
  1711 ;;		_moverHomeY
  1712 ;;		_pistonInit
  1713 ;;		_portInit
  1714 ;;		_printf
  1715 ;;		_receive
  1716 ;;		_scanf
  1717 ;;		_slidePiston
  1718 ;;		_tmr0Init
  1719 ;;		_tmr1Init
  1720 ;; This function is called by:
  1721 ;;		Startup code after reset
  1722 ;; This function uses a non-reentrant model
  1723 ;;
  1724                           
  1725                           	psect	text0
  1726  00002C                     __ptext0:
  1727                           	opt callstack 0
  1728  00002C                     _main:
  1729                           	opt callstack 21
  1730  00002C                     
  1731                           ;main.c: 86:     portInit();
  1732  00002C  EC50  F015         	call	_portInit	;wreg free
  1733                           
  1734                           ;main.c: 87:     UARTinit();
  1735  000030  ECF7  F014         	call	_UARTinit	;wreg free
  1736                           
  1737                           ;main.c: 88:     PWM_CCP2_init();
  1738  000034  ECC0  F014         	call	_PWM_CCP2_init	;wreg free
  1739                           
  1740                           ;main.c: 89:     PWM_CCP1_init();
  1741  000038  EC9F  F014         	call	_PWM_CCP1_init	;wreg free
  1742  00003C                     
  1743                           ;main.c: 90:     PWM_DutyCycleCCP2(0);
  1744  00003C  0E00               	movlw	0
  1745  00003E  EC84  F011         	call	_PWM_DutyCycleCCP2
  1746  000042                     
  1747                           ;main.c: 91:     PWM_DutyCycleCCP1(0);
  1748  000042  0E00               	movlw	0
  1749  000044  ECE2  F011         	call	_PWM_DutyCycleCCP1
  1750  000048                     
  1751                           ;main.c: 92:     motorXinit();
  1752  000048  EC5E  F015         	call	_motorXinit	;wreg free
  1753  00004C                     
  1754                           ;main.c: 93:     motorYinit();
  1755  00004C  EC57  F015         	call	_motorYinit	;wreg free
  1756                           
  1757                           ;main.c: 94:     tmr0Init();
  1758  000050  EC11  F015         	call	_tmr0Init	;wreg free
  1759                           
  1760                           ;main.c: 95:     tmr1Init();
  1761  000054  ECDD  F014         	call	_tmr1Init	;wreg free
  1762  000058                     
  1763                           ;main.c: 96:     interruptsEnable();
  1764  000058  EC69  F015         	call	_interruptsEnable	;wreg free
  1765  00005C                     
  1766                           ;main.c: 97:     habilitarIntTMR0();
  1767  00005C  EC7B  F015         	call	_habilitarIntTMR0	;wreg free
  1768  000060                     
  1769                           ;main.c: 98:     habilitarIntTMR1();
  1770  000060  EC79  F015         	call	_habilitarIntTMR1	;wreg free
  1771  000064                     
  1772                           ;main.c: 99:     habilitarIntExternas();
  1773  000064  ECEA  F014         	call	_habilitarIntExternas	;wreg free
  1774  000068                     
  1775                           ;main.c: 100:     motoresZinit();
  1776  000068  EC48  F015         	call	_motoresZinit	;wreg free
  1777  00006C                     
  1778                           ;main.c: 101:     pistonInit();
  1779  00006C  EC6D  F015         	call	_pistonInit	;wreg free
  1780  000070                     
  1781                           ;main.c: 103:     uint8_t activarmenu[5];;main.c: 104:     activarmenu[4] = ((void*)0);
  1782  000070  0E00               	movlw	0
  1783  000072  0100               	movlb	0	; () banked
  1784  000074  6FC6               	movwf	(main@activarmenu+4)& (0+255),b
  1785  000076                     
  1786                           ; BSR set to: 0
  1787                           ;main.c: 105:     uint8_t *pActMenu = (unsigned char *) &activarmenu;
  1788  000076  0EC2               	movlw	low main@activarmenu
  1789  000078  6FC0               	movwf	main@pActMenu& (0+255),b
  1790  00007A  0E00               	movlw	high main@activarmenu
  1791  00007C  6FC1               	movwf	(main@pActMenu+1)& (0+255),b
  1792  00007E                     
  1793                           ; BSR set to: 0
  1794                           ;main.c: 106:     uint8_t tamanoarray;;main.c: 107:     uint8_t calibrarSparc = 0;
  1795  00007E  0E00               	movlw	0
  1796  000080  6FC7               	movwf	main@calibrarSparc& (0+255),b
  1797  000082                     
  1798                           ; BSR set to: 0
  1799  000082  ECB0  F014         	call	_receive	;wreg free
  1800                           
  1801                           ;main.c: 110:     while (calibrarSparc == 0) {
  1802  000086  EF8C  F000         	goto	l4175
  1803  00008A                     l4157:
  1804                           
  1805                           ; BSR set to: 0
  1806                           ;main.c: 111:         printf("Escribe init para calibrar el SPARC y poder acceder al res
      +                          to de las funciones\n");
  1807  00008A  0E91               	movlw	low STR_29
  1808  00008C  6F63               	movwf	printf@PointString& (0+255),b
  1809  00008E  0E7C               	movlw	high STR_29
  1810  000090  6F64               	movwf	(printf@PointString+1)& (0+255),b
  1811  000092  EC2A  F013         	call	_printf	;wreg free
  1812  000096                     
  1813                           ;main.c: 112:         scanf(pActMenu, tamanoarray = (sizeof (activarmenu) - 1));
  1814  000096  C0C0  F063         	movff	main@pActMenu,scanf@guardarscan
  1815  00009A  C0C1  F064         	movff	main@pActMenu+1,scanf@guardarscan+1
  1816  00009E  0E04               	movlw	4
  1817  0000A0  0100               	movlb	0	; () banked
  1818  0000A2  6FBE               	movwf	main@tamanoarray& (0+255),b
  1819  0000A4  C0BE  F065         	movff	main@tamanoarray,scanf@numcaracteres
  1820  0000A8  EC28  F014         	call	_scanf	;wreg free
  1821  0000AC                     
  1822                           ;main.c: 113:         if ((activarmenu[0] == 'i' || activarmenu[0] == 'I') && activarmen
      +                          u[1] == 'n' && activarmenu[2] == 'i' && activarmenu[3] == 't') {
  1823  0000AC  0E69               	movlw	105
  1824  0000AE  0100               	movlb	0	; () banked
  1825  0000B0  19C2               	xorwf	main@activarmenu& (0+255),w,b
  1826  0000B2  B4D8               	btfsc	status,2,c
  1827  0000B4  EF5E  F000         	goto	u3981
  1828  0000B8  EF60  F000         	goto	u3980
  1829  0000BC                     u3981:
  1830  0000BC  EF69  F000         	goto	l4165
  1831  0000C0                     u3980:
  1832  0000C0                     
  1833                           ; BSR set to: 0
  1834  0000C0  0E49               	movlw	73
  1835  0000C2  19C2               	xorwf	main@activarmenu& (0+255),w,b
  1836  0000C4  A4D8               	btfss	status,2,c
  1837  0000C6  EF67  F000         	goto	u3991
  1838  0000CA  EF69  F000         	goto	u3990
  1839  0000CE                     u3991:
  1840  0000CE  EF8C  F000         	goto	l4175
  1841  0000D2                     u3990:
  1842  0000D2                     l4165:
  1843                           
  1844                           ; BSR set to: 0
  1845  0000D2  0E6E               	movlw	110
  1846  0000D4  19C3               	xorwf	(main@activarmenu+1)& (0+255),w,b
  1847  0000D6  A4D8               	btfss	status,2,c
  1848  0000D8  EF70  F000         	goto	u4001
  1849  0000DC  EF72  F000         	goto	u4000
  1850  0000E0                     u4001:
  1851  0000E0  EF8C  F000         	goto	l4175
  1852  0000E4                     u4000:
  1853  0000E4                     
  1854                           ; BSR set to: 0
  1855  0000E4  0E69               	movlw	105
  1856  0000E6  19C4               	xorwf	(main@activarmenu+2)& (0+255),w,b
  1857  0000E8  A4D8               	btfss	status,2,c
  1858  0000EA  EF79  F000         	goto	u4011
  1859  0000EE  EF7B  F000         	goto	u4010
  1860  0000F2                     u4011:
  1861  0000F2  EF8C  F000         	goto	l4175
  1862  0000F6                     u4010:
  1863  0000F6                     
  1864                           ; BSR set to: 0
  1865  0000F6  0E74               	movlw	116
  1866  0000F8  19C5               	xorwf	(main@activarmenu+3)& (0+255),w,b
  1867  0000FA  A4D8               	btfss	status,2,c
  1868  0000FC  EF82  F000         	goto	u4021
  1869  000100  EF84  F000         	goto	u4020
  1870  000104                     u4021:
  1871  000104  EF8C  F000         	goto	l4175
  1872  000108                     u4020:
  1873  000108                     
  1874                           ; BSR set to: 0
  1875                           ;main.c: 114:             calibrarSparc = 1;
  1876  000108  0E01               	movlw	1
  1877  00010A  6FC7               	movwf	main@calibrarSparc& (0+255),b
  1878  00010C                     
  1879                           ; BSR set to: 0
  1880                           ;main.c: 115:             printf("Inicializando...\n");
  1881  00010C  0E2E               	movlw	low STR_30
  1882  00010E  6F63               	movwf	printf@PointString& (0+255),b
  1883  000110  0E7F               	movlw	high STR_30
  1884  000112  6F64               	movwf	(printf@PointString+1)& (0+255),b
  1885  000114  EC2A  F013         	call	_printf	;wreg free
  1886  000118                     l4175:
  1887                           
  1888                           ;main.c: 110:     while (calibrarSparc == 0) {
  1889  000118  0100               	movlb	0	; () banked
  1890  00011A  51C7               	movf	main@calibrarSparc& (0+255),w,b
  1891  00011C  B4D8               	btfsc	status,2,c
  1892  00011E  EF93  F000         	goto	u4031
  1893  000122  EF95  F000         	goto	u4030
  1894  000126                     u4031:
  1895  000126  EF45  F000         	goto	l4157
  1896  00012A                     u4030:
  1897  00012A                     l4177:
  1898                           
  1899                           ;main.c: 120:         if (calibrarSparc == 1) {
  1900  00012A  0100               	movlb	0	; () banked
  1901  00012C  05C7               	decf	main@calibrarSparc& (0+255),w,b
  1902  00012E  A4D8               	btfss	status,2,c
  1903  000130  EF9C  F000         	goto	u4041
  1904  000134  EF9E  F000         	goto	u4040
  1905  000138                     u4041:
  1906  000138  EFFA  F000         	goto	l4209
  1907  00013C                     u4040:
  1908  00013C                     
  1909                           ; BSR set to: 0
  1910                           ;main.c: 121:             moverHaciaX('0', '0', '5');
  1911  00013C  0E30               	movlw	48
  1912  00013E  6FB0               	movwf	moverHaciaX@coordXDecenas& (0+255),b
  1913  000140  0E35               	movlw	53
  1914  000142  6FB1               	movwf	moverHaciaX@coordXUnidades& (0+255),b
  1915  000144  0E30               	movlw	48
  1916  000146  EC39  F010         	call	_moverHaciaX
  1917                           
  1918                           ;main.c: 122:             moverHaciaY('0', '0', '5');
  1919  00014A  0E30               	movlw	48
  1920  00014C  0100               	movlb	0	; () banked
  1921  00014E  6FB0               	movwf	moverHaciaY@coordYDecenas& (0+255),b
  1922  000150  0E35               	movlw	53
  1923  000152  6FB1               	movwf	moverHaciaY@coordYUnidades& (0+255),b
  1924  000154  0E30               	movlw	48
  1925  000156  ECB7  F00F         	call	_moverHaciaY
  1926  00015A                     
  1927                           ;main.c: 123:             _delay((unsigned long)((100)*(8000000/4000.0)));
  1928  00015A  0E02               	movlw	2
  1929  00015C  0100               	movlb	0	; () banked
  1930  00015E  6FBD               	movwf	(??_main+1)& (0+255),b
  1931  000160  0E04               	movlw	4
  1932  000162  6FBC               	movwf	??_main& (0+255),b
  1933  000164  0EBA               	movlw	186
  1934  000166                     u4247:
  1935  000166  2EE8               	decfsz	wreg,f,c
  1936  000168  D7FE               	bra	u4247
  1937  00016A  2FBC               	decfsz	??_main& (0+255),f,b
  1938  00016C  D7FC               	bra	u4247
  1939  00016E  2FBD               	decfsz	(??_main+1)& (0+255),f,b
  1940  000170  D7FA               	bra	u4247
  1941  000172  F000               	nop	
  1942  000174                     
  1943                           ;main.c: 124:             moverHomeX();
  1944  000174  EC27  F015         	call	_moverHomeX	;wreg free
  1945  000178                     
  1946                           ;main.c: 125:             moverHomeY();
  1947  000178  EC1C  F015         	call	_moverHomeY	;wreg free
  1948  00017C                     l4187:
  1949                           
  1950                           ;main.c: 126:             while (!(llegoHomeX && llegoHomeY)) {
  1951  00017C  0100               	movlb	0	; () banked
  1952  00017E  51D9               	movf	_llegoHomeX& (0+255),w,b
  1953  000180  B4D8               	btfsc	status,2,c
  1954  000182  EFC5  F000         	goto	u4051
  1955  000186  EFC7  F000         	goto	u4050
  1956  00018A                     u4051:
  1957  00018A  EFBE  F000         	goto	l4187
  1958  00018E                     u4050:
  1959  00018E                     
  1960                           ; BSR set to: 0
  1961  00018E  51D8               	movf	_llegoHomeY& (0+255),w,b
  1962  000190  B4D8               	btfsc	status,2,c
  1963  000192  EFCD  F000         	goto	u4061
  1964  000196  EFCF  F000         	goto	u4060
  1965  00019A                     u4061:
  1966  00019A  EFBE  F000         	goto	l4187
  1967  00019E                     u4060:
  1968  00019E                     
  1969                           ; BSR set to: 0
  1970                           ;main.c: 130:             printf("SACANDO\n");
  1971  00019E  0EC3               	movlw	low STR_31
  1972  0001A0  6F63               	movwf	printf@PointString& (0+255),b
  1973  0001A2  0E7F               	movlw	high STR_31
  1974  0001A4  6F64               	movwf	(printf@PointString+1)& (0+255),b
  1975  0001A6  EC2A  F013         	call	_printf	;wreg free
  1976  0001AA                     
  1977                           ;main.c: 131:             moverHaciaX('0', '1', '5');
  1978  0001AA  0E31               	movlw	49
  1979  0001AC  0100               	movlb	0	; () banked
  1980  0001AE  6FB0               	movwf	moverHaciaX@coordXDecenas& (0+255),b
  1981  0001B0  0E35               	movlw	53
  1982  0001B2  6FB1               	movwf	moverHaciaX@coordXUnidades& (0+255),b
  1983  0001B4  0E30               	movlw	48
  1984  0001B6  EC39  F010         	call	_moverHaciaX
  1985  0001BA                     
  1986                           ;main.c: 132:             moverHaciaY('0', '1', '5');
  1987  0001BA  0E31               	movlw	49
  1988  0001BC  0100               	movlb	0	; () banked
  1989  0001BE  6FB0               	movwf	moverHaciaY@coordYDecenas& (0+255),b
  1990  0001C0  0E35               	movlw	53
  1991  0001C2  6FB1               	movwf	moverHaciaY@coordYUnidades& (0+255),b
  1992  0001C4  0E30               	movlw	48
  1993  0001C6  ECB7  F00F         	call	_moverHaciaY
  1994  0001CA                     
  1995                           ;main.c: 133:             llegoHomeX = 0;
  1996  0001CA  0E00               	movlw	0
  1997  0001CC  0100               	movlb	0	; () banked
  1998  0001CE  6FD9               	movwf	_llegoHomeX& (0+255),b
  1999  0001D0                     
  2000                           ; BSR set to: 0
  2001                           ;main.c: 134:             llegoHomeY = 0;
  2002  0001D0  0E00               	movlw	0
  2003  0001D2  6FD8               	movwf	_llegoHomeY& (0+255),b
  2004  0001D4                     
  2005                           ; BSR set to: 0
  2006                           ;main.c: 135:             CurrentPosX = 0;
  2007  0001D4  0E00               	movlw	0
  2008  0001D6  6FD4               	movwf	(_CurrentPosX+1)& (0+255),b
  2009  0001D8  0E00               	movlw	0
  2010  0001DA  6FD3               	movwf	_CurrentPosX& (0+255),b
  2011  0001DC                     
  2012                           ; BSR set to: 0
  2013                           ;main.c: 136:             CurrentPosY = 0;
  2014  0001DC  0E00               	movlw	0
  2015  0001DE  6FD0               	movwf	(_CurrentPosY+1)& (0+255),b
  2016  0001E0  0E00               	movlw	0
  2017  0001E2  6FCF               	movwf	_CurrentPosY& (0+255),b
  2018  0001E4                     
  2019                           ; BSR set to: 0
  2020                           ;main.c: 137:             calibrarSparc = 0;
  2021  0001E4  0E00               	movlw	0
  2022  0001E6  6FC7               	movwf	main@calibrarSparc& (0+255),b
  2023  0001E8                     
  2024                           ; BSR set to: 0
  2025                           ;main.c: 138:             printf("Ya esta calibrado el SPARC\n");
  2026  0001E8  0EDD               	movlw	low STR_32
  2027  0001EA  6F63               	movwf	printf@PointString& (0+255),b
  2028  0001EC  0E7E               	movlw	high STR_32
  2029  0001EE  6F64               	movwf	(printf@PointString+1)& (0+255),b
  2030  0001F0  EC2A  F013         	call	_printf	;wreg free
  2031  0001F4                     l4209:
  2032                           
  2033                           ;main.c: 140:         if (OcurrioIntEsq == 1) {
  2034  0001F4  0100               	movlb	0	; () banked
  2035  0001F6  05D7               	decf	_OcurrioIntEsq& (0+255),w,b
  2036  0001F8  A4D8               	btfss	status,2,c
  2037  0001FA  EF01  F001         	goto	u4071
  2038  0001FE  EF03  F001         	goto	u4070
  2039  000202                     u4071:
  2040  000202  EF38  F001         	goto	l4233
  2041  000206                     u4070:
  2042  000206                     l4213:
  2043                           
  2044                           ; BSR set to: 0
  2045                           ;main.c: 141:             while (!(llegoHomeX && llegoHomeY)) {
  2046  000206  51D9               	movf	_llegoHomeX& (0+255),w,b
  2047  000208  B4D8               	btfsc	status,2,c
  2048  00020A  EF09  F001         	goto	u4081
  2049  00020E  EF0B  F001         	goto	u4080
  2050  000212                     u4081:
  2051  000212  EF03  F001         	goto	l4213
  2052  000216                     u4080:
  2053  000216                     
  2054                           ; BSR set to: 0
  2055  000216  51D8               	movf	_llegoHomeY& (0+255),w,b
  2056  000218  B4D8               	btfsc	status,2,c
  2057  00021A  EF11  F001         	goto	u4091
  2058  00021E  EF13  F001         	goto	u4090
  2059  000222                     u4091:
  2060  000222  EF03  F001         	goto	l4213
  2061  000226                     u4090:
  2062  000226                     
  2063                           ; BSR set to: 0
  2064                           ;main.c: 145:             printf("Int3 Esquinas, recalibrando SPARC\n");
  2065  000226  0E7F               	movlw	low STR_33
  2066  000228  6F63               	movwf	printf@PointString& (0+255),b
  2067  00022A  0E7E               	movlw	high STR_33
  2068  00022C  6F64               	movwf	(printf@PointString+1)& (0+255),b
  2069  00022E  EC2A  F013         	call	_printf	;wreg free
  2070  000232                     
  2071                           ;main.c: 146:             moverHaciaX('0', '1', '5');
  2072  000232  0E31               	movlw	49
  2073  000234  0100               	movlb	0	; () banked
  2074  000236  6FB0               	movwf	moverHaciaX@coordXDecenas& (0+255),b
  2075  000238  0E35               	movlw	53
  2076  00023A  6FB1               	movwf	moverHaciaX@coordXUnidades& (0+255),b
  2077  00023C  0E30               	movlw	48
  2078  00023E  EC39  F010         	call	_moverHaciaX
  2079  000242                     
  2080                           ;main.c: 147:             moverHaciaY('0', '1', '5');
  2081  000242  0E31               	movlw	49
  2082  000244  0100               	movlb	0	; () banked
  2083  000246  6FB0               	movwf	moverHaciaY@coordYDecenas& (0+255),b
  2084  000248  0E35               	movlw	53
  2085  00024A  6FB1               	movwf	moverHaciaY@coordYUnidades& (0+255),b
  2086  00024C  0E30               	movlw	48
  2087  00024E  ECB7  F00F         	call	_moverHaciaY
  2088  000252                     
  2089                           ;main.c: 148:             llegoHomeX = 0;
  2090  000252  0E00               	movlw	0
  2091  000254  0100               	movlb	0	; () banked
  2092  000256  6FD9               	movwf	_llegoHomeX& (0+255),b
  2093  000258                     
  2094                           ; BSR set to: 0
  2095                           ;main.c: 149:             llegoHomeY = 0;
  2096  000258  0E00               	movlw	0
  2097  00025A  6FD8               	movwf	_llegoHomeY& (0+255),b
  2098  00025C                     
  2099                           ; BSR set to: 0
  2100                           ;main.c: 150:             CurrentPosX = 0;
  2101  00025C  0E00               	movlw	0
  2102  00025E  6FD4               	movwf	(_CurrentPosX+1)& (0+255),b
  2103  000260  0E00               	movlw	0
  2104  000262  6FD3               	movwf	_CurrentPosX& (0+255),b
  2105  000264                     
  2106                           ; BSR set to: 0
  2107                           ;main.c: 151:             CurrentPosY = 0;
  2108  000264  0E00               	movlw	0
  2109  000266  6FD0               	movwf	(_CurrentPosY+1)& (0+255),b
  2110  000268  0E00               	movlw	0
  2111  00026A  6FCF               	movwf	_CurrentPosY& (0+255),b
  2112  00026C                     
  2113                           ; BSR set to: 0
  2114                           ;main.c: 152:             OcurrioIntEsq = 0;
  2115  00026C  0E00               	movlw	0
  2116  00026E  6FD7               	movwf	_OcurrioIntEsq& (0+255),b
  2117  000270                     l4233:
  2118                           
  2119                           ; BSR set to: 0
  2120                           ;main.c: 154:         printf("Ok,comN\n");
  2121  000270  0EBA               	movlw	low STR_34
  2122  000272  6F63               	movwf	printf@PointString& (0+255),b
  2123  000274  0E7F               	movlw	high STR_34
  2124  000276  6F64               	movwf	(printf@PointString+1)& (0+255),b
  2125  000278  EC2A  F013         	call	_printf	;wreg free
  2126  00027C                     
  2127                           ;main.c: 155:         uint8_t opcionsel = receive();
  2128  00027C  ECB0  F014         	call	_receive	;wreg free
  2129  000280  0100               	movlb	0	; () banked
  2130  000282  6FC8               	movwf	main@opcionsel& (0+255),b
  2131  000284                     
  2132                           ; BSR set to: 0
  2133                           ;main.c: 156:         if (opcionsel == 'm' || opcionsel == 'M') {
  2134  000284  0E6D               	movlw	109
  2135  000286  19C8               	xorwf	main@opcionsel& (0+255),w,b
  2136  000288  B4D8               	btfsc	status,2,c
  2137  00028A  EF49  F001         	goto	u4101
  2138  00028E  EF4B  F001         	goto	u4100
  2139  000292                     u4101:
  2140  000292  EF54  F001         	goto	l4241
  2141  000296                     u4100:
  2142  000296                     
  2143                           ; BSR set to: 0
  2144  000296  0E4D               	movlw	77
  2145  000298  19C8               	xorwf	main@opcionsel& (0+255),w,b
  2146  00029A  A4D8               	btfss	status,2,c
  2147  00029C  EF52  F001         	goto	u4111
  2148  0002A0  EF54  F001         	goto	u4110
  2149  0002A4                     u4111:
  2150  0002A4  EF65  F001         	goto	l4245
  2151  0002A8                     u4110:
  2152  0002A8                     l4241:
  2153                           
  2154                           ; BSR set to: 0
  2155                           ;main.c: 157:             printf("Vas a mover el Sparc en X y Y\n");
  2156  0002A8  0EA2               	movlw	low STR_35
  2157  0002AA  6F63               	movwf	printf@PointString& (0+255),b
  2158  0002AC  0E7E               	movlw	high STR_35
  2159  0002AE  6F64               	movwf	(printf@PointString+1)& (0+255),b
  2160  0002B0  EC2A  F013         	call	_printf	;wreg free
  2161                           
  2162                           ;main.c: 158:             printf("Ok,comV\n");
  2163  0002B4  0ECC               	movlw	low STR_36
  2164  0002B6  0100               	movlb	0	; () banked
  2165  0002B8  6F63               	movwf	printf@PointString& (0+255),b
  2166  0002BA  0E7F               	movlw	high STR_36
  2167  0002BC  6F64               	movwf	(printf@PointString+1)& (0+255),b
  2168  0002BE  EC2A  F013         	call	_printf	;wreg free
  2169  0002C2                     
  2170                           ;main.c: 159:             moverHaciaXY();
  2171  0002C2  EC65  F00A         	call	_moverHaciaXY	;wreg free
  2172                           
  2173                           ;main.c: 160:         } else if (opcionsel == 'p' || opcionsel == 'P') {
  2174  0002C6  EF95  F000         	goto	l4177
  2175  0002CA                     l4245:
  2176                           
  2177                           ; BSR set to: 0
  2178  0002CA  0E70               	movlw	112
  2179  0002CC  19C8               	xorwf	main@opcionsel& (0+255),w,b
  2180  0002CE  B4D8               	btfsc	status,2,c
  2181  0002D0  EF6C  F001         	goto	u4121
  2182  0002D4  EF6E  F001         	goto	u4120
  2183  0002D8                     u4121:
  2184  0002D8  EF77  F001         	goto	l4249
  2185  0002DC                     u4120:
  2186  0002DC                     
  2187                           ; BSR set to: 0
  2188  0002DC  0E50               	movlw	80
  2189  0002DE  19C8               	xorwf	main@opcionsel& (0+255),w,b
  2190  0002E0  A4D8               	btfss	status,2,c
  2191  0002E2  EF75  F001         	goto	u4131
  2192  0002E6  EF77  F001         	goto	u4130
  2193  0002EA                     u4131:
  2194  0002EA  EF99  F001         	goto	l4261
  2195  0002EE                     u4130:
  2196  0002EE                     l4249:
  2197                           
  2198                           ; BSR set to: 0
  2199                           ;main.c: 161:             printf("Presionar Z cierto numero de veces recibidas\n");
  2200  0002EE  0E7C               	movlw	low STR_37
  2201  0002F0  6F63               	movwf	printf@PointString& (0+255),b
  2202  0002F2  0E7D               	movlw	high STR_37
  2203  0002F4  6F64               	movwf	(printf@PointString+1)& (0+255),b
  2204  0002F6  EC2A  F013         	call	_printf	;wreg free
  2205                           
  2206                           ;main.c: 162:             printf("Ok,comV\n");
  2207  0002FA  0ECC               	movlw	low STR_36
  2208  0002FC  0100               	movlb	0	; () banked
  2209  0002FE  6F63               	movwf	printf@PointString& (0+255),b
  2210  000300  0E7F               	movlw	high STR_36
  2211  000302  6F64               	movwf	(printf@PointString+1)& (0+255),b
  2212  000304  EC2A  F013         	call	_printf	;wreg free
  2213  000308                     
  2214                           ;main.c: 163:             INTCONbits.GIE = 0;
  2215  000308  9EF2               	bcf	242,7,c	;volatile
  2216  00030A                     
  2217                           ;main.c: 164:             funcionToques();
  2218  00030A  ECBB  F010         	call	_funcionToques	;wreg free
  2219  00030E                     
  2220                           ;main.c: 165:             _delay((unsigned long)((250)*(8000000/4000.0)));
  2221  00030E  0E03               	movlw	3
  2222  000310  0100               	movlb	0	; () banked
  2223  000312  6FBD               	movwf	(??_main+1)& (0+255),b
  2224  000314  0E8A               	movlw	138
  2225  000316  6FBC               	movwf	??_main& (0+255),b
  2226  000318  0E55               	movlw	85
  2227  00031A                     u4257:
  2228  00031A  2EE8               	decfsz	wreg,f,c
  2229  00031C  D7FE               	bra	u4257
  2230  00031E  2FBC               	decfsz	??_main& (0+255),f,b
  2231  000320  D7FC               	bra	u4257
  2232  000322  2FBD               	decfsz	(??_main+1)& (0+255),f,b
  2233  000324  D7FA               	bra	u4257
  2234  000326  D000               	nop2	
  2235  000328                     
  2236                           ;main.c: 166:             limpiarIntExtF();
  2237  000328  EC65  F015         	call	_limpiarIntExtF	;wreg free
  2238  00032C                     
  2239                           ;main.c: 167:             INTCONbits.GIE = 1;
  2240  00032C  8EF2               	bsf	242,7,c	;volatile
  2241                           
  2242                           ;main.c: 168:         } else if (opcionsel == 's' || opcionsel == 'S') {
  2243  00032E  EF95  F000         	goto	l4177
  2244  000332                     l4261:
  2245                           
  2246                           ; BSR set to: 0
  2247  000332  0E73               	movlw	115
  2248  000334  19C8               	xorwf	main@opcionsel& (0+255),w,b
  2249  000336  B4D8               	btfsc	status,2,c
  2250  000338  EFA0  F001         	goto	u4141
  2251  00033C  EFA2  F001         	goto	u4140
  2252  000340                     u4141:
  2253  000340  EFAB  F001         	goto	l4265
  2254  000344                     u4140:
  2255  000344                     
  2256                           ; BSR set to: 0
  2257  000344  0E53               	movlw	83
  2258  000346  19C8               	xorwf	main@opcionsel& (0+255),w,b
  2259  000348  A4D8               	btfss	status,2,c
  2260  00034A  EFA9  F001         	goto	u4151
  2261  00034E  EFAB  F001         	goto	u4150
  2262  000352                     u4151:
  2263  000352  EFCD  F001         	goto	l4275
  2264  000356                     u4150:
  2265  000356                     l4265:
  2266                           
  2267                           ; BSR set to: 0
  2268                           ;main.c: 169:             printf("Piston para deslizar o dejar retraido?\n");
  2269  000356  0E57               	movlw	low STR_39
  2270  000358  6F63               	movwf	printf@PointString& (0+255),b
  2271  00035A  0E7E               	movlw	high STR_39
  2272  00035C  6F64               	movwf	(printf@PointString+1)& (0+255),b
  2273  00035E  EC2A  F013         	call	_printf	;wreg free
  2274                           
  2275                           ;main.c: 170:             printf("Ok,comV\n");
  2276  000362  0ECC               	movlw	low STR_36
  2277  000364  0100               	movlb	0	; () banked
  2278  000366  6F63               	movwf	printf@PointString& (0+255),b
  2279  000368  0E7F               	movlw	high STR_36
  2280  00036A  6F64               	movwf	(printf@PointString+1)& (0+255),b
  2281  00036C  EC2A  F013         	call	_printf	;wreg free
  2282  000370                     
  2283                           ;main.c: 171:             INTCONbits.GIE = 0;
  2284  000370  9EF2               	bcf	242,7,c	;volatile
  2285                           
  2286                           ;main.c: 172:             slidePiston();
  2287  000372  EC91  F013         	call	_slidePiston	;wreg free
  2288  000376                     
  2289                           ;main.c: 173:             _delay((unsigned long)((250)*(8000000/4000.0)));
  2290  000376  0E03               	movlw	3
  2291  000378  0100               	movlb	0	; () banked
  2292  00037A  6FBD               	movwf	(??_main+1)& (0+255),b
  2293  00037C  0E8A               	movlw	138
  2294  00037E  6FBC               	movwf	??_main& (0+255),b
  2295  000380  0E55               	movlw	85
  2296  000382                     u4267:
  2297  000382  2EE8               	decfsz	wreg,f,c
  2298  000384  D7FE               	bra	u4267
  2299  000386  2FBC               	decfsz	??_main& (0+255),f,b
  2300  000388  D7FC               	bra	u4267
  2301  00038A  2FBD               	decfsz	(??_main+1)& (0+255),f,b
  2302  00038C  D7FA               	bra	u4267
  2303  00038E  D000               	nop2	
  2304  000390                     
  2305                           ;main.c: 174:             limpiarIntExtF();
  2306  000390  EC65  F015         	call	_limpiarIntExtF	;wreg free
  2307  000394                     
  2308                           ;main.c: 175:             INTCONbits.GIE = 1;
  2309  000394  8EF2               	bsf	242,7,c	;volatile
  2310                           
  2311                           ;main.c: 177:         } else if (opcionsel == 'h' || opcionsel == 'H') {
  2312  000396  EF95  F000         	goto	l4177
  2313  00039A                     l4275:
  2314                           
  2315                           ; BSR set to: 0
  2316  00039A  0E68               	movlw	104
  2317  00039C  19C8               	xorwf	main@opcionsel& (0+255),w,b
  2318  00039E  B4D8               	btfsc	status,2,c
  2319  0003A0  EFD4  F001         	goto	u4161
  2320  0003A4  EFD6  F001         	goto	u4160
  2321  0003A8                     u4161:
  2322  0003A8  EFDF  F001         	goto	l4279
  2323  0003AC                     u4160:
  2324  0003AC                     
  2325                           ; BSR set to: 0
  2326  0003AC  0E48               	movlw	72
  2327  0003AE  19C8               	xorwf	main@opcionsel& (0+255),w,b
  2328  0003B0  A4D8               	btfss	status,2,c
  2329  0003B2  EFDD  F001         	goto	u4171
  2330  0003B6  EFDF  F001         	goto	u4170
  2331  0003BA                     u4171:
  2332  0003BA  EF25  F002         	goto	l4301
  2333  0003BE                     u4170:
  2334  0003BE                     l4279:
  2335                           
  2336                           ; BSR set to: 0
  2337                           ;main.c: 178:             printf("Vas a ir a homeX y home Y\n");
  2338  0003BE  0EF9               	movlw	low STR_41
  2339  0003C0  6F63               	movwf	printf@PointString& (0+255),b
  2340  0003C2  0E7E               	movlw	high STR_41
  2341  0003C4  6F64               	movwf	(printf@PointString+1)& (0+255),b
  2342  0003C6  EC2A  F013         	call	_printf	;wreg free
  2343                           
  2344                           ;main.c: 179:             printf("Ok,comV\n");
  2345  0003CA  0ECC               	movlw	low STR_36
  2346  0003CC  0100               	movlb	0	; () banked
  2347  0003CE  6F63               	movwf	printf@PointString& (0+255),b
  2348  0003D0  0E7F               	movlw	high STR_36
  2349  0003D2  6F64               	movwf	(printf@PointString+1)& (0+255),b
  2350  0003D4  EC2A  F013         	call	_printf	;wreg free
  2351  0003D8                     
  2352                           ;main.c: 180:             moverHomeX();
  2353  0003D8  EC27  F015         	call	_moverHomeX	;wreg free
  2354  0003DC                     
  2355                           ;main.c: 181:             moverHomeY();
  2356  0003DC  EC1C  F015         	call	_moverHomeY	;wreg free
  2357  0003E0                     l4285:
  2358                           
  2359                           ;main.c: 182:             while (!(llegoHomeX && llegoHomeY)) {
  2360  0003E0  0100               	movlb	0	; () banked
  2361  0003E2  51D9               	movf	_llegoHomeX& (0+255),w,b
  2362  0003E4  B4D8               	btfsc	status,2,c
  2363  0003E6  EFF7  F001         	goto	u4181
  2364  0003EA  EFF9  F001         	goto	u4180
  2365  0003EE                     u4181:
  2366  0003EE  EFF0  F001         	goto	l4285
  2367  0003F2                     u4180:
  2368  0003F2                     
  2369                           ; BSR set to: 0
  2370  0003F2  51D8               	movf	_llegoHomeY& (0+255),w,b
  2371  0003F4  B4D8               	btfsc	status,2,c
  2372  0003F6  EFFF  F001         	goto	u4191
  2373  0003FA  EF01  F002         	goto	u4190
  2374  0003FE                     u4191:
  2375  0003FE  EFF0  F001         	goto	l4285
  2376  000402                     u4190:
  2377  000402                     
  2378                           ; BSR set to: 0
  2379                           ;main.c: 186:             moverHaciaX('0', '1', '5');
  2380  000402  0E31               	movlw	49
  2381  000404  6FB0               	movwf	moverHaciaX@coordXDecenas& (0+255),b
  2382  000406  0E35               	movlw	53
  2383  000408  6FB1               	movwf	moverHaciaX@coordXUnidades& (0+255),b
  2384  00040A  0E30               	movlw	48
  2385  00040C  EC39  F010         	call	_moverHaciaX
  2386                           
  2387                           ;main.c: 187:             moverHaciaY('0', '1', '5');
  2388  000410  0E31               	movlw	49
  2389  000412  0100               	movlb	0	; () banked
  2390  000414  6FB0               	movwf	moverHaciaY@coordYDecenas& (0+255),b
  2391  000416  0E35               	movlw	53
  2392  000418  6FB1               	movwf	moverHaciaY@coordYUnidades& (0+255),b
  2393  00041A  0E30               	movlw	48
  2394  00041C  ECB7  F00F         	call	_moverHaciaY
  2395  000420                     
  2396                           ;main.c: 189:             llegoHomeX = 0;
  2397  000420  0E00               	movlw	0
  2398  000422  0100               	movlb	0	; () banked
  2399  000424  6FD9               	movwf	_llegoHomeX& (0+255),b
  2400  000426                     
  2401                           ; BSR set to: 0
  2402                           ;main.c: 190:             llegoHomeY = 0;
  2403  000426  0E00               	movlw	0
  2404  000428  6FD8               	movwf	_llegoHomeY& (0+255),b
  2405  00042A                     
  2406                           ; BSR set to: 0
  2407                           ;main.c: 191:             CurrentPosX = 0;
  2408  00042A  0E00               	movlw	0
  2409  00042C  6FD4               	movwf	(_CurrentPosX+1)& (0+255),b
  2410  00042E  0E00               	movlw	0
  2411  000430  6FD3               	movwf	_CurrentPosX& (0+255),b
  2412  000432                     
  2413                           ; BSR set to: 0
  2414                           ;main.c: 192:             CurrentPosY = 0;
  2415  000432  0E00               	movlw	0
  2416  000434  6FD0               	movwf	(_CurrentPosY+1)& (0+255),b
  2417  000436  0E00               	movlw	0
  2418  000438  6FCF               	movwf	_CurrentPosY& (0+255),b
  2419  00043A                     
  2420                           ; BSR set to: 0
  2421                           ;main.c: 193:             printf("Ok,comF\n");
  2422  00043A  0ED5               	movlw	low STR_6
  2423  00043C  6F63               	movwf	printf@PointString& (0+255),b
  2424  00043E  0E7F               	movlw	high STR_6
  2425  000440  6F64               	movwf	(printf@PointString+1)& (0+255),b
  2426  000442  EC2A  F013         	call	_printf	;wreg free
  2427                           
  2428                           ;main.c: 194:         } else if (opcionsel == 'c' || opcionsel == 'C') {
  2429  000446  EF95  F000         	goto	l4177
  2430  00044A                     l4301:
  2431                           
  2432                           ; BSR set to: 0
  2433  00044A  0E63               	movlw	99
  2434  00044C  19C8               	xorwf	main@opcionsel& (0+255),w,b
  2435  00044E  B4D8               	btfsc	status,2,c
  2436  000450  EF2C  F002         	goto	u4201
  2437  000454  EF2E  F002         	goto	u4200
  2438  000458                     u4201:
  2439  000458  EF37  F002         	goto	l4305
  2440  00045C                     u4200:
  2441  00045C                     
  2442                           ; BSR set to: 0
  2443  00045C  0E43               	movlw	67
  2444  00045E  19C8               	xorwf	main@opcionsel& (0+255),w,b
  2445  000460  A4D8               	btfss	status,2,c
  2446  000462  EF35  F002         	goto	u4211
  2447  000466  EF37  F002         	goto	u4210
  2448  00046A                     u4211:
  2449  00046A  EF4F  F002         	goto	l4311
  2450  00046E                     u4210:
  2451  00046E                     l4305:
  2452                           
  2453                           ; BSR set to: 0
  2454                           ;main.c: 202:             printf("Imprmir coordenada actual \n");
  2455  00046E  0EC1               	movlw	low STR_44
  2456  000470  6F63               	movwf	printf@PointString& (0+255),b
  2457  000472  0E7E               	movlw	high STR_44
  2458  000474  6F64               	movwf	(printf@PointString+1)& (0+255),b
  2459  000476  EC2A  F013         	call	_printf	;wreg free
  2460                           
  2461                           ;main.c: 203:             printf("Ok,comV\n");
  2462  00047A  0ECC               	movlw	low STR_36
  2463  00047C  0100               	movlb	0	; () banked
  2464  00047E  6F63               	movwf	printf@PointString& (0+255),b
  2465  000480  0E7F               	movlw	high STR_36
  2466  000482  6F64               	movwf	(printf@PointString+1)& (0+255),b
  2467  000484  EC2A  F013         	call	_printf	;wreg free
  2468  000488                     
  2469                           ;main.c: 204:             impCoordActual();
  2470  000488  EC0F  F009         	call	_impCoordActual	;wreg free
  2471  00048C                     
  2472                           ;main.c: 205:             printf("Ok,comF\n");
  2473  00048C  0ED5               	movlw	low STR_6
  2474  00048E  0100               	movlb	0	; () banked
  2475  000490  6F63               	movwf	printf@PointString& (0+255),b
  2476  000492  0E7F               	movlw	high STR_6
  2477  000494  6F64               	movwf	(printf@PointString+1)& (0+255),b
  2478  000496  EC2A  F013         	call	_printf	;wreg free
  2479                           
  2480                           ;main.c: 206:         } else if (opcionsel == 'b' || opcionsel == 'B') {
  2481  00049A  EF95  F000         	goto	l4177
  2482  00049E                     l4311:
  2483                           
  2484                           ; BSR set to: 0
  2485  00049E  0E62               	movlw	98
  2486  0004A0  19C8               	xorwf	main@opcionsel& (0+255),w,b
  2487  0004A2  B4D8               	btfsc	status,2,c
  2488  0004A4  EF56  F002         	goto	u4221
  2489  0004A8  EF58  F002         	goto	u4220
  2490  0004AC                     u4221:
  2491  0004AC  EF61  F002         	goto	l4315
  2492  0004B0                     u4220:
  2493  0004B0                     
  2494                           ; BSR set to: 0
  2495  0004B0  0E42               	movlw	66
  2496  0004B2  19C8               	xorwf	main@opcionsel& (0+255),w,b
  2497  0004B4  A4D8               	btfss	status,2,c
  2498  0004B6  EF5F  F002         	goto	u4231
  2499  0004BA  EF61  F002         	goto	u4230
  2500  0004BE                     u4231:
  2501  0004BE  EF79  F002         	goto	l4317
  2502  0004C2                     u4230:
  2503  0004C2                     l4315:
  2504                           
  2505                           ; BSR set to: 0
  2506                           ;main.c: 207:             printf("Entraste a mover la base\n");
  2507  0004C2  0E14               	movlw	low STR_47
  2508  0004C4  6F63               	movwf	printf@PointString& (0+255),b
  2509  0004C6  0E7F               	movlw	high STR_47
  2510  0004C8  6F64               	movwf	(printf@PointString+1)& (0+255),b
  2511  0004CA  EC2A  F013         	call	_printf	;wreg free
  2512                           
  2513                           ;main.c: 208:             printf("Ok,comV\n");
  2514  0004CE  0ECC               	movlw	low STR_36
  2515  0004D0  0100               	movlb	0	; () banked
  2516  0004D2  6F63               	movwf	printf@PointString& (0+255),b
  2517  0004D4  0E7F               	movlw	high STR_36
  2518  0004D6  6F64               	movwf	(printf@PointString+1)& (0+255),b
  2519  0004D8  EC2A  F013         	call	_printf	;wreg free
  2520                           
  2521                           ;main.c: 209:             modificarZ();
  2522  0004DC  EC2A  F00E         	call	_modificarZ	;wreg free
  2523                           
  2524                           ;main.c: 210:             printf("Ok,comF\n");
  2525  0004E0  0ED5               	movlw	low STR_6
  2526  0004E2  0100               	movlb	0	; () banked
  2527  0004E4  6F63               	movwf	printf@PointString& (0+255),b
  2528  0004E6  0E7F               	movlw	high STR_6
  2529  0004E8  6F64               	movwf	(printf@PointString+1)& (0+255),b
  2530  0004EA  EC2A  F013         	call	_printf	;wreg free
  2531                           
  2532                           ;main.c: 211:         } else {
  2533  0004EE  EF95  F000         	goto	l4177
  2534  0004F2                     l4317:
  2535                           
  2536                           ; BSR set to: 0
  2537                           ;main.c: 212:             printf("E,com\n");
  2538  0004F2  0EE6               	movlw	low STR_50
  2539  0004F4  6F63               	movwf	printf@PointString& (0+255),b
  2540  0004F6  0E7F               	movlw	high STR_50
  2541  0004F8  6F64               	movwf	(printf@PointString+1)& (0+255),b
  2542  0004FA  EC2A  F013         	call	_printf	;wreg free
  2543  0004FE  EF95  F000         	goto	l4177
  2544  000502  EF14  F000         	goto	start
  2545  000506                     __end_of_main:
  2546                           	opt callstack 0
  2547                           
  2548 ;; *************** function _tmr1Init *****************
  2549 ;; Defined at:
  2550 ;;		line 7 in file "Timers.c"
  2551 ;; Parameters:    Size  Location     Type
  2552 ;;		None
  2553 ;; Auto vars:     Size  Location     Type
  2554 ;;		None
  2555 ;; Return value:  Size  Location     Type
  2556 ;;                  1    wreg      void 
  2557 ;; Registers used:
  2558 ;;		wreg, status,2
  2559 ;; Tracked objects:
  2560 ;;		On entry : 0/0
  2561 ;;		On exit  : 0/0
  2562 ;;		Unchanged: 0/0
  2563 ;; Data sizes:     COMRAM   BANK0   BANK1   BANK2   BANK3   BANK4   BANK5   BANK6   BANK7
  2564 ;;      Params:         0       0       0       0       0       0       0       0       0
  2565 ;;      Locals:         0       0       0       0       0       0       0       0       0
  2566 ;;      Temps:          0       0       0       0       0       0       0       0       0
  2567 ;;      Totals:         0       0       0       0       0       0       0       0       0
  2568 ;;Total ram usage:        0 bytes
  2569 ;; Hardware stack levels used:    1
  2570 ;; Hardware stack levels required when called:    5
  2571 ;; This function calls:
  2572 ;;		Nothing
  2573 ;; This function is called by:
  2574 ;;		_main
  2575 ;; This function uses a non-reentrant model
  2576 ;;
  2577                           
  2578                           	psect	text1
  2579  0029BA                     __ptext1:
  2580                           	opt callstack 0
  2581  0029BA                     _tmr1Init:
  2582                           	opt callstack 25
  2583  0029BA                     
  2584                           ;Timers.c: 9:     T1CONbits.TMR1ON = 0;
  2585  0029BA  90CD               	bcf	205,0,c	;volatile
  2586                           
  2587                           ;Timers.c: 10:     T1CONbits.RD16 = 1;
  2588  0029BC  8ECD               	bsf	205,7,c	;volatile
  2589                           
  2590                           ;Timers.c: 11:     T1CONbits.T1OSCEN = 0;
  2591  0029BE  96CD               	bcf	205,3,c	;volatile
  2592                           
  2593                           ;Timers.c: 12:     T1CONbits.T1RUN = 1;
  2594  0029C0  8CCD               	bsf	205,6,c	;volatile
  2595                           
  2596                           ;Timers.c: 13:     T1CONbits.TMR1CS = 1;
  2597  0029C2  82CD               	bsf	205,1,c	;volatile
  2598                           
  2599                           ;Timers.c: 14:     T1CONbits.T1SYNC = 1;
  2600  0029C4  84CD               	bsf	205,2,c	;volatile
  2601                           
  2602                           ;Timers.c: 15:     TRISCbits.RC0 = 1;
  2603  0029C6  8094               	bsf	148,0,c	;volatile
  2604  0029C8                     
  2605                           ;Timers.c: 16:     TMR1 = 0;
  2606  0029C8  0E00               	movlw	0
  2607  0029CA  6ECF               	movwf	207,c	;volatile
  2608  0029CC  0E00               	movlw	0
  2609  0029CE  6ECE               	movwf	206,c	;volatile
  2610  0029D0                     
  2611                           ;Timers.c: 17:     T1CONbits.TMR1ON = 1;
  2612  0029D0  80CD               	bsf	205,0,c	;volatile
  2613  0029D2  0012               	return		;funcret
  2614  0029D4                     __end_of_tmr1Init:
  2615                           	opt callstack 0
  2616                           
  2617 ;; *************** function _tmr0Init *****************
  2618 ;; Defined at:
  2619 ;;		line 20 in file "Timers.c"
  2620 ;; Parameters:    Size  Location     Type
  2621 ;;		None
  2622 ;; Auto vars:     Size  Location     Type
  2623 ;;		None
  2624 ;; Return value:  Size  Location     Type
  2625 ;;                  1    wreg      void 
  2626 ;; Registers used:
  2627 ;;		wreg, status,2
  2628 ;; Tracked objects:
  2629 ;;		On entry : 0/0
  2630 ;;		On exit  : 0/0
  2631 ;;		Unchanged: 0/0
  2632 ;; Data sizes:     COMRAM   BANK0   BANK1   BANK2   BANK3   BANK4   BANK5   BANK6   BANK7
  2633 ;;      Params:         0       0       0       0       0       0       0       0       0
  2634 ;;      Locals:         0       0       0       0       0       0       0       0       0
  2635 ;;      Temps:          0       0       0       0       0       0       0       0       0
  2636 ;;      Totals:         0       0       0       0       0       0       0       0       0
  2637 ;;Total ram usage:        0 bytes
  2638 ;; Hardware stack levels used:    1
  2639 ;; Hardware stack levels required when called:    5
  2640 ;; This function calls:
  2641 ;;		Nothing
  2642 ;; This function is called by:
  2643 ;;		_main
  2644 ;; This function uses a non-reentrant model
  2645 ;;
  2646                           
  2647                           	psect	text2
  2648  002A22                     __ptext2:
  2649                           	opt callstack 0
  2650  002A22                     _tmr0Init:
  2651                           	opt callstack 25
  2652  002A22                     
  2653                           ;Timers.c: 22:     T0CONbits.TMR0ON = 0;
  2654  002A22  9ED5               	bcf	213,7,c	;volatile
  2655                           
  2656                           ;Timers.c: 23:     T0CONbits.T08BIT = 0;
  2657  002A24  9CD5               	bcf	213,6,c	;volatile
  2658                           
  2659                           ;Timers.c: 24:     T0CONbits.T0CS = 1;
  2660  002A26  8AD5               	bsf	213,5,c	;volatile
  2661                           
  2662                           ;Timers.c: 25:     T0CONbits.T0SE = 0;
  2663  002A28  98D5               	bcf	213,4,c	;volatile
  2664                           
  2665                           ;Timers.c: 26:     TRISAbits.RA4 = 1;
  2666  002A2A  8892               	bsf	146,4,c	;volatile
  2667  002A2C                     
  2668                           ;Timers.c: 27:     TMR0 = 0;
  2669  002A2C  0E00               	movlw	0
  2670  002A2E  6ED7               	movwf	215,c	;volatile
  2671  002A30  0E00               	movlw	0
  2672  002A32  6ED6               	movwf	214,c	;volatile
  2673  002A34                     
  2674                           ;Timers.c: 28:     T0CONbits.TMR0ON = 1;
  2675  002A34  8ED5               	bsf	213,7,c	;volatile
  2676  002A36  0012               	return		;funcret
  2677  002A38                     __end_of_tmr0Init:
  2678                           	opt callstack 0
  2679                           
  2680 ;; *************** function _slidePiston *****************
  2681 ;; Defined at:
  2682 ;;		line 96 in file "FuncionesMenu.c"
  2683 ;; Parameters:    Size  Location     Type
  2684 ;;		None
  2685 ;; Auto vars:     Size  Location     Type
  2686 ;;  selection       1    8[BANK0 ] unsigned char 
  2687 ;; Return value:  Size  Location     Type
  2688 ;;                  1    wreg      void 
  2689 ;; Registers used:
  2690 ;;		wreg, status,2, status,0, tblptrl, tblptrh, tblptru, cstack
  2691 ;; Tracked objects:
  2692 ;;		On entry : 0/0
  2693 ;;		On exit  : 0/0
  2694 ;;		Unchanged: 0/0
  2695 ;; Data sizes:     COMRAM   BANK0   BANK1   BANK2   BANK3   BANK4   BANK5   BANK6   BANK7
  2696 ;;      Params:         0       0       0       0       0       0       0       0       0
  2697 ;;      Locals:         0       1       0       0       0       0       0       0       0
  2698 ;;      Temps:          0       0       0       0       0       0       0       0       0
  2699 ;;      Totals:         0       1       0       0       0       0       0       0       0
  2700 ;;Total ram usage:        1 bytes
  2701 ;; Hardware stack levels used:    1
  2702 ;; Hardware stack levels required when called:    8
  2703 ;; This function calls:
  2704 ;;		_printf
  2705 ;;		_receive
  2706 ;; This function is called by:
  2707 ;;		_main
  2708 ;; This function uses a non-reentrant model
  2709 ;;
  2710                           
  2711                           	psect	text3
  2712  002722                     __ptext3:
  2713                           	opt callstack 0
  2714  002722                     _slidePiston:
  2715                           	opt callstack 22
  2716  002722                     
  2717                           ;FuncionesMenu.c: 97:     uint8_t selection;;FuncionesMenu.c: 98:     selection = receiv
      +                          e();
  2718  002722  ECB0  F014         	call	_receive	;wreg free
  2719  002726  0100               	movlb	0	; () banked
  2720  002728  6F68               	movwf	slidePiston@selection& (0+255),b
  2721  00272A                     
  2722                           ; BSR set to: 0
  2723                           ;FuncionesMenu.c: 99:     if (selection == '1') {
  2724  00272A  0E31               	movlw	49
  2725  00272C  1968               	xorwf	slidePiston@selection& (0+255),w,b
  2726  00272E  A4D8               	btfss	status,2,c
  2727  002730  EF9C  F013         	goto	u3751
  2728  002734  EF9E  F013         	goto	u3750
  2729  002738                     u3751:
  2730  002738  EFA7  F013         	goto	l3893
  2731  00273C                     u3750:
  2732  00273C                     
  2733                           ; BSR set to: 0
  2734                           ;FuncionesMenu.c: 100:         LATEbits.LATE0 = 1;
  2735  00273C  808D               	bsf	141,0,c	;volatile
  2736  00273E                     
  2737                           ; BSR set to: 0
  2738                           ;FuncionesMenu.c: 101:         printf("Ok,comF\n");
  2739  00273E  0ED5               	movlw	low STR_6
  2740  002740  6F63               	movwf	printf@PointString& (0+255),b
  2741  002742  0E7F               	movlw	high STR_6
  2742  002744  6F64               	movwf	(printf@PointString+1)& (0+255),b
  2743  002746  EC2A  F013         	call	_printf	;wreg free
  2744                           
  2745                           ;FuncionesMenu.c: 102:     } else if (selection == '0') {
  2746  00274A  EFC0  F013         	goto	l347
  2747  00274E                     l3893:
  2748                           
  2749                           ; BSR set to: 0
  2750  00274E  0E30               	movlw	48
  2751  002750  1968               	xorwf	slidePiston@selection& (0+255),w,b
  2752  002752  A4D8               	btfss	status,2,c
  2753  002754  EFAE  F013         	goto	u3761
  2754  002758  EFB0  F013         	goto	u3760
  2755  00275C                     u3761:
  2756  00275C  EFB9  F013         	goto	l3899
  2757  002760                     u3760:
  2758  002760                     
  2759                           ; BSR set to: 0
  2760                           ;FuncionesMenu.c: 103:         LATEbits.LATE0 = 0;
  2761  002760  908D               	bcf	141,0,c	;volatile
  2762  002762                     
  2763                           ; BSR set to: 0
  2764                           ;FuncionesMenu.c: 104:         printf("Ok,comF\n");
  2765  002762  0ED5               	movlw	low STR_6
  2766  002764  6F63               	movwf	printf@PointString& (0+255),b
  2767  002766  0E7F               	movlw	high STR_6
  2768  002768  6F64               	movwf	(printf@PointString+1)& (0+255),b
  2769  00276A  EC2A  F013         	call	_printf	;wreg free
  2770                           
  2771                           ;FuncionesMenu.c: 105:     } else {
  2772  00276E  EFC0  F013         	goto	l347
  2773  002772                     l3899:
  2774                           
  2775                           ; BSR set to: 0
  2776                           ;FuncionesMenu.c: 106:         printf("E,cNoV\n");
  2777  002772  0EDE               	movlw	low STR_4
  2778  002774  6F63               	movwf	printf@PointString& (0+255),b
  2779  002776  0E7F               	movlw	high STR_4
  2780  002778  6F64               	movwf	(printf@PointString+1)& (0+255),b
  2781  00277A  EC2A  F013         	call	_printf	;wreg free
  2782  00277E                     
  2783                           ;FuncionesMenu.c: 108:         LATEbits.LATE0 = 1;
  2784  00277E  808D               	bsf	141,0,c	;volatile
  2785  002780                     l347:
  2786  002780  0012               	return		;funcret
  2787  002782                     __end_of_slidePiston:
  2788                           	opt callstack 0
  2789                           
  2790 ;; *************** function _scanf *****************
  2791 ;; Defined at:
  2792 ;;		line 17 in file "Comunicacion.c"
  2793 ;; Parameters:    Size  Location     Type
  2794 ;;  guardarscan     2    3[BANK0 ] PTR unsigned char 
  2795 ;;		 -> main@activarmenu(5), 
  2796 ;;  numcaractere    1    5[BANK0 ] unsigned char 
  2797 ;; Auto vars:     Size  Location     Type
  2798 ;;  i               1    6[BANK0 ] unsigned char 
  2799 ;; Return value:  Size  Location     Type
  2800 ;;                  1    wreg      void 
  2801 ;; Registers used:
  2802 ;;		wreg, fsr2l, fsr2h, status,2, status,0, cstack
  2803 ;; Tracked objects:
  2804 ;;		On entry : 0/0
  2805 ;;		On exit  : 0/0
  2806 ;;		Unchanged: 0/0
  2807 ;; Data sizes:     COMRAM   BANK0   BANK1   BANK2   BANK3   BANK4   BANK5   BANK6   BANK7
  2808 ;;      Params:         0       3       0       0       0       0       0       0       0
  2809 ;;      Locals:         0       1       0       0       0       0       0       0       0
  2810 ;;      Temps:          0       0       0       0       0       0       0       0       0
  2811 ;;      Totals:         0       4       0       0       0       0       0       0       0
  2812 ;;Total ram usage:        4 bytes
  2813 ;; Hardware stack levels used:    1
  2814 ;; Hardware stack levels required when called:    7
  2815 ;; This function calls:
  2816 ;;		_errorUART
  2817 ;;		_receive
  2818 ;; This function is called by:
  2819 ;;		_main
  2820 ;; This function uses a non-reentrant model
  2821 ;;
  2822                           
  2823                           	psect	text4
  2824  002850                     __ptext4:
  2825                           	opt callstack 0
  2826  002850                     _scanf:
  2827                           	opt callstack 23
  2828  002850                     
  2829                           ;Comunicacion.c: 18:     errorUART();
  2830  002850  ECC1  F013         	call	_errorUART	;wreg free
  2831  002854                     
  2832                           ;Comunicacion.c: 19:     for (uint8_t i = 0; i < numcaracteres; i++) {
  2833  002854  0E00               	movlw	0
  2834  002856  0100               	movlb	0	; () banked
  2835  002858  6F66               	movwf	scanf@i& (0+255),b
  2836  00285A  EF3A  F014         	goto	l3747
  2837  00285E                     l3743:
  2838                           
  2839                           ; BSR set to: 0
  2840                           ;Comunicacion.c: 21:         guardarscan[i] = receive();
  2841  00285E  5166               	movf	scanf@i& (0+255),w,b
  2842  002860  2563               	addwf	scanf@guardarscan& (0+255),w,b
  2843  002862  6ED9               	movwf	fsr2l,c
  2844  002864  0E00               	movlw	0
  2845  002866  2164               	addwfc	(scanf@guardarscan+1)& (0+255),w,b
  2846  002868  6EDA               	movwf	fsr2h,c
  2847  00286A  ECB0  F014         	call	_receive	;wreg free
  2848  00286E  6EDF               	movwf	indf2,c
  2849  002870                     
  2850                           ;Comunicacion.c: 22:     }
  2851  002870  0100               	movlb	0	; () banked
  2852  002872  2B66               	incf	scanf@i& (0+255),f,b
  2853  002874                     l3747:
  2854                           
  2855                           ; BSR set to: 0
  2856  002874  5165               	movf	scanf@numcaracteres& (0+255),w,b
  2857  002876  5D66               	subwf	scanf@i& (0+255),w,b
  2858  002878  A0D8               	btfss	status,0,c
  2859  00287A  EF41  F014         	goto	u3521
  2860  00287E  EF43  F014         	goto	u3520
  2861  002882                     u3521:
  2862  002882  EF2F  F014         	goto	l3743
  2863  002886                     u3520:
  2864  002886                     
  2865                           ; BSR set to: 0
  2866  002886  0012               	return		;funcret
  2867  002888                     __end_of_scanf:
  2868                           	opt callstack 0
  2869                           
  2870 ;; *************** function _portInit *****************
  2871 ;; Defined at:
  2872 ;;		line 11 in file "Gpio.c"
  2873 ;; Parameters:    Size  Location     Type
  2874 ;;		None
  2875 ;; Auto vars:     Size  Location     Type
  2876 ;;		None
  2877 ;; Return value:  Size  Location     Type
  2878 ;;                  1    wreg      void 
  2879 ;; Registers used:
  2880 ;;		wreg, status,2
  2881 ;; Tracked objects:
  2882 ;;		On entry : 0/0
  2883 ;;		On exit  : 0/0
  2884 ;;		Unchanged: 0/0
  2885 ;; Data sizes:     COMRAM   BANK0   BANK1   BANK2   BANK3   BANK4   BANK5   BANK6   BANK7
  2886 ;;      Params:         0       0       0       0       0       0       0       0       0
  2887 ;;      Locals:         0       0       0       0       0       0       0       0       0
  2888 ;;      Temps:          0       0       0       0       0       0       0       0       0
  2889 ;;      Totals:         0       0       0       0       0       0       0       0       0
  2890 ;;Total ram usage:        0 bytes
  2891 ;; Hardware stack levels used:    1
  2892 ;; Hardware stack levels required when called:    5
  2893 ;; This function calls:
  2894 ;;		Nothing
  2895 ;; This function is called by:
  2896 ;;		_main
  2897 ;; This function uses a non-reentrant model
  2898 ;;
  2899                           
  2900                           	psect	text5
  2901  002AA0                     __ptext5:
  2902                           	opt callstack 0
  2903  002AA0                     _portInit:
  2904                           	opt callstack 25
  2905  002AA0                     
  2906                           ;Gpio.c: 13:     TRISCbits.RC2 = 0;
  2907  002AA0  0E0F               	movlw	15
  2908  002AA2  12C1               	iorwf	193,f,c	;volatile
  2909                           
  2910                           ;Gpio.c: 14:     LATDbits.LATD2 = 1;
  2911  002AA4  0E70               	movlw	112
  2912  002AA6  6ED3               	movwf	211,c	;volatile
  2913  002AA8                     
  2914                           ;Gpio.c: 15:     LATDbits.LATD3 = 0;
  2915  002AA8  966D               	bcf	109,3,c	;volatile
  2916  002AAA                     
  2917                           ;Gpio.c: 16:     LATCbits.LATC2 = 0;
  2918  002AAA  866F               	bsf	111,3,c	;volatile
  2919  002AAC  0012               	return		;funcret
  2920  002AAE                     __end_of_portInit:
  2921                           	opt callstack 0
  2922                           
  2923 ;; *************** function _pistonInit *****************
  2924 ;; Defined at:
  2925 ;;		line 48 in file "Gpio.c"
  2926 ;; Parameters:    Size  Location     Type
  2927 ;;		None
  2928 ;; Auto vars:     Size  Location     Type
  2929 ;;		None
  2930 ;; Return value:  Size  Location     Type
  2931 ;;                  1    wreg      void 
  2932 ;; Registers used:
  2933 ;;		None
  2934 ;; Tracked objects:
  2935 ;;		On entry : 0/0
  2936 ;;		On exit  : 0/0
  2937 ;;		Unchanged: 0/0
  2938 ;; Data sizes:     COMRAM   BANK0   BANK1   BANK2   BANK3   BANK4   BANK5   BANK6   BANK7
  2939 ;;      Params:         0       0       0       0       0       0       0       0       0
  2940 ;;      Locals:         0       0       0       0       0       0       0       0       0
  2941 ;;      Temps:          0       0       0       0       0       0       0       0       0
  2942 ;;      Totals:         0       0       0       0       0       0       0       0       0
  2943 ;;Total ram usage:        0 bytes
  2944 ;; Hardware stack levels used:    1
  2945 ;; Hardware stack levels required when called:    5
  2946 ;; This function calls:
  2947 ;;		Nothing
  2948 ;; This function is called by:
  2949 ;;		_main
  2950 ;; This function uses a non-reentrant model
  2951 ;;
  2952                           
  2953                           	psect	text6
  2954  002ADA                     __ptext6:
  2955                           	opt callstack 0
  2956  002ADA                     _pistonInit:
  2957                           	opt callstack 25
  2958  002ADA  9096               	bcf	150,0,c	;volatile
  2959  002ADC  908D               	bcf	141,0,c	;volatile
  2960  002ADE  0012               	return		;funcret
  2961  002AE0                     __end_of_pistonInit:
  2962                           	opt callstack 0
  2963                           
  2964 ;; *************** function _moverHomeY *****************
  2965 ;; Defined at:
  2966 ;;		line 95 in file "MotoresXYZ.c"
  2967 ;; Parameters:    Size  Location     Type
  2968 ;;		None
  2969 ;; Auto vars:     Size  Location     Type
  2970 ;;		None
  2971 ;; Return value:  Size  Location     Type
  2972 ;;                  1    wreg      void 
  2973 ;; Registers used:
  2974 ;;		wreg, status,2, status,0, prodl, prodh, cstack
  2975 ;; Tracked objects:
  2976 ;;		On entry : 0/0
  2977 ;;		On exit  : 0/0
  2978 ;;		Unchanged: 0/0
  2979 ;; Data sizes:     COMRAM   BANK0   BANK1   BANK2   BANK3   BANK4   BANK5   BANK6   BANK7
  2980 ;;      Params:         0       0       0       0       0       0       0       0       0
  2981 ;;      Locals:         0       0       0       0       0       0       0       0       0
  2982 ;;      Temps:          0       0       0       0       0       0       0       0       0
  2983 ;;      Totals:         0       0       0       0       0       0       0       0       0
  2984 ;;Total ram usage:        0 bytes
  2985 ;; Hardware stack levels used:    1
  2986 ;; Hardware stack levels required when called:    7
  2987 ;; This function calls:
  2988 ;;		_PWM_DutyCycleCCP2
  2989 ;; This function is called by:
  2990 ;;		_main
  2991 ;; This function uses a non-reentrant model
  2992 ;;
  2993                           
  2994                           	psect	text7
  2995  002A38                     __ptext7:
  2996                           	opt callstack 0
  2997  002A38                     _moverHomeY:
  2998                           	opt callstack 23
  2999  002A38                     
  3000                           ;MotoresXYZ.c: 96:     LATDbits.LATD0 = 0;
  3001  002A38  908C               	bcf	140,0,c	;volatile
  3002  002A3A                     
  3003                           ;MotoresXYZ.c: 97:     destinoHomeY = 1;
  3004  002A3A  0E01               	movlw	1
  3005  002A3C  6E42               	movwf	_destinoHomeY^0,c
  3006  002A3E                     
  3007                           ;MotoresXYZ.c: 99:     LATDbits.LATD1 = 0;
  3008  002A3E  928C               	bcf	140,1,c	;volatile
  3009                           
  3010                           ;MotoresXYZ.c: 100:     sparcEnMovimientoY = 1;
  3011  002A40  0E01               	movlw	1
  3012  002A42  0100               	movlb	0	; () banked
  3013  002A44  6FDA               	movwf	_sparcEnMovimientoY& (0+255),b
  3014  002A46                     
  3015                           ; BSR set to: 0
  3016                           ;MotoresXYZ.c: 101:     PWM_DutyCycleCCP2(50);
  3017  002A46  0E32               	movlw	50
  3018  002A48  EC84  F011         	call	_PWM_DutyCycleCCP2
  3019  002A4C  0012               	return		;funcret
  3020  002A4E                     __end_of_moverHomeY:
  3021                           	opt callstack 0
  3022                           
  3023 ;; *************** function _moverHomeX *****************
  3024 ;; Defined at:
  3025 ;;		line 84 in file "MotoresXYZ.c"
  3026 ;; Parameters:    Size  Location     Type
  3027 ;;		None
  3028 ;; Auto vars:     Size  Location     Type
  3029 ;;		None
  3030 ;; Return value:  Size  Location     Type
  3031 ;;                  1    wreg      void 
  3032 ;; Registers used:
  3033 ;;		wreg, status,2, status,0, prodl, prodh, cstack
  3034 ;; Tracked objects:
  3035 ;;		On entry : 0/0
  3036 ;;		On exit  : 0/0
  3037 ;;		Unchanged: 0/0
  3038 ;; Data sizes:     COMRAM   BANK0   BANK1   BANK2   BANK3   BANK4   BANK5   BANK6   BANK7
  3039 ;;      Params:         0       0       0       0       0       0       0       0       0
  3040 ;;      Locals:         0       0       0       0       0       0       0       0       0
  3041 ;;      Temps:          0       0       0       0       0       0       0       0       0
  3042 ;;      Totals:         0       0       0       0       0       0       0       0       0
  3043 ;;Total ram usage:        0 bytes
  3044 ;; Hardware stack levels used:    1
  3045 ;; Hardware stack levels required when called:    7
  3046 ;; This function calls:
  3047 ;;		_PWM_DutyCycleCCP1
  3048 ;; This function is called by:
  3049 ;;		_main
  3050 ;; This function uses a non-reentrant model
  3051 ;;
  3052                           
  3053                           	psect	text8
  3054  002A4E                     __ptext8:
  3055                           	opt callstack 0
  3056  002A4E                     _moverHomeX:
  3057                           	opt callstack 23
  3058  002A4E                     
  3059                           ;MotoresXYZ.c: 85:     LATDbits.LATD2 = 0;
  3060  002A4E  948C               	bcf	140,2,c	;volatile
  3061  002A50                     
  3062                           ;MotoresXYZ.c: 86:     destinoHomeX = 1;
  3063  002A50  0E01               	movlw	1
  3064  002A52  6E43               	movwf	_destinoHomeX^0,c
  3065  002A54                     
  3066                           ;MotoresXYZ.c: 88:     LATDbits.LATD3 = 0;
  3067  002A54  968C               	bcf	140,3,c	;volatile
  3068                           
  3069                           ;MotoresXYZ.c: 89:     sparcEnMovimientoX = 1;
  3070  002A56  0E01               	movlw	1
  3071  002A58  0100               	movlb	0	; () banked
  3072  002A5A  6FDB               	movwf	_sparcEnMovimientoX& (0+255),b
  3073  002A5C                     
  3074                           ; BSR set to: 0
  3075                           ;MotoresXYZ.c: 91:     PWM_DutyCycleCCP1(50);
  3076  002A5C  0E32               	movlw	50
  3077  002A5E  ECE2  F011         	call	_PWM_DutyCycleCCP1
  3078  002A62  0012               	return		;funcret
  3079  002A64                     __end_of_moverHomeX:
  3080                           	opt callstack 0
  3081                           
  3082 ;; *************** function _moverHaciaXY *****************
  3083 ;; Defined at:
  3084 ;;		line 11 in file "FuncionesMenu.c"
  3085 ;; Parameters:    Size  Location     Type
  3086 ;;		None
  3087 ;; Auto vars:     Size  Location     Type
  3088 ;;  validarCoord    2   89[BANK0 ] unsigned short 
  3089 ;;  validarCoord    2   87[BANK0 ] unsigned short 
  3090 ;;  charNoNumeri    1   91[BANK0 ] unsigned char 
  3091 ;; Return value:  Size  Location     Type
  3092 ;;                  1    wreg      void 
  3093 ;; Registers used:
  3094 ;;		wreg, status,2, status,0, tblptrl, tblptrh, tblptru, prodl, prodh, cstack
  3095 ;; Tracked objects:
  3096 ;;		On entry : 0/0
  3097 ;;		On exit  : 0/0
  3098 ;;		Unchanged: 0/0
  3099 ;; Data sizes:     COMRAM   BANK0   BANK1   BANK2   BANK3   BANK4   BANK5   BANK6   BANK7
  3100 ;;      Params:         0       0       0       0       0       0       0       0       0
  3101 ;;      Locals:         0       5       0       0       0       0       0       0       0
  3102 ;;      Temps:          0       2       0       0       0       0       0       0       0
  3103 ;;      Totals:         0       7       0       0       0       0       0       0       0
  3104 ;;Total ram usage:        7 bytes
  3105 ;; Hardware stack levels used:    1
  3106 ;; Hardware stack levels required when called:    9
  3107 ;; This function calls:
  3108 ;;		_moverHaciaX
  3109 ;;		_moverHaciaY
  3110 ;;		_printf
  3111 ;;		_receive
  3112 ;;		_send
  3113 ;; This function is called by:
  3114 ;;		_main
  3115 ;; This function uses a non-reentrant model
  3116 ;;
  3117                           
  3118                           	psect	text9
  3119  0014CA                     __ptext9:
  3120                           	opt callstack 0
  3121  0014CA                     _moverHaciaXY:
  3122                           	opt callstack 21
  3123  0014CA                     
  3124                           ;FuncionesMenu.c: 12:     uint8_t charNoNumerico = 0;
  3125  0014CA  0E00               	movlw	0
  3126  0014CC  0100               	movlb	0	; () banked
  3127  0014CE  6FBB               	movwf	moverHaciaXY@charNoNumerico& (0+255),b
  3128                           
  3129                           ;FuncionesMenu.c: 14:     uint16_t validarCoordY = 0;
  3130  0014D0  0E00               	movlw	0
  3131  0014D2  6FBA               	movwf	(moverHaciaXY@validarCoordY+1)& (0+255),b
  3132  0014D4  0E00               	movlw	0
  3133  0014D6  6FB9               	movwf	moverHaciaXY@validarCoordY& (0+255),b
  3134  0014D8                     
  3135                           ; BSR set to: 0
  3136                           ;FuncionesMenu.c: 15:     printf("X:\n");
  3137  0014D8  0EF3               	movlw	low STR_1
  3138  0014DA  6F63               	movwf	printf@PointString& (0+255),b
  3139  0014DC  0E7F               	movlw	high STR_1
  3140  0014DE  6F64               	movwf	(printf@PointString+1)& (0+255),b
  3141  0014E0  EC2A  F013         	call	_printf	;wreg free
  3142  0014E4                     
  3143                           ;FuncionesMenu.c: 16:     coordXCentenas = receive();
  3144  0014E4  ECB0  F014         	call	_receive	;wreg free
  3145  0014E8  0100               	movlb	0	; () banked
  3146  0014EA  6FE4               	movwf	_coordXCentenas& (0+255),b
  3147  0014EC                     
  3148                           ; BSR set to: 0
  3149                           ;FuncionesMenu.c: 17:     coordXDecenas = receive();
  3150  0014EC  ECB0  F014         	call	_receive	;wreg free
  3151  0014F0  0100               	movlb	0	; () banked
  3152  0014F2  6FE3               	movwf	_coordXDecenas& (0+255),b
  3153  0014F4                     
  3154                           ; BSR set to: 0
  3155                           ;FuncionesMenu.c: 18:     coordXUnidades = receive();
  3156  0014F4  ECB0  F014         	call	_receive	;wreg free
  3157  0014F8  0100               	movlb	0	; () banked
  3158  0014FA  6FE2               	movwf	_coordXUnidades& (0+255),b
  3159  0014FC                     
  3160                           ; BSR set to: 0
  3161                           ;FuncionesMenu.c: 19:     printf("Y:\n");
  3162  0014FC  0EF7               	movlw	low STR_2
  3163  0014FE  6F63               	movwf	printf@PointString& (0+255),b
  3164  001500  0E7F               	movlw	high STR_2
  3165  001502  6F64               	movwf	(printf@PointString+1)& (0+255),b
  3166  001504  EC2A  F013         	call	_printf	;wreg free
  3167  001508                     
  3168                           ;FuncionesMenu.c: 20:     coordYCentenas = receive();
  3169  001508  ECB0  F014         	call	_receive	;wreg free
  3170  00150C  0100               	movlb	0	; () banked
  3171  00150E  6FE1               	movwf	_coordYCentenas& (0+255),b
  3172  001510                     
  3173                           ; BSR set to: 0
  3174                           ;FuncionesMenu.c: 21:     coordYDecenas = receive();
  3175  001510  ECB0  F014         	call	_receive	;wreg free
  3176  001514  0100               	movlb	0	; () banked
  3177  001516  6FE0               	movwf	_coordYDecenas& (0+255),b
  3178  001518                     
  3179                           ; BSR set to: 0
  3180                           ;FuncionesMenu.c: 22:     coordYUnidades = receive();
  3181  001518  ECB0  F014         	call	_receive	;wreg free
  3182  00151C  0100               	movlb	0	; () banked
  3183  00151E  6FDF               	movwf	_coordYUnidades& (0+255),b
  3184  001520                     
  3185                           ; BSR set to: 0
  3186                           ;FuncionesMenu.c: 23:     validarCoordX = ((coordXCentenas - 48)*100)+((coordXDecenas - 
      +                          48)*10)+(coordXUnidades - 48);
  3187  001520  51E4               	movf	_coordXCentenas& (0+255),w,b
  3188  001522  0D64               	mullw	100
  3189  001524  CFF3 F0B5          	movff	prodl,??_moverHaciaXY
  3190  001528  CFF4 F0B6          	movff	prodh,??_moverHaciaXY+1
  3191  00152C  51E3               	movf	_coordXDecenas& (0+255),w,b
  3192  00152E  0D0A               	mullw	10
  3193  001530  50F3               	movf	243,w,c
  3194  001532  27B5               	addwf	??_moverHaciaXY& (0+255),f,b
  3195  001534  50F4               	movf	244,w,c
  3196  001536  23B6               	addwfc	(??_moverHaciaXY+1)& (0+255),f,b
  3197  001538  51E2               	movf	_coordXUnidades& (0+255),w,b
  3198  00153A  27B5               	addwf	??_moverHaciaXY& (0+255),f,b
  3199  00153C  0E00               	movlw	0
  3200  00153E  23B6               	addwfc	(??_moverHaciaXY+1)& (0+255),f,b
  3201  001540  0E30               	movlw	48
  3202  001542  25B5               	addwf	??_moverHaciaXY& (0+255),w,b
  3203  001544  6FB7               	movwf	moverHaciaXY@validarCoordX& (0+255),b
  3204  001546  0EEB               	movlw	235
  3205  001548  21B6               	addwfc	(??_moverHaciaXY+1)& (0+255),w,b
  3206  00154A  6FB8               	movwf	(moverHaciaXY@validarCoordX+1)& (0+255),b
  3207  00154C                     
  3208                           ; BSR set to: 0
  3209                           ;FuncionesMenu.c: 24:     validarCoordY = ((coordYCentenas - 48)*100)+((coordYDecenas - 
      +                          48)*10)+(coordYUnidades - 48);
  3210  00154C  51E1               	movf	_coordYCentenas& (0+255),w,b
  3211  00154E  0D64               	mullw	100
  3212  001550  CFF3 F0B5          	movff	prodl,??_moverHaciaXY
  3213  001554  CFF4 F0B6          	movff	prodh,??_moverHaciaXY+1
  3214  001558  51E0               	movf	_coordYDecenas& (0+255),w,b
  3215  00155A  0D0A               	mullw	10
  3216  00155C  50F3               	movf	243,w,c
  3217  00155E  27B5               	addwf	??_moverHaciaXY& (0+255),f,b
  3218  001560  50F4               	movf	244,w,c
  3219  001562  23B6               	addwfc	(??_moverHaciaXY+1)& (0+255),f,b
  3220  001564  51DF               	movf	_coordYUnidades& (0+255),w,b
  3221  001566  27B5               	addwf	??_moverHaciaXY& (0+255),f,b
  3222  001568  0E00               	movlw	0
  3223  00156A  23B6               	addwfc	(??_moverHaciaXY+1)& (0+255),f,b
  3224  00156C  0E30               	movlw	48
  3225  00156E  25B5               	addwf	??_moverHaciaXY& (0+255),w,b
  3226  001570  6FB9               	movwf	moverHaciaXY@validarCoordY& (0+255),b
  3227  001572  0EEB               	movlw	235
  3228  001574  21B6               	addwfc	(??_moverHaciaXY+1)& (0+255),w,b
  3229  001576  6FBA               	movwf	(moverHaciaXY@validarCoordY+1)& (0+255),b
  3230  001578                     
  3231                           ; BSR set to: 0
  3232                           ;FuncionesMenu.c: 25:     if (coordXCentenas > 57 || coordXCentenas < 48) {
  3233  001578  0E3A               	movlw	58
  3234  00157A  61E4               	cpfslt	_coordXCentenas& (0+255),b
  3235  00157C  EFC2  F00A         	goto	u3531
  3236  001580  EFC4  F00A         	goto	u3530
  3237  001584                     u3531:
  3238  001584  EFCC  F00A         	goto	l3787
  3239  001588                     u3530:
  3240  001588                     
  3241                           ; BSR set to: 0
  3242  001588  0E30               	movlw	48
  3243  00158A  61E4               	cpfslt	_coordXCentenas& (0+255),b
  3244  00158C  EFCA  F00A         	goto	u3541
  3245  001590  EFCC  F00A         	goto	u3540
  3246  001594                     u3541:
  3247  001594  EFCE  F00A         	goto	l3789
  3248  001598                     u3540:
  3249  001598                     l3787:
  3250                           
  3251                           ; BSR set to: 0
  3252                           ;FuncionesMenu.c: 27:         charNoNumerico = 1;
  3253  001598  0E01               	movlw	1
  3254  00159A  6FBB               	movwf	moverHaciaXY@charNoNumerico& (0+255),b
  3255  00159C                     l3789:
  3256                           
  3257                           ; BSR set to: 0
  3258                           ;FuncionesMenu.c: 29:     if (coordXDecenas > 57 || coordXDecenas < 48) {
  3259  00159C  0E3A               	movlw	58
  3260  00159E  61E3               	cpfslt	_coordXDecenas& (0+255),b
  3261  0015A0  EFD4  F00A         	goto	u3551
  3262  0015A4  EFD6  F00A         	goto	u3550
  3263  0015A8                     u3551:
  3264  0015A8  EFDE  F00A         	goto	l3793
  3265  0015AC                     u3550:
  3266  0015AC                     
  3267                           ; BSR set to: 0
  3268  0015AC  0E30               	movlw	48
  3269  0015AE  61E3               	cpfslt	_coordXDecenas& (0+255),b
  3270  0015B0  EFDC  F00A         	goto	u3561
  3271  0015B4  EFDE  F00A         	goto	u3560
  3272  0015B8                     u3561:
  3273  0015B8  EFE0  F00A         	goto	l3795
  3274  0015BC                     u3560:
  3275  0015BC                     l3793:
  3276                           
  3277                           ; BSR set to: 0
  3278                           ;FuncionesMenu.c: 31:         charNoNumerico = 1;
  3279  0015BC  0E01               	movlw	1
  3280  0015BE  6FBB               	movwf	moverHaciaXY@charNoNumerico& (0+255),b
  3281  0015C0                     l3795:
  3282                           
  3283                           ; BSR set to: 0
  3284                           ;FuncionesMenu.c: 33:     if (coordXUnidades > 57 || coordXUnidades < 48) {
  3285  0015C0  0E3A               	movlw	58
  3286  0015C2  61E2               	cpfslt	_coordXUnidades& (0+255),b
  3287  0015C4  EFE6  F00A         	goto	u3571
  3288  0015C8  EFE8  F00A         	goto	u3570
  3289  0015CC                     u3571:
  3290  0015CC  EFF0  F00A         	goto	l3799
  3291  0015D0                     u3570:
  3292  0015D0                     
  3293                           ; BSR set to: 0
  3294  0015D0  0E30               	movlw	48
  3295  0015D2  61E2               	cpfslt	_coordXUnidades& (0+255),b
  3296  0015D4  EFEE  F00A         	goto	u3581
  3297  0015D8  EFF0  F00A         	goto	u3580
  3298  0015DC                     u3581:
  3299  0015DC  EFF2  F00A         	goto	l3801
  3300  0015E0                     u3580:
  3301  0015E0                     l3799:
  3302                           
  3303                           ; BSR set to: 0
  3304                           ;FuncionesMenu.c: 35:         charNoNumerico = 1;
  3305  0015E0  0E01               	movlw	1
  3306  0015E2  6FBB               	movwf	moverHaciaXY@charNoNumerico& (0+255),b
  3307  0015E4                     l3801:
  3308                           
  3309                           ; BSR set to: 0
  3310                           ;FuncionesMenu.c: 37:     if (coordYCentenas > 57 || coordYCentenas < 48) {
  3311  0015E4  0E3A               	movlw	58
  3312  0015E6  61E1               	cpfslt	_coordYCentenas& (0+255),b
  3313  0015E8  EFF8  F00A         	goto	u3591
  3314  0015EC  EFFA  F00A         	goto	u3590
  3315  0015F0                     u3591:
  3316  0015F0  EF02  F00B         	goto	l3805
  3317  0015F4                     u3590:
  3318  0015F4                     
  3319                           ; BSR set to: 0
  3320  0015F4  0E30               	movlw	48
  3321  0015F6  61E1               	cpfslt	_coordYCentenas& (0+255),b
  3322  0015F8  EF00  F00B         	goto	u3601
  3323  0015FC  EF02  F00B         	goto	u3600
  3324  001600                     u3601:
  3325  001600  EF04  F00B         	goto	l3807
  3326  001604                     u3600:
  3327  001604                     l3805:
  3328                           
  3329                           ; BSR set to: 0
  3330                           ;FuncionesMenu.c: 39:         charNoNumerico = 1;
  3331  001604  0E01               	movlw	1
  3332  001606  6FBB               	movwf	moverHaciaXY@charNoNumerico& (0+255),b
  3333  001608                     l3807:
  3334                           
  3335                           ; BSR set to: 0
  3336                           ;FuncionesMenu.c: 41:     if (coordYDecenas > 57 || coordYDecenas < 48) {
  3337  001608  0E3A               	movlw	58
  3338  00160A  61E0               	cpfslt	_coordYDecenas& (0+255),b
  3339  00160C  EF0A  F00B         	goto	u3611
  3340  001610  EF0C  F00B         	goto	u3610
  3341  001614                     u3611:
  3342  001614  EF14  F00B         	goto	l3811
  3343  001618                     u3610:
  3344  001618                     
  3345                           ; BSR set to: 0
  3346  001618  0E30               	movlw	48
  3347  00161A  61E0               	cpfslt	_coordYDecenas& (0+255),b
  3348  00161C  EF12  F00B         	goto	u3621
  3349  001620  EF14  F00B         	goto	u3620
  3350  001624                     u3621:
  3351  001624  EF16  F00B         	goto	l3813
  3352  001628                     u3620:
  3353  001628                     l3811:
  3354                           
  3355                           ; BSR set to: 0
  3356                           ;FuncionesMenu.c: 43:         charNoNumerico = 1;
  3357  001628  0E01               	movlw	1
  3358  00162A  6FBB               	movwf	moverHaciaXY@charNoNumerico& (0+255),b
  3359  00162C                     l3813:
  3360                           
  3361                           ; BSR set to: 0
  3362                           ;FuncionesMenu.c: 45:     if (coordYUnidades > 57 || coordYUnidades < 48) {
  3363  00162C  0E3A               	movlw	58
  3364  00162E  61DF               	cpfslt	_coordYUnidades& (0+255),b
  3365  001630  EF1C  F00B         	goto	u3631
  3366  001634  EF1E  F00B         	goto	u3630
  3367  001638                     u3631:
  3368  001638  EF26  F00B         	goto	l3817
  3369  00163C                     u3630:
  3370  00163C                     
  3371                           ; BSR set to: 0
  3372  00163C  0E30               	movlw	48
  3373  00163E  61DF               	cpfslt	_coordYUnidades& (0+255),b
  3374  001640  EF24  F00B         	goto	u3641
  3375  001644  EF26  F00B         	goto	u3640
  3376  001648                     u3641:
  3377  001648  EF28  F00B         	goto	l3819
  3378  00164C                     u3640:
  3379  00164C                     l3817:
  3380                           
  3381                           ; BSR set to: 0
  3382                           ;FuncionesMenu.c: 47:         charNoNumerico = 1;
  3383  00164C  0E01               	movlw	1
  3384  00164E  6FBB               	movwf	moverHaciaXY@charNoNumerico& (0+255),b
  3385  001650                     l3819:
  3386                           
  3387                           ; BSR set to: 0
  3388                           ;FuncionesMenu.c: 49:     if (((validarCoordX > 300) || (validarCoordY > 300)) || (charN
      +                          oNumerico == 1)) {
  3389  001650  0E2D               	movlw	45
  3390  001652  5DB7               	subwf	moverHaciaXY@validarCoordX& (0+255),w,b
  3391  001654  0E01               	movlw	1
  3392  001656  59B8               	subwfb	(moverHaciaXY@validarCoordX+1)& (0+255),w,b
  3393  001658  B0D8               	btfsc	status,0,c
  3394  00165A  EF31  F00B         	goto	u3651
  3395  00165E  EF33  F00B         	goto	u3650
  3396  001662                     u3651:
  3397  001662  EF46  F00B         	goto	l3825
  3398  001666                     u3650:
  3399  001666                     
  3400                           ; BSR set to: 0
  3401  001666  0E2D               	movlw	45
  3402  001668  5DB9               	subwf	moverHaciaXY@validarCoordY& (0+255),w,b
  3403  00166A  0E01               	movlw	1
  3404  00166C  59BA               	subwfb	(moverHaciaXY@validarCoordY+1)& (0+255),w,b
  3405  00166E  B0D8               	btfsc	status,0,c
  3406  001670  EF3C  F00B         	goto	u3661
  3407  001674  EF3E  F00B         	goto	u3660
  3408  001678                     u3661:
  3409  001678  EF46  F00B         	goto	l3825
  3410  00167C                     u3660:
  3411  00167C                     
  3412                           ; BSR set to: 0
  3413  00167C  05BB               	decf	moverHaciaXY@charNoNumerico& (0+255),w,b
  3414  00167E  A4D8               	btfss	status,2,c
  3415  001680  EF44  F00B         	goto	u3671
  3416  001684  EF46  F00B         	goto	u3670
  3417  001688                     u3671:
  3418  001688  EF55  F00B         	goto	l3827
  3419  00168C                     u3670:
  3420  00168C                     l3825:
  3421                           
  3422                           ; BSR set to: 0
  3423                           ;FuncionesMenu.c: 50:         printf("Metiste una coordenada invalida, vuelve a intentar
      +                          \n");
  3424  00168C  0E48               	movlw	low STR_3
  3425  00168E  6F63               	movwf	printf@PointString& (0+255),b
  3426  001690  0E7D               	movlw	high STR_3
  3427  001692  6F64               	movwf	(printf@PointString+1)& (0+255),b
  3428  001694  EC2A  F013         	call	_printf	;wreg free
  3429                           
  3430                           ;FuncionesMenu.c: 51:         printf("E,cNoV\n");
  3431  001698  0EDE               	movlw	low STR_4
  3432  00169A  0100               	movlb	0	; () banked
  3433  00169C  6F63               	movwf	printf@PointString& (0+255),b
  3434  00169E  0E7F               	movlw	high STR_4
  3435  0016A0  6F64               	movwf	(printf@PointString+1)& (0+255),b
  3436  0016A2  EC2A  F013         	call	_printf	;wreg free
  3437                           
  3438                           ;FuncionesMenu.c: 53:     } else {
  3439  0016A6  EF90  F00B         	goto	l326
  3440  0016AA                     l3827:
  3441                           
  3442                           ; BSR set to: 0
  3443                           ;FuncionesMenu.c: 54:         printf("Coordenada recibida, lo que recibimos fue:");
  3444  0016AA  0ED8               	movlw	low STR_5
  3445  0016AC  6F63               	movwf	printf@PointString& (0+255),b
  3446  0016AE  0E7D               	movlw	high STR_5
  3447  0016B0  6F64               	movwf	(printf@PointString+1)& (0+255),b
  3448  0016B2  EC2A  F013         	call	_printf	;wreg free
  3449  0016B6                     
  3450                           ;FuncionesMenu.c: 55:         send(coordXCentenas);
  3451  0016B6  0100               	movlb	0	; () banked
  3452  0016B8  51E4               	movf	_coordXCentenas& (0+255),w,b
  3453  0016BA  ECCF  F014         	call	_send
  3454  0016BE                     
  3455                           ;FuncionesMenu.c: 56:         send(coordXDecenas);
  3456  0016BE  0100               	movlb	0	; () banked
  3457  0016C0  51E3               	movf	_coordXDecenas& (0+255),w,b
  3458  0016C2  ECCF  F014         	call	_send
  3459  0016C6                     
  3460                           ;FuncionesMenu.c: 57:         send(coordXUnidades);
  3461  0016C6  0100               	movlb	0	; () banked
  3462  0016C8  51E2               	movf	_coordXUnidades& (0+255),w,b
  3463  0016CA  ECCF  F014         	call	_send
  3464  0016CE                     
  3465                           ;FuncionesMenu.c: 58:         send(',');
  3466  0016CE  0E2C               	movlw	44
  3467  0016D0  ECCF  F014         	call	_send
  3468  0016D4                     
  3469                           ;FuncionesMenu.c: 59:         send(coordYCentenas);
  3470  0016D4  0100               	movlb	0	; () banked
  3471  0016D6  51E1               	movf	_coordYCentenas& (0+255),w,b
  3472  0016D8  ECCF  F014         	call	_send
  3473  0016DC                     
  3474                           ;FuncionesMenu.c: 60:         send(coordYDecenas);
  3475  0016DC  0100               	movlb	0	; () banked
  3476  0016DE  51E0               	movf	_coordYDecenas& (0+255),w,b
  3477  0016E0  ECCF  F014         	call	_send
  3478  0016E4                     
  3479                           ;FuncionesMenu.c: 61:         send(coordYUnidades);
  3480  0016E4  0100               	movlb	0	; () banked
  3481  0016E6  51DF               	movf	_coordYUnidades& (0+255),w,b
  3482  0016E8  ECCF  F014         	call	_send
  3483  0016EC                     
  3484                           ;FuncionesMenu.c: 62:         send('\n');
  3485  0016EC  0E0A               	movlw	10
  3486  0016EE  ECCF  F014         	call	_send
  3487  0016F2                     
  3488                           ;FuncionesMenu.c: 64:         moverHaciaX(coordXCentenas, coordXDecenas, coordXUnidades)
      +                          ;
  3489  0016F2  C0E3  F0B0         	movff	_coordXDecenas,moverHaciaX@coordXDecenas
  3490  0016F6  C0E2  F0B1         	movff	_coordXUnidades,moverHaciaX@coordXUnidades
  3491  0016FA  0100               	movlb	0	; () banked
  3492  0016FC  51E4               	movf	_coordXCentenas& (0+255),w,b
  3493  0016FE  EC39  F010         	call	_moverHaciaX
  3494  001702                     
  3495                           ;FuncionesMenu.c: 65:         moverHaciaY(coordYCentenas, coordYDecenas, coordYUnidades)
      +                          ;
  3496  001702  C0E0  F0B0         	movff	_coordYDecenas,moverHaciaY@coordYDecenas
  3497  001706  C0DF  F0B1         	movff	_coordYUnidades,moverHaciaY@coordYUnidades
  3498  00170A  0100               	movlb	0	; () banked
  3499  00170C  51E1               	movf	_coordYCentenas& (0+255),w,b
  3500  00170E  ECB7  F00F         	call	_moverHaciaY
  3501                           
  3502                           ;FuncionesMenu.c: 66:         printf("Ok,comF\n");
  3503  001712  0ED5               	movlw	low STR_6
  3504  001714  0100               	movlb	0	; () banked
  3505  001716  6F63               	movwf	printf@PointString& (0+255),b
  3506  001718  0E7F               	movlw	high STR_6
  3507  00171A  6F64               	movwf	(printf@PointString+1)& (0+255),b
  3508  00171C  EC2A  F013         	call	_printf	;wreg free
  3509  001720                     l326:
  3510  001720  0012               	return		;funcret
  3511  001722                     __end_of_moverHaciaXY:
  3512                           	opt callstack 0
  3513                           
  3514 ;; *************** function _moverHaciaY *****************
  3515 ;; Defined at:
  3516 ;;		line 13 in file "MotoresXYZ.c"
  3517 ;; Parameters:    Size  Location     Type
  3518 ;;  coordYCenten    1    wreg     unsigned char 
  3519 ;;  coordYDecena    1   80[BANK0 ] unsigned char 
  3520 ;;  coordYUnidad    1   81[BANK0 ] unsigned char 
  3521 ;; Auto vars:     Size  Location     Type
  3522 ;;  coordYCenten    1   84[BANK0 ] unsigned char 
  3523 ;; Return value:  Size  Location     Type
  3524 ;;                  1    wreg      void 
  3525 ;; Registers used:
  3526 ;;		wreg, status,2, status,0, tblptrl, tblptrh, tblptru, prodl, prodh, cstack
  3527 ;; Tracked objects:
  3528 ;;		On entry : 0/0
  3529 ;;		On exit  : 0/0
  3530 ;;		Unchanged: 0/0
  3531 ;; Data sizes:     COMRAM   BANK0   BANK1   BANK2   BANK3   BANK4   BANK5   BANK6   BANK7
  3532 ;;      Params:         0       2       0       0       0       0       0       0       0
  3533 ;;      Locals:         0       1       0       0       0       0       0       0       0
  3534 ;;      Temps:          0       2       0       0       0       0       0       0       0
  3535 ;;      Totals:         0       5       0       0       0       0       0       0       0
  3536 ;;Total ram usage:        5 bytes
  3537 ;; Hardware stack levels used:    1
  3538 ;; Hardware stack levels required when called:    8
  3539 ;; This function calls:
  3540 ;;		_PWM_DutyCycleCCP2
  3541 ;;		___wmul
  3542 ;;		_abs
  3543 ;;		_printf
  3544 ;;		_send
  3545 ;;		_setNumPasosY
  3546 ;; This function is called by:
  3547 ;;		_moverHaciaXY
  3548 ;;		_main
  3549 ;; This function uses a non-reentrant model
  3550 ;;
  3551                           
  3552                           	psect	text10
  3553  001F6E                     __ptext10:
  3554                           	opt callstack 0
  3555  001F6E                     _moverHaciaY:
  3556                           	opt callstack 22
  3557                           
  3558                           ;incstack = 0
  3559                           ;moverHaciaY@coordYCentenas stored from wreg
  3560  001F6E  0100               	movlb	0	; () banked
  3561  001F70  6FB4               	movwf	moverHaciaY@coordYCentenas& (0+255),b
  3562  001F72                     l3399:
  3563                           
  3564                           ;MotoresXYZ.c: 14:     while (sparcEnMovimientoY == 1) {
  3565  001F72  0100               	movlb	0	; () banked
  3566  001F74  05DA               	decf	_sparcEnMovimientoY& (0+255),w,b
  3567  001F76  B4D8               	btfsc	status,2,c
  3568  001F78  EFC0  F00F         	goto	u3021
  3569  001F7C  EFC2  F00F         	goto	u3020
  3570  001F80                     u3021:
  3571  001F80  EFB9  F00F         	goto	l3399
  3572  001F84                     u3020:
  3573  001F84                     
  3574                           ; BSR set to: 0
  3575                           ;MotoresXYZ.c: 18:     LATDbits.LATD0 = 0;
  3576  001F84  908C               	bcf	140,0,c	;volatile
  3577  001F86                     
  3578                           ; BSR set to: 0
  3579                           ;MotoresXYZ.c: 19:     coordinates.yWanted = ((coordYCentenas - 48)*100)+((coordYDecenas
      +                           - 48)*10)+(coordYUnidades - 48);
  3580  001F86  51B4               	movf	moverHaciaY@coordYCentenas& (0+255),w,b
  3581  001F88  0D64               	mullw	100
  3582  001F8A  CFF3 F0B2          	movff	prodl,??_moverHaciaY
  3583  001F8E  CFF4 F0B3          	movff	prodh,??_moverHaciaY+1
  3584  001F92  51B0               	movf	moverHaciaY@coordYDecenas& (0+255),w,b
  3585  001F94  0D0A               	mullw	10
  3586  001F96  50F3               	movf	243,w,c
  3587  001F98  27B2               	addwf	??_moverHaciaY& (0+255),f,b
  3588  001F9A  50F4               	movf	244,w,c
  3589  001F9C  23B3               	addwfc	(??_moverHaciaY+1)& (0+255),f,b
  3590  001F9E  51B1               	movf	moverHaciaY@coordYUnidades& (0+255),w,b
  3591  001FA0  27B2               	addwf	??_moverHaciaY& (0+255),f,b
  3592  001FA2  0E00               	movlw	0
  3593  001FA4  23B3               	addwfc	(??_moverHaciaY+1)& (0+255),f,b
  3594  001FA6  0E30               	movlw	48
  3595  001FA8  25B2               	addwf	??_moverHaciaY& (0+255),w,b
  3596  001FAA  6FCB               	movwf	(_coordinates+2)& (0+255),b
  3597  001FAC  0EEB               	movlw	235
  3598  001FAE  21B3               	addwfc	(??_moverHaciaY+1)& (0+255),w,b
  3599  001FB0  6FCC               	movwf	(_coordinates+3)& (0+255),b
  3600  001FB2                     
  3601                           ; BSR set to: 0
  3602                           ;MotoresXYZ.c: 20:     yToAdvance = (abs(coordinates.yWanted - CurrentPosY))*5;
  3603  001FB2  51CF               	movf	_CurrentPosY& (0+255),w,b
  3604  001FB4  5DCB               	subwf	(_coordinates+2)& (0+255),w,b
  3605  001FB6  6F61               	movwf	abs@a& (0+255),b
  3606  001FB8  51D0               	movf	(_CurrentPosY+1)& (0+255),w,b
  3607  001FBA  59CC               	subwfb	(_coordinates+3)& (0+255),w,b
  3608  001FBC  6F62               	movwf	(abs@a+1)& (0+255),b
  3609  001FBE  EC07  F014         	call	_abs	;wreg free
  3610  001FC2  C061  F065         	movff	?_abs,___wmul@multiplier
  3611  001FC6  C062  F066         	movff	?_abs+1,___wmul@multiplier+1
  3612  001FCA  0E00               	movlw	0
  3613  001FCC  0100               	movlb	0	; () banked
  3614  001FCE  6F68               	movwf	(___wmul@multiplicand+1)& (0+255),b
  3615  001FD0  0E05               	movlw	5
  3616  001FD2  6F67               	movwf	___wmul@multiplicand& (0+255),b
  3617  001FD4  EC7A  F014         	call	___wmul	;wreg free
  3618  001FD8  C065  F0D1         	movff	?___wmul,_yToAdvance
  3619  001FDC  C066  F0D2         	movff	?___wmul+1,_yToAdvance+1
  3620  001FE0                     
  3621                           ;MotoresXYZ.c: 21:     if (coordinates.yWanted > CurrentPosY) {
  3622  001FE0  0100               	movlb	0	; () banked
  3623  001FE2  51CB               	movf	(_coordinates+2)& (0+255),w,b
  3624  001FE4  5DCF               	subwf	_CurrentPosY& (0+255),w,b
  3625  001FE6  51CC               	movf	(_coordinates+3)& (0+255),w,b
  3626  001FE8  59D0               	subwfb	(_CurrentPosY+1)& (0+255),w,b
  3627  001FEA  B0D8               	btfsc	status,0,c
  3628  001FEC  EFFA  F00F         	goto	u3031
  3629  001FF0  EFFC  F00F         	goto	u3030
  3630  001FF4                     u3031:
  3631  001FF4  EFFF  F00F         	goto	l3409
  3632  001FF8                     u3030:
  3633  001FF8                     
  3634                           ; BSR set to: 0
  3635                           ;MotoresXYZ.c: 22:         LATDbits.LATD1 = 1;
  3636  001FF8  828C               	bsf	140,1,c	;volatile
  3637                           
  3638                           ;MotoresXYZ.c: 23:     } else if (coordinates.yWanted < CurrentPosY) {
  3639  001FFA  EF0B  F010         	goto	l3413
  3640  001FFE                     l3409:
  3641                           
  3642                           ; BSR set to: 0
  3643  001FFE  51CF               	movf	_CurrentPosY& (0+255),w,b
  3644  002000  5DCB               	subwf	(_coordinates+2)& (0+255),w,b
  3645  002002  51D0               	movf	(_CurrentPosY+1)& (0+255),w,b
  3646  002004  59CC               	subwfb	(_coordinates+3)& (0+255),w,b
  3647  002006  B0D8               	btfsc	status,0,c
  3648  002008  EF08  F010         	goto	u3041
  3649  00200C  EF0A  F010         	goto	u3040
  3650  002010                     u3041:
  3651  002010  EF0B  F010         	goto	l3413
  3652  002014                     u3040:
  3653  002014                     
  3654                           ; BSR set to: 0
  3655                           ;MotoresXYZ.c: 24:         LATDbits.LATD1 = 0;
  3656  002014  928C               	bcf	140,1,c	;volatile
  3657  002016                     l3413:
  3658                           
  3659                           ; BSR set to: 0
  3660                           ;MotoresXYZ.c: 26:     if (coordinates.yWanted != CurrentPosY) {
  3661  002016  51CF               	movf	_CurrentPosY& (0+255),w,b
  3662  002018  19CB               	xorwf	(_coordinates+2)& (0+255),w,b
  3663  00201A  E109               	bnz	u3050
  3664  00201C  51D0               	movf	(_CurrentPosY+1)& (0+255),w,b
  3665  00201E  19CC               	xorwf	(_coordinates+3)& (0+255),w,b
  3666  002020  B4D8               	btfsc	status,2,c
  3667  002022  EF15  F010         	goto	u3051
  3668  002026  EF17  F010         	goto	u3050
  3669  00202A                     u3051:
  3670  00202A  EF32  F010         	goto	l3427
  3671  00202E                     u3050:
  3672  00202E                     
  3673                           ; BSR set to: 0
  3674                           ;MotoresXYZ.c: 27:         printf("yToAdvance is: ");
  3675  00202E  0E50               	movlw	low STR_18
  3676  002030  6F63               	movwf	printf@PointString& (0+255),b
  3677  002032  0E7F               	movlw	high STR_18
  3678  002034  6F64               	movwf	(printf@PointString+1)& (0+255),b
  3679  002036  EC2A  F013         	call	_printf	;wreg free
  3680  00203A                     
  3681                           ;MotoresXYZ.c: 28:         send(yToAdvance);
  3682  00203A  0100               	movlb	0	; () banked
  3683  00203C  51D1               	movf	_yToAdvance& (0+255),w,b
  3684  00203E  ECCF  F014         	call	_send
  3685  002042                     
  3686                           ;MotoresXYZ.c: 29:         send('\n');
  3687  002042  0E0A               	movlw	10
  3688  002044  ECCF  F014         	call	_send
  3689  002048                     
  3690                           ;MotoresXYZ.c: 30:         sparcEnMovimientoY = 1;
  3691  002048  0E01               	movlw	1
  3692  00204A  0100               	movlb	0	; () banked
  3693  00204C  6FDA               	movwf	_sparcEnMovimientoY& (0+255),b
  3694  00204E                     
  3695                           ; BSR set to: 0
  3696                           ;MotoresXYZ.c: 32:         setNumPasosY(yToAdvance);
  3697  00204E  C0D1  F061         	movff	_yToAdvance,setNumPasosY@numPasosY
  3698  002052  C0D2  F062         	movff	_yToAdvance+1,setNumPasosY@numPasosY+1
  3699  002056  EC44  F014         	call	_setNumPasosY	;wreg free
  3700  00205A                     
  3701                           ;MotoresXYZ.c: 35:         PWM_DutyCycleCCP2(50);
  3702  00205A  0E32               	movlw	50
  3703  00205C  EC84  F011         	call	_PWM_DutyCycleCCP2
  3704                           
  3705                           ;MotoresXYZ.c: 37:     } else printf("E,coorAcY\n");
  3706  002060  EF38  F010         	goto	l437
  3707  002064                     l3427:
  3708                           
  3709                           ; BSR set to: 0
  3710  002064  0E7B               	movlw	low STR_19
  3711  002066  6F63               	movwf	printf@PointString& (0+255),b
  3712  002068  0E7F               	movlw	high STR_19
  3713  00206A  6F64               	movwf	(printf@PointString+1)& (0+255),b
  3714  00206C  EC2A  F013         	call	_printf	;wreg free
  3715  002070                     l437:
  3716  002070  0012               	return		;funcret
  3717  002072                     __end_of_moverHaciaY:
  3718                           	opt callstack 0
  3719                           
  3720 ;; *************** function _setNumPasosY *****************
  3721 ;; Defined at:
  3722 ;;		line 46 in file "Timers.c"
  3723 ;; Parameters:    Size  Location     Type
  3724 ;;  numPasosY       2    1[BANK0 ] unsigned short 
  3725 ;; Auto vars:     Size  Location     Type
  3726 ;;  resultado       2    3[BANK0 ] unsigned short 
  3727 ;; Return value:  Size  Location     Type
  3728 ;;                  1    wreg      void 
  3729 ;; Registers used:
  3730 ;;		wreg, status,2, status,0
  3731 ;; Tracked objects:
  3732 ;;		On entry : 0/0
  3733 ;;		On exit  : 0/0
  3734 ;;		Unchanged: 0/0
  3735 ;; Data sizes:     COMRAM   BANK0   BANK1   BANK2   BANK3   BANK4   BANK5   BANK6   BANK7
  3736 ;;      Params:         0       2       0       0       0       0       0       0       0
  3737 ;;      Locals:         0       2       0       0       0       0       0       0       0
  3738 ;;      Temps:          0       0       0       0       0       0       0       0       0
  3739 ;;      Totals:         0       4       0       0       0       0       0       0       0
  3740 ;;Total ram usage:        4 bytes
  3741 ;; Hardware stack levels used:    1
  3742 ;; Hardware stack levels required when called:    5
  3743 ;; This function calls:
  3744 ;;		Nothing
  3745 ;; This function is called by:
  3746 ;;		_moverHaciaY
  3747 ;; This function uses a non-reentrant model
  3748 ;;
  3749                           
  3750                           	psect	text11
  3751  002888                     __ptext11:
  3752                           	opt callstack 0
  3753  002888                     _setNumPasosY:
  3754                           	opt callstack 24
  3755  002888                     
  3756                           ;Timers.c: 49:     if (numPasosY > 0) {
  3757  002888  0100               	movlb	0	; () banked
  3758  00288A  5161               	movf	setNumPasosY@numPasosY& (0+255),w,b
  3759  00288C  1162               	iorwf	(setNumPasosY@numPasosY+1)& (0+255),w,b
  3760  00288E  B4D8               	btfsc	status,2,c
  3761  002890  EF4C  F014         	goto	u2561
  3762  002894  EF4E  F014         	goto	u2560
  3763  002898                     u2561:
  3764  002898  EF5C  F014         	goto	l227
  3765  00289C                     u2560:
  3766  00289C                     
  3767                           ; BSR set to: 0
  3768                           ;Timers.c: 51:         uint16_t resultado = (65536 - numPasosY);
  3769  00289C  5161               	movf	setNumPasosY@numPasosY& (0+255),w,b
  3770  00289E  0800               	sublw	0
  3771  0028A0  6F63               	movwf	setNumPasosY@resultado& (0+255),b
  3772  0028A2  5162               	movf	(setNumPasosY@numPasosY+1)& (0+255),w,b
  3773  0028A4  A0D8               	btfss	status,0,c
  3774  0028A6  2AE8               	incf	wreg,f,c
  3775  0028A8  0800               	sublw	0
  3776  0028AA  6F64               	movwf	(setNumPasosY@resultado+1)& (0+255),b
  3777  0028AC                     
  3778                           ; BSR set to: 0
  3779                           ;Timers.c: 52:         TMR0H = (resultado >> 8);
  3780  0028AC  5164               	movf	(setNumPasosY@resultado+1)& (0+255),w,b
  3781  0028AE  6ED7               	movwf	215,c	;volatile
  3782  0028B0                     
  3783                           ; BSR set to: 0
  3784                           ;Timers.c: 53:         TMR0L = resultado;
  3785  0028B0  C063  FFD6         	movff	setNumPasosY@resultado,4054	;volatile
  3786                           
  3787                           ;Timers.c: 54:     } else {
  3788  0028B4  EF5E  F014         	goto	l229
  3789  0028B8                     l227:
  3790                           
  3791                           ; BSR set to: 0
  3792                           ;Timers.c: 56:         TMR0H = (65535 >> 8);
  3793  0028B8  68D7               	setf	215,c	;volatile
  3794                           
  3795                           ;Timers.c: 57:         TMR0L = 65535;
  3796  0028BA  68D6               	setf	214,c	;volatile
  3797  0028BC                     l229:
  3798                           
  3799                           ; BSR set to: 0
  3800  0028BC  0012               	return		;funcret
  3801  0028BE                     __end_of_setNumPasosY:
  3802                           	opt callstack 0
  3803                           
  3804 ;; *************** function _PWM_DutyCycleCCP2 *****************
  3805 ;; Defined at:
  3806 ;;		line 16 in file "PWMCCP2.c"
  3807 ;; Parameters:    Size  Location     Type
  3808 ;;  WantedDutyCy    1    wreg     unsigned char 
  3809 ;; Auto vars:     Size  Location     Type
  3810 ;;  WantedDutyCy    1   77[BANK0 ] unsigned char 
  3811 ;;  PWMDutyValue    2   78[BANK0 ] unsigned short 
  3812 ;; Return value:  Size  Location     Type
  3813 ;;                  1    wreg      void 
  3814 ;; Registers used:
  3815 ;;		wreg, status,2, status,0, prodl, prodh, cstack
  3816 ;; Tracked objects:
  3817 ;;		On entry : 0/0
  3818 ;;		On exit  : 0/0
  3819 ;;		Unchanged: 0/0
  3820 ;; Data sizes:     COMRAM   BANK0   BANK1   BANK2   BANK3   BANK4   BANK5   BANK6   BANK7
  3821 ;;      Params:         0       0       0       0       0       0       0       0       0
  3822 ;;      Locals:         0       7       0       0       0       0       0       0       0
  3823 ;;      Temps:          0       2       0       0       0       0       0       0       0
  3824 ;;      Totals:         0       9       0       0       0       0       0       0       0
  3825 ;;Total ram usage:        9 bytes
  3826 ;; Hardware stack levels used:    1
  3827 ;; Hardware stack levels required when called:    6
  3828 ;; This function calls:
  3829 ;;		___flmul
  3830 ;;		___fltol
  3831 ;;		___xxtofl
  3832 ;; This function is called by:
  3833 ;;		_moverHaciaY
  3834 ;;		_moverHomeY
  3835 ;;		_main
  3836 ;;		_moverYInfinito
  3837 ;; This function uses a non-reentrant model
  3838 ;;
  3839                           
  3840                           	psect	text12
  3841  002308                     __ptext12:
  3842                           	opt callstack 0
  3843  002308                     _PWM_DutyCycleCCP2:
  3844                           	opt callstack 23
  3845                           
  3846                           ; BSR set to: 0
  3847                           ;incstack = 0
  3848                           ;PWM_DutyCycleCCP2@WantedDutyCycle stored from wreg
  3849  002308  0100               	movlb	0	; () banked
  3850  00230A  6FAD               	movwf	PWM_DutyCycleCCP2@WantedDutyCycle& (0+255),b
  3851  00230C                     
  3852                           ;PWMCCP2.c: 18:     uint16_t PWMDutyValue;;PWMCCP2.c: 19:     PWMDutyValue = (WantedDuty
      +                          Cycle * 0.01)*1000;
  3853  00230C  0E0A               	movlw	10
  3854  00230E  0100               	movlb	0	; () banked
  3855  002310  6F78               	movwf	___flmul@a& (0+255),b
  3856  002312  0ED7               	movlw	215
  3857  002314  6F79               	movwf	(___flmul@a+1)& (0+255),b
  3858  002316  0E23               	movlw	35
  3859  002318  6F7A               	movwf	(___flmul@a+2)& (0+255),b
  3860  00231A  0E3C               	movlw	60
  3861  00231C  6F7B               	movwf	(___flmul@a+3)& (0+255),b
  3862  00231E  51AD               	movf	PWM_DutyCycleCCP2@WantedDutyCycle& (0+255),w,b
  3863  002320  6F66               	movwf	___xxtofl@val& (0+255),b
  3864  002322  6B67               	clrf	(___xxtofl@val+1)& (0+255),b
  3865  002324  6B68               	clrf	(___xxtofl@val+2)& (0+255),b
  3866  002326  6B69               	clrf	(___xxtofl@val+3)& (0+255),b
  3867  002328  0E01               	movlw	1
  3868  00232A  EC74  F00C         	call	___xxtofl
  3869  00232E  C066  F074         	movff	?___xxtofl,___flmul@b
  3870  002332  C067  F075         	movff	?___xxtofl+1,___flmul@b+1
  3871  002336  C068  F076         	movff	?___xxtofl+2,___flmul@b+2
  3872  00233A  C069  F077         	movff	?___xxtofl+3,___flmul@b+3
  3873  00233E  ECE4  F004         	call	___flmul	;wreg free
  3874  002342  C074  F0A9         	movff	?___flmul,_PWM_DutyCycleCCP2$2924
  3875  002346  C075  F0AA         	movff	?___flmul+1,_PWM_DutyCycleCCP2$2924+1
  3876  00234A  C076  F0AB         	movff	?___flmul+2,_PWM_DutyCycleCCP2$2924+2
  3877  00234E  C077  F0AC         	movff	?___flmul+3,_PWM_DutyCycleCCP2$2924+3
  3878                           
  3879                           ;PWMCCP2.c: 18:     uint16_t PWMDutyValue;;PWMCCP2.c: 19:     PWMDutyValue = (WantedDuty
      +                          Cycle * 0.01)*1000;
  3880  002352  0E00               	movlw	0
  3881  002354  0100               	movlb	0	; () banked
  3882  002356  6F78               	movwf	___flmul@a& (0+255),b
  3883  002358  0E00               	movlw	0
  3884  00235A  6F79               	movwf	(___flmul@a+1)& (0+255),b
  3885  00235C  0E7A               	movlw	122
  3886  00235E  6F7A               	movwf	(___flmul@a+2)& (0+255),b
  3887  002360  0E44               	movlw	68
  3888  002362  6F7B               	movwf	(___flmul@a+3)& (0+255),b
  3889  002364  C0A9  F074         	movff	_PWM_DutyCycleCCP2$2924,___flmul@b
  3890  002368  C0AA  F075         	movff	_PWM_DutyCycleCCP2$2924+1,___flmul@b+1
  3891  00236C  C0AB  F076         	movff	_PWM_DutyCycleCCP2$2924+2,___flmul@b+2
  3892  002370  C0AC  F077         	movff	_PWM_DutyCycleCCP2$2924+3,___flmul@b+3
  3893  002374  ECE4  F004         	call	___flmul	;wreg free
  3894  002378  C074  F09D         	movff	?___flmul,___fltol@f1
  3895  00237C  C075  F09E         	movff	?___flmul+1,___fltol@f1+1
  3896  002380  C076  F09F         	movff	?___flmul+2,___fltol@f1+2
  3897  002384  C077  F0A0         	movff	?___flmul+3,___fltol@f1+3
  3898  002388  ECB0  F00E         	call	___fltol	;wreg free
  3899  00238C  C09D  F0AE         	movff	?___fltol,PWM_DutyCycleCCP2@PWMDutyValue
  3900  002390  C09E  F0AF         	movff	?___fltol+1,PWM_DutyCycleCCP2@PWMDutyValue+1
  3901  002394                     
  3902                           ;PWMCCP2.c: 21:     CCP2CONbits.DC2B = (PWMDutyValue & 0x03);
  3903  002394  C0AE  F0A7         	movff	PWM_DutyCycleCCP2@PWMDutyValue,??_PWM_DutyCycleCCP2
  3904  002398  0E03               	movlw	3
  3905  00239A  0100               	movlb	0	; () banked
  3906  00239C  17A7               	andwf	??_PWM_DutyCycleCCP2& (0+255),f,b
  3907  00239E  3BA7               	swapf	??_PWM_DutyCycleCCP2& (0+255),f,b
  3908  0023A0  50BA               	movf	186,w,c	;volatile
  3909  0023A2  19A7               	xorwf	??_PWM_DutyCycleCCP2& (0+255),w,b
  3910  0023A4  0BCF               	andlw	-49
  3911  0023A6  19A7               	xorwf	??_PWM_DutyCycleCCP2& (0+255),w,b
  3912  0023A8  6EBA               	movwf	186,c	;volatile
  3913  0023AA                     
  3914                           ; BSR set to: 0
  3915                           ;PWMCCP2.c: 22:     CCPR2L = ((PWMDutyValue >> 2)&0xFF);
  3916  0023AA  C0AE  F0A7         	movff	PWM_DutyCycleCCP2@PWMDutyValue,??_PWM_DutyCycleCCP2
  3917  0023AE  C0AF  F0A8         	movff	PWM_DutyCycleCCP2@PWMDutyValue+1,??_PWM_DutyCycleCCP2+1
  3918  0023B2  90D8               	bcf	status,0,c
  3919  0023B4  33A8               	rrcf	(??_PWM_DutyCycleCCP2+1)& (0+255),f,b
  3920  0023B6  33A7               	rrcf	??_PWM_DutyCycleCCP2& (0+255),f,b
  3921  0023B8  90D8               	bcf	status,0,c
  3922  0023BA  33A8               	rrcf	(??_PWM_DutyCycleCCP2+1)& (0+255),f,b
  3923  0023BC  33A7               	rrcf	??_PWM_DutyCycleCCP2& (0+255),f,b
  3924  0023BE  51A7               	movf	??_PWM_DutyCycleCCP2& (0+255),w,b
  3925  0023C0  6EBB               	movwf	187,c	;volatile
  3926  0023C2                     
  3927                           ; BSR set to: 0
  3928  0023C2  0012               	return		;funcret
  3929  0023C4                     __end_of_PWM_DutyCycleCCP2:
  3930                           	opt callstack 0
  3931                           
  3932 ;; *************** function _moverHaciaX *****************
  3933 ;; Defined at:
  3934 ;;		line 40 in file "MotoresXYZ.c"
  3935 ;; Parameters:    Size  Location     Type
  3936 ;;  coordXCenten    1    wreg     unsigned char 
  3937 ;;  coordXDecena    1   80[BANK0 ] unsigned char 
  3938 ;;  coordXUnidad    1   81[BANK0 ] unsigned char 
  3939 ;; Auto vars:     Size  Location     Type
  3940 ;;  coordXCenten    1   84[BANK0 ] unsigned char 
  3941 ;; Return value:  Size  Location     Type
  3942 ;;                  1    wreg      void 
  3943 ;; Registers used:
  3944 ;;		wreg, status,2, status,0, tblptrl, tblptrh, tblptru, prodl, prodh, cstack
  3945 ;; Tracked objects:
  3946 ;;		On entry : 0/0
  3947 ;;		On exit  : 0/0
  3948 ;;		Unchanged: 0/0
  3949 ;; Data sizes:     COMRAM   BANK0   BANK1   BANK2   BANK3   BANK4   BANK5   BANK6   BANK7
  3950 ;;      Params:         0       2       0       0       0       0       0       0       0
  3951 ;;      Locals:         0       1       0       0       0       0       0       0       0
  3952 ;;      Temps:          0       2       0       0       0       0       0       0       0
  3953 ;;      Totals:         0       5       0       0       0       0       0       0       0
  3954 ;;Total ram usage:        5 bytes
  3955 ;; Hardware stack levels used:    1
  3956 ;; Hardware stack levels required when called:    8
  3957 ;; This function calls:
  3958 ;;		_PWM_DutyCycleCCP1
  3959 ;;		___wmul
  3960 ;;		_abs
  3961 ;;		_printf
  3962 ;;		_send
  3963 ;;		_setNumPasosX
  3964 ;; This function is called by:
  3965 ;;		_moverHaciaXY
  3966 ;;		_main
  3967 ;; This function uses a non-reentrant model
  3968 ;;
  3969                           
  3970                           	psect	text13
  3971  002072                     __ptext13:
  3972                           	opt callstack 0
  3973  002072                     _moverHaciaX:
  3974                           	opt callstack 21
  3975                           
  3976                           ; BSR set to: 0
  3977                           ;incstack = 0
  3978                           ;moverHaciaX@coordXCentenas stored from wreg
  3979  002072  0100               	movlb	0	; () banked
  3980  002074  6FB4               	movwf	moverHaciaX@coordXCentenas& (0+255),b
  3981  002076                     l3367:
  3982                           
  3983                           ;MotoresXYZ.c: 41:     while (sparcEnMovimientoX == 1) {
  3984  002076  0100               	movlb	0	; () banked
  3985  002078  05DB               	decf	_sparcEnMovimientoX& (0+255),w,b
  3986  00207A  B4D8               	btfsc	status,2,c
  3987  00207C  EF42  F010         	goto	u2981
  3988  002080  EF44  F010         	goto	u2980
  3989  002084                     u2981:
  3990  002084  EF3B  F010         	goto	l3367
  3991  002088                     u2980:
  3992  002088                     
  3993                           ; BSR set to: 0
  3994                           ;MotoresXYZ.c: 45:     LATDbits.LATD2 = 0;
  3995  002088  948C               	bcf	140,2,c	;volatile
  3996  00208A                     
  3997                           ; BSR set to: 0
  3998                           ;MotoresXYZ.c: 46:     coordinates.xWanted = ((coordXCentenas - 48)*100)+((coordXDecenas
      +                           - 48)*10)+(coordXUnidades - 48);
  3999  00208A  51B4               	movf	moverHaciaX@coordXCentenas& (0+255),w,b
  4000  00208C  0D64               	mullw	100
  4001  00208E  CFF3 F0B2          	movff	prodl,??_moverHaciaX
  4002  002092  CFF4 F0B3          	movff	prodh,??_moverHaciaX+1
  4003  002096  51B0               	movf	moverHaciaX@coordXDecenas& (0+255),w,b
  4004  002098  0D0A               	mullw	10
  4005  00209A  50F3               	movf	243,w,c
  4006  00209C  27B2               	addwf	??_moverHaciaX& (0+255),f,b
  4007  00209E  50F4               	movf	244,w,c
  4008  0020A0  23B3               	addwfc	(??_moverHaciaX+1)& (0+255),f,b
  4009  0020A2  51B1               	movf	moverHaciaX@coordXUnidades& (0+255),w,b
  4010  0020A4  27B2               	addwf	??_moverHaciaX& (0+255),f,b
  4011  0020A6  0E00               	movlw	0
  4012  0020A8  23B3               	addwfc	(??_moverHaciaX+1)& (0+255),f,b
  4013  0020AA  0E30               	movlw	48
  4014  0020AC  25B2               	addwf	??_moverHaciaX& (0+255),w,b
  4015  0020AE  6FC9               	movwf	_coordinates& (0+255),b
  4016  0020B0  0EEB               	movlw	235
  4017  0020B2  21B3               	addwfc	(??_moverHaciaX+1)& (0+255),w,b
  4018  0020B4  6FCA               	movwf	(_coordinates+1)& (0+255),b
  4019  0020B6                     
  4020                           ; BSR set to: 0
  4021                           ;MotoresXYZ.c: 47:     xToAdvance = (abs(coordinates.xWanted - CurrentPosX))*5;
  4022  0020B6  51D3               	movf	_CurrentPosX& (0+255),w,b
  4023  0020B8  5DC9               	subwf	_coordinates& (0+255),w,b
  4024  0020BA  6F61               	movwf	abs@a& (0+255),b
  4025  0020BC  51D4               	movf	(_CurrentPosX+1)& (0+255),w,b
  4026  0020BE  59CA               	subwfb	(_coordinates+1)& (0+255),w,b
  4027  0020C0  6F62               	movwf	(abs@a+1)& (0+255),b
  4028  0020C2  EC07  F014         	call	_abs	;wreg free
  4029  0020C6  C061  F065         	movff	?_abs,___wmul@multiplier
  4030  0020CA  C062  F066         	movff	?_abs+1,___wmul@multiplier+1
  4031  0020CE  0E00               	movlw	0
  4032  0020D0  0100               	movlb	0	; () banked
  4033  0020D2  6F68               	movwf	(___wmul@multiplicand+1)& (0+255),b
  4034  0020D4  0E05               	movlw	5
  4035  0020D6  6F67               	movwf	___wmul@multiplicand& (0+255),b
  4036  0020D8  EC7A  F014         	call	___wmul	;wreg free
  4037  0020DC  C065  F0D5         	movff	?___wmul,_xToAdvance
  4038  0020E0  C066  F0D6         	movff	?___wmul+1,_xToAdvance+1
  4039  0020E4                     
  4040                           ;MotoresXYZ.c: 49:     if (coordinates.xWanted > CurrentPosX) {
  4041  0020E4  0100               	movlb	0	; () banked
  4042  0020E6  51C9               	movf	_coordinates& (0+255),w,b
  4043  0020E8  5DD3               	subwf	_CurrentPosX& (0+255),w,b
  4044  0020EA  51CA               	movf	(_coordinates+1)& (0+255),w,b
  4045  0020EC  59D4               	subwfb	(_CurrentPosX+1)& (0+255),w,b
  4046  0020EE  B0D8               	btfsc	status,0,c
  4047  0020F0  EF7C  F010         	goto	u2991
  4048  0020F4  EF7E  F010         	goto	u2990
  4049  0020F8                     u2991:
  4050  0020F8  EF81  F010         	goto	l3377
  4051  0020FC                     u2990:
  4052  0020FC                     
  4053                           ; BSR set to: 0
  4054                           ;MotoresXYZ.c: 50:         LATDbits.LATD3 = 1;
  4055  0020FC  868C               	bsf	140,3,c	;volatile
  4056                           
  4057                           ;MotoresXYZ.c: 51:     } else if (coordinates.xWanted < CurrentPosX) {
  4058  0020FE  EF8D  F010         	goto	l3381
  4059  002102                     l3377:
  4060                           
  4061                           ; BSR set to: 0
  4062  002102  51D3               	movf	_CurrentPosX& (0+255),w,b
  4063  002104  5DC9               	subwf	_coordinates& (0+255),w,b
  4064  002106  51D4               	movf	(_CurrentPosX+1)& (0+255),w,b
  4065  002108  59CA               	subwfb	(_coordinates+1)& (0+255),w,b
  4066  00210A  B0D8               	btfsc	status,0,c
  4067  00210C  EF8A  F010         	goto	u3001
  4068  002110  EF8C  F010         	goto	u3000
  4069  002114                     u3001:
  4070  002114  EF8D  F010         	goto	l3381
  4071  002118                     u3000:
  4072  002118                     
  4073                           ; BSR set to: 0
  4074                           ;MotoresXYZ.c: 52:         LATDbits.LATD3 = 0;
  4075  002118  968C               	bcf	140,3,c	;volatile
  4076  00211A                     l3381:
  4077                           
  4078                           ; BSR set to: 0
  4079                           ;MotoresXYZ.c: 54:     if (coordinates.xWanted != CurrentPosX) {
  4080  00211A  51D3               	movf	_CurrentPosX& (0+255),w,b
  4081  00211C  19C9               	xorwf	_coordinates& (0+255),w,b
  4082  00211E  E109               	bnz	u3010
  4083  002120  51D4               	movf	(_CurrentPosX+1)& (0+255),w,b
  4084  002122  19CA               	xorwf	(_coordinates+1)& (0+255),w,b
  4085  002124  B4D8               	btfsc	status,2,c
  4086  002126  EF97  F010         	goto	u3011
  4087  00212A  EF99  F010         	goto	u3010
  4088  00212E                     u3011:
  4089  00212E  EFB4  F010         	goto	l3395
  4090  002132                     u3010:
  4091  002132                     
  4092                           ; BSR set to: 0
  4093                           ;MotoresXYZ.c: 55:         printf("xToAdvance is: ");
  4094  002132  0E40               	movlw	low STR_20
  4095  002134  6F63               	movwf	printf@PointString& (0+255),b
  4096  002136  0E7F               	movlw	high STR_20
  4097  002138  6F64               	movwf	(printf@PointString+1)& (0+255),b
  4098  00213A  EC2A  F013         	call	_printf	;wreg free
  4099  00213E                     
  4100                           ;MotoresXYZ.c: 56:         send(xToAdvance);
  4101  00213E  0100               	movlb	0	; () banked
  4102  002140  51D5               	movf	_xToAdvance& (0+255),w,b
  4103  002142  ECCF  F014         	call	_send
  4104  002146                     
  4105                           ;MotoresXYZ.c: 57:         send('\n');
  4106  002146  0E0A               	movlw	10
  4107  002148  ECCF  F014         	call	_send
  4108  00214C                     
  4109                           ;MotoresXYZ.c: 58:         sparcEnMovimientoX = 1;
  4110  00214C  0E01               	movlw	1
  4111  00214E  0100               	movlb	0	; () banked
  4112  002150  6FDB               	movwf	_sparcEnMovimientoX& (0+255),b
  4113  002152                     
  4114                           ; BSR set to: 0
  4115                           ;MotoresXYZ.c: 60:         setNumPasosX(xToAdvance);
  4116  002152  C0D5  F061         	movff	_xToAdvance,setNumPasosX@numPasosX
  4117  002156  C0D6  F062         	movff	_xToAdvance+1,setNumPasosX@numPasosX+1
  4118  00215A  EC5F  F014         	call	_setNumPasosX	;wreg free
  4119  00215E                     
  4120                           ;MotoresXYZ.c: 62:         PWM_DutyCycleCCP1(50);
  4121  00215E  0E32               	movlw	50
  4122  002160  ECE2  F011         	call	_PWM_DutyCycleCCP1
  4123                           
  4124                           ;MotoresXYZ.c: 64:     } else printf("E,coorAcX\n");
  4125  002164  EFBA  F010         	goto	l448
  4126  002168                     l3395:
  4127                           
  4128                           ; BSR set to: 0
  4129  002168  0E70               	movlw	low STR_21
  4130  00216A  6F63               	movwf	printf@PointString& (0+255),b
  4131  00216C  0E7F               	movlw	high STR_21
  4132  00216E  6F64               	movwf	(printf@PointString+1)& (0+255),b
  4133  002170  EC2A  F013         	call	_printf	;wreg free
  4134  002174                     l448:
  4135  002174  0012               	return		;funcret
  4136  002176                     __end_of_moverHaciaX:
  4137                           	opt callstack 0
  4138                           
  4139 ;; *************** function _setNumPasosX *****************
  4140 ;; Defined at:
  4141 ;;		line 31 in file "Timers.c"
  4142 ;; Parameters:    Size  Location     Type
  4143 ;;  numPasosX       2    1[BANK0 ] unsigned short 
  4144 ;; Auto vars:     Size  Location     Type
  4145 ;;  resultado       2    3[BANK0 ] unsigned short 
  4146 ;; Return value:  Size  Location     Type
  4147 ;;                  1    wreg      void 
  4148 ;; Registers used:
  4149 ;;		wreg, status,2, status,0
  4150 ;; Tracked objects:
  4151 ;;		On entry : 0/0
  4152 ;;		On exit  : 0/0
  4153 ;;		Unchanged: 0/0
  4154 ;; Data sizes:     COMRAM   BANK0   BANK1   BANK2   BANK3   BANK4   BANK5   BANK6   BANK7
  4155 ;;      Params:         0       2       0       0       0       0       0       0       0
  4156 ;;      Locals:         0       2       0       0       0       0       0       0       0
  4157 ;;      Temps:          0       0       0       0       0       0       0       0       0
  4158 ;;      Totals:         0       4       0       0       0       0       0       0       0
  4159 ;;Total ram usage:        4 bytes
  4160 ;; Hardware stack levels used:    1
  4161 ;; Hardware stack levels required when called:    5
  4162 ;; This function calls:
  4163 ;;		Nothing
  4164 ;; This function is called by:
  4165 ;;		_moverHaciaX
  4166 ;; This function uses a non-reentrant model
  4167 ;;
  4168                           
  4169                           	psect	text14
  4170  0028BE                     __ptext14:
  4171                           	opt callstack 0
  4172  0028BE                     _setNumPasosX:
  4173                           	opt callstack 23
  4174  0028BE                     
  4175                           ;Timers.c: 34:     if (numPasosX > 0) {
  4176  0028BE  0100               	movlb	0	; () banked
  4177  0028C0  5161               	movf	setNumPasosX@numPasosX& (0+255),w,b
  4178  0028C2  1162               	iorwf	(setNumPasosX@numPasosX+1)& (0+255),w,b
  4179  0028C4  B4D8               	btfsc	status,2,c
  4180  0028C6  EF67  F014         	goto	u2551
  4181  0028CA  EF69  F014         	goto	u2550
  4182  0028CE                     u2551:
  4183  0028CE  EF77  F014         	goto	l222
  4184  0028D2                     u2550:
  4185  0028D2                     
  4186                           ; BSR set to: 0
  4187                           ;Timers.c: 36:         uint16_t resultado = (65537 - numPasosX);
  4188  0028D2  5161               	movf	setNumPasosX@numPasosX& (0+255),w,b
  4189  0028D4  0801               	sublw	1
  4190  0028D6  6F63               	movwf	setNumPasosX@resultado& (0+255),b
  4191  0028D8  5162               	movf	(setNumPasosX@numPasosX+1)& (0+255),w,b
  4192  0028DA  A0D8               	btfss	status,0,c
  4193  0028DC  2AE8               	incf	wreg,f,c
  4194  0028DE  0800               	sublw	0
  4195  0028E0  6F64               	movwf	(setNumPasosX@resultado+1)& (0+255),b
  4196  0028E2                     
  4197                           ; BSR set to: 0
  4198                           ;Timers.c: 37:         TMR1H = (resultado >> 8);
  4199  0028E2  5164               	movf	(setNumPasosX@resultado+1)& (0+255),w,b
  4200  0028E4  6ECF               	movwf	207,c	;volatile
  4201  0028E6                     
  4202                           ; BSR set to: 0
  4203                           ;Timers.c: 38:         TMR1L = resultado;
  4204  0028E6  C063  FFCE         	movff	setNumPasosX@resultado,4046	;volatile
  4205                           
  4206                           ;Timers.c: 39:     } else {
  4207  0028EA  EF79  F014         	goto	l224
  4208  0028EE                     l222:
  4209                           
  4210                           ; BSR set to: 0
  4211                           ;Timers.c: 41:         TMR1H = (65535 >> 8);
  4212  0028EE  68CF               	setf	207,c	;volatile
  4213                           
  4214                           ;Timers.c: 42:         TMR1L = 65535;
  4215  0028F0  68CE               	setf	206,c	;volatile
  4216  0028F2                     l224:
  4217                           
  4218                           ; BSR set to: 0
  4219  0028F2  0012               	return		;funcret
  4220  0028F4                     __end_of_setNumPasosX:
  4221                           	opt callstack 0
  4222                           
  4223 ;; *************** function _abs *****************
  4224 ;; Defined at:
  4225 ;;		line 1 in file "C:\Program Files (x86)\Microchip\xc8\v2.10\pic\sources\c99\common\abs.c"
  4226 ;; Parameters:    Size  Location     Type
  4227 ;;  a               2    1[BANK0 ] int 
  4228 ;; Auto vars:     Size  Location     Type
  4229 ;;		None
  4230 ;; Return value:  Size  Location     Type
  4231 ;;                  2    1[BANK0 ] int 
  4232 ;; Registers used:
  4233 ;;		wreg, status,2, status,0
  4234 ;; Tracked objects:
  4235 ;;		On entry : 0/0
  4236 ;;		On exit  : 0/0
  4237 ;;		Unchanged: 0/0
  4238 ;; Data sizes:     COMRAM   BANK0   BANK1   BANK2   BANK3   BANK4   BANK5   BANK6   BANK7
  4239 ;;      Params:         0       2       0       0       0       0       0       0       0
  4240 ;;      Locals:         0       0       0       0       0       0       0       0       0
  4241 ;;      Temps:          0       2       0       0       0       0       0       0       0
  4242 ;;      Totals:         0       4       0       0       0       0       0       0       0
  4243 ;;Total ram usage:        4 bytes
  4244 ;; Hardware stack levels used:    1
  4245 ;; Hardware stack levels required when called:    5
  4246 ;; This function calls:
  4247 ;;		Nothing
  4248 ;; This function is called by:
  4249 ;;		_moverHaciaY
  4250 ;;		_moverHaciaX
  4251 ;; This function uses a non-reentrant model
  4252 ;;
  4253                           
  4254                           	psect	text15
  4255  00280E                     __ptext15:
  4256                           	opt callstack 0
  4257  00280E                     _abs:
  4258                           	opt callstack 24
  4259  00280E  0100               	movlb	0	; () banked
  4260  002810  BF62               	btfsc	(abs@a+1)& (0+255),7,b
  4261  002812  EF15  F014         	goto	u2570
  4262  002816  5162               	movf	(abs@a+1)& (0+255),w,b
  4263  002818  E106               	bnz	u2571
  4264  00281A  0561               	decf	abs@a& (0+255),w,b
  4265  00281C  B0D8               	btfsc	status,0,c
  4266  00281E  EF13  F014         	goto	u2571
  4267  002822  EF15  F014         	goto	u2570
  4268  002826                     u2571:
  4269  002826  EF23  F014         	goto	l1342
  4270  00282A                     u2570:
  4271  00282A                     
  4272                           ; BSR set to: 0
  4273  00282A  C061  F063         	movff	abs@a,??_abs
  4274  00282E  C062  F064         	movff	abs@a+1,??_abs+1
  4275  002832  1F63               	comf	??_abs& (0+255),f,b
  4276  002834  1F64               	comf	(??_abs+1)& (0+255),f,b
  4277  002836  4B63               	infsnz	??_abs& (0+255),f,b
  4278  002838  2B64               	incf	(??_abs+1)& (0+255),f,b
  4279  00283A  C063  F061         	movff	??_abs,?_abs
  4280  00283E  C064  F062         	movff	??_abs+1,?_abs+1
  4281  002842  EF27  F014         	goto	l1345
  4282  002846                     l1342:
  4283                           
  4284                           ; BSR set to: 0
  4285  002846  C061  F061         	movff	abs@a,?_abs
  4286  00284A  C062  F062         	movff	abs@a+1,?_abs+1
  4287  00284E                     l1345:
  4288                           
  4289                           ; BSR set to: 0
  4290  00284E  0012               	return		;funcret
  4291  002850                     __end_of_abs:
  4292                           	opt callstack 0
  4293                           
  4294 ;; *************** function ___wmul *****************
  4295 ;; Defined at:
  4296 ;;		line 15 in file "C:\Program Files (x86)\Microchip\xc8\v2.10\pic\sources\c99\common\Umul16.c"
  4297 ;; Parameters:    Size  Location     Type
  4298 ;;  multiplier      2    5[BANK0 ] unsigned int 
  4299 ;;  multiplicand    2    7[BANK0 ] unsigned int 
  4300 ;; Auto vars:     Size  Location     Type
  4301 ;;  product         2    9[BANK0 ] unsigned int 
  4302 ;; Return value:  Size  Location     Type
  4303 ;;                  2    5[BANK0 ] unsigned int 
  4304 ;; Registers used:
  4305 ;;		wreg, status,2, status,0, prodl, prodh
  4306 ;; Tracked objects:
  4307 ;;		On entry : 0/0
  4308 ;;		On exit  : 0/0
  4309 ;;		Unchanged: 0/0
  4310 ;; Data sizes:     COMRAM   BANK0   BANK1   BANK2   BANK3   BANK4   BANK5   BANK6   BANK7
  4311 ;;      Params:         0       4       0       0       0       0       0       0       0
  4312 ;;      Locals:         0       2       0       0       0       0       0       0       0
  4313 ;;      Temps:          0       0       0       0       0       0       0       0       0
  4314 ;;      Totals:         0       6       0       0       0       0       0       0       0
  4315 ;;Total ram usage:        6 bytes
  4316 ;; Hardware stack levels used:    1
  4317 ;; Hardware stack levels required when called:    5
  4318 ;; This function calls:
  4319 ;;		Nothing
  4320 ;; This function is called by:
  4321 ;;		_moverHaciaY
  4322 ;;		_moverHaciaX
  4323 ;; This function uses a non-reentrant model
  4324 ;;
  4325                           
  4326                           	psect	text16
  4327  0028F4                     __ptext16:
  4328                           	opt callstack 0
  4329  0028F4                     ___wmul:
  4330                           	opt callstack 24
  4331  0028F4  0100               	movlb	0	; () banked
  4332  0028F6  5165               	movf	___wmul@multiplier& (0+255),w,b
  4333  0028F8  0367               	mulwf	___wmul@multiplicand& (0+255),b
  4334  0028FA  CFF3 F069          	movff	prodl,___wmul@product
  4335  0028FE  CFF4 F06A          	movff	prodh,___wmul@product+1
  4336  002902  5165               	movf	___wmul@multiplier& (0+255),w,b
  4337  002904  0368               	mulwf	(___wmul@multiplicand+1)& (0+255),b
  4338  002906  50F3               	movf	243,w,c
  4339  002908  276A               	addwf	(___wmul@product+1)& (0+255),f,b
  4340  00290A  5166               	movf	(___wmul@multiplier+1)& (0+255),w,b
  4341  00290C  0367               	mulwf	___wmul@multiplicand& (0+255),b
  4342  00290E  50F3               	movf	243,w,c
  4343  002910  276A               	addwf	(___wmul@product+1)& (0+255),f,b
  4344  002912                     
  4345                           ; BSR set to: 0
  4346  002912  C069  F065         	movff	___wmul@product,?___wmul
  4347  002916  C06A  F066         	movff	___wmul@product+1,?___wmul+1
  4348  00291A                     
  4349                           ; BSR set to: 0
  4350  00291A  0012               	return		;funcret
  4351  00291C                     __end_of___wmul:
  4352                           	opt callstack 0
  4353                           
  4354 ;; *************** function _PWM_DutyCycleCCP1 *****************
  4355 ;; Defined at:
  4356 ;;		line 17 in file "PWMCCP1.c"
  4357 ;; Parameters:    Size  Location     Type
  4358 ;;  WantedDutyCy    1    wreg     unsigned char 
  4359 ;; Auto vars:     Size  Location     Type
  4360 ;;  WantedDutyCy    1   77[BANK0 ] unsigned char 
  4361 ;;  PWMDutyValue    2   78[BANK0 ] unsigned short 
  4362 ;; Return value:  Size  Location     Type
  4363 ;;                  1    wreg      void 
  4364 ;; Registers used:
  4365 ;;		wreg, status,2, status,0, prodl, prodh, cstack
  4366 ;; Tracked objects:
  4367 ;;		On entry : 0/0
  4368 ;;		On exit  : 0/0
  4369 ;;		Unchanged: 0/0
  4370 ;; Data sizes:     COMRAM   BANK0   BANK1   BANK2   BANK3   BANK4   BANK5   BANK6   BANK7
  4371 ;;      Params:         0       0       0       0       0       0       0       0       0
  4372 ;;      Locals:         0       7       0       0       0       0       0       0       0
  4373 ;;      Temps:          0       2       0       0       0       0       0       0       0
  4374 ;;      Totals:         0       9       0       0       0       0       0       0       0
  4375 ;;Total ram usage:        9 bytes
  4376 ;; Hardware stack levels used:    1
  4377 ;; Hardware stack levels required when called:    6
  4378 ;; This function calls:
  4379 ;;		___flmul
  4380 ;;		___fltol
  4381 ;;		___xxtofl
  4382 ;; This function is called by:
  4383 ;;		_moverHaciaX
  4384 ;;		_moverHomeX
  4385 ;;		_main
  4386 ;;		_moverXInfinito
  4387 ;; This function uses a non-reentrant model
  4388 ;;
  4389                           
  4390                           	psect	text17
  4391  0023C4                     __ptext17:
  4392                           	opt callstack 0
  4393  0023C4                     _PWM_DutyCycleCCP1:
  4394                           	opt callstack 23
  4395                           
  4396                           ; BSR set to: 0
  4397                           ;incstack = 0
  4398                           ;PWM_DutyCycleCCP1@WantedDutyCycle stored from wreg
  4399  0023C4  0100               	movlb	0	; () banked
  4400  0023C6  6FAD               	movwf	PWM_DutyCycleCCP1@WantedDutyCycle& (0+255),b
  4401  0023C8                     
  4402                           ;PWMCCP1.c: 19:     uint16_t PWMDutyValue;;PWMCCP1.c: 20:     PWMDutyValue = (WantedDuty
      +                          Cycle * 0.01)*1000;
  4403  0023C8  0E0A               	movlw	10
  4404  0023CA  0100               	movlb	0	; () banked
  4405  0023CC  6F78               	movwf	___flmul@a& (0+255),b
  4406  0023CE  0ED7               	movlw	215
  4407  0023D0  6F79               	movwf	(___flmul@a+1)& (0+255),b
  4408  0023D2  0E23               	movlw	35
  4409  0023D4  6F7A               	movwf	(___flmul@a+2)& (0+255),b
  4410  0023D6  0E3C               	movlw	60
  4411  0023D8  6F7B               	movwf	(___flmul@a+3)& (0+255),b
  4412  0023DA  51AD               	movf	PWM_DutyCycleCCP1@WantedDutyCycle& (0+255),w,b
  4413  0023DC  6F66               	movwf	___xxtofl@val& (0+255),b
  4414  0023DE  6B67               	clrf	(___xxtofl@val+1)& (0+255),b
  4415  0023E0  6B68               	clrf	(___xxtofl@val+2)& (0+255),b
  4416  0023E2  6B69               	clrf	(___xxtofl@val+3)& (0+255),b
  4417  0023E4  0E01               	movlw	1
  4418  0023E6  EC74  F00C         	call	___xxtofl
  4419  0023EA  C066  F074         	movff	?___xxtofl,___flmul@b
  4420  0023EE  C067  F075         	movff	?___xxtofl+1,___flmul@b+1
  4421  0023F2  C068  F076         	movff	?___xxtofl+2,___flmul@b+2
  4422  0023F6  C069  F077         	movff	?___xxtofl+3,___flmul@b+3
  4423  0023FA  ECE4  F004         	call	___flmul	;wreg free
  4424  0023FE  C074  F0A9         	movff	?___flmul,_PWM_DutyCycleCCP1$2925
  4425  002402  C075  F0AA         	movff	?___flmul+1,_PWM_DutyCycleCCP1$2925+1
  4426  002406  C076  F0AB         	movff	?___flmul+2,_PWM_DutyCycleCCP1$2925+2
  4427  00240A  C077  F0AC         	movff	?___flmul+3,_PWM_DutyCycleCCP1$2925+3
  4428                           
  4429                           ;PWMCCP1.c: 19:     uint16_t PWMDutyValue;;PWMCCP1.c: 20:     PWMDutyValue = (WantedDuty
      +                          Cycle * 0.01)*1000;
  4430  00240E  0E00               	movlw	0
  4431  002410  0100               	movlb	0	; () banked
  4432  002412  6F78               	movwf	___flmul@a& (0+255),b
  4433  002414  0E00               	movlw	0
  4434  002416  6F79               	movwf	(___flmul@a+1)& (0+255),b
  4435  002418  0E7A               	movlw	122
  4436  00241A  6F7A               	movwf	(___flmul@a+2)& (0+255),b
  4437  00241C  0E44               	movlw	68
  4438  00241E  6F7B               	movwf	(___flmul@a+3)& (0+255),b
  4439  002420  C0A9  F074         	movff	_PWM_DutyCycleCCP1$2925,___flmul@b
  4440  002424  C0AA  F075         	movff	_PWM_DutyCycleCCP1$2925+1,___flmul@b+1
  4441  002428  C0AB  F076         	movff	_PWM_DutyCycleCCP1$2925+2,___flmul@b+2
  4442  00242C  C0AC  F077         	movff	_PWM_DutyCycleCCP1$2925+3,___flmul@b+3
  4443  002430  ECE4  F004         	call	___flmul	;wreg free
  4444  002434  C074  F09D         	movff	?___flmul,___fltol@f1
  4445  002438  C075  F09E         	movff	?___flmul+1,___fltol@f1+1
  4446  00243C  C076  F09F         	movff	?___flmul+2,___fltol@f1+2
  4447  002440  C077  F0A0         	movff	?___flmul+3,___fltol@f1+3
  4448  002444  ECB0  F00E         	call	___fltol	;wreg free
  4449  002448  C09D  F0AE         	movff	?___fltol,PWM_DutyCycleCCP1@PWMDutyValue
  4450  00244C  C09E  F0AF         	movff	?___fltol+1,PWM_DutyCycleCCP1@PWMDutyValue+1
  4451  002450                     
  4452                           ;PWMCCP1.c: 22:     CCP1CONbits.DC1B = (PWMDutyValue & 0x03);
  4453  002450  C0AE  F0A7         	movff	PWM_DutyCycleCCP1@PWMDutyValue,??_PWM_DutyCycleCCP1
  4454  002454  0E03               	movlw	3
  4455  002456  0100               	movlb	0	; () banked
  4456  002458  17A7               	andwf	??_PWM_DutyCycleCCP1& (0+255),f,b
  4457  00245A  3BA7               	swapf	??_PWM_DutyCycleCCP1& (0+255),f,b
  4458  00245C  50BD               	movf	189,w,c	;volatile
  4459  00245E  19A7               	xorwf	??_PWM_DutyCycleCCP1& (0+255),w,b
  4460  002460  0BCF               	andlw	-49
  4461  002462  19A7               	xorwf	??_PWM_DutyCycleCCP1& (0+255),w,b
  4462  002464  6EBD               	movwf	189,c	;volatile
  4463  002466                     
  4464                           ; BSR set to: 0
  4465                           ;PWMCCP1.c: 23:     CCPR1L = ((PWMDutyValue >> 2)&0xFF);
  4466  002466  C0AE  F0A7         	movff	PWM_DutyCycleCCP1@PWMDutyValue,??_PWM_DutyCycleCCP1
  4467  00246A  C0AF  F0A8         	movff	PWM_DutyCycleCCP1@PWMDutyValue+1,??_PWM_DutyCycleCCP1+1
  4468  00246E  90D8               	bcf	status,0,c
  4469  002470  33A8               	rrcf	(??_PWM_DutyCycleCCP1+1)& (0+255),f,b
  4470  002472  33A7               	rrcf	??_PWM_DutyCycleCCP1& (0+255),f,b
  4471  002474  90D8               	bcf	status,0,c
  4472  002476  33A8               	rrcf	(??_PWM_DutyCycleCCP1+1)& (0+255),f,b
  4473  002478  33A7               	rrcf	??_PWM_DutyCycleCCP1& (0+255),f,b
  4474  00247A  51A7               	movf	??_PWM_DutyCycleCCP1& (0+255),w,b
  4475  00247C  6EBE               	movwf	190,c	;volatile
  4476  00247E                     
  4477                           ; BSR set to: 0
  4478  00247E  0012               	return		;funcret
  4479  002480                     __end_of_PWM_DutyCycleCCP1:
  4480                           	opt callstack 0
  4481                           
  4482 ;; *************** function _motoresZinit *****************
  4483 ;; Defined at:
  4484 ;;		line 38 in file "Gpio.c"
  4485 ;; Parameters:    Size  Location     Type
  4486 ;;		None
  4487 ;; Auto vars:     Size  Location     Type
  4488 ;;		None
  4489 ;; Return value:  Size  Location     Type
  4490 ;;                  1    wreg      void 
  4491 ;; Registers used:
  4492 ;;		None
  4493 ;; Tracked objects:
  4494 ;;		On entry : 0/0
  4495 ;;		On exit  : 0/0
  4496 ;;		Unchanged: 0/0
  4497 ;; Data sizes:     COMRAM   BANK0   BANK1   BANK2   BANK3   BANK4   BANK5   BANK6   BANK7
  4498 ;;      Params:         0       0       0       0       0       0       0       0       0
  4499 ;;      Locals:         0       0       0       0       0       0       0       0       0
  4500 ;;      Temps:          0       0       0       0       0       0       0       0       0
  4501 ;;      Totals:         0       0       0       0       0       0       0       0       0
  4502 ;;Total ram usage:        0 bytes
  4503 ;; Hardware stack levels used:    1
  4504 ;; Hardware stack levels required when called:    5
  4505 ;; This function calls:
  4506 ;;		Nothing
  4507 ;; This function is called by:
  4508 ;;		_main
  4509 ;; This function uses a non-reentrant model
  4510 ;;
  4511                           
  4512                           	psect	text18
  4513  002A90                     __ptext18:
  4514                           	opt callstack 0
  4515  002A90                     _motoresZinit:
  4516                           	opt callstack 25
  4517  002A90                     
  4518                           ;Gpio.c: 40:     TRISEbits.RE0 = 0;
  4519  002A90  9A95               	bcf	149,5,c	;volatile
  4520                           
  4521                           ;Gpio.c: 41:     LATEbits.LATE0 = 0;
  4522  002A92  9C95               	bcf	149,6,c	;volatile
  4523                           
  4524                           ;Gpio.c: 42: }
  4525  002A94  9895               	bcf	149,4,c	;volatile
  4526  002A96  8A92               	bsf	146,5,c	;volatile
  4527  002A98  988C               	bcf	140,4,c	;volatile
  4528  002A9A  9A8C               	bcf	140,5,c	;volatile
  4529  002A9C  9C8C               	bcf	140,6,c	;volatile
  4530  002A9E  0012               	return		;funcret
  4531  002AA0                     __end_of_motoresZinit:
  4532                           	opt callstack 0
  4533                           
  4534 ;; *************** function _motorYinit *****************
  4535 ;; Defined at:
  4536 ;;		line 29 in file "Gpio.c"
  4537 ;; Parameters:    Size  Location     Type
  4538 ;;		None
  4539 ;; Auto vars:     Size  Location     Type
  4540 ;;		None
  4541 ;; Return value:  Size  Location     Type
  4542 ;;                  1    wreg      void 
  4543 ;; Registers used:
  4544 ;;		None
  4545 ;; Tracked objects:
  4546 ;;		On entry : 0/0
  4547 ;;		On exit  : 0/0
  4548 ;;		Unchanged: 0/0
  4549 ;; Data sizes:     COMRAM   BANK0   BANK1   BANK2   BANK3   BANK4   BANK5   BANK6   BANK7
  4550 ;;      Params:         0       0       0       0       0       0       0       0       0
  4551 ;;      Locals:         0       0       0       0       0       0       0       0       0
  4552 ;;      Temps:          0       0       0       0       0       0       0       0       0
  4553 ;;      Totals:         0       0       0       0       0       0       0       0       0
  4554 ;;Total ram usage:        0 bytes
  4555 ;; Hardware stack levels used:    1
  4556 ;; Hardware stack levels required when called:    5
  4557 ;; This function calls:
  4558 ;;		Nothing
  4559 ;; This function is called by:
  4560 ;;		_main
  4561 ;; This function uses a non-reentrant model
  4562 ;;
  4563                           
  4564                           	psect	text19
  4565  002AAE                     __ptext19:
  4566                           	opt callstack 0
  4567  002AAE                     _motorYinit:
  4568                           	opt callstack 25
  4569  002AAE                     
  4570                           ;Gpio.c: 31:     TRISDbits.RD6 = 0;
  4571  002AAE  9095               	bcf	149,0,c	;volatile
  4572                           
  4573                           ;Gpio.c: 32:     TRISDbits.RD4 = 0;
  4574  002AB0  9295               	bcf	149,1,c	;volatile
  4575                           
  4576                           ;Gpio.c: 33:     TRISAbits.RA5 = 1;
  4577  002AB2  9294               	bcf	148,1,c	;volatile
  4578                           
  4579                           ;Gpio.c: 34:     LATDbits.LATD4 = 0;
  4580  002AB4  808C               	bsf	140,0,c	;volatile
  4581                           
  4582                           ;Gpio.c: 35:     LATDbits.LATD5 = 0;
  4583  002AB6  928C               	bcf	140,1,c	;volatile
  4584                           
  4585                           ;Gpio.c: 36:     LATDbits.LATD6 = 0;
  4586  002AB8  928B               	bcf	139,1,c	;volatile
  4587  002ABA  0012               	return		;funcret
  4588  002ABC                     __end_of_motorYinit:
  4589                           	opt callstack 0
  4590                           
  4591 ;; *************** function _motorXinit *****************
  4592 ;; Defined at:
  4593 ;;		line 19 in file "Gpio.c"
  4594 ;; Parameters:    Size  Location     Type
  4595 ;;		None
  4596 ;; Auto vars:     Size  Location     Type
  4597 ;;		None
  4598 ;; Return value:  Size  Location     Type
  4599 ;;                  1    wreg      void 
  4600 ;; Registers used:
  4601 ;;		None
  4602 ;; Tracked objects:
  4603 ;;		On entry : 0/0
  4604 ;;		On exit  : 0/0
  4605 ;;		Unchanged: 0/0
  4606 ;; Data sizes:     COMRAM   BANK0   BANK1   BANK2   BANK3   BANK4   BANK5   BANK6   BANK7
  4607 ;;      Params:         0       0       0       0       0       0       0       0       0
  4608 ;;      Locals:         0       0       0       0       0       0       0       0       0
  4609 ;;      Temps:          0       0       0       0       0       0       0       0       0
  4610 ;;      Totals:         0       0       0       0       0       0       0       0       0
  4611 ;;Total ram usage:        0 bytes
  4612 ;; Hardware stack levels used:    1
  4613 ;; Hardware stack levels required when called:    5
  4614 ;; This function calls:
  4615 ;;		Nothing
  4616 ;; This function is called by:
  4617 ;;		_main
  4618 ;; This function uses a non-reentrant model
  4619 ;;
  4620                           
  4621                           	psect	text20
  4622  002ABC                     __ptext20:
  4623                           	opt callstack 0
  4624  002ABC                     _motorXinit:
  4625                           	opt callstack 25
  4626  002ABC                     
  4627                           ;Gpio.c: 21:     TRISDbits.RD0 = 0;
  4628  002ABC  9495               	bcf	149,2,c	;volatile
  4629                           
  4630                           ;Gpio.c: 22:     TRISDbits.RD1 = 0;
  4631  002ABE  9695               	bcf	149,3,c	;volatile
  4632                           
  4633                           ;Gpio.c: 23:     TRISCbits.RC1 = 0;
  4634  002AC0  9494               	bcf	148,2,c	;volatile
  4635                           
  4636                           ;Gpio.c: 24:     LATDbits.LATD0 = 1;
  4637  002AC2  848C               	bsf	140,2,c	;volatile
  4638                           
  4639                           ;Gpio.c: 25:     LATDbits.LATD1 = 0;
  4640  002AC4  968C               	bcf	140,3,c	;volatile
  4641                           
  4642                           ;Gpio.c: 26:     LATCbits.LC1 = 0;
  4643  002AC6  948B               	bcf	139,2,c	;volatile
  4644  002AC8  0012               	return		;funcret
  4645  002ACA                     __end_of_motorXinit:
  4646                           	opt callstack 0
  4647                           
  4648 ;; *************** function _modificarZ *****************
  4649 ;; Defined at:
  4650 ;;		line 124 in file "FuncionesMenu.c"
  4651 ;; Parameters:    Size  Location     Type
  4652 ;;		None
  4653 ;; Auto vars:     Size  Location     Type
  4654 ;;  OkEncendido     1    9[BANK0 ] unsigned char 
  4655 ;; Return value:  Size  Location     Type
  4656 ;;                  1    wreg      void 
  4657 ;; Registers used:
  4658 ;;		wreg, status,2, status,0, tblptrl, tblptrh, tblptru, cstack
  4659 ;; Tracked objects:
  4660 ;;		On entry : 0/0
  4661 ;;		On exit  : 0/0
  4662 ;;		Unchanged: 0/0
  4663 ;; Data sizes:     COMRAM   BANK0   BANK1   BANK2   BANK3   BANK4   BANK5   BANK6   BANK7
  4664 ;;      Params:         0       0       0       0       0       0       0       0       0
  4665 ;;      Locals:         0       1       0       0       0       0       0       0       0
  4666 ;;      Temps:          0       1       0       0       0       0       0       0       0
  4667 ;;      Totals:         0       2       0       0       0       0       0       0       0
  4668 ;;Total ram usage:        2 bytes
  4669 ;; Hardware stack levels used:    1
  4670 ;; Hardware stack levels required when called:    8
  4671 ;; This function calls:
  4672 ;;		_apagarZ
  4673 ;;		_moverZAbajo
  4674 ;;		_moverZArriba
  4675 ;;		_printf
  4676 ;; This function is called by:
  4677 ;;		_main
  4678 ;; This function uses a non-reentrant model
  4679 ;;
  4680                           
  4681                           	psect	text21
  4682  001C54                     __ptext21:
  4683                           	opt callstack 0
  4684  001C54                     _modificarZ:
  4685                           	opt callstack 22
  4686  001C54                     
  4687                           ;FuncionesMenu.c: 125:     uint8_t OkEncendido = 0;
  4688  001C54  0E00               	movlw	0
  4689  001C56  0100               	movlb	0	; () banked
  4690  001C58  6F69               	movwf	modificarZ@OkEncendido& (0+255),b
  4691  001C5A                     
  4692                           ; BSR set to: 0
  4693                           ;FuncionesMenu.c: 126:     LATDbits.LATD4 = 1;
  4694  001C5A  888C               	bsf	140,4,c	;volatile
  4695                           
  4696                           ;FuncionesMenu.c: 127:     while (OkEncendido == 0) {
  4697  001C5C  EFA6  F00E         	goto	l3967
  4698  001C60                     l354:
  4699                           
  4700                           ; BSR set to: 0
  4701                           ;FuncionesMenu.c: 128:         if (PORTAbits.RA5 == 1) {
  4702  001C60  AA80               	btfss	128,5,c	;volatile
  4703  001C62  EF35  F00E         	goto	u3771
  4704  001C66  EF37  F00E         	goto	u3770
  4705  001C6A                     u3771:
  4706  001C6A  EF54  F00E         	goto	l3939
  4707  001C6E                     u3770:
  4708  001C6E                     
  4709                           ; BSR set to: 0
  4710                           ;FuncionesMenu.c: 129:             _delay((unsigned long)((10)*(8000000/4000.0)));
  4711  001C6E  0E1A               	movlw	26
  4712  001C70  0100               	movlb	0	; () banked
  4713  001C72  6F68               	movwf	??_modificarZ& (0+255),b
  4714  001C74  0EF8               	movlw	248
  4715  001C76                     u4277:
  4716  001C76  2EE8               	decfsz	wreg,f,c
  4717  001C78  D7FE               	bra	u4277
  4718  001C7A  2F68               	decfsz	??_modificarZ& (0+255),f,b
  4719  001C7C  D7FC               	bra	u4277
  4720  001C7E  F000               	nop	
  4721  001C80                     
  4722                           ;FuncionesMenu.c: 130:             if (PORTAbits.RA5 == 1) {
  4723  001C80  AA80               	btfss	128,5,c	;volatile
  4724  001C82  EF45  F00E         	goto	u3781
  4725  001C86  EF47  F00E         	goto	u3780
  4726  001C8A                     u3781:
  4727  001C8A  EF54  F00E         	goto	l3939
  4728  001C8E                     u3780:
  4729  001C8E                     
  4730                           ;FuncionesMenu.c: 131:                 printf("\nSaliendo\n");
  4731  001C8E  0E91               	movlw	low STR_15
  4732  001C90  0100               	movlb	0	; () banked
  4733  001C92  6F63               	movwf	printf@PointString& (0+255),b
  4734  001C94  0E7F               	movlw	high STR_15
  4735  001C96  6F64               	movwf	(printf@PointString+1)& (0+255),b
  4736  001C98  EC2A  F013         	call	_printf	;wreg free
  4737  001C9C                     
  4738                           ;FuncionesMenu.c: 132:                 apagarZ();
  4739  001C9C  EC76  F015         	call	_apagarZ	;wreg free
  4740  001CA0                     
  4741                           ;FuncionesMenu.c: 133:                 LATDbits.LATD4 = 0;
  4742  001CA0  988C               	bcf	140,4,c	;volatile
  4743  001CA2                     
  4744                           ;FuncionesMenu.c: 134:                 OkEncendido = 1;
  4745  001CA2  0E01               	movlw	1
  4746  001CA4  0100               	movlb	0	; () banked
  4747  001CA6  6F69               	movwf	modificarZ@OkEncendido& (0+255),b
  4748  001CA8                     l3939:
  4749                           
  4750                           ;FuncionesMenu.c: 137:         if (PORTCbits.RC4 == 1) {
  4751  001CA8  A882               	btfss	130,4,c	;volatile
  4752  001CAA  EF59  F00E         	goto	u3791
  4753  001CAE  EF5B  F00E         	goto	u3790
  4754  001CB2                     u3791:
  4755  001CB2  EF7D  F00E         	goto	l3953
  4756  001CB6                     u3790:
  4757  001CB6                     
  4758                           ;FuncionesMenu.c: 138:             _delay((unsigned long)((10)*(8000000/4000.0)));
  4759  001CB6  0E1A               	movlw	26
  4760  001CB8  0100               	movlb	0	; () banked
  4761  001CBA  6F68               	movwf	??_modificarZ& (0+255),b
  4762  001CBC  0EF8               	movlw	248
  4763  001CBE                     u4287:
  4764  001CBE  2EE8               	decfsz	wreg,f,c
  4765  001CC0  D7FE               	bra	u4287
  4766  001CC2  2F68               	decfsz	??_modificarZ& (0+255),f,b
  4767  001CC4  D7FC               	bra	u4287
  4768  001CC6  F000               	nop	
  4769  001CC8                     
  4770                           ;FuncionesMenu.c: 139:             if (PORTCbits.RC4 == 1) {
  4771  001CC8  A882               	btfss	130,4,c	;volatile
  4772  001CCA  EF69  F00E         	goto	u3801
  4773  001CCE  EF6B  F00E         	goto	u3800
  4774  001CD2                     u3801:
  4775  001CD2  EF7D  F00E         	goto	l3953
  4776  001CD6                     u3800:
  4777  001CD6                     
  4778                           ;FuncionesMenu.c: 140:                 printf("MovArriba\n");
  4779  001CD6  0E86               	movlw	low STR_16
  4780  001CD8  0100               	movlb	0	; () banked
  4781  001CDA  6F63               	movwf	printf@PointString& (0+255),b
  4782  001CDC  0E7F               	movlw	high STR_16
  4783  001CDE  6F64               	movwf	(printf@PointString+1)& (0+255),b
  4784  001CE0  EC2A  F013         	call	_printf	;wreg free
  4785  001CE4                     l3947:
  4786                           
  4787                           ;FuncionesMenu.c: 142:                     moverZArriba();
  4788  001CE4  EC70  F015         	call	_moverZArriba	;wreg free
  4789  001CE8                     
  4790                           ;FuncionesMenu.c: 143:                 } while (PORTCbits.RC4 == 1);
  4791  001CE8  B882               	btfsc	130,4,c	;volatile
  4792  001CEA  EF79  F00E         	goto	u3811
  4793  001CEE  EF7B  F00E         	goto	u3810
  4794  001CF2                     u3811:
  4795  001CF2  EF72  F00E         	goto	l3947
  4796  001CF6                     u3810:
  4797  001CF6                     
  4798                           ;FuncionesMenu.c: 144:                 apagarZ();
  4799  001CF6  EC76  F015         	call	_apagarZ	;wreg free
  4800  001CFA                     l3953:
  4801                           
  4802                           ;FuncionesMenu.c: 147:         if (PORTCbits.RC5 == 1) {
  4803  001CFA  AA82               	btfss	130,5,c	;volatile
  4804  001CFC  EF82  F00E         	goto	u3821
  4805  001D00  EF84  F00E         	goto	u3820
  4806  001D04                     u3821:
  4807  001D04  EFA6  F00E         	goto	l3967
  4808  001D08                     u3820:
  4809  001D08                     
  4810                           ;FuncionesMenu.c: 148:             _delay((unsigned long)((10)*(8000000/4000.0)));
  4811  001D08  0E1A               	movlw	26
  4812  001D0A  0100               	movlb	0	; () banked
  4813  001D0C  6F68               	movwf	??_modificarZ& (0+255),b
  4814  001D0E  0EF8               	movlw	248
  4815  001D10                     u4297:
  4816  001D10  2EE8               	decfsz	wreg,f,c
  4817  001D12  D7FE               	bra	u4297
  4818  001D14  2F68               	decfsz	??_modificarZ& (0+255),f,b
  4819  001D16  D7FC               	bra	u4297
  4820  001D18  F000               	nop	
  4821  001D1A                     
  4822                           ;FuncionesMenu.c: 149:             if (PORTCbits.RC5 == 1) {
  4823  001D1A  AA82               	btfss	130,5,c	;volatile
  4824  001D1C  EF92  F00E         	goto	u3831
  4825  001D20  EF94  F00E         	goto	u3830
  4826  001D24                     u3831:
  4827  001D24  EFA6  F00E         	goto	l3967
  4828  001D28                     u3830:
  4829  001D28                     
  4830                           ;FuncionesMenu.c: 150:                 printf("MovABajo\n");
  4831  001D28  0EB0               	movlw	low STR_17
  4832  001D2A  0100               	movlb	0	; () banked
  4833  001D2C  6F63               	movwf	printf@PointString& (0+255),b
  4834  001D2E  0E7F               	movlw	high STR_17
  4835  001D30  6F64               	movwf	(printf@PointString+1)& (0+255),b
  4836  001D32  EC2A  F013         	call	_printf	;wreg free
  4837  001D36                     l3961:
  4838                           
  4839                           ;FuncionesMenu.c: 152:                     moverZAbajo();
  4840  001D36  EC73  F015         	call	_moverZAbajo	;wreg free
  4841  001D3A                     
  4842                           ;FuncionesMenu.c: 153:                 } while (PORTCbits.RC5 == 1);
  4843  001D3A  BA82               	btfsc	130,5,c	;volatile
  4844  001D3C  EFA2  F00E         	goto	u3841
  4845  001D40  EFA4  F00E         	goto	u3840
  4846  001D44                     u3841:
  4847  001D44  EF9B  F00E         	goto	l3961
  4848  001D48                     u3840:
  4849  001D48                     
  4850                           ;FuncionesMenu.c: 154:                 apagarZ();
  4851  001D48  EC76  F015         	call	_apagarZ	;wreg free
  4852  001D4C                     l3967:
  4853                           
  4854                           ;FuncionesMenu.c: 127:     while (OkEncendido == 0) {
  4855  001D4C  0100               	movlb	0	; () banked
  4856  001D4E  5169               	movf	modificarZ@OkEncendido& (0+255),w,b
  4857  001D50  B4D8               	btfsc	status,2,c
  4858  001D52  EFAD  F00E         	goto	u3851
  4859  001D56  EFAF  F00E         	goto	u3850
  4860  001D5A                     u3851:
  4861  001D5A  EF30  F00E         	goto	l354
  4862  001D5E                     u3850:
  4863  001D5E                     
  4864                           ; BSR set to: 0
  4865  001D5E  0012               	return		;funcret
  4866  001D60                     __end_of_modificarZ:
  4867                           	opt callstack 0
  4868                           
  4869 ;; *************** function _moverZArriba *****************
  4870 ;; Defined at:
  4871 ;;		line 125 in file "MotoresXYZ.c"
  4872 ;; Parameters:    Size  Location     Type
  4873 ;;		None
  4874 ;; Auto vars:     Size  Location     Type
  4875 ;;		None
  4876 ;; Return value:  Size  Location     Type
  4877 ;;                  1    wreg      void 
  4878 ;; Registers used:
  4879 ;;		None
  4880 ;; Tracked objects:
  4881 ;;		On entry : 0/0
  4882 ;;		On exit  : 0/0
  4883 ;;		Unchanged: 0/0
  4884 ;; Data sizes:     COMRAM   BANK0   BANK1   BANK2   BANK3   BANK4   BANK5   BANK6   BANK7
  4885 ;;      Params:         0       0       0       0       0       0       0       0       0
  4886 ;;      Locals:         0       0       0       0       0       0       0       0       0
  4887 ;;      Temps:          0       0       0       0       0       0       0       0       0
  4888 ;;      Totals:         0       0       0       0       0       0       0       0       0
  4889 ;;Total ram usage:        0 bytes
  4890 ;; Hardware stack levels used:    1
  4891 ;; Hardware stack levels required when called:    5
  4892 ;; This function calls:
  4893 ;;		Nothing
  4894 ;; This function is called by:
  4895 ;;		_modificarZ
  4896 ;; This function uses a non-reentrant model
  4897 ;;
  4898                           
  4899                           	psect	text22
  4900  002AE0                     __ptext22:
  4901                           	opt callstack 0
  4902  002AE0                     _moverZArriba:
  4903                           	opt callstack 24
  4904  002AE0                     
  4905                           ;MotoresXYZ.c: 126:     LATDbits.LATD5 = 1;
  4906  002AE0  8A8C               	bsf	140,5,c	;volatile
  4907                           
  4908                           ;MotoresXYZ.c: 127:     LATDbits.LATD6 = 0;
  4909  002AE2  9C8C               	bcf	140,6,c	;volatile
  4910  002AE4  0012               	return		;funcret
  4911  002AE6                     __end_of_moverZArriba:
  4912                           	opt callstack 0
  4913                           
  4914 ;; *************** function _moverZAbajo *****************
  4915 ;; Defined at:
  4916 ;;		line 130 in file "MotoresXYZ.c"
  4917 ;; Parameters:    Size  Location     Type
  4918 ;;		None
  4919 ;; Auto vars:     Size  Location     Type
  4920 ;;		None
  4921 ;; Return value:  Size  Location     Type
  4922 ;;                  1    wreg      void 
  4923 ;; Registers used:
  4924 ;;		None
  4925 ;; Tracked objects:
  4926 ;;		On entry : 0/0
  4927 ;;		On exit  : 0/0
  4928 ;;		Unchanged: 0/0
  4929 ;; Data sizes:     COMRAM   BANK0   BANK1   BANK2   BANK3   BANK4   BANK5   BANK6   BANK7
  4930 ;;      Params:         0       0       0       0       0       0       0       0       0
  4931 ;;      Locals:         0       0       0       0       0       0       0       0       0
  4932 ;;      Temps:          0       0       0       0       0       0       0       0       0
  4933 ;;      Totals:         0       0       0       0       0       0       0       0       0
  4934 ;;Total ram usage:        0 bytes
  4935 ;; Hardware stack levels used:    1
  4936 ;; Hardware stack levels required when called:    5
  4937 ;; This function calls:
  4938 ;;		Nothing
  4939 ;; This function is called by:
  4940 ;;		_modificarZ
  4941 ;; This function uses a non-reentrant model
  4942 ;;
  4943                           
  4944                           	psect	text23
  4945  002AE6                     __ptext23:
  4946                           	opt callstack 0
  4947  002AE6                     _moverZAbajo:
  4948                           	opt callstack 24
  4949  002AE6                     
  4950                           ;MotoresXYZ.c: 131:     LATDbits.LATD5 = 0;
  4951  002AE6  9A8C               	bcf	140,5,c	;volatile
  4952                           
  4953                           ;MotoresXYZ.c: 132:     LATDbits.LATD6 = 1;
  4954  002AE8  8C8C               	bsf	140,6,c	;volatile
  4955  002AEA  0012               	return		;funcret
  4956  002AEC                     __end_of_moverZAbajo:
  4957                           	opt callstack 0
  4958                           
  4959 ;; *************** function _apagarZ *****************
  4960 ;; Defined at:
  4961 ;;		line 135 in file "MotoresXYZ.c"
  4962 ;; Parameters:    Size  Location     Type
  4963 ;;		None
  4964 ;; Auto vars:     Size  Location     Type
  4965 ;;		None
  4966 ;; Return value:  Size  Location     Type
  4967 ;;                  1    wreg      void 
  4968 ;; Registers used:
  4969 ;;		None
  4970 ;; Tracked objects:
  4971 ;;		On entry : 0/0
  4972 ;;		On exit  : 0/0
  4973 ;;		Unchanged: 0/0
  4974 ;; Data sizes:     COMRAM   BANK0   BANK1   BANK2   BANK3   BANK4   BANK5   BANK6   BANK7
  4975 ;;      Params:         0       0       0       0       0       0       0       0       0
  4976 ;;      Locals:         0       0       0       0       0       0       0       0       0
  4977 ;;      Temps:          0       0       0       0       0       0       0       0       0
  4978 ;;      Totals:         0       0       0       0       0       0       0       0       0
  4979 ;;Total ram usage:        0 bytes
  4980 ;; Hardware stack levels used:    1
  4981 ;; Hardware stack levels required when called:    5
  4982 ;; This function calls:
  4983 ;;		Nothing
  4984 ;; This function is called by:
  4985 ;;		_modificarZ
  4986 ;; This function uses a non-reentrant model
  4987 ;;
  4988                           
  4989                           	psect	text24
  4990  002AEC                     __ptext24:
  4991                           	opt callstack 0
  4992  002AEC                     _apagarZ:
  4993                           	opt callstack 24
  4994  002AEC                     
  4995                           ;MotoresXYZ.c: 136:     LATDbits.LATD5 = 0;
  4996  002AEC  9A8C               	bcf	140,5,c	;volatile
  4997                           
  4998                           ;MotoresXYZ.c: 137:     LATDbits.LATD6 = 0;
  4999  002AEE  9C8C               	bcf	140,6,c	;volatile
  5000  002AF0  0012               	return		;funcret
  5001  002AF2                     __end_of_apagarZ:
  5002                           	opt callstack 0
  5003                           
  5004 ;; *************** function _limpiarIntExtF *****************
  5005 ;; Defined at:
  5006 ;;		line 46 in file "Interrupciones.c"
  5007 ;; Parameters:    Size  Location     Type
  5008 ;;		None
  5009 ;; Auto vars:     Size  Location     Type
  5010 ;;		None
  5011 ;; Return value:  Size  Location     Type
  5012 ;;                  1    wreg      void 
  5013 ;; Registers used:
  5014 ;;		None
  5015 ;; Tracked objects:
  5016 ;;		On entry : 0/0
  5017 ;;		On exit  : 0/0
  5018 ;;		Unchanged: 0/0
  5019 ;; Data sizes:     COMRAM   BANK0   BANK1   BANK2   BANK3   BANK4   BANK5   BANK6   BANK7
  5020 ;;      Params:         0       0       0       0       0       0       0       0       0
  5021 ;;      Locals:         0       0       0       0       0       0       0       0       0
  5022 ;;      Temps:          0       0       0       0       0       0       0       0       0
  5023 ;;      Totals:         0       0       0       0       0       0       0       0       0
  5024 ;;Total ram usage:        0 bytes
  5025 ;; Hardware stack levels used:    1
  5026 ;; Hardware stack levels required when called:    5
  5027 ;; This function calls:
  5028 ;;		Nothing
  5029 ;; This function is called by:
  5030 ;;		_main
  5031 ;; This function uses a non-reentrant model
  5032 ;;
  5033                           
  5034                           	psect	text25
  5035  002ACA                     __ptext25:
  5036                           	opt callstack 0
  5037  002ACA                     _limpiarIntExtF:
  5038                           	opt callstack 25
  5039  002ACA                     
  5040                           ;Interrupciones.c: 47:     INTCONbits.INT0IF = 0;
  5041  002ACA  92F2               	bcf	242,1,c	;volatile
  5042                           
  5043                           ;Interrupciones.c: 48:     INTCON3bits.INT2IF = 0;
  5044  002ACC  92F0               	bcf	240,1,c	;volatile
  5045                           
  5046                           ;Interrupciones.c: 49:     INTCON3bits.INT1IF = 0;
  5047  002ACE  90F0               	bcf	240,0,c	;volatile
  5048  002AD0  0012               	return		;funcret
  5049  002AD2                     __end_of_limpiarIntExtF:
  5050                           	opt callstack 0
  5051                           
  5052 ;; *************** function _interruptsEnable *****************
  5053 ;; Defined at:
  5054 ;;		line 5 in file "Interrupciones.c"
  5055 ;; Parameters:    Size  Location     Type
  5056 ;;		None
  5057 ;; Auto vars:     Size  Location     Type
  5058 ;;		None
  5059 ;; Return value:  Size  Location     Type
  5060 ;;                  1    wreg      void 
  5061 ;; Registers used:
  5062 ;;		None
  5063 ;; Tracked objects:
  5064 ;;		On entry : 0/0
  5065 ;;		On exit  : 0/0
  5066 ;;		Unchanged: 0/0
  5067 ;; Data sizes:     COMRAM   BANK0   BANK1   BANK2   BANK3   BANK4   BANK5   BANK6   BANK7
  5068 ;;      Params:         0       0       0       0       0       0       0       0       0
  5069 ;;      Locals:         0       0       0       0       0       0       0       0       0
  5070 ;;      Temps:          0       0       0       0       0       0       0       0       0
  5071 ;;      Totals:         0       0       0       0       0       0       0       0       0
  5072 ;;Total ram usage:        0 bytes
  5073 ;; Hardware stack levels used:    1
  5074 ;; Hardware stack levels required when called:    5
  5075 ;; This function calls:
  5076 ;;		Nothing
  5077 ;; This function is called by:
  5078 ;;		_main
  5079 ;; This function uses a non-reentrant model
  5080 ;;
  5081                           
  5082                           	psect	text26
  5083  002AD2                     __ptext26:
  5084                           	opt callstack 0
  5085  002AD2                     _interruptsEnable:
  5086                           	opt callstack 25
  5087  002AD2                     
  5088                           ;Interrupciones.c: 7:     RCONbits.IPEN = 0;
  5089  002AD2  9ED0               	bcf	208,7,c	;volatile
  5090                           
  5091                           ;Interrupciones.c: 8:     INTCONbits.PEIE = 1;
  5092  002AD4  8CF2               	bsf	242,6,c	;volatile
  5093                           
  5094                           ;Interrupciones.c: 9:     INTCONbits.GIE = 1;
  5095  002AD6  8EF2               	bsf	242,7,c	;volatile
  5096  002AD8  0012               	return		;funcret
  5097  002ADA                     __end_of_interruptsEnable:
  5098                           	opt callstack 0
  5099                           
  5100 ;; *************** function _impCoordActual *****************
  5101 ;; Defined at:
  5102 ;;		line 112 in file "FuncionesMenu.c"
  5103 ;; Parameters:    Size  Location     Type
  5104 ;;		None
  5105 ;; Auto vars:     Size  Location     Type
  5106 ;;		None
  5107 ;; Return value:  Size  Location     Type
  5108 ;;                  1    wreg      void 
  5109 ;; Registers used:
  5110 ;;		wreg, status,2, status,0, tblptrl, tblptrh, tblptru, prodl, prodh, cstack
  5111 ;; Tracked objects:
  5112 ;;		On entry : 0/0
  5113 ;;		On exit  : 0/0
  5114 ;;		Unchanged: 0/0
  5115 ;; Data sizes:     COMRAM   BANK0   BANK1   BANK2   BANK3   BANK4   BANK5   BANK6   BANK7
  5116 ;;      Params:         0       0       0       0       0       0       0       0       0
  5117 ;;      Locals:         0       2       0       0       0       0       0       0       0
  5118 ;;      Temps:          0       0       0       0       0       0       0       0       0
  5119 ;;      Totals:         0       2       0       0       0       0       0       0       0
  5120 ;;Total ram usage:        2 bytes
  5121 ;; Hardware stack levels used:    1
  5122 ;; Hardware stack levels required when called:    8
  5123 ;; This function calls:
  5124 ;;		___fladd
  5125 ;;		___flmul
  5126 ;;		___fltol
  5127 ;;		___lwmod
  5128 ;;		___xxtofl
  5129 ;;		_printf
  5130 ;;		_send
  5131 ;; This function is called by:
  5132 ;;		_main
  5133 ;; This function uses a non-reentrant model
  5134 ;;
  5135                           
  5136                           	psect	text27
  5137  00121E                     __ptext27:
  5138                           	opt callstack 0
  5139  00121E                     _impCoordActual:
  5140                           	opt callstack 22
  5141  00121E                     
  5142                           ;FuncionesMenu.c: 113:     printf("X: ");
  5143  00121E  0EFB               	movlw	low STR_13
  5144  001220  0100               	movlb	0	; () banked
  5145  001222  6F63               	movwf	printf@PointString& (0+255),b
  5146  001224  0E7F               	movlw	high STR_13
  5147  001226  6F64               	movwf	(printf@PointString+1)& (0+255),b
  5148  001228  EC2A  F013         	call	_printf	;wreg free
  5149  00122C                     
  5150                           ;FuncionesMenu.c: 114:     send((CurrentPosX * 0.01) + 48);
  5151  00122C  0E00               	movlw	0
  5152  00122E  0100               	movlb	0	; () banked
  5153  001230  6F91               	movwf	___fladd@a& (0+255),b
  5154  001232  0E00               	movlw	0
  5155  001234  6F92               	movwf	(___fladd@a+1)& (0+255),b
  5156  001236  0E40               	movlw	64
  5157  001238  6F93               	movwf	(___fladd@a+2)& (0+255),b
  5158  00123A  0E42               	movlw	66
  5159  00123C  6F94               	movwf	(___fladd@a+3)& (0+255),b
  5160  00123E  0E0A               	movlw	10
  5161  001240  6F78               	movwf	___flmul@a& (0+255),b
  5162  001242  0ED7               	movlw	215
  5163  001244  6F79               	movwf	(___flmul@a+1)& (0+255),b
  5164  001246  0E23               	movlw	35
  5165  001248  6F7A               	movwf	(___flmul@a+2)& (0+255),b
  5166  00124A  0E3C               	movlw	60
  5167  00124C  6F7B               	movwf	(___flmul@a+3)& (0+255),b
  5168  00124E  C0D3  F066         	movff	_CurrentPosX,___xxtofl@val
  5169  001252  C0D4  F067         	movff	_CurrentPosX+1,___xxtofl@val+1
  5170  001256  6B68               	clrf	(___xxtofl@val+2)& (0+255),b
  5171  001258  6B69               	clrf	(___xxtofl@val+3)& (0+255),b
  5172  00125A  0E00               	movlw	0
  5173  00125C  EC74  F00C         	call	___xxtofl
  5174  001260  C066  F074         	movff	?___xxtofl,___flmul@b
  5175  001264  C067  F075         	movff	?___xxtofl+1,___flmul@b+1
  5176  001268  C068  F076         	movff	?___xxtofl+2,___flmul@b+2
  5177  00126C  C069  F077         	movff	?___xxtofl+3,___flmul@b+3
  5178  001270  ECE4  F004         	call	___flmul	;wreg free
  5179  001274  C074  F08D         	movff	?___flmul,___fladd@b
  5180  001278  C075  F08E         	movff	?___flmul+1,___fladd@b+1
  5181  00127C  C076  F08F         	movff	?___flmul+2,___fladd@b+2
  5182  001280  C077  F090         	movff	?___flmul+3,___fladd@b+3
  5183  001284  EC83  F002         	call	___fladd	;wreg free
  5184  001288  C08D  F09D         	movff	?___fladd,___fltol@f1
  5185  00128C  C08E  F09E         	movff	?___fladd+1,___fltol@f1+1
  5186  001290  C08F  F09F         	movff	?___fladd+2,___fltol@f1+2
  5187  001294  C090  F0A0         	movff	?___fladd+3,___fltol@f1+3
  5188  001298  ECB0  F00E         	call	___fltol	;wreg free
  5189  00129C  0100               	movlb	0	; () banked
  5190  00129E  519D               	movf	?___fltol& (0+255),w,b
  5191  0012A0  ECCF  F014         	call	_send
  5192  0012A4                     
  5193                           ;FuncionesMenu.c: 115:     send(((CurrentPosX % 100)*0.1) + 48);
  5194  0012A4  0E00               	movlw	0
  5195  0012A6  0100               	movlb	0	; () banked
  5196  0012A8  6F91               	movwf	___fladd@a& (0+255),b
  5197  0012AA  0E00               	movlw	0
  5198  0012AC  6F92               	movwf	(___fladd@a+1)& (0+255),b
  5199  0012AE  0E40               	movlw	64
  5200  0012B0  6F93               	movwf	(___fladd@a+2)& (0+255),b
  5201  0012B2  0E42               	movlw	66
  5202  0012B4  6F94               	movwf	(___fladd@a+3)& (0+255),b
  5203  0012B6  0ECD               	movlw	205
  5204  0012B8  6F78               	movwf	___flmul@a& (0+255),b
  5205  0012BA  0ECC               	movlw	204
  5206  0012BC  6F79               	movwf	(___flmul@a+1)& (0+255),b
  5207  0012BE  0ECC               	movlw	204
  5208  0012C0  6F7A               	movwf	(___flmul@a+2)& (0+255),b
  5209  0012C2  0E3D               	movlw	61
  5210  0012C4  6F7B               	movwf	(___flmul@a+3)& (0+255),b
  5211  0012C6  0E00               	movlw	0
  5212  0012C8  6F64               	movwf	(___lwmod@divisor+1)& (0+255),b
  5213  0012CA  0E64               	movlw	100
  5214  0012CC  6F63               	movwf	___lwmod@divisor& (0+255),b
  5215  0012CE  C0D3  F061         	movff	_CurrentPosX,___lwmod@dividend
  5216  0012D2  C0D4  F062         	movff	_CurrentPosX+1,___lwmod@dividend+1
  5217  0012D6  EC5E  F013         	call	___lwmod	;wreg free
  5218  0012DA  0100               	movlb	0	; () banked
  5219  0012DC  C061  F066         	movff	?___lwmod,___xxtofl@val
  5220  0012E0  C062  F067         	movff	?___lwmod+1,___xxtofl@val+1
  5221  0012E4  6B68               	clrf	(___xxtofl@val+2)& (0+255),b
  5222  0012E6  6B69               	clrf	(___xxtofl@val+3)& (0+255),b
  5223  0012E8  0E00               	movlw	0
  5224  0012EA  EC74  F00C         	call	___xxtofl
  5225  0012EE  C066  F074         	movff	?___xxtofl,___flmul@b
  5226  0012F2  C067  F075         	movff	?___xxtofl+1,___flmul@b+1
  5227  0012F6  C068  F076         	movff	?___xxtofl+2,___flmul@b+2
  5228  0012FA  C069  F077         	movff	?___xxtofl+3,___flmul@b+3
  5229  0012FE  ECE4  F004         	call	___flmul	;wreg free
  5230  001302  C074  F08D         	movff	?___flmul,___fladd@b
  5231  001306  C075  F08E         	movff	?___flmul+1,___fladd@b+1
  5232  00130A  C076  F08F         	movff	?___flmul+2,___fladd@b+2
  5233  00130E  C077  F090         	movff	?___flmul+3,___fladd@b+3
  5234  001312  EC83  F002         	call	___fladd	;wreg free
  5235  001316  C08D  F09D         	movff	?___fladd,___fltol@f1
  5236  00131A  C08E  F09E         	movff	?___fladd+1,___fltol@f1+1
  5237  00131E  C08F  F09F         	movff	?___fladd+2,___fltol@f1+2
  5238  001322  C090  F0A0         	movff	?___fladd+3,___fltol@f1+3
  5239  001326  ECB0  F00E         	call	___fltol	;wreg free
  5240  00132A  0100               	movlb	0	; () banked
  5241  00132C  519D               	movf	?___fltol& (0+255),w,b
  5242  00132E  ECCF  F014         	call	_send
  5243  001332                     
  5244                           ;FuncionesMenu.c: 116:     send(((CurrentPosX % 100) % 10) + 48);
  5245  001332  0E00               	movlw	0
  5246  001334  0100               	movlb	0	; () banked
  5247  001336  6F64               	movwf	(___lwmod@divisor+1)& (0+255),b
  5248  001338  0E64               	movlw	100
  5249  00133A  6F63               	movwf	___lwmod@divisor& (0+255),b
  5250  00133C  C0D3  F061         	movff	_CurrentPosX,___lwmod@dividend
  5251  001340  C0D4  F062         	movff	_CurrentPosX+1,___lwmod@dividend+1
  5252  001344  EC5E  F013         	call	___lwmod	;wreg free
  5253  001348  C061  F0A7         	movff	?___lwmod,_impCoordActual$2926
  5254  00134C  C062  F0A8         	movff	?___lwmod+1,_impCoordActual$2926+1
  5255  001350                     
  5256                           ;FuncionesMenu.c: 116:     send(((CurrentPosX % 100) % 10) + 48);
  5257  001350  C0A7  F061         	movff	_impCoordActual$2926,___lwmod@dividend
  5258  001354  C0A8  F062         	movff	_impCoordActual$2926+1,___lwmod@dividend+1
  5259  001358  0E00               	movlw	0
  5260  00135A  0100               	movlb	0	; () banked
  5261  00135C  6F64               	movwf	(___lwmod@divisor+1)& (0+255),b
  5262  00135E  0E0A               	movlw	10
  5263  001360  6F63               	movwf	___lwmod@divisor& (0+255),b
  5264  001362  EC5E  F013         	call	___lwmod	;wreg free
  5265  001366  0100               	movlb	0	; () banked
  5266  001368  5161               	movf	?___lwmod& (0+255),w,b
  5267  00136A  0F30               	addlw	48
  5268  00136C  ECCF  F014         	call	_send
  5269                           
  5270                           ;FuncionesMenu.c: 117:     printf(" ,Y: ");
  5271  001370  0EED               	movlw	low STR_14
  5272  001372  0100               	movlb	0	; () banked
  5273  001374  6F63               	movwf	printf@PointString& (0+255),b
  5274  001376  0E7F               	movlw	high STR_14
  5275  001378  6F64               	movwf	(printf@PointString+1)& (0+255),b
  5276  00137A  EC2A  F013         	call	_printf	;wreg free
  5277  00137E                     
  5278                           ;FuncionesMenu.c: 118:     send((CurrentPosY * 0.01) + 48);
  5279  00137E  0E00               	movlw	0
  5280  001380  0100               	movlb	0	; () banked
  5281  001382  6F91               	movwf	___fladd@a& (0+255),b
  5282  001384  0E00               	movlw	0
  5283  001386  6F92               	movwf	(___fladd@a+1)& (0+255),b
  5284  001388  0E40               	movlw	64
  5285  00138A  6F93               	movwf	(___fladd@a+2)& (0+255),b
  5286  00138C  0E42               	movlw	66
  5287  00138E  6F94               	movwf	(___fladd@a+3)& (0+255),b
  5288  001390  0E0A               	movlw	10
  5289  001392  6F78               	movwf	___flmul@a& (0+255),b
  5290  001394  0ED7               	movlw	215
  5291  001396  6F79               	movwf	(___flmul@a+1)& (0+255),b
  5292  001398  0E23               	movlw	35
  5293  00139A  6F7A               	movwf	(___flmul@a+2)& (0+255),b
  5294  00139C  0E3C               	movlw	60
  5295  00139E  6F7B               	movwf	(___flmul@a+3)& (0+255),b
  5296  0013A0  C0CF  F066         	movff	_CurrentPosY,___xxtofl@val
  5297  0013A4  C0D0  F067         	movff	_CurrentPosY+1,___xxtofl@val+1
  5298  0013A8  6B68               	clrf	(___xxtofl@val+2)& (0+255),b
  5299  0013AA  6B69               	clrf	(___xxtofl@val+3)& (0+255),b
  5300  0013AC  0E00               	movlw	0
  5301  0013AE  EC74  F00C         	call	___xxtofl
  5302  0013B2  C066  F074         	movff	?___xxtofl,___flmul@b
  5303  0013B6  C067  F075         	movff	?___xxtofl+1,___flmul@b+1
  5304  0013BA  C068  F076         	movff	?___xxtofl+2,___flmul@b+2
  5305  0013BE  C069  F077         	movff	?___xxtofl+3,___flmul@b+3
  5306  0013C2  ECE4  F004         	call	___flmul	;wreg free
  5307  0013C6  C074  F08D         	movff	?___flmul,___fladd@b
  5308  0013CA  C075  F08E         	movff	?___flmul+1,___fladd@b+1
  5309  0013CE  C076  F08F         	movff	?___flmul+2,___fladd@b+2
  5310  0013D2  C077  F090         	movff	?___flmul+3,___fladd@b+3
  5311  0013D6  EC83  F002         	call	___fladd	;wreg free
  5312  0013DA  C08D  F09D         	movff	?___fladd,___fltol@f1
  5313  0013DE  C08E  F09E         	movff	?___fladd+1,___fltol@f1+1
  5314  0013E2  C08F  F09F         	movff	?___fladd+2,___fltol@f1+2
  5315  0013E6  C090  F0A0         	movff	?___fladd+3,___fltol@f1+3
  5316  0013EA  ECB0  F00E         	call	___fltol	;wreg free
  5317  0013EE  0100               	movlb	0	; () banked
  5318  0013F0  519D               	movf	?___fltol& (0+255),w,b
  5319  0013F2  ECCF  F014         	call	_send
  5320  0013F6                     
  5321                           ;FuncionesMenu.c: 119:     send(((CurrentPosY % 100)*0.1) + 48);
  5322  0013F6  0E00               	movlw	0
  5323  0013F8  0100               	movlb	0	; () banked
  5324  0013FA  6F91               	movwf	___fladd@a& (0+255),b
  5325  0013FC  0E00               	movlw	0
  5326  0013FE  6F92               	movwf	(___fladd@a+1)& (0+255),b
  5327  001400  0E40               	movlw	64
  5328  001402  6F93               	movwf	(___fladd@a+2)& (0+255),b
  5329  001404  0E42               	movlw	66
  5330  001406  6F94               	movwf	(___fladd@a+3)& (0+255),b
  5331  001408  0ECD               	movlw	205
  5332  00140A  6F78               	movwf	___flmul@a& (0+255),b
  5333  00140C  0ECC               	movlw	204
  5334  00140E  6F79               	movwf	(___flmul@a+1)& (0+255),b
  5335  001410  0ECC               	movlw	204
  5336  001412  6F7A               	movwf	(___flmul@a+2)& (0+255),b
  5337  001414  0E3D               	movlw	61
  5338  001416  6F7B               	movwf	(___flmul@a+3)& (0+255),b
  5339  001418  0E00               	movlw	0
  5340  00141A  6F64               	movwf	(___lwmod@divisor+1)& (0+255),b
  5341  00141C  0E64               	movlw	100
  5342  00141E  6F63               	movwf	___lwmod@divisor& (0+255),b
  5343  001420  C0CF  F061         	movff	_CurrentPosY,___lwmod@dividend
  5344  001424  C0D0  F062         	movff	_CurrentPosY+1,___lwmod@dividend+1
  5345  001428  EC5E  F013         	call	___lwmod	;wreg free
  5346  00142C  0100               	movlb	0	; () banked
  5347  00142E  C061  F066         	movff	?___lwmod,___xxtofl@val
  5348  001432  C062  F067         	movff	?___lwmod+1,___xxtofl@val+1
  5349  001436  6B68               	clrf	(___xxtofl@val+2)& (0+255),b
  5350  001438  6B69               	clrf	(___xxtofl@val+3)& (0+255),b
  5351  00143A  0E00               	movlw	0
  5352  00143C  EC74  F00C         	call	___xxtofl
  5353  001440  C066  F074         	movff	?___xxtofl,___flmul@b
  5354  001444  C067  F075         	movff	?___xxtofl+1,___flmul@b+1
  5355  001448  C068  F076         	movff	?___xxtofl+2,___flmul@b+2
  5356  00144C  C069  F077         	movff	?___xxtofl+3,___flmul@b+3
  5357  001450  ECE4  F004         	call	___flmul	;wreg free
  5358  001454  C074  F08D         	movff	?___flmul,___fladd@b
  5359  001458  C075  F08E         	movff	?___flmul+1,___fladd@b+1
  5360  00145C  C076  F08F         	movff	?___flmul+2,___fladd@b+2
  5361  001460  C077  F090         	movff	?___flmul+3,___fladd@b+3
  5362  001464  EC83  F002         	call	___fladd	;wreg free
  5363  001468  C08D  F09D         	movff	?___fladd,___fltol@f1
  5364  00146C  C08E  F09E         	movff	?___fladd+1,___fltol@f1+1
  5365  001470  C08F  F09F         	movff	?___fladd+2,___fltol@f1+2
  5366  001474  C090  F0A0         	movff	?___fladd+3,___fltol@f1+3
  5367  001478  ECB0  F00E         	call	___fltol	;wreg free
  5368  00147C  0100               	movlb	0	; () banked
  5369  00147E  519D               	movf	?___fltol& (0+255),w,b
  5370  001480  ECCF  F014         	call	_send
  5371  001484                     
  5372                           ;FuncionesMenu.c: 120:     send(((CurrentPosY % 100) % 10) + 48);
  5373  001484  0E00               	movlw	0
  5374  001486  0100               	movlb	0	; () banked
  5375  001488  6F64               	movwf	(___lwmod@divisor+1)& (0+255),b
  5376  00148A  0E64               	movlw	100
  5377  00148C  6F63               	movwf	___lwmod@divisor& (0+255),b
  5378  00148E  C0CF  F061         	movff	_CurrentPosY,___lwmod@dividend
  5379  001492  C0D0  F062         	movff	_CurrentPosY+1,___lwmod@dividend+1
  5380  001496  EC5E  F013         	call	___lwmod	;wreg free
  5381  00149A  C061  F0A7         	movff	?___lwmod,_impCoordActual$2926
  5382  00149E  C062  F0A8         	movff	?___lwmod+1,_impCoordActual$2926+1
  5383  0014A2                     
  5384                           ;FuncionesMenu.c: 120:     send(((CurrentPosY % 100) % 10) + 48);
  5385  0014A2  C0A7  F061         	movff	_impCoordActual$2926,___lwmod@dividend
  5386  0014A6  C0A8  F062         	movff	_impCoordActual$2926+1,___lwmod@dividend+1
  5387  0014AA  0E00               	movlw	0
  5388  0014AC  0100               	movlb	0	; () banked
  5389  0014AE  6F64               	movwf	(___lwmod@divisor+1)& (0+255),b
  5390  0014B0  0E0A               	movlw	10
  5391  0014B2  6F63               	movwf	___lwmod@divisor& (0+255),b
  5392  0014B4  EC5E  F013         	call	___lwmod	;wreg free
  5393  0014B8  0100               	movlb	0	; () banked
  5394  0014BA  5161               	movf	?___lwmod& (0+255),w,b
  5395  0014BC  0F30               	addlw	48
  5396  0014BE  ECCF  F014         	call	_send
  5397  0014C2                     
  5398                           ;FuncionesMenu.c: 121:     send('\n');
  5399  0014C2  0E0A               	movlw	10
  5400  0014C4  ECCF  F014         	call	_send
  5401  0014C8  0012               	return		;funcret
  5402  0014CA                     __end_of_impCoordActual:
  5403                           	opt callstack 0
  5404                           
  5405 ;; *************** function ___xxtofl *****************
  5406 ;; Defined at:
  5407 ;;		line 10 in file "C:\Program Files (x86)\Microchip\xc8\v2.10\pic\sources\c99\common\xxtofl.c"
  5408 ;; Parameters:    Size  Location     Type
  5409 ;;  sign            1    wreg     unsigned char 
  5410 ;;  val             4    6[BANK0 ] long 
  5411 ;; Auto vars:     Size  Location     Type
  5412 ;;  sign            1   14[BANK0 ] unsigned char 
  5413 ;;  arg             4   16[BANK0 ] unsigned long 
  5414 ;;  exp             1   15[BANK0 ] unsigned char 
  5415 ;; Return value:  Size  Location     Type
  5416 ;;                  4    6[BANK0 ] unsigned char 
  5417 ;; Registers used:
  5418 ;;		wreg, status,2, status,0
  5419 ;; Tracked objects:
  5420 ;;		On entry : 0/0
  5421 ;;		On exit  : 0/0
  5422 ;;		Unchanged: 0/0
  5423 ;; Data sizes:     COMRAM   BANK0   BANK1   BANK2   BANK3   BANK4   BANK5   BANK6   BANK7
  5424 ;;      Params:         0       4       0       0       0       0       0       0       0
  5425 ;;      Locals:         0       6       0       0       0       0       0       0       0
  5426 ;;      Temps:          0       4       0       0       0       0       0       0       0
  5427 ;;      Totals:         0      14       0       0       0       0       0       0       0
  5428 ;;Total ram usage:       14 bytes
  5429 ;; Hardware stack levels used:    1
  5430 ;; Hardware stack levels required when called:    5
  5431 ;; This function calls:
  5432 ;;		Nothing
  5433 ;; This function is called by:
  5434 ;;		_PWM_DutyCycleCCP2
  5435 ;;		_PWM_DutyCycleCCP1
  5436 ;;		_impCoordActual
  5437 ;; This function uses a non-reentrant model
  5438 ;;
  5439                           
  5440                           	psect	text28
  5441  0018E8                     __ptext28:
  5442                           	opt callstack 0
  5443  0018E8                     ___xxtofl:
  5444                           	opt callstack 23
  5445                           
  5446                           ;incstack = 0
  5447                           ;___xxtofl@sign stored from wreg
  5448  0018E8  0100               	movlb	0	; () banked
  5449  0018EA  6F6E               	movwf	___xxtofl@sign& (0+255),b
  5450  0018EC  0100               	movlb	0	; () banked
  5451  0018EE  516E               	movf	___xxtofl@sign& (0+255),w,b
  5452  0018F0  B4D8               	btfsc	status,2,c
  5453  0018F2  EF7D  F00C         	goto	u2431
  5454  0018F6  EF7F  F00C         	goto	u2430
  5455  0018FA                     u2431:
  5456  0018FA  EFA1  F00C         	goto	l1322
  5457  0018FE                     u2430:
  5458  0018FE                     
  5459                           ; BSR set to: 0
  5460  0018FE  BF69               	btfsc	(___xxtofl@val+3)& (0+255),7,b
  5461  001900  EF86  F00C         	goto	u2440
  5462  001904  EF84  F00C         	goto	u2441
  5463  001908                     u2441:
  5464  001908  EFA1  F00C         	goto	l1322
  5465  00190C                     u2440:
  5466  00190C                     
  5467                           ; BSR set to: 0
  5468  00190C  C066  F06A         	movff	___xxtofl@val,??___xxtofl
  5469  001910  C067  F06B         	movff	___xxtofl@val+1,??___xxtofl+1
  5470  001914  C068  F06C         	movff	___xxtofl@val+2,??___xxtofl+2
  5471  001918  C069  F06D         	movff	___xxtofl@val+3,??___xxtofl+3
  5472  00191C  1F6A               	comf	??___xxtofl& (0+255),f,b
  5473  00191E  1F6B               	comf	(??___xxtofl+1)& (0+255),f,b
  5474  001920  1F6C               	comf	(??___xxtofl+2)& (0+255),f,b
  5475  001922  1F6D               	comf	(??___xxtofl+3)& (0+255),f,b
  5476  001924  2B6A               	incf	??___xxtofl& (0+255),f,b
  5477  001926  0E00               	movlw	0
  5478  001928  236B               	addwfc	(??___xxtofl+1)& (0+255),f,b
  5479  00192A  236C               	addwfc	(??___xxtofl+2)& (0+255),f,b
  5480  00192C  236D               	addwfc	(??___xxtofl+3)& (0+255),f,b
  5481  00192E  C06A  F070         	movff	??___xxtofl,___xxtofl@arg
  5482  001932  C06B  F071         	movff	??___xxtofl+1,___xxtofl@arg+1
  5483  001936  C06C  F072         	movff	??___xxtofl+2,___xxtofl@arg+2
  5484  00193A  C06D  F073         	movff	??___xxtofl+3,___xxtofl@arg+3
  5485  00193E  EFA9  F00C         	goto	l3037
  5486  001942                     l1322:
  5487                           
  5488                           ; BSR set to: 0
  5489  001942  C066  F070         	movff	___xxtofl@val,___xxtofl@arg
  5490  001946  C067  F071         	movff	___xxtofl@val+1,___xxtofl@arg+1
  5491  00194A  C068  F072         	movff	___xxtofl@val+2,___xxtofl@arg+2
  5492  00194E  C069  F073         	movff	___xxtofl@val+3,___xxtofl@arg+3
  5493  001952                     l3037:
  5494                           
  5495                           ; BSR set to: 0
  5496  001952  5166               	movf	___xxtofl@val& (0+255),w,b
  5497  001954  1167               	iorwf	(___xxtofl@val+1)& (0+255),w,b
  5498  001956  1168               	iorwf	(___xxtofl@val+2)& (0+255),w,b
  5499  001958  1169               	iorwf	(___xxtofl@val+3)& (0+255),w,b
  5500  00195A  A4D8               	btfss	status,2,c
  5501  00195C  EFB2  F00C         	goto	u2451
  5502  001960  EFB4  F00C         	goto	u2450
  5503  001964                     u2451:
  5504  001964  EFBE  F00C         	goto	l3043
  5505  001968                     u2450:
  5506  001968                     
  5507                           ; BSR set to: 0
  5508  001968  0E00               	movlw	0
  5509  00196A  6F66               	movwf	?___xxtofl& (0+255),b
  5510  00196C  0E00               	movlw	0
  5511  00196E  6F67               	movwf	(?___xxtofl+1)& (0+255),b
  5512  001970  0E00               	movlw	0
  5513  001972  6F68               	movwf	(?___xxtofl+2)& (0+255),b
  5514  001974  0E00               	movlw	0
  5515  001976  6F69               	movwf	(?___xxtofl+3)& (0+255),b
  5516  001978  EF4F  F00D         	goto	l1325
  5517  00197C                     l3043:
  5518                           
  5519                           ; BSR set to: 0
  5520  00197C  0E96               	movlw	150
  5521  00197E  6F6F               	movwf	___xxtofl@exp& (0+255),b
  5522  001980  EFC8  F00C         	goto	l3047
  5523  001984                     l3045:
  5524                           
  5525                           ; BSR set to: 0
  5526  001984  2B6F               	incf	___xxtofl@exp& (0+255),f,b
  5527  001986  90D8               	bcf	status,0,c
  5528  001988  3373               	rrcf	(___xxtofl@arg+3)& (0+255),f,b
  5529  00198A  3372               	rrcf	(___xxtofl@arg+2)& (0+255),f,b
  5530  00198C  3371               	rrcf	(___xxtofl@arg+1)& (0+255),f,b
  5531  00198E  3370               	rrcf	___xxtofl@arg& (0+255),f,b
  5532  001990                     l3047:
  5533                           
  5534                           ; BSR set to: 0
  5535  001990  0E00               	movlw	0
  5536  001992  1570               	andwf	___xxtofl@arg& (0+255),w,b
  5537  001994  6F6A               	movwf	??___xxtofl& (0+255),b
  5538  001996  0E00               	movlw	0
  5539  001998  1571               	andwf	(___xxtofl@arg+1)& (0+255),w,b
  5540  00199A  6F6B               	movwf	(??___xxtofl+1)& (0+255),b
  5541  00199C  0E00               	movlw	0
  5542  00199E  1572               	andwf	(___xxtofl@arg+2)& (0+255),w,b
  5543  0019A0  6F6C               	movwf	(??___xxtofl+2)& (0+255),b
  5544  0019A2  0EFE               	movlw	254
  5545  0019A4  1573               	andwf	(___xxtofl@arg+3)& (0+255),w,b
  5546  0019A6  6F6D               	movwf	(??___xxtofl+3)& (0+255),b
  5547  0019A8  516A               	movf	??___xxtofl& (0+255),w,b
  5548  0019AA  116B               	iorwf	(??___xxtofl+1)& (0+255),w,b
  5549  0019AC  116C               	iorwf	(??___xxtofl+2)& (0+255),w,b
  5550  0019AE  116D               	iorwf	(??___xxtofl+3)& (0+255),w,b
  5551  0019B0  A4D8               	btfss	status,2,c
  5552  0019B2  EFDD  F00C         	goto	u2461
  5553  0019B6  EFDF  F00C         	goto	u2460
  5554  0019BA                     u2461:
  5555  0019BA  EFC2  F00C         	goto	l3045
  5556  0019BE                     u2460:
  5557  0019BE  EFED  F00C         	goto	l1329
  5558  0019C2                     l3049:
  5559                           
  5560                           ; BSR set to: 0
  5561  0019C2  2B6F               	incf	___xxtofl@exp& (0+255),f,b
  5562  0019C4                     
  5563                           ; BSR set to: 0
  5564  0019C4  0E01               	movlw	1
  5565  0019C6  2770               	addwf	___xxtofl@arg& (0+255),f,b
  5566  0019C8  0E00               	movlw	0
  5567  0019CA  2371               	addwfc	(___xxtofl@arg+1)& (0+255),f,b
  5568  0019CC  2372               	addwfc	(___xxtofl@arg+2)& (0+255),f,b
  5569  0019CE  2373               	addwfc	(___xxtofl@arg+3)& (0+255),f,b
  5570  0019D0                     
  5571                           ; BSR set to: 0
  5572  0019D0  90D8               	bcf	status,0,c
  5573  0019D2  3373               	rrcf	(___xxtofl@arg+3)& (0+255),f,b
  5574  0019D4  3372               	rrcf	(___xxtofl@arg+2)& (0+255),f,b
  5575  0019D6  3371               	rrcf	(___xxtofl@arg+1)& (0+255),f,b
  5576  0019D8  3370               	rrcf	___xxtofl@arg& (0+255),f,b
  5577  0019DA                     l1329:
  5578                           
  5579                           ; BSR set to: 0
  5580  0019DA  0E00               	movlw	0
  5581  0019DC  1570               	andwf	___xxtofl@arg& (0+255),w,b
  5582  0019DE  6F6A               	movwf	??___xxtofl& (0+255),b
  5583  0019E0  0E00               	movlw	0
  5584  0019E2  1571               	andwf	(___xxtofl@arg+1)& (0+255),w,b
  5585  0019E4  6F6B               	movwf	(??___xxtofl+1)& (0+255),b
  5586  0019E6  0E00               	movlw	0
  5587  0019E8  1572               	andwf	(___xxtofl@arg+2)& (0+255),w,b
  5588  0019EA  6F6C               	movwf	(??___xxtofl+2)& (0+255),b
  5589  0019EC  0EFF               	movlw	255
  5590  0019EE  1573               	andwf	(___xxtofl@arg+3)& (0+255),w,b
  5591  0019F0  6F6D               	movwf	(??___xxtofl+3)& (0+255),b
  5592  0019F2  516A               	movf	??___xxtofl& (0+255),w,b
  5593  0019F4  116B               	iorwf	(??___xxtofl+1)& (0+255),w,b
  5594  0019F6  116C               	iorwf	(??___xxtofl+2)& (0+255),w,b
  5595  0019F8  116D               	iorwf	(??___xxtofl+3)& (0+255),w,b
  5596  0019FA  A4D8               	btfss	status,2,c
  5597  0019FC  EF02  F00D         	goto	u2471
  5598  001A00  EF04  F00D         	goto	u2470
  5599  001A04                     u2471:
  5600  001A04  EFE1  F00C         	goto	l3049
  5601  001A08                     u2470:
  5602  001A08  EF0C  F00D         	goto	l3057
  5603  001A0C                     l3055:
  5604                           
  5605                           ; BSR set to: 0
  5606  001A0C  076F               	decf	___xxtofl@exp& (0+255),f,b
  5607  001A0E  90D8               	bcf	status,0,c
  5608  001A10  3770               	rlcf	___xxtofl@arg& (0+255),f,b
  5609  001A12  3771               	rlcf	(___xxtofl@arg+1)& (0+255),f,b
  5610  001A14  3772               	rlcf	(___xxtofl@arg+2)& (0+255),f,b
  5611  001A16  3773               	rlcf	(___xxtofl@arg+3)& (0+255),f,b
  5612  001A18                     l3057:
  5613                           
  5614                           ; BSR set to: 0
  5615  001A18  BF72               	btfsc	(___xxtofl@arg+2)& (0+255),7,b
  5616  001A1A  EF11  F00D         	goto	u2481
  5617  001A1E  EF13  F00D         	goto	u2480
  5618  001A22                     u2481:
  5619  001A22  EF1B  F00D         	goto	l1336
  5620  001A26                     u2480:
  5621  001A26                     
  5622                           ; BSR set to: 0
  5623  001A26  0E02               	movlw	2
  5624  001A28  616F               	cpfslt	___xxtofl@exp& (0+255),b
  5625  001A2A  EF19  F00D         	goto	u2491
  5626  001A2E  EF1B  F00D         	goto	u2490
  5627  001A32                     u2491:
  5628  001A32  EF06  F00D         	goto	l3055
  5629  001A36                     u2490:
  5630  001A36                     l1336:
  5631                           
  5632                           ; BSR set to: 0
  5633  001A36  B16F               	btfsc	___xxtofl@exp& (0+255),0,b
  5634  001A38  EF20  F00D         	goto	u2501
  5635  001A3C  EF22  F00D         	goto	u2500
  5636  001A40                     u2501:
  5637  001A40  EF23  F00D         	goto	l3063
  5638  001A44                     u2500:
  5639  001A44                     
  5640                           ; BSR set to: 0
  5641  001A44  9F72               	bcf	(___xxtofl@arg+2)& (0+255),7,b
  5642  001A46                     l3063:
  5643                           
  5644                           ; BSR set to: 0
  5645  001A46  90D8               	bcf	status,0,c
  5646  001A48  336F               	rrcf	___xxtofl@exp& (0+255),f,b
  5647  001A4A                     
  5648                           ; BSR set to: 0
  5649  001A4A  C06F  F06A         	movff	___xxtofl@exp,??___xxtofl
  5650  001A4E  6B6B               	clrf	(??___xxtofl+1)& (0+255),b
  5651  001A50  6B6C               	clrf	(??___xxtofl+2)& (0+255),b
  5652  001A52  6B6D               	clrf	(??___xxtofl+3)& (0+255),b
  5653  001A54  C06A  F06D         	movff	??___xxtofl,??___xxtofl+3
  5654  001A58  6B6C               	clrf	(??___xxtofl+2)& (0+255),b
  5655  001A5A  6B6B               	clrf	(??___xxtofl+1)& (0+255),b
  5656  001A5C  6B6A               	clrf	??___xxtofl& (0+255),b
  5657  001A5E  516A               	movf	??___xxtofl& (0+255),w,b
  5658  001A60  1370               	iorwf	___xxtofl@arg& (0+255),f,b
  5659  001A62  516B               	movf	(??___xxtofl+1)& (0+255),w,b
  5660  001A64  1371               	iorwf	(___xxtofl@arg+1)& (0+255),f,b
  5661  001A66  516C               	movf	(??___xxtofl+2)& (0+255),w,b
  5662  001A68  1372               	iorwf	(___xxtofl@arg+2)& (0+255),f,b
  5663  001A6A  516D               	movf	(??___xxtofl+3)& (0+255),w,b
  5664  001A6C  1373               	iorwf	(___xxtofl@arg+3)& (0+255),f,b
  5665  001A6E                     
  5666                           ; BSR set to: 0
  5667  001A6E  516E               	movf	___xxtofl@sign& (0+255),w,b
  5668  001A70  B4D8               	btfsc	status,2,c
  5669  001A72  EF3D  F00D         	goto	u2511
  5670  001A76  EF3F  F00D         	goto	u2510
  5671  001A7A                     u2511:
  5672  001A7A  EF47  F00D         	goto	l3073
  5673  001A7E                     u2510:
  5674  001A7E                     
  5675                           ; BSR set to: 0
  5676  001A7E  BF69               	btfsc	(___xxtofl@val+3)& (0+255),7,b
  5677  001A80  EF46  F00D         	goto	u2520
  5678  001A84  EF44  F00D         	goto	u2521
  5679  001A88                     u2521:
  5680  001A88  EF47  F00D         	goto	l3073
  5681  001A8C                     u2520:
  5682  001A8C                     
  5683                           ; BSR set to: 0
  5684  001A8C  8F73               	bsf	(___xxtofl@arg+3)& (0+255),7,b
  5685  001A8E                     l3073:
  5686                           
  5687                           ; BSR set to: 0
  5688  001A8E  C070  F066         	movff	___xxtofl@arg,?___xxtofl
  5689  001A92  C071  F067         	movff	___xxtofl@arg+1,?___xxtofl+1
  5690  001A96  C072  F068         	movff	___xxtofl@arg+2,?___xxtofl+2
  5691  001A9A  C073  F069         	movff	___xxtofl@arg+3,?___xxtofl+3
  5692  001A9E                     l1325:
  5693                           
  5694                           ; BSR set to: 0
  5695  001A9E  0012               	return		;funcret
  5696  001AA0                     __end_of___xxtofl:
  5697                           	opt callstack 0
  5698                           
  5699 ;; *************** function ___lwmod *****************
  5700 ;; Defined at:
  5701 ;;		line 7 in file "C:\Program Files (x86)\Microchip\xc8\v2.10\pic\sources\c99\common\lwmod.c"
  5702 ;; Parameters:    Size  Location     Type
  5703 ;;  dividend        2    1[BANK0 ] unsigned int 
  5704 ;;  divisor         2    3[BANK0 ] unsigned int 
  5705 ;; Auto vars:     Size  Location     Type
  5706 ;;  counter         1    5[BANK0 ] unsigned char 
  5707 ;; Return value:  Size  Location     Type
  5708 ;;                  2    1[BANK0 ] unsigned int 
  5709 ;; Registers used:
  5710 ;;		wreg, status,2, status,0
  5711 ;; Tracked objects:
  5712 ;;		On entry : 0/0
  5713 ;;		On exit  : 0/0
  5714 ;;		Unchanged: 0/0
  5715 ;; Data sizes:     COMRAM   BANK0   BANK1   BANK2   BANK3   BANK4   BANK5   BANK6   BANK7
  5716 ;;      Params:         0       4       0       0       0       0       0       0       0
  5717 ;;      Locals:         0       1       0       0       0       0       0       0       0
  5718 ;;      Temps:          0       0       0       0       0       0       0       0       0
  5719 ;;      Totals:         0       5       0       0       0       0       0       0       0
  5720 ;;Total ram usage:        5 bytes
  5721 ;; Hardware stack levels used:    1
  5722 ;; Hardware stack levels required when called:    5
  5723 ;; This function calls:
  5724 ;;		Nothing
  5725 ;; This function is called by:
  5726 ;;		_impCoordActual
  5727 ;; This function uses a non-reentrant model
  5728 ;;
  5729                           
  5730                           	psect	text29
  5731  0026BC                     __ptext29:
  5732                           	opt callstack 0
  5733  0026BC                     ___lwmod:
  5734                           	opt callstack 24
  5735  0026BC  0100               	movlb	0	; () banked
  5736  0026BE  5163               	movf	___lwmod@divisor& (0+255),w,b
  5737  0026C0  1164               	iorwf	(___lwmod@divisor+1)& (0+255),w,b
  5738  0026C2  B4D8               	btfsc	status,2,c
  5739  0026C4  EF66  F013         	goto	u3481
  5740  0026C8  EF68  F013         	goto	u3480
  5741  0026CC                     u3481:
  5742  0026CC  EF8C  F013         	goto	l1168
  5743  0026D0                     u3480:
  5744  0026D0                     
  5745                           ; BSR set to: 0
  5746  0026D0  0E01               	movlw	1
  5747  0026D2  6F65               	movwf	___lwmod@counter& (0+255),b
  5748  0026D4  EF70  F013         	goto	l3659
  5749  0026D8                     l3657:
  5750                           
  5751                           ; BSR set to: 0
  5752  0026D8  90D8               	bcf	status,0,c
  5753  0026DA  3763               	rlcf	___lwmod@divisor& (0+255),f,b
  5754  0026DC  3764               	rlcf	(___lwmod@divisor+1)& (0+255),f,b
  5755  0026DE  2B65               	incf	___lwmod@counter& (0+255),f,b
  5756  0026E0                     l3659:
  5757                           
  5758                           ; BSR set to: 0
  5759  0026E0  AF64               	btfss	(___lwmod@divisor+1)& (0+255),7,b
  5760  0026E2  EF75  F013         	goto	u3491
  5761  0026E6  EF77  F013         	goto	u3490
  5762  0026EA                     u3491:
  5763  0026EA  EF6C  F013         	goto	l3657
  5764  0026EE                     u3490:
  5765  0026EE                     l3661:
  5766                           
  5767                           ; BSR set to: 0
  5768  0026EE  5163               	movf	___lwmod@divisor& (0+255),w,b
  5769  0026F0  5D61               	subwf	___lwmod@dividend& (0+255),w,b
  5770  0026F2  5164               	movf	(___lwmod@divisor+1)& (0+255),w,b
  5771  0026F4  5962               	subwfb	(___lwmod@dividend+1)& (0+255),w,b
  5772  0026F6  A0D8               	btfss	status,0,c
  5773  0026F8  EF80  F013         	goto	u3501
  5774  0026FC  EF82  F013         	goto	u3500
  5775  002700                     u3501:
  5776  002700  EF86  F013         	goto	l3665
  5777  002704                     u3500:
  5778  002704                     
  5779                           ; BSR set to: 0
  5780  002704  5163               	movf	___lwmod@divisor& (0+255),w,b
  5781  002706  5F61               	subwf	___lwmod@dividend& (0+255),f,b
  5782  002708  5164               	movf	(___lwmod@divisor+1)& (0+255),w,b
  5783  00270A  5B62               	subwfb	(___lwmod@dividend+1)& (0+255),f,b
  5784  00270C                     l3665:
  5785                           
  5786                           ; BSR set to: 0
  5787  00270C  90D8               	bcf	status,0,c
  5788  00270E  3364               	rrcf	(___lwmod@divisor+1)& (0+255),f,b
  5789  002710  3363               	rrcf	___lwmod@divisor& (0+255),f,b
  5790  002712                     
  5791                           ; BSR set to: 0
  5792  002712  2F65               	decfsz	___lwmod@counter& (0+255),f,b
  5793  002714  EF77  F013         	goto	l3661
  5794  002718                     l1168:
  5795                           
  5796                           ; BSR set to: 0
  5797  002718  C061  F061         	movff	___lwmod@dividend,?___lwmod
  5798  00271C  C062  F062         	movff	___lwmod@dividend+1,?___lwmod+1
  5799  002720                     
  5800                           ; BSR set to: 0
  5801  002720  0012               	return		;funcret
  5802  002722                     __end_of___lwmod:
  5803                           	opt callstack 0
  5804                           
  5805 ;; *************** function ___fltol *****************
  5806 ;; Defined at:
  5807 ;;		line 43 in file "C:\Program Files (x86)\Microchip\xc8\v2.10\pic\sources\c99\common\fltol.c"
  5808 ;; Parameters:    Size  Location     Type
  5809 ;;  f1              4   61[BANK0 ] unsigned int 
  5810 ;; Auto vars:     Size  Location     Type
  5811 ;;  exp1            1   70[BANK0 ] unsigned char 
  5812 ;;  sign1           1   69[BANK0 ] unsigned char 
  5813 ;; Return value:  Size  Location     Type
  5814 ;;                  4   61[BANK0 ] long 
  5815 ;; Registers used:
  5816 ;;		wreg, status,2, status,0
  5817 ;; Tracked objects:
  5818 ;;		On entry : 0/0
  5819 ;;		On exit  : 0/0
  5820 ;;		Unchanged: 0/0
  5821 ;; Data sizes:     COMRAM   BANK0   BANK1   BANK2   BANK3   BANK4   BANK5   BANK6   BANK7
  5822 ;;      Params:         0       4       0       0       0       0       0       0       0
  5823 ;;      Locals:         0       2       0       0       0       0       0       0       0
  5824 ;;      Temps:          0       4       0       0       0       0       0       0       0
  5825 ;;      Totals:         0      10       0       0       0       0       0       0       0
  5826 ;;Total ram usage:       10 bytes
  5827 ;; Hardware stack levels used:    1
  5828 ;; Hardware stack levels required when called:    5
  5829 ;; This function calls:
  5830 ;;		Nothing
  5831 ;; This function is called by:
  5832 ;;		_PWM_DutyCycleCCP2
  5833 ;;		_PWM_DutyCycleCCP1
  5834 ;;		_impCoordActual
  5835 ;; This function uses a non-reentrant model
  5836 ;;
  5837                           
  5838                           	psect	text30
  5839  001D60                     __ptext30:
  5840                           	opt callstack 0
  5841  001D60                     ___fltol:
  5842                           	opt callstack 23
  5843  001D60  0100               	movlb	0	; () banked
  5844  001D62  359F               	rlcf	(___fltol@f1+2)& (0+255),w,b
  5845  001D64  35A0               	rlcf	(___fltol@f1+3)& (0+255),w,b
  5846  001D66  6FA6               	movwf	___fltol@exp1& (0+255),b
  5847  001D68  51A6               	movf	___fltol@exp1& (0+255),w,b
  5848  001D6A  A4D8               	btfss	status,2,c
  5849  001D6C  EFBA  F00E         	goto	u2361
  5850  001D70  EFBC  F00E         	goto	u2360
  5851  001D74                     u2361:
  5852  001D74  EFC6  F00E         	goto	l2993
  5853  001D78                     u2360:
  5854  001D78                     l2989:
  5855                           
  5856                           ; BSR set to: 0
  5857  001D78  0E00               	movlw	0
  5858  001D7A  6F9D               	movwf	?___fltol& (0+255),b
  5859  001D7C  0E00               	movlw	0
  5860  001D7E  6F9E               	movwf	(?___fltol+1)& (0+255),b
  5861  001D80  0E00               	movlw	0
  5862  001D82  6F9F               	movwf	(?___fltol+2)& (0+255),b
  5863  001D84  0E00               	movlw	0
  5864  001D86  6FA0               	movwf	(?___fltol+3)& (0+255),b
  5865  001D88  EF33  F00F         	goto	l964
  5866  001D8C                     l2993:
  5867                           
  5868                           ; BSR set to: 0
  5869  001D8C  C09D  F0A1         	movff	___fltol@f1,??___fltol
  5870  001D90  C09E  F0A2         	movff	___fltol@f1+1,??___fltol+1
  5871  001D94  C09F  F0A3         	movff	___fltol@f1+2,??___fltol+2
  5872  001D98  C0A0  F0A4         	movff	___fltol@f1+3,??___fltol+3
  5873  001D9C  0E20               	movlw	32
  5874  001D9E  EFD6  F00E         	goto	u2370
  5875  001DA2                     u2375:
  5876  001DA2  90D8               	bcf	status,0,c
  5877  001DA4  33A4               	rrcf	(??___fltol+3)& (0+255),f,b
  5878  001DA6  33A3               	rrcf	(??___fltol+2)& (0+255),f,b
  5879  001DA8  33A2               	rrcf	(??___fltol+1)& (0+255),f,b
  5880  001DAA  33A1               	rrcf	??___fltol& (0+255),f,b
  5881  001DAC                     u2370:
  5882  001DAC  2EE8               	decfsz	wreg,f,c
  5883  001DAE  EFD1  F00E         	goto	u2375
  5884  001DB2  51A1               	movf	??___fltol& (0+255),w,b
  5885  001DB4  6FA5               	movwf	___fltol@sign1& (0+255),b
  5886  001DB6                     
  5887                           ; BSR set to: 0
  5888  001DB6  8F9F               	bsf	(___fltol@f1+2)& (0+255),7,b
  5889  001DB8                     
  5890                           ; BSR set to: 0
  5891  001DB8  0EFF               	movlw	255
  5892  001DBA  179D               	andwf	___fltol@f1& (0+255),f,b
  5893  001DBC  0EFF               	movlw	255
  5894  001DBE  179E               	andwf	(___fltol@f1+1)& (0+255),f,b
  5895  001DC0  0EFF               	movlw	255
  5896  001DC2  179F               	andwf	(___fltol@f1+2)& (0+255),f,b
  5897  001DC4  0E00               	movlw	0
  5898  001DC6  17A0               	andwf	(___fltol@f1+3)& (0+255),f,b
  5899  001DC8                     
  5900                           ; BSR set to: 0
  5901  001DC8  0E96               	movlw	150
  5902  001DCA  5FA6               	subwf	___fltol@exp1& (0+255),f,b
  5903  001DCC                     
  5904                           ; BSR set to: 0
  5905  001DCC  BFA6               	btfsc	___fltol@exp1& (0+255),7,b
  5906  001DCE  EFED  F00E         	goto	u2380
  5907  001DD2  EFEB  F00E         	goto	u2381
  5908  001DD6                     u2381:
  5909  001DD6  EF03  F00F         	goto	l3013
  5910  001DDA                     u2380:
  5911  001DDA                     
  5912                           ; BSR set to: 0
  5913  001DDA  51A6               	movf	___fltol@exp1& (0+255),w,b
  5914  001DDC  0A80               	xorlw	128
  5915  001DDE  0F97               	addlw	151
  5916  001DE0  B0D8               	btfsc	status,0,c
  5917  001DE2  EFF5  F00E         	goto	u2391
  5918  001DE6  EFF7  F00E         	goto	u2390
  5919  001DEA                     u2391:
  5920  001DEA  EFF9  F00E         	goto	l3009
  5921  001DEE                     u2390:
  5922  001DEE  EFBC  F00E         	goto	l2989
  5923  001DF2                     l3009:
  5924                           
  5925                           ; BSR set to: 0
  5926  001DF2  90D8               	bcf	status,0,c
  5927  001DF4  33A0               	rrcf	(___fltol@f1+3)& (0+255),f,b
  5928  001DF6  339F               	rrcf	(___fltol@f1+2)& (0+255),f,b
  5929  001DF8  339E               	rrcf	(___fltol@f1+1)& (0+255),f,b
  5930  001DFA  339D               	rrcf	___fltol@f1& (0+255),f,b
  5931  001DFC                     
  5932                           ; BSR set to: 0
  5933  001DFC  3FA6               	incfsz	___fltol@exp1& (0+255),f,b
  5934  001DFE  EFF9  F00E         	goto	l3009
  5935  001E02  EF1B  F00F         	goto	l3023
  5936  001E06                     l3013:
  5937                           
  5938                           ; BSR set to: 0
  5939  001E06  0E1F               	movlw	31
  5940  001E08  65A6               	cpfsgt	___fltol@exp1& (0+255),b
  5941  001E0A  EF09  F00F         	goto	u2401
  5942  001E0E  EF0B  F00F         	goto	u2400
  5943  001E12                     u2401:
  5944  001E12  EF13  F00F         	goto	l3021
  5945  001E16                     u2400:
  5946  001E16  EFBC  F00E         	goto	l2989
  5947  001E1A                     l3019:
  5948                           
  5949                           ; BSR set to: 0
  5950  001E1A  90D8               	bcf	status,0,c
  5951  001E1C  379D               	rlcf	___fltol@f1& (0+255),f,b
  5952  001E1E  379E               	rlcf	(___fltol@f1+1)& (0+255),f,b
  5953  001E20  379F               	rlcf	(___fltol@f1+2)& (0+255),f,b
  5954  001E22  37A0               	rlcf	(___fltol@f1+3)& (0+255),f,b
  5955  001E24  07A6               	decf	___fltol@exp1& (0+255),f,b
  5956  001E26                     l3021:
  5957                           
  5958                           ; BSR set to: 0
  5959  001E26  51A6               	movf	___fltol@exp1& (0+255),w,b
  5960  001E28  A4D8               	btfss	status,2,c
  5961  001E2A  EF19  F00F         	goto	u2411
  5962  001E2E  EF1B  F00F         	goto	u2410
  5963  001E32                     u2411:
  5964  001E32  EF0D  F00F         	goto	l3019
  5965  001E36                     u2410:
  5966  001E36                     l3023:
  5967                           
  5968                           ; BSR set to: 0
  5969  001E36  51A5               	movf	___fltol@sign1& (0+255),w,b
  5970  001E38  B4D8               	btfsc	status,2,c
  5971  001E3A  EF21  F00F         	goto	u2421
  5972  001E3E  EF23  F00F         	goto	u2420
  5973  001E42                     u2421:
  5974  001E42  EF2B  F00F         	goto	l3027
  5975  001E46                     u2420:
  5976  001E46                     
  5977                           ; BSR set to: 0
  5978  001E46  1FA0               	comf	(___fltol@f1+3)& (0+255),f,b
  5979  001E48  1F9F               	comf	(___fltol@f1+2)& (0+255),f,b
  5980  001E4A  1F9E               	comf	(___fltol@f1+1)& (0+255),f,b
  5981  001E4C  6D9D               	negf	___fltol@f1& (0+255),b
  5982  001E4E  0E00               	movlw	0
  5983  001E50  239E               	addwfc	(___fltol@f1+1)& (0+255),f,b
  5984  001E52  239F               	addwfc	(___fltol@f1+2)& (0+255),f,b
  5985  001E54  23A0               	addwfc	(___fltol@f1+3)& (0+255),f,b
  5986  001E56                     l3027:
  5987                           
  5988                           ; BSR set to: 0
  5989  001E56  C09D  F09D         	movff	___fltol@f1,?___fltol
  5990  001E5A  C09E  F09E         	movff	___fltol@f1+1,?___fltol+1
  5991  001E5E  C09F  F09F         	movff	___fltol@f1+2,?___fltol+2
  5992  001E62  C0A0  F0A0         	movff	___fltol@f1+3,?___fltol+3
  5993  001E66                     l964:
  5994                           
  5995                           ; BSR set to: 0
  5996  001E66  0012               	return		;funcret
  5997  001E68                     __end_of___fltol:
  5998                           	opt callstack 0
  5999                           
  6000 ;; *************** function ___flmul *****************
  6001 ;; Defined at:
  6002 ;;		line 8 in file "C:\Program Files (x86)\Microchip\xc8\v2.10\pic\sources\c99\common\sprcmul.c"
  6003 ;; Parameters:    Size  Location     Type
  6004 ;;  b               4   20[BANK0 ] long 
  6005 ;;  a               4   24[BANK0 ] long 
  6006 ;; Auto vars:     Size  Location     Type
  6007 ;;  prod            4   39[BANK0 ] struct .
  6008 ;;  grs             4   33[BANK0 ] unsigned long 
  6009 ;;  temp            2   43[BANK0 ] struct .
  6010 ;;  bexp            1   38[BANK0 ] unsigned char 
  6011 ;;  aexp            1   37[BANK0 ] unsigned char 
  6012 ;;  sign            1   32[BANK0 ] unsigned char 
  6013 ;; Return value:  Size  Location     Type
  6014 ;;                  4   20[BANK0 ] unsigned char 
  6015 ;; Registers used:
  6016 ;;		wreg, status,2, status,0, prodl, prodh
  6017 ;; Tracked objects:
  6018 ;;		On entry : 0/0
  6019 ;;		On exit  : 0/0
  6020 ;;		Unchanged: 0/0
  6021 ;; Data sizes:     COMRAM   BANK0   BANK1   BANK2   BANK3   BANK4   BANK5   BANK6   BANK7
  6022 ;;      Params:         0       8       0       0       0       0       0       0       0
  6023 ;;      Locals:         0      13       0       0       0       0       0       0       0
  6024 ;;      Temps:          0       4       0       0       0       0       0       0       0
  6025 ;;      Totals:         0      25       0       0       0       0       0       0       0
  6026 ;;Total ram usage:       25 bytes
  6027 ;; Hardware stack levels used:    1
  6028 ;; Hardware stack levels required when called:    5
  6029 ;; This function calls:
  6030 ;;		Nothing
  6031 ;; This function is called by:
  6032 ;;		_PWM_DutyCycleCCP2
  6033 ;;		_PWM_DutyCycleCCP1
  6034 ;;		_impCoordActual
  6035 ;; This function uses a non-reentrant model
  6036 ;;
  6037                           
  6038                           	psect	text31
  6039  0009C8                     __ptext31:
  6040                           	opt callstack 0
  6041  0009C8                     ___flmul:
  6042                           	opt callstack 23
  6043  0009C8  0100               	movlb	0	; () banked
  6044  0009CA  5177               	movf	(___flmul@b+3)& (0+255),w,b
  6045  0009CC  0B80               	andlw	128
  6046  0009CE  6F80               	movwf	___flmul@sign& (0+255),b
  6047  0009D0  5177               	movf	(___flmul@b+3)& (0+255),w,b
  6048  0009D2  2577               	addwf	(___flmul@b+3)& (0+255),w,b
  6049  0009D4  6F86               	movwf	___flmul@bexp& (0+255),b
  6050  0009D6                     
  6051                           ; BSR set to: 0
  6052  0009D6  AF76               	btfss	(___flmul@b+2)& (0+255),7,b
  6053  0009D8  EFF0  F004         	goto	u2171
  6054  0009DC  EFF2  F004         	goto	u2170
  6055  0009E0                     u2171:
  6056  0009E0  EFF3  F004         	goto	l2863
  6057  0009E4                     u2170:
  6058  0009E4                     
  6059                           ; BSR set to: 0
  6060  0009E4  8186               	bsf	___flmul@bexp& (0+255),0,b
  6061  0009E6                     l2863:
  6062                           
  6063                           ; BSR set to: 0
  6064  0009E6  5186               	movf	___flmul@bexp& (0+255),w,b
  6065  0009E8  B4D8               	btfsc	status,2,c
  6066  0009EA  EFF9  F004         	goto	u2181
  6067  0009EE  EFFB  F004         	goto	u2180
  6068  0009F2                     u2181:
  6069  0009F2  EF0E  F005         	goto	l2871
  6070  0009F6                     u2180:
  6071  0009F6                     
  6072                           ; BSR set to: 0
  6073  0009F6  2986               	incf	___flmul@bexp& (0+255),w,b
  6074  0009F8  A4D8               	btfss	status,2,c
  6075  0009FA  EF01  F005         	goto	u2191
  6076  0009FE  EF03  F005         	goto	u2190
  6077  000A02                     u2191:
  6078  000A02  EF0B  F005         	goto	l2869
  6079  000A06                     u2190:
  6080  000A06                     
  6081                           ; BSR set to: 0
  6082  000A06  0E00               	movlw	0
  6083  000A08  6F74               	movwf	___flmul@b& (0+255),b
  6084  000A0A  0E00               	movlw	0
  6085  000A0C  6F75               	movwf	(___flmul@b+1)& (0+255),b
  6086  000A0E  0E00               	movlw	0
  6087  000A10  6F76               	movwf	(___flmul@b+2)& (0+255),b
  6088  000A12  0E00               	movlw	0
  6089  000A14  6F77               	movwf	(___flmul@b+3)& (0+255),b
  6090  000A16                     l2869:
  6091                           
  6092                           ; BSR set to: 0
  6093  000A16  8F76               	bsf	(___flmul@b+2)& (0+255),7,b
  6094  000A18  EF16  F005         	goto	l2873
  6095  000A1C                     l2871:
  6096                           
  6097                           ; BSR set to: 0
  6098  000A1C  0E00               	movlw	0
  6099  000A1E  6F74               	movwf	___flmul@b& (0+255),b
  6100  000A20  0E00               	movlw	0
  6101  000A22  6F75               	movwf	(___flmul@b+1)& (0+255),b
  6102  000A24  0E00               	movlw	0
  6103  000A26  6F76               	movwf	(___flmul@b+2)& (0+255),b
  6104  000A28  0E00               	movlw	0
  6105  000A2A  6F77               	movwf	(___flmul@b+3)& (0+255),b
  6106  000A2C                     l2873:
  6107                           
  6108                           ; BSR set to: 0
  6109  000A2C  517B               	movf	(___flmul@a+3)& (0+255),w,b
  6110  000A2E  0B80               	andlw	128
  6111  000A30  1B80               	xorwf	___flmul@sign& (0+255),f,b
  6112  000A32                     
  6113                           ; BSR set to: 0
  6114  000A32  517B               	movf	(___flmul@a+3)& (0+255),w,b
  6115  000A34  257B               	addwf	(___flmul@a+3)& (0+255),w,b
  6116  000A36  6F85               	movwf	___flmul@aexp& (0+255),b
  6117  000A38                     
  6118                           ; BSR set to: 0
  6119  000A38  AF7A               	btfss	(___flmul@a+2)& (0+255),7,b
  6120  000A3A  EF21  F005         	goto	u2201
  6121  000A3E  EF23  F005         	goto	u2200
  6122  000A42                     u2201:
  6123  000A42  EF24  F005         	goto	l2881
  6124  000A46                     u2200:
  6125  000A46                     
  6126                           ; BSR set to: 0
  6127  000A46  8185               	bsf	___flmul@aexp& (0+255),0,b
  6128  000A48                     l2881:
  6129                           
  6130                           ; BSR set to: 0
  6131  000A48  5185               	movf	___flmul@aexp& (0+255),w,b
  6132  000A4A  B4D8               	btfsc	status,2,c
  6133  000A4C  EF2A  F005         	goto	u2211
  6134  000A50  EF2C  F005         	goto	u2210
  6135  000A54                     u2211:
  6136  000A54  EF3F  F005         	goto	l2889
  6137  000A58                     u2210:
  6138  000A58                     
  6139                           ; BSR set to: 0
  6140  000A58  2985               	incf	___flmul@aexp& (0+255),w,b
  6141  000A5A  A4D8               	btfss	status,2,c
  6142  000A5C  EF32  F005         	goto	u2221
  6143  000A60  EF34  F005         	goto	u2220
  6144  000A64                     u2221:
  6145  000A64  EF3C  F005         	goto	l2887
  6146  000A68                     u2220:
  6147  000A68                     
  6148                           ; BSR set to: 0
  6149  000A68  0E00               	movlw	0
  6150  000A6A  6F78               	movwf	___flmul@a& (0+255),b
  6151  000A6C  0E00               	movlw	0
  6152  000A6E  6F79               	movwf	(___flmul@a+1)& (0+255),b
  6153  000A70  0E00               	movlw	0
  6154  000A72  6F7A               	movwf	(___flmul@a+2)& (0+255),b
  6155  000A74  0E00               	movlw	0
  6156  000A76  6F7B               	movwf	(___flmul@a+3)& (0+255),b
  6157  000A78                     l2887:
  6158                           
  6159                           ; BSR set to: 0
  6160  000A78  8F7A               	bsf	(___flmul@a+2)& (0+255),7,b
  6161  000A7A  EF47  F005         	goto	l1281
  6162  000A7E                     l2889:
  6163                           
  6164                           ; BSR set to: 0
  6165  000A7E  0E00               	movlw	0
  6166  000A80  6F78               	movwf	___flmul@a& (0+255),b
  6167  000A82  0E00               	movlw	0
  6168  000A84  6F79               	movwf	(___flmul@a+1)& (0+255),b
  6169  000A86  0E00               	movlw	0
  6170  000A88  6F7A               	movwf	(___flmul@a+2)& (0+255),b
  6171  000A8A  0E00               	movlw	0
  6172  000A8C  6F7B               	movwf	(___flmul@a+3)& (0+255),b
  6173  000A8E                     l1281:
  6174                           
  6175                           ; BSR set to: 0
  6176  000A8E  5185               	movf	___flmul@aexp& (0+255),w,b
  6177  000A90  B4D8               	btfsc	status,2,c
  6178  000A92  EF4D  F005         	goto	u2231
  6179  000A96  EF4F  F005         	goto	u2230
  6180  000A9A                     u2231:
  6181  000A9A  EF57  F005         	goto	l2893
  6182  000A9E                     u2230:
  6183  000A9E                     
  6184                           ; BSR set to: 0
  6185  000A9E  5186               	movf	___flmul@bexp& (0+255),w,b
  6186  000AA0  A4D8               	btfss	status,2,c
  6187  000AA2  EF55  F005         	goto	u2241
  6188  000AA6  EF57  F005         	goto	u2240
  6189  000AAA                     u2241:
  6190  000AAA  EF61  F005         	goto	l2897
  6191  000AAE                     u2240:
  6192  000AAE                     l2893:
  6193                           
  6194                           ; BSR set to: 0
  6195  000AAE  0E00               	movlw	0
  6196  000AB0  6F74               	movwf	?___flmul& (0+255),b
  6197  000AB2  0E00               	movlw	0
  6198  000AB4  6F75               	movwf	(?___flmul+1)& (0+255),b
  6199  000AB6  0E00               	movlw	0
  6200  000AB8  6F76               	movwf	(?___flmul+2)& (0+255),b
  6201  000ABA  0E00               	movlw	0
  6202  000ABC  6F77               	movwf	(?___flmul+3)& (0+255),b
  6203  000ABE  EFF9  F006         	goto	l1285
  6204  000AC2                     l2897:
  6205                           
  6206                           ; BSR set to: 0
  6207  000AC2  517A               	movf	(___flmul@a+2)& (0+255),w,b
  6208  000AC4  0374               	mulwf	___flmul@b& (0+255),b
  6209  000AC6  CFF3 F08B          	movff	prodl,___flmul@temp
  6210  000ACA  CFF4 F08C          	movff	prodh,___flmul@temp+1
  6211  000ACE                     
  6212                           ; BSR set to: 0
  6213  000ACE  518B               	movf	___flmul@temp& (0+255),w,b
  6214  000AD0  6F81               	movwf	___flmul@grs& (0+255),b
  6215  000AD2  6B82               	clrf	(___flmul@grs+1)& (0+255),b
  6216  000AD4  6B83               	clrf	(___flmul@grs+2)& (0+255),b
  6217  000AD6  6B84               	clrf	(___flmul@grs+3)& (0+255),b
  6218  000AD8                     
  6219                           ; BSR set to: 0
  6220  000AD8  518C               	movf	(___flmul@temp+1)& (0+255),w,b
  6221  000ADA  6F87               	movwf	___flmul@prod& (0+255),b
  6222  000ADC  6B88               	clrf	(___flmul@prod+1)& (0+255),b
  6223  000ADE  6B89               	clrf	(___flmul@prod+2)& (0+255),b
  6224  000AE0  6B8A               	clrf	(___flmul@prod+3)& (0+255),b
  6225  000AE2  5179               	movf	(___flmul@a+1)& (0+255),w,b
  6226  000AE4  0375               	mulwf	(___flmul@b+1)& (0+255),b
  6227  000AE6  CFF3 F08B          	movff	prodl,___flmul@temp
  6228  000AEA  CFF4 F08C          	movff	prodh,___flmul@temp+1
  6229  000AEE                     
  6230                           ; BSR set to: 0
  6231  000AEE  518B               	movf	___flmul@temp& (0+255),w,b
  6232  000AF0  2781               	addwf	___flmul@grs& (0+255),f,b
  6233  000AF2  0E00               	movlw	0
  6234  000AF4  2382               	addwfc	(___flmul@grs+1)& (0+255),f,b
  6235  000AF6  2383               	addwfc	(___flmul@grs+2)& (0+255),f,b
  6236  000AF8  2384               	addwfc	(___flmul@grs+3)& (0+255),f,b
  6237  000AFA                     
  6238                           ; BSR set to: 0
  6239  000AFA  518C               	movf	(___flmul@temp+1)& (0+255),w,b
  6240  000AFC  2787               	addwf	___flmul@prod& (0+255),f,b
  6241  000AFE  0E00               	movlw	0
  6242  000B00  2388               	addwfc	(___flmul@prod+1)& (0+255),f,b
  6243  000B02  2389               	addwfc	(___flmul@prod+2)& (0+255),f,b
  6244  000B04  238A               	addwfc	(___flmul@prod+3)& (0+255),f,b
  6245  000B06  5178               	movf	___flmul@a& (0+255),w,b
  6246  000B08  0376               	mulwf	(___flmul@b+2)& (0+255),b
  6247  000B0A  CFF3 F08B          	movff	prodl,___flmul@temp
  6248  000B0E  CFF4 F08C          	movff	prodh,___flmul@temp+1
  6249  000B12                     
  6250                           ; BSR set to: 0
  6251  000B12  518B               	movf	___flmul@temp& (0+255),w,b
  6252  000B14  2781               	addwf	___flmul@grs& (0+255),f,b
  6253  000B16  0E00               	movlw	0
  6254  000B18  2382               	addwfc	(___flmul@grs+1)& (0+255),f,b
  6255  000B1A  2383               	addwfc	(___flmul@grs+2)& (0+255),f,b
  6256  000B1C  2384               	addwfc	(___flmul@grs+3)& (0+255),f,b
  6257  000B1E                     
  6258                           ; BSR set to: 0
  6259  000B1E  518C               	movf	(___flmul@temp+1)& (0+255),w,b
  6260  000B20  2787               	addwf	___flmul@prod& (0+255),f,b
  6261  000B22  0E00               	movlw	0
  6262  000B24  2388               	addwfc	(___flmul@prod+1)& (0+255),f,b
  6263  000B26  2389               	addwfc	(___flmul@prod+2)& (0+255),f,b
  6264  000B28  238A               	addwfc	(___flmul@prod+3)& (0+255),f,b
  6265  000B2A                     
  6266                           ; BSR set to: 0
  6267  000B2A  C083  F084         	movff	___flmul@grs+2,___flmul@grs+3
  6268  000B2E  C082  F083         	movff	___flmul@grs+1,___flmul@grs+2
  6269  000B32  C081  F082         	movff	___flmul@grs,___flmul@grs+1
  6270  000B36  6B81               	clrf	___flmul@grs& (0+255),b
  6271  000B38                     
  6272                           ; BSR set to: 0
  6273  000B38  5178               	movf	___flmul@a& (0+255),w,b
  6274  000B3A  0375               	mulwf	(___flmul@b+1)& (0+255),b
  6275  000B3C  CFF3 F08B          	movff	prodl,___flmul@temp
  6276  000B40  CFF4 F08C          	movff	prodh,___flmul@temp+1
  6277  000B44                     
  6278                           ; BSR set to: 0
  6279  000B44  518B               	movf	___flmul@temp& (0+255),w,b
  6280  000B46  2781               	addwf	___flmul@grs& (0+255),f,b
  6281  000B48  518C               	movf	(___flmul@temp+1)& (0+255),w,b
  6282  000B4A  2382               	addwfc	(___flmul@grs+1)& (0+255),f,b
  6283  000B4C  0E00               	movlw	0
  6284  000B4E  2383               	addwfc	(___flmul@grs+2)& (0+255),f,b
  6285  000B50  0E00               	movlw	0
  6286  000B52  2384               	addwfc	(___flmul@grs+3)& (0+255),f,b
  6287  000B54                     
  6288                           ; BSR set to: 0
  6289  000B54  5179               	movf	(___flmul@a+1)& (0+255),w,b
  6290  000B56  0374               	mulwf	___flmul@b& (0+255),b
  6291  000B58  CFF3 F08B          	movff	prodl,___flmul@temp
  6292  000B5C  CFF4 F08C          	movff	prodh,___flmul@temp+1
  6293  000B60                     
  6294                           ; BSR set to: 0
  6295  000B60  518B               	movf	___flmul@temp& (0+255),w,b
  6296  000B62  2781               	addwf	___flmul@grs& (0+255),f,b
  6297  000B64  518C               	movf	(___flmul@temp+1)& (0+255),w,b
  6298  000B66  2382               	addwfc	(___flmul@grs+1)& (0+255),f,b
  6299  000B68  0E00               	movlw	0
  6300  000B6A  2383               	addwfc	(___flmul@grs+2)& (0+255),f,b
  6301  000B6C  0E00               	movlw	0
  6302  000B6E  2384               	addwfc	(___flmul@grs+3)& (0+255),f,b
  6303  000B70                     
  6304                           ; BSR set to: 0
  6305  000B70  C083  F084         	movff	___flmul@grs+2,___flmul@grs+3
  6306  000B74  C082  F083         	movff	___flmul@grs+1,___flmul@grs+2
  6307  000B78  C081  F082         	movff	___flmul@grs,___flmul@grs+1
  6308  000B7C  6B81               	clrf	___flmul@grs& (0+255),b
  6309  000B7E  5178               	movf	___flmul@a& (0+255),w,b
  6310  000B80  0374               	mulwf	___flmul@b& (0+255),b
  6311  000B82  CFF3 F08B          	movff	prodl,___flmul@temp
  6312  000B86  CFF4 F08C          	movff	prodh,___flmul@temp+1
  6313  000B8A                     
  6314                           ; BSR set to: 0
  6315  000B8A  518B               	movf	___flmul@temp& (0+255),w,b
  6316  000B8C  2781               	addwf	___flmul@grs& (0+255),f,b
  6317  000B8E  518C               	movf	(___flmul@temp+1)& (0+255),w,b
  6318  000B90  2382               	addwfc	(___flmul@grs+1)& (0+255),f,b
  6319  000B92  0E00               	movlw	0
  6320  000B94  2383               	addwfc	(___flmul@grs+2)& (0+255),f,b
  6321  000B96  0E00               	movlw	0
  6322  000B98  2384               	addwfc	(___flmul@grs+3)& (0+255),f,b
  6323  000B9A                     
  6324                           ; BSR set to: 0
  6325  000B9A  517A               	movf	(___flmul@a+2)& (0+255),w,b
  6326  000B9C  0375               	mulwf	(___flmul@b+1)& (0+255),b
  6327  000B9E  CFF3 F08B          	movff	prodl,___flmul@temp
  6328  000BA2  CFF4 F08C          	movff	prodh,___flmul@temp+1
  6329  000BA6  518B               	movf	___flmul@temp& (0+255),w,b
  6330  000BA8  2787               	addwf	___flmul@prod& (0+255),f,b
  6331  000BAA  518C               	movf	(___flmul@temp+1)& (0+255),w,b
  6332  000BAC  2388               	addwfc	(___flmul@prod+1)& (0+255),f,b
  6333  000BAE  0E00               	movlw	0
  6334  000BB0  2389               	addwfc	(___flmul@prod+2)& (0+255),f,b
  6335  000BB2  0E00               	movlw	0
  6336  000BB4  238A               	addwfc	(___flmul@prod+3)& (0+255),f,b
  6337  000BB6                     
  6338                           ; BSR set to: 0
  6339  000BB6  5179               	movf	(___flmul@a+1)& (0+255),w,b
  6340  000BB8  0376               	mulwf	(___flmul@b+2)& (0+255),b
  6341  000BBA  CFF3 F08B          	movff	prodl,___flmul@temp
  6342  000BBE  CFF4 F08C          	movff	prodh,___flmul@temp+1
  6343  000BC2                     
  6344                           ; BSR set to: 0
  6345  000BC2  518B               	movf	___flmul@temp& (0+255),w,b
  6346  000BC4  2787               	addwf	___flmul@prod& (0+255),f,b
  6347  000BC6  518C               	movf	(___flmul@temp+1)& (0+255),w,b
  6348  000BC8  2388               	addwfc	(___flmul@prod+1)& (0+255),f,b
  6349  000BCA  0E00               	movlw	0
  6350  000BCC  2389               	addwfc	(___flmul@prod+2)& (0+255),f,b
  6351  000BCE  0E00               	movlw	0
  6352  000BD0  238A               	addwfc	(___flmul@prod+3)& (0+255),f,b
  6353  000BD2  517A               	movf	(___flmul@a+2)& (0+255),w,b
  6354  000BD4  0376               	mulwf	(___flmul@b+2)& (0+255),b
  6355  000BD6  CFF3 F08B          	movff	prodl,___flmul@temp
  6356  000BDA  CFF4 F08C          	movff	prodh,___flmul@temp+1
  6357  000BDE                     
  6358                           ; BSR set to: 0
  6359  000BDE  518B               	movf	___flmul@temp& (0+255),w,b
  6360  000BE0  6F7C               	movwf	??___flmul& (0+255),b
  6361  000BE2  518C               	movf	(___flmul@temp+1)& (0+255),w,b
  6362  000BE4  6F7D               	movwf	(??___flmul+1)& (0+255),b
  6363  000BE6  6B7E               	clrf	(??___flmul+2)& (0+255),b
  6364  000BE8  6B7F               	clrf	(??___flmul+3)& (0+255),b
  6365  000BEA  C07E  F07F         	movff	??___flmul+2,??___flmul+3
  6366  000BEE  C07D  F07E         	movff	??___flmul+1,??___flmul+2
  6367  000BF2  C07C  F07D         	movff	??___flmul,??___flmul+1
  6368  000BF6  6B7C               	clrf	??___flmul& (0+255),b
  6369  000BF8  517C               	movf	??___flmul& (0+255),w,b
  6370  000BFA  2787               	addwf	___flmul@prod& (0+255),f,b
  6371  000BFC  517D               	movf	(??___flmul+1)& (0+255),w,b
  6372  000BFE  2388               	addwfc	(___flmul@prod+1)& (0+255),f,b
  6373  000C00  517E               	movf	(??___flmul+2)& (0+255),w,b
  6374  000C02  2389               	addwfc	(___flmul@prod+2)& (0+255),f,b
  6375  000C04  517F               	movf	(??___flmul+3)& (0+255),w,b
  6376  000C06  238A               	addwfc	(___flmul@prod+3)& (0+255),f,b
  6377  000C08                     
  6378                           ; BSR set to: 0
  6379  000C08  C081  F07C         	movff	___flmul@grs,??___flmul
  6380  000C0C  C082  F07D         	movff	___flmul@grs+1,??___flmul+1
  6381  000C10  C083  F07E         	movff	___flmul@grs+2,??___flmul+2
  6382  000C14  C084  F07F         	movff	___flmul@grs+3,??___flmul+3
  6383  000C18  0E19               	movlw	25
  6384  000C1A  EF14  F006         	goto	u2250
  6385  000C1E                     u2255:
  6386  000C1E  90D8               	bcf	status,0,c
  6387  000C20  337F               	rrcf	(??___flmul+3)& (0+255),f,b
  6388  000C22  337E               	rrcf	(??___flmul+2)& (0+255),f,b
  6389  000C24  337D               	rrcf	(??___flmul+1)& (0+255),f,b
  6390  000C26  337C               	rrcf	??___flmul& (0+255),f,b
  6391  000C28                     u2250:
  6392  000C28  2EE8               	decfsz	wreg,f,c
  6393  000C2A  EF0F  F006         	goto	u2255
  6394  000C2E  517C               	movf	??___flmul& (0+255),w,b
  6395  000C30  2787               	addwf	___flmul@prod& (0+255),f,b
  6396  000C32  517D               	movf	(??___flmul+1)& (0+255),w,b
  6397  000C34  2388               	addwfc	(___flmul@prod+1)& (0+255),f,b
  6398  000C36  517E               	movf	(??___flmul+2)& (0+255),w,b
  6399  000C38  2389               	addwfc	(___flmul@prod+2)& (0+255),f,b
  6400  000C3A  517F               	movf	(??___flmul+3)& (0+255),w,b
  6401  000C3C  238A               	addwfc	(___flmul@prod+3)& (0+255),f,b
  6402  000C3E                     
  6403                           ; BSR set to: 0
  6404  000C3E  C083  F084         	movff	___flmul@grs+2,___flmul@grs+3
  6405  000C42  C082  F083         	movff	___flmul@grs+1,___flmul@grs+2
  6406  000C46  C081  F082         	movff	___flmul@grs,___flmul@grs+1
  6407  000C4A  6B81               	clrf	___flmul@grs& (0+255),b
  6408  000C4C                     
  6409                           ; BSR set to: 0
  6410  000C4C  5185               	movf	___flmul@aexp& (0+255),w,b
  6411  000C4E  C086  F07C         	movff	___flmul@bexp,??___flmul
  6412  000C52  6B7D               	clrf	(??___flmul+1)& (0+255),b
  6413  000C54  277C               	addwf	??___flmul& (0+255),f,b
  6414  000C56  0E00               	movlw	0
  6415  000C58  237D               	addwfc	(??___flmul+1)& (0+255),f,b
  6416  000C5A  0E82               	movlw	130
  6417  000C5C  257C               	addwf	??___flmul& (0+255),w,b
  6418  000C5E  6F8B               	movwf	___flmul@temp& (0+255),b
  6419  000C60  0EFF               	movlw	255
  6420  000C62  217D               	addwfc	(??___flmul+1)& (0+255),w,b
  6421  000C64  6F8C               	movwf	(___flmul@temp+1)& (0+255),b
  6422  000C66  EF4A  F006         	goto	l2945
  6423  000C6A                     l2939:
  6424                           
  6425                           ; BSR set to: 0
  6426  000C6A  90D8               	bcf	status,0,c
  6427  000C6C  3787               	rlcf	___flmul@prod& (0+255),f,b
  6428  000C6E  3788               	rlcf	(___flmul@prod+1)& (0+255),f,b
  6429  000C70  3789               	rlcf	(___flmul@prod+2)& (0+255),f,b
  6430  000C72  378A               	rlcf	(___flmul@prod+3)& (0+255),f,b
  6431  000C74                     
  6432                           ; BSR set to: 0
  6433  000C74  AF84               	btfss	(___flmul@grs+3)& (0+255),7,b
  6434  000C76  EF3F  F006         	goto	u2261
  6435  000C7A  EF41  F006         	goto	u2260
  6436  000C7E                     u2261:
  6437  000C7E  EF42  F006         	goto	l1288
  6438  000C82                     u2260:
  6439  000C82                     
  6440                           ; BSR set to: 0
  6441  000C82  8187               	bsf	___flmul@prod& (0+255),0,b
  6442  000C84                     l1288:
  6443                           
  6444                           ; BSR set to: 0
  6445  000C84  90D8               	bcf	status,0,c
  6446  000C86  3781               	rlcf	___flmul@grs& (0+255),f,b
  6447  000C88  3782               	rlcf	(___flmul@grs+1)& (0+255),f,b
  6448  000C8A  3783               	rlcf	(___flmul@grs+2)& (0+255),f,b
  6449  000C8C  3784               	rlcf	(___flmul@grs+3)& (0+255),f,b
  6450  000C8E  078B               	decf	___flmul@temp& (0+255),f,b
  6451  000C90  A0D8               	btfss	status,0,c
  6452  000C92  078C               	decf	(___flmul@temp+1)& (0+255),f,b
  6453  000C94                     l2945:
  6454                           
  6455                           ; BSR set to: 0
  6456  000C94  AF89               	btfss	(___flmul@prod+2)& (0+255),7,b
  6457  000C96  EF4F  F006         	goto	u2271
  6458  000C9A  EF51  F006         	goto	u2270
  6459  000C9E                     u2271:
  6460  000C9E  EF35  F006         	goto	l2939
  6461  000CA2                     u2270:
  6462  000CA2                     
  6463                           ; BSR set to: 0
  6464  000CA2  0E00               	movlw	0
  6465  000CA4  6F85               	movwf	___flmul@aexp& (0+255),b
  6466  000CA6                     
  6467                           ; BSR set to: 0
  6468  000CA6  AF84               	btfss	(___flmul@grs+3)& (0+255),7,b
  6469  000CA8  EF58  F006         	goto	u2281
  6470  000CAC  EF5A  F006         	goto	u2280
  6471  000CB0                     u2281:
  6472  000CB0  EF7E  F006         	goto	l1290
  6473  000CB4                     u2280:
  6474  000CB4                     
  6475                           ; BSR set to: 0
  6476  000CB4  0EFF               	movlw	255
  6477  000CB6  1581               	andwf	___flmul@grs& (0+255),w,b
  6478  000CB8  6F7C               	movwf	??___flmul& (0+255),b
  6479  000CBA  0EFF               	movlw	255
  6480  000CBC  1582               	andwf	(___flmul@grs+1)& (0+255),w,b
  6481  000CBE  6F7D               	movwf	(??___flmul+1)& (0+255),b
  6482  000CC0  0EFF               	movlw	255
  6483  000CC2  1583               	andwf	(___flmul@grs+2)& (0+255),w,b
  6484  000CC4  6F7E               	movwf	(??___flmul+2)& (0+255),b
  6485  000CC6  0E7F               	movlw	127
  6486  000CC8  1584               	andwf	(___flmul@grs+3)& (0+255),w,b
  6487  000CCA  6F7F               	movwf	(??___flmul+3)& (0+255),b
  6488  000CCC  517C               	movf	??___flmul& (0+255),w,b
  6489  000CCE  117D               	iorwf	(??___flmul+1)& (0+255),w,b
  6490  000CD0  117E               	iorwf	(??___flmul+2)& (0+255),w,b
  6491  000CD2  117F               	iorwf	(??___flmul+3)& (0+255),w,b
  6492  000CD4  B4D8               	btfsc	status,2,c
  6493  000CD6  EF6F  F006         	goto	u2291
  6494  000CDA  EF71  F006         	goto	u2290
  6495  000CDE                     u2291:
  6496  000CDE  EF75  F006         	goto	l1291
  6497  000CE2                     u2290:
  6498  000CE2                     l2953:
  6499                           
  6500                           ; BSR set to: 0
  6501  000CE2  0E01               	movlw	1
  6502  000CE4  6F85               	movwf	___flmul@aexp& (0+255),b
  6503  000CE6  EF7E  F006         	goto	l1290
  6504  000CEA                     l1291:
  6505                           
  6506                           ; BSR set to: 0
  6507  000CEA  A187               	btfss	___flmul@prod& (0+255),0,b
  6508  000CEC  EF7A  F006         	goto	u2301
  6509  000CF0  EF7C  F006         	goto	u2300
  6510  000CF4                     u2301:
  6511  000CF4  EF7E  F006         	goto	l1290
  6512  000CF8                     u2300:
  6513  000CF8  EF71  F006         	goto	l2953
  6514  000CFC                     l1290:
  6515                           
  6516                           ; BSR set to: 0
  6517  000CFC  5185               	movf	___flmul@aexp& (0+255),w,b
  6518  000CFE  B4D8               	btfsc	status,2,c
  6519  000D00  EF84  F006         	goto	u2311
  6520  000D04  EF86  F006         	goto	u2310
  6521  000D08                     u2311:
  6522  000D08  EFAA  F006         	goto	l2965
  6523  000D0C                     u2310:
  6524  000D0C                     
  6525                           ; BSR set to: 0
  6526  000D0C  0E01               	movlw	1
  6527  000D0E  2787               	addwf	___flmul@prod& (0+255),f,b
  6528  000D10  0E00               	movlw	0
  6529  000D12  2388               	addwfc	(___flmul@prod+1)& (0+255),f,b
  6530  000D14  2389               	addwfc	(___flmul@prod+2)& (0+255),f,b
  6531  000D16  238A               	addwfc	(___flmul@prod+3)& (0+255),f,b
  6532  000D18                     
  6533                           ; BSR set to: 0
  6534  000D18  A18A               	btfss	(___flmul@prod+3)& (0+255),0,b
  6535  000D1A  EF91  F006         	goto	u2321
  6536  000D1E  EF93  F006         	goto	u2320
  6537  000D22                     u2321:
  6538  000D22  EFAA  F006         	goto	l2965
  6539  000D26                     u2320:
  6540  000D26                     
  6541                           ; BSR set to: 0
  6542  000D26  C087  F07C         	movff	___flmul@prod,??___flmul
  6543  000D2A  C088  F07D         	movff	___flmul@prod+1,??___flmul+1
  6544  000D2E  C089  F07E         	movff	___flmul@prod+2,??___flmul+2
  6545  000D32  C08A  F07F         	movff	___flmul@prod+3,??___flmul+3
  6546  000D36  357F               	rlcf	(??___flmul+3)& (0+255),w,b
  6547  000D38  337F               	rrcf	(??___flmul+3)& (0+255),f,b
  6548  000D3A  337E               	rrcf	(??___flmul+2)& (0+255),f,b
  6549  000D3C  337D               	rrcf	(??___flmul+1)& (0+255),f,b
  6550  000D3E  337C               	rrcf	??___flmul& (0+255),f,b
  6551  000D40  C07C  F087         	movff	??___flmul,___flmul@prod
  6552  000D44  C07D  F088         	movff	??___flmul+1,___flmul@prod+1
  6553  000D48  C07E  F089         	movff	??___flmul+2,___flmul@prod+2
  6554  000D4C  C07F  F08A         	movff	??___flmul+3,___flmul@prod+3
  6555  000D50                     
  6556                           ; BSR set to: 0
  6557  000D50  4B8B               	infsnz	___flmul@temp& (0+255),f,b
  6558  000D52  2B8C               	incf	(___flmul@temp+1)& (0+255),f,b
  6559  000D54                     l2965:
  6560                           
  6561                           ; BSR set to: 0
  6562  000D54  BF8C               	btfsc	(___flmul@temp+1)& (0+255),7,b
  6563  000D56  EFB5  F006         	goto	u2331
  6564  000D5A  518C               	movf	(___flmul@temp+1)& (0+255),w,b
  6565  000D5C  E108               	bnz	u2330
  6566  000D5E  298B               	incf	___flmul@temp& (0+255),w,b
  6567  000D60  A0D8               	btfss	status,0,c
  6568  000D62  EFB5  F006         	goto	u2331
  6569  000D66  EFB7  F006         	goto	u2330
  6570  000D6A                     u2331:
  6571  000D6A  EFC1  F006         	goto	l2969
  6572  000D6E                     u2330:
  6573  000D6E                     
  6574                           ; BSR set to: 0
  6575  000D6E  0E00               	movlw	0
  6576  000D70  6F87               	movwf	___flmul@prod& (0+255),b
  6577  000D72  0E00               	movlw	0
  6578  000D74  6F88               	movwf	(___flmul@prod+1)& (0+255),b
  6579  000D76  0E80               	movlw	128
  6580  000D78  6F89               	movwf	(___flmul@prod+2)& (0+255),b
  6581  000D7A  0E7F               	movlw	127
  6582  000D7C  6F8A               	movwf	(___flmul@prod+3)& (0+255),b
  6583  000D7E  EFEF  F006         	goto	l2981
  6584  000D82                     l2969:
  6585                           
  6586                           ; BSR set to: 0
  6587  000D82  BF8C               	btfsc	(___flmul@temp+1)& (0+255),7,b
  6588  000D84  EFCE  F006         	goto	u2340
  6589  000D88  518C               	movf	(___flmul@temp+1)& (0+255),w,b
  6590  000D8A  E106               	bnz	u2341
  6591  000D8C  058B               	decf	___flmul@temp& (0+255),w,b
  6592  000D8E  B0D8               	btfsc	status,0,c
  6593  000D90  EFCC  F006         	goto	u2341
  6594  000D94  EFCE  F006         	goto	u2340
  6595  000D98                     u2341:
  6596  000D98  EFDA  F006         	goto	l1298
  6597  000D9C                     u2340:
  6598  000D9C                     
  6599                           ; BSR set to: 0
  6600  000D9C  0E00               	movlw	0
  6601  000D9E  6F87               	movwf	___flmul@prod& (0+255),b
  6602  000DA0  0E00               	movlw	0
  6603  000DA2  6F88               	movwf	(___flmul@prod+1)& (0+255),b
  6604  000DA4  0E00               	movlw	0
  6605  000DA6  6F89               	movwf	(___flmul@prod+2)& (0+255),b
  6606  000DA8  0E00               	movlw	0
  6607  000DAA  6F8A               	movwf	(___flmul@prod+3)& (0+255),b
  6608  000DAC  0E00               	movlw	0
  6609  000DAE  6F80               	movwf	___flmul@sign& (0+255),b
  6610  000DB0  EFEF  F006         	goto	l2981
  6611  000DB4                     l1298:
  6612                           
  6613                           ; BSR set to: 0
  6614  000DB4  C08B  F086         	movff	___flmul@temp,___flmul@bexp
  6615  000DB8                     
  6616                           ; BSR set to: 0
  6617  000DB8  0EFF               	movlw	255
  6618  000DBA  1787               	andwf	___flmul@prod& (0+255),f,b
  6619  000DBC  0EFF               	movlw	255
  6620  000DBE  1788               	andwf	(___flmul@prod+1)& (0+255),f,b
  6621  000DC0  0E7F               	movlw	127
  6622  000DC2  1789               	andwf	(___flmul@prod+2)& (0+255),f,b
  6623  000DC4  0E00               	movlw	0
  6624  000DC6  178A               	andwf	(___flmul@prod+3)& (0+255),f,b
  6625  000DC8                     
  6626                           ; BSR set to: 0
  6627  000DC8  A186               	btfss	___flmul@bexp& (0+255),0,b
  6628  000DCA  EFE9  F006         	goto	u2351
  6629  000DCE  EFEB  F006         	goto	u2350
  6630  000DD2                     u2351:
  6631  000DD2  EFEC  F006         	goto	l2979
  6632  000DD6                     u2350:
  6633  000DD6                     
  6634                           ; BSR set to: 0
  6635  000DD6  8F89               	bsf	(___flmul@prod+2)& (0+255),7,b
  6636  000DD8                     l2979:
  6637                           
  6638                           ; BSR set to: 0
  6639  000DD8  90D8               	bcf	status,0,c
  6640  000DDA  3186               	rrcf	___flmul@bexp& (0+255),w,b
  6641  000DDC  6F8A               	movwf	(___flmul@prod+3)& (0+255),b
  6642  000DDE                     l2981:
  6643                           
  6644                           ; BSR set to: 0
  6645  000DDE  5180               	movf	___flmul@sign& (0+255),w,b
  6646  000DE0  138A               	iorwf	(___flmul@prod+3)& (0+255),f,b
  6647  000DE2                     
  6648                           ; BSR set to: 0
  6649  000DE2  C087  F074         	movff	___flmul@prod,?___flmul
  6650  000DE6  C088  F075         	movff	___flmul@prod+1,?___flmul+1
  6651  000DEA  C089  F076         	movff	___flmul@prod+2,?___flmul+2
  6652  000DEE  C08A  F077         	movff	___flmul@prod+3,?___flmul+3
  6653  000DF2                     l1285:
  6654                           
  6655                           ; BSR set to: 0
  6656  000DF2  0012               	return		;funcret
  6657  000DF4                     __end_of___flmul:
  6658                           	opt callstack 0
  6659                           
  6660 ;; *************** function ___fladd *****************
  6661 ;; Defined at:
  6662 ;;		line 10 in file "C:\Program Files (x86)\Microchip\xc8\v2.10\pic\sources\c99\common\sprcadd.c"
  6663 ;; Parameters:    Size  Location     Type
  6664 ;;  b               4   45[BANK0 ] unsigned char 
  6665 ;;  a               4   49[BANK0 ] unsigned char 
  6666 ;; Auto vars:     Size  Location     Type
  6667 ;;  grs             1   60[BANK0 ] unsigned char 
  6668 ;;  bexp            1   59[BANK0 ] unsigned char 
  6669 ;;  aexp            1   58[BANK0 ] unsigned char 
  6670 ;;  signs           1   57[BANK0 ] unsigned char 
  6671 ;; Return value:  Size  Location     Type
  6672 ;;                  4   45[BANK0 ] unsigned char 
  6673 ;; Registers used:
  6674 ;;		wreg, status,2, status,0
  6675 ;; Tracked objects:
  6676 ;;		On entry : 0/0
  6677 ;;		On exit  : 0/0
  6678 ;;		Unchanged: 0/0
  6679 ;; Data sizes:     COMRAM   BANK0   BANK1   BANK2   BANK3   BANK4   BANK5   BANK6   BANK7
  6680 ;;      Params:         0       8       0       0       0       0       0       0       0
  6681 ;;      Locals:         0       4       0       0       0       0       0       0       0
  6682 ;;      Temps:          0       4       0       0       0       0       0       0       0
  6683 ;;      Totals:         0      16       0       0       0       0       0       0       0
  6684 ;;Total ram usage:       16 bytes
  6685 ;; Hardware stack levels used:    1
  6686 ;; Hardware stack levels required when called:    5
  6687 ;; This function calls:
  6688 ;;		Nothing
  6689 ;; This function is called by:
  6690 ;;		_impCoordActual
  6691 ;; This function uses a non-reentrant model
  6692 ;;
  6693                           
  6694                           	psect	text32
  6695  000506                     __ptext32:
  6696                           	opt callstack 0
  6697  000506                     ___fladd:
  6698                           	opt callstack 24
  6699  000506  0100               	movlb	0	; () banked
  6700  000508  5190               	movf	(___fladd@b+3)& (0+255),w,b
  6701  00050A  0B80               	andlw	128
  6702  00050C  6F99               	movwf	___fladd@signs& (0+255),b
  6703  00050E  5190               	movf	(___fladd@b+3)& (0+255),w,b
  6704  000510  2590               	addwf	(___fladd@b+3)& (0+255),w,b
  6705  000512  6F9B               	movwf	___fladd@bexp& (0+255),b
  6706  000514                     
  6707                           ; BSR set to: 0
  6708  000514  AF8F               	btfss	(___fladd@b+2)& (0+255),7,b
  6709  000516  EF8F  F002         	goto	u3091
  6710  00051A  EF91  F002         	goto	u3090
  6711  00051E                     u3091:
  6712  00051E  EF92  F002         	goto	l3457
  6713  000522                     u3090:
  6714  000522                     
  6715                           ; BSR set to: 0
  6716  000522  819B               	bsf	___fladd@bexp& (0+255),0,b
  6717  000524                     l3457:
  6718                           
  6719                           ; BSR set to: 0
  6720  000524  519B               	movf	___fladd@bexp& (0+255),w,b
  6721  000526  B4D8               	btfsc	status,2,c
  6722  000528  EF98  F002         	goto	u3101
  6723  00052C  EF9A  F002         	goto	u3100
  6724  000530                     u3101:
  6725  000530  EFAF  F002         	goto	l3467
  6726  000534                     u3100:
  6727  000534                     
  6728                           ; BSR set to: 0
  6729  000534  299B               	incf	___fladd@bexp& (0+255),w,b
  6730  000536  A4D8               	btfss	status,2,c
  6731  000538  EFA0  F002         	goto	u3111
  6732  00053C  EFA2  F002         	goto	u3110
  6733  000540                     u3111:
  6734  000540  EFAA  F002         	goto	l3463
  6735  000544                     u3110:
  6736  000544                     
  6737                           ; BSR set to: 0
  6738  000544  0E00               	movlw	0
  6739  000546  6F8D               	movwf	___fladd@b& (0+255),b
  6740  000548  0E00               	movlw	0
  6741  00054A  6F8E               	movwf	(___fladd@b+1)& (0+255),b
  6742  00054C  0E00               	movlw	0
  6743  00054E  6F8F               	movwf	(___fladd@b+2)& (0+255),b
  6744  000550  0E00               	movlw	0
  6745  000552  6F90               	movwf	(___fladd@b+3)& (0+255),b
  6746  000554                     l3463:
  6747                           
  6748                           ; BSR set to: 0
  6749  000554  8F8F               	bsf	(___fladd@b+2)& (0+255),7,b
  6750  000556                     
  6751                           ; BSR set to: 0
  6752  000556  0E00               	movlw	0
  6753  000558  6F90               	movwf	(___fladd@b+3)& (0+255),b
  6754  00055A  EFB7  F002         	goto	l3469
  6755  00055E                     l3467:
  6756                           
  6757                           ; BSR set to: 0
  6758  00055E  0E00               	movlw	0
  6759  000560  6F8D               	movwf	___fladd@b& (0+255),b
  6760  000562  0E00               	movlw	0
  6761  000564  6F8E               	movwf	(___fladd@b+1)& (0+255),b
  6762  000566  0E00               	movlw	0
  6763  000568  6F8F               	movwf	(___fladd@b+2)& (0+255),b
  6764  00056A  0E00               	movlw	0
  6765  00056C  6F90               	movwf	(___fladd@b+3)& (0+255),b
  6766  00056E                     l3469:
  6767                           
  6768                           ; BSR set to: 0
  6769  00056E  5194               	movf	(___fladd@a+3)& (0+255),w,b
  6770  000570  0B80               	andlw	128
  6771  000572  6F9A               	movwf	___fladd@aexp& (0+255),b
  6772  000574                     
  6773                           ; BSR set to: 0
  6774  000574  5199               	movf	___fladd@signs& (0+255),w,b
  6775  000576  199A               	xorwf	___fladd@aexp& (0+255),w,b
  6776  000578  B4D8               	btfsc	status,2,c
  6777  00057A  EFC1  F002         	goto	u3121
  6778  00057E  EFC3  F002         	goto	u3120
  6779  000582                     u3121:
  6780  000582  EFC4  F002         	goto	l3475
  6781  000586                     u3120:
  6782  000586                     
  6783                           ; BSR set to: 0
  6784  000586  8D99               	bsf	___fladd@signs& (0+255),6,b
  6785  000588                     l3475:
  6786                           
  6787                           ; BSR set to: 0
  6788  000588  5194               	movf	(___fladd@a+3)& (0+255),w,b
  6789  00058A  2594               	addwf	(___fladd@a+3)& (0+255),w,b
  6790  00058C  6F9A               	movwf	___fladd@aexp& (0+255),b
  6791  00058E                     
  6792                           ; BSR set to: 0
  6793  00058E  AF93               	btfss	(___fladd@a+2)& (0+255),7,b
  6794  000590  EFCC  F002         	goto	u3131
  6795  000594  EFCE  F002         	goto	u3130
  6796  000598                     u3131:
  6797  000598  EFCF  F002         	goto	l3481
  6798  00059C                     u3130:
  6799  00059C                     
  6800                           ; BSR set to: 0
  6801  00059C  819A               	bsf	___fladd@aexp& (0+255),0,b
  6802  00059E                     l3481:
  6803                           
  6804                           ; BSR set to: 0
  6805  00059E  519A               	movf	___fladd@aexp& (0+255),w,b
  6806  0005A0  B4D8               	btfsc	status,2,c
  6807  0005A2  EFD5  F002         	goto	u3141
  6808  0005A6  EFD7  F002         	goto	u3140
  6809  0005AA                     u3141:
  6810  0005AA  EFEC  F002         	goto	l3491
  6811  0005AE                     u3140:
  6812  0005AE                     
  6813                           ; BSR set to: 0
  6814  0005AE  299A               	incf	___fladd@aexp& (0+255),w,b
  6815  0005B0  A4D8               	btfss	status,2,c
  6816  0005B2  EFDD  F002         	goto	u3151
  6817  0005B6  EFDF  F002         	goto	u3150
  6818  0005BA                     u3151:
  6819  0005BA  EFE7  F002         	goto	l3487
  6820  0005BE                     u3150:
  6821  0005BE                     
  6822                           ; BSR set to: 0
  6823  0005BE  0E00               	movlw	0
  6824  0005C0  6F91               	movwf	___fladd@a& (0+255),b
  6825  0005C2  0E00               	movlw	0
  6826  0005C4  6F92               	movwf	(___fladd@a+1)& (0+255),b
  6827  0005C6  0E00               	movlw	0
  6828  0005C8  6F93               	movwf	(___fladd@a+2)& (0+255),b
  6829  0005CA  0E00               	movlw	0
  6830  0005CC  6F94               	movwf	(___fladd@a+3)& (0+255),b
  6831  0005CE                     l3487:
  6832                           
  6833                           ; BSR set to: 0
  6834  0005CE  8F93               	bsf	(___fladd@a+2)& (0+255),7,b
  6835  0005D0                     
  6836                           ; BSR set to: 0
  6837  0005D0  0E00               	movlw	0
  6838  0005D2  6F94               	movwf	(___fladd@a+3)& (0+255),b
  6839  0005D4  EFF4  F002         	goto	l3493
  6840  0005D8                     l3491:
  6841                           
  6842                           ; BSR set to: 0
  6843  0005D8  0E00               	movlw	0
  6844  0005DA  6F91               	movwf	___fladd@a& (0+255),b
  6845  0005DC  0E00               	movlw	0
  6846  0005DE  6F92               	movwf	(___fladd@a+1)& (0+255),b
  6847  0005E0  0E00               	movlw	0
  6848  0005E2  6F93               	movwf	(___fladd@a+2)& (0+255),b
  6849  0005E4  0E00               	movlw	0
  6850  0005E6  6F94               	movwf	(___fladd@a+3)& (0+255),b
  6851  0005E8                     l3493:
  6852                           
  6853                           ; BSR set to: 0
  6854  0005E8  519B               	movf	___fladd@bexp& (0+255),w,b
  6855  0005EA  5D9A               	subwf	___fladd@aexp& (0+255),w,b
  6856  0005EC  B0D8               	btfsc	status,0,c
  6857  0005EE  EFFB  F002         	goto	u3161
  6858  0005F2  EFFD  F002         	goto	u3160
  6859  0005F6                     u3161:
  6860  0005F6  EF24  F003         	goto	l3529
  6861  0005FA                     u3160:
  6862  0005FA                     
  6863                           ; BSR set to: 0
  6864  0005FA  AD99               	btfss	___fladd@signs& (0+255),6,b
  6865  0005FC  EF02  F003         	goto	u3171
  6866  000600  EF04  F003         	goto	u3170
  6867  000604                     u3171:
  6868  000604  EF06  F003         	goto	l3499
  6869  000608                     u3170:
  6870  000608                     
  6871                           ; BSR set to: 0
  6872  000608  0E80               	movlw	128
  6873  00060A  1B99               	xorwf	___fladd@signs& (0+255),f,b
  6874  00060C                     l3499:
  6875                           
  6876                           ; BSR set to: 0
  6877  00060C  C09B  F09C         	movff	___fladd@bexp,___fladd@grs
  6878  000610                     
  6879                           ; BSR set to: 0
  6880  000610  C09A  F09B         	movff	___fladd@aexp,___fladd@bexp
  6881  000614                     
  6882                           ; BSR set to: 0
  6883  000614  C09C  F09A         	movff	___fladd@grs,___fladd@aexp
  6884  000618                     
  6885                           ; BSR set to: 0
  6886  000618  C08D  F09C         	movff	___fladd@b,___fladd@grs
  6887  00061C                     
  6888                           ; BSR set to: 0
  6889  00061C  C091  F08D         	movff	___fladd@a,___fladd@b
  6890  000620                     
  6891                           ; BSR set to: 0
  6892  000620  C09C  F091         	movff	___fladd@grs,___fladd@a
  6893  000624                     
  6894                           ; BSR set to: 0
  6895  000624  C08E  F09C         	movff	___fladd@b+1,___fladd@grs
  6896  000628                     
  6897                           ; BSR set to: 0
  6898  000628  C092  F08E         	movff	___fladd@a+1,___fladd@b+1
  6899  00062C                     
  6900                           ; BSR set to: 0
  6901  00062C  C09C  F092         	movff	___fladd@grs,___fladd@a+1
  6902  000630                     
  6903                           ; BSR set to: 0
  6904  000630  C08F  F09C         	movff	___fladd@b+2,___fladd@grs
  6905  000634                     
  6906                           ; BSR set to: 0
  6907  000634  C093  F08F         	movff	___fladd@a+2,___fladd@b+2
  6908  000638                     
  6909                           ; BSR set to: 0
  6910  000638  C09C  F093         	movff	___fladd@grs,___fladd@a+2
  6911  00063C                     
  6912                           ; BSR set to: 0
  6913  00063C  C090  F09C         	movff	___fladd@b+3,___fladd@grs
  6914  000640                     
  6915                           ; BSR set to: 0
  6916  000640  C094  F090         	movff	___fladd@a+3,___fladd@b+3
  6917  000644                     
  6918                           ; BSR set to: 0
  6919  000644  C09C  F094         	movff	___fladd@grs,___fladd@a+3
  6920  000648                     l3529:
  6921                           
  6922                           ; BSR set to: 0
  6923  000648  0E00               	movlw	0
  6924  00064A  6F9C               	movwf	___fladd@grs& (0+255),b
  6925  00064C                     
  6926                           ; BSR set to: 0
  6927  00064C  519B               	movf	___fladd@bexp& (0+255),w,b
  6928  00064E  C09A  F095         	movff	___fladd@aexp,??___fladd
  6929  000652  6B96               	clrf	(??___fladd+1)& (0+255),b
  6930  000654  5F95               	subwf	??___fladd& (0+255),f,b
  6931  000656  0E00               	movlw	0
  6932  000658  5B96               	subwfb	(??___fladd+1)& (0+255),f,b
  6933  00065A  BF96               	btfsc	(??___fladd+1)& (0+255),7,b
  6934  00065C  EF39  F003         	goto	u3181
  6935  000660  5196               	movf	(??___fladd+1)& (0+255),w,b
  6936  000662  E109               	bnz	u3180
  6937  000664  0E1A               	movlw	26
  6938  000666  5D95               	subwf	??___fladd& (0+255),w,b
  6939  000668  A0D8               	btfss	status,0,c
  6940  00066A  EF39  F003         	goto	u3181
  6941  00066E  EF3B  F003         	goto	u3180
  6942  000672                     u3181:
  6943  000672  EF72  F003         	goto	l1196
  6944  000676                     u3180:
  6945  000676                     
  6946                           ; BSR set to: 0
  6947  000676  518D               	movf	___fladd@b& (0+255),w,b
  6948  000678  118E               	iorwf	(___fladd@b+1)& (0+255),w,b
  6949  00067A  118F               	iorwf	(___fladd@b+2)& (0+255),w,b
  6950  00067C  1190               	iorwf	(___fladd@b+3)& (0+255),w,b
  6951  00067E  A4D8               	btfss	status,2,c
  6952  000680  EF44  F003         	goto	u3191
  6953  000684  EF47  F003         	goto	u3190
  6954  000688                     u3191:
  6955  000688  0E01               	movlw	1
  6956  00068A  EF48  F003         	goto	u3200
  6957  00068E                     u3190:
  6958  00068E  0E00               	movlw	0
  6959  000690                     u3200:
  6960  000690  6F9C               	movwf	___fladd@grs& (0+255),b
  6961  000692                     
  6962                           ; BSR set to: 0
  6963  000692  0E00               	movlw	0
  6964  000694  6F8D               	movwf	___fladd@b& (0+255),b
  6965  000696  0E00               	movlw	0
  6966  000698  6F8E               	movwf	(___fladd@b+1)& (0+255),b
  6967  00069A  0E00               	movlw	0
  6968  00069C  6F8F               	movwf	(___fladd@b+2)& (0+255),b
  6969  00069E  0E00               	movlw	0
  6970  0006A0  6F90               	movwf	(___fladd@b+3)& (0+255),b
  6971  0006A2                     
  6972                           ; BSR set to: 0
  6973  0006A2  C09A  F09B         	movff	___fladd@aexp,___fladd@bexp
  6974  0006A6  EF7B  F003         	goto	l1195
  6975  0006AA                     l1197:
  6976                           
  6977                           ; BSR set to: 0
  6978  0006AA  A19C               	btfss	___fladd@grs& (0+255),0,b
  6979  0006AC  EF5A  F003         	goto	u3211
  6980  0006B0  EF5C  F003         	goto	u3210
  6981  0006B4                     u3211:
  6982  0006B4  EF62  F003         	goto	l3541
  6983  0006B8                     u3210:
  6984  0006B8                     
  6985                           ; BSR set to: 0
  6986  0006B8  90D8               	bcf	status,0,c
  6987  0006BA  319C               	rrcf	___fladd@grs& (0+255),w,b
  6988  0006BC  0901               	iorlw	1
  6989  0006BE  6F9C               	movwf	___fladd@grs& (0+255),b
  6990  0006C0  EF64  F003         	goto	l3543
  6991  0006C4                     l3541:
  6992                           
  6993                           ; BSR set to: 0
  6994  0006C4  90D8               	bcf	status,0,c
  6995  0006C6  339C               	rrcf	___fladd@grs& (0+255),f,b
  6996  0006C8                     l3543:
  6997                           
  6998                           ; BSR set to: 0
  6999  0006C8  A18D               	btfss	___fladd@b& (0+255),0,b
  7000  0006CA  EF69  F003         	goto	u3221
  7001  0006CE  EF6B  F003         	goto	u3220
  7002  0006D2                     u3221:
  7003  0006D2  EF6C  F003         	goto	l3547
  7004  0006D6                     u3220:
  7005  0006D6                     
  7006                           ; BSR set to: 0
  7007  0006D6  8F9C               	bsf	___fladd@grs& (0+255),7,b
  7008  0006D8                     l3547:
  7009                           
  7010                           ; BSR set to: 0
  7011  0006D8  3590               	rlcf	(___fladd@b+3)& (0+255),w,b
  7012  0006DA  3390               	rrcf	(___fladd@b+3)& (0+255),f,b
  7013  0006DC  338F               	rrcf	(___fladd@b+2)& (0+255),f,b
  7014  0006DE  338E               	rrcf	(___fladd@b+1)& (0+255),f,b
  7015  0006E0  338D               	rrcf	___fladd@b& (0+255),f,b
  7016  0006E2                     
  7017                           ; BSR set to: 0
  7018  0006E2  2B9B               	incf	___fladd@bexp& (0+255),f,b
  7019  0006E4                     l1196:
  7020                           
  7021                           ; BSR set to: 0
  7022  0006E4  519A               	movf	___fladd@aexp& (0+255),w,b
  7023  0006E6  5D9B               	subwf	___fladd@bexp& (0+255),w,b
  7024  0006E8  A0D8               	btfss	status,0,c
  7025  0006EA  EF79  F003         	goto	u3231
  7026  0006EE  EF7B  F003         	goto	u3230
  7027  0006F2                     u3231:
  7028  0006F2  EF55  F003         	goto	l1197
  7029  0006F6                     u3230:
  7030  0006F6                     l1195:
  7031                           
  7032                           ; BSR set to: 0
  7033  0006F6  BD99               	btfsc	___fladd@signs& (0+255),6,b
  7034  0006F8  EF80  F003         	goto	u3241
  7035  0006FC  EF82  F003         	goto	u3240
  7036  000700                     u3241:
  7037  000700  EFC2  F003         	goto	l3575
  7038  000704                     u3240:
  7039  000704                     
  7040                           ; BSR set to: 0
  7041  000704  519B               	movf	___fladd@bexp& (0+255),w,b
  7042  000706  A4D8               	btfss	status,2,c
  7043  000708  EF88  F003         	goto	u3251
  7044  00070C  EF8A  F003         	goto	u3250
  7045  000710                     u3251:
  7046  000710  EF94  F003         	goto	l3557
  7047  000714                     u3250:
  7048  000714                     
  7049                           ; BSR set to: 0
  7050  000714  0E00               	movlw	0
  7051  000716  6F8D               	movwf	?___fladd& (0+255),b
  7052  000718  0E00               	movlw	0
  7053  00071A  6F8E               	movwf	(?___fladd+1)& (0+255),b
  7054  00071C  0E00               	movlw	0
  7055  00071E  6F8F               	movwf	(?___fladd+2)& (0+255),b
  7056  000720  0E00               	movlw	0
  7057  000722  6F90               	movwf	(?___fladd+3)& (0+255),b
  7058  000724  EFE3  F004         	goto	l1204
  7059  000728                     l3557:
  7060                           
  7061                           ; BSR set to: 0
  7062  000728  5191               	movf	___fladd@a& (0+255),w,b
  7063  00072A  278D               	addwf	___fladd@b& (0+255),f,b
  7064  00072C  5192               	movf	(___fladd@a+1)& (0+255),w,b
  7065  00072E  238E               	addwfc	(___fladd@b+1)& (0+255),f,b
  7066  000730  5193               	movf	(___fladd@a+2)& (0+255),w,b
  7067  000732  238F               	addwfc	(___fladd@b+2)& (0+255),f,b
  7068  000734  5194               	movf	(___fladd@a+3)& (0+255),w,b
  7069  000736  2390               	addwfc	(___fladd@b+3)& (0+255),f,b
  7070  000738                     
  7071                           ; BSR set to: 0
  7072  000738  A190               	btfss	(___fladd@b+3)& (0+255),0,b
  7073  00073A  EFA1  F003         	goto	u3261
  7074  00073E  EFA3  F003         	goto	u3260
  7075  000742                     u3261:
  7076  000742  EF4F  F004         	goto	l3611
  7077  000746                     u3260:
  7078  000746                     
  7079                           ; BSR set to: 0
  7080  000746  A19C               	btfss	___fladd@grs& (0+255),0,b
  7081  000748  EFA8  F003         	goto	u3271
  7082  00074C  EFAA  F003         	goto	u3270
  7083  000750                     u3271:
  7084  000750  EFB0  F003         	goto	l3565
  7085  000754                     u3270:
  7086  000754                     
  7087                           ; BSR set to: 0
  7088  000754  90D8               	bcf	status,0,c
  7089  000756  319C               	rrcf	___fladd@grs& (0+255),w,b
  7090  000758  0901               	iorlw	1
  7091  00075A  6F9C               	movwf	___fladd@grs& (0+255),b
  7092  00075C  EFB2  F003         	goto	l3567
  7093  000760                     l3565:
  7094                           
  7095                           ; BSR set to: 0
  7096  000760  90D8               	bcf	status,0,c
  7097  000762  339C               	rrcf	___fladd@grs& (0+255),f,b
  7098  000764                     l3567:
  7099                           
  7100                           ; BSR set to: 0
  7101  000764  A18D               	btfss	___fladd@b& (0+255),0,b
  7102  000766  EFB7  F003         	goto	u3281
  7103  00076A  EFB9  F003         	goto	u3280
  7104  00076E                     u3281:
  7105  00076E  EFBA  F003         	goto	l3571
  7106  000772                     u3280:
  7107  000772                     
  7108                           ; BSR set to: 0
  7109  000772  8F9C               	bsf	___fladd@grs& (0+255),7,b
  7110  000774                     l3571:
  7111                           
  7112                           ; BSR set to: 0
  7113  000774  3590               	rlcf	(___fladd@b+3)& (0+255),w,b
  7114  000776  3390               	rrcf	(___fladd@b+3)& (0+255),f,b
  7115  000778  338F               	rrcf	(___fladd@b+2)& (0+255),f,b
  7116  00077A  338E               	rrcf	(___fladd@b+1)& (0+255),f,b
  7117  00077C  338D               	rrcf	___fladd@b& (0+255),f,b
  7118  00077E                     
  7119                           ; BSR set to: 0
  7120  00077E  2B9B               	incf	___fladd@bexp& (0+255),f,b
  7121  000780  EF4F  F004         	goto	l3611
  7122  000784                     l3575:
  7123                           
  7124                           ; BSR set to: 0
  7125  000784  5191               	movf	___fladd@a& (0+255),w,b
  7126  000786  5D8D               	subwf	___fladd@b& (0+255),w,b
  7127  000788  5192               	movf	(___fladd@a+1)& (0+255),w,b
  7128  00078A  598E               	subwfb	(___fladd@b+1)& (0+255),w,b
  7129  00078C  5193               	movf	(___fladd@a+2)& (0+255),w,b
  7130  00078E  598F               	subwfb	(___fladd@b+2)& (0+255),w,b
  7131  000790  5190               	movf	(___fladd@b+3)& (0+255),w,b
  7132  000792  0A80               	xorlw	128
  7133  000794  6F95               	movwf	??___fladd& (0+255),b
  7134  000796  5194               	movf	(___fladd@a+3)& (0+255),w,b
  7135  000798  0A80               	xorlw	128
  7136  00079A  5995               	subwfb	??___fladd& (0+255),w,b
  7137  00079C  B0D8               	btfsc	status,0,c
  7138  00079E  EFD3  F003         	goto	u3291
  7139  0007A2  EFD5  F003         	goto	u3290
  7140  0007A6                     u3291:
  7141  0007A6  EF00  F004         	goto	l3585
  7142  0007AA                     u3290:
  7143  0007AA                     
  7144                           ; BSR set to: 0
  7145  0007AA  518D               	movf	___fladd@b& (0+255),w,b
  7146  0007AC  5D91               	subwf	___fladd@a& (0+255),w,b
  7147  0007AE  6F95               	movwf	??___fladd& (0+255),b
  7148  0007B0  518E               	movf	(___fladd@b+1)& (0+255),w,b
  7149  0007B2  5992               	subwfb	(___fladd@a+1)& (0+255),w,b
  7150  0007B4  6F96               	movwf	(??___fladd+1)& (0+255),b
  7151  0007B6  518F               	movf	(___fladd@b+2)& (0+255),w,b
  7152  0007B8  5993               	subwfb	(___fladd@a+2)& (0+255),w,b
  7153  0007BA  6F97               	movwf	(??___fladd+2)& (0+255),b
  7154  0007BC  5190               	movf	(___fladd@b+3)& (0+255),w,b
  7155  0007BE  5994               	subwfb	(___fladd@a+3)& (0+255),w,b
  7156  0007C0  6F98               	movwf	(??___fladd+3)& (0+255),b
  7157  0007C2  0EFF               	movlw	255
  7158  0007C4  2595               	addwf	??___fladd& (0+255),w,b
  7159  0007C6  6F8D               	movwf	___fladd@b& (0+255),b
  7160  0007C8  0EFF               	movlw	255
  7161  0007CA  2196               	addwfc	(??___fladd+1)& (0+255),w,b
  7162  0007CC  6F8E               	movwf	(___fladd@b+1)& (0+255),b
  7163  0007CE  0EFF               	movlw	255
  7164  0007D0  2197               	addwfc	(??___fladd+2)& (0+255),w,b
  7165  0007D2  6F8F               	movwf	(___fladd@b+2)& (0+255),b
  7166  0007D4  0EFF               	movlw	255
  7167  0007D6  2198               	addwfc	(??___fladd+3)& (0+255),w,b
  7168  0007D8  6F90               	movwf	(___fladd@b+3)& (0+255),b
  7169  0007DA  0E80               	movlw	128
  7170  0007DC  1B99               	xorwf	___fladd@signs& (0+255),f,b
  7171  0007DE                     
  7172                           ; BSR set to: 0
  7173  0007DE  6D9C               	negf	___fladd@grs& (0+255),b
  7174  0007E0                     
  7175                           ; BSR set to: 0
  7176  0007E0  519C               	movf	___fladd@grs& (0+255),w,b
  7177  0007E2  A4D8               	btfss	status,2,c
  7178  0007E4  EFF6  F003         	goto	u3301
  7179  0007E8  EFF8  F003         	goto	u3300
  7180  0007EC                     u3301:
  7181  0007EC  EF08  F004         	goto	l1212
  7182  0007F0                     u3300:
  7183  0007F0                     
  7184                           ; BSR set to: 0
  7185  0007F0  0E01               	movlw	1
  7186  0007F2  278D               	addwf	___fladd@b& (0+255),f,b
  7187  0007F4  0E00               	movlw	0
  7188  0007F6  238E               	addwfc	(___fladd@b+1)& (0+255),f,b
  7189  0007F8  238F               	addwfc	(___fladd@b+2)& (0+255),f,b
  7190  0007FA  2390               	addwfc	(___fladd@b+3)& (0+255),f,b
  7191  0007FC  EF08  F004         	goto	l1212
  7192  000800                     l3585:
  7193                           
  7194                           ; BSR set to: 0
  7195  000800  5191               	movf	___fladd@a& (0+255),w,b
  7196  000802  5F8D               	subwf	___fladd@b& (0+255),f,b
  7197  000804  5192               	movf	(___fladd@a+1)& (0+255),w,b
  7198  000806  5B8E               	subwfb	(___fladd@b+1)& (0+255),f,b
  7199  000808  5193               	movf	(___fladd@a+2)& (0+255),w,b
  7200  00080A  5B8F               	subwfb	(___fladd@b+2)& (0+255),f,b
  7201  00080C  5194               	movf	(___fladd@a+3)& (0+255),w,b
  7202  00080E  5B90               	subwfb	(___fladd@b+3)& (0+255),f,b
  7203  000810                     l1212:
  7204                           
  7205                           ; BSR set to: 0
  7206  000810  518D               	movf	___fladd@b& (0+255),w,b
  7207  000812  118E               	iorwf	(___fladd@b+1)& (0+255),w,b
  7208  000814  118F               	iorwf	(___fladd@b+2)& (0+255),w,b
  7209  000816  1190               	iorwf	(___fladd@b+3)& (0+255),w,b
  7210  000818  A4D8               	btfss	status,2,c
  7211  00081A  EF11  F004         	goto	u3311
  7212  00081E  EF13  F004         	goto	u3310
  7213  000822                     u3311:
  7214  000822  EF48  F004         	goto	l3609
  7215  000826                     u3310:
  7216  000826                     
  7217                           ; BSR set to: 0
  7218  000826  519C               	movf	___fladd@grs& (0+255),w,b
  7219  000828  A4D8               	btfss	status,2,c
  7220  00082A  EF19  F004         	goto	u3321
  7221  00082E  EF1B  F004         	goto	u3320
  7222  000832                     u3321:
  7223  000832  EF48  F004         	goto	l3609
  7224  000836                     u3320:
  7225  000836                     
  7226                           ; BSR set to: 0
  7227  000836  0E00               	movlw	0
  7228  000838  6F8D               	movwf	?___fladd& (0+255),b
  7229  00083A  0E00               	movlw	0
  7230  00083C  6F8E               	movwf	(?___fladd+1)& (0+255),b
  7231  00083E  0E00               	movlw	0
  7232  000840  6F8F               	movwf	(?___fladd+2)& (0+255),b
  7233  000842  0E00               	movlw	0
  7234  000844  6F90               	movwf	(?___fladd+3)& (0+255),b
  7235  000846  EFE3  F004         	goto	l1204
  7236  00084A                     l3593:
  7237                           
  7238                           ; BSR set to: 0
  7239  00084A  90D8               	bcf	status,0,c
  7240  00084C  378D               	rlcf	___fladd@b& (0+255),f,b
  7241  00084E  378E               	rlcf	(___fladd@b+1)& (0+255),f,b
  7242  000850  378F               	rlcf	(___fladd@b+2)& (0+255),f,b
  7243  000852  3790               	rlcf	(___fladd@b+3)& (0+255),f,b
  7244  000854                     
  7245                           ; BSR set to: 0
  7246  000854  AF9C               	btfss	___fladd@grs& (0+255),7,b
  7247  000856  EF2F  F004         	goto	u3331
  7248  00085A  EF31  F004         	goto	u3330
  7249  00085E                     u3331:
  7250  00085E  EF32  F004         	goto	l3599
  7251  000862                     u3330:
  7252  000862                     
  7253                           ; BSR set to: 0
  7254  000862  818D               	bsf	___fladd@b& (0+255),0,b
  7255  000864                     l3599:
  7256                           
  7257                           ; BSR set to: 0
  7258  000864  A19C               	btfss	___fladd@grs& (0+255),0,b
  7259  000866  EF37  F004         	goto	u3341
  7260  00086A  EF39  F004         	goto	u3340
  7261  00086E                     u3341:
  7262  00086E  EF3D  F004         	goto	l3603
  7263  000872                     u3340:
  7264  000872                     
  7265                           ; BSR set to: 0
  7266  000872  80D8               	bsf	status,0,c
  7267  000874  379C               	rlcf	___fladd@grs& (0+255),f,b
  7268  000876  EF3F  F004         	goto	l3605
  7269  00087A                     l3603:
  7270                           
  7271                           ; BSR set to: 0
  7272  00087A  90D8               	bcf	status,0,c
  7273  00087C  379C               	rlcf	___fladd@grs& (0+255),f,b
  7274  00087E                     l3605:
  7275                           
  7276                           ; BSR set to: 0
  7277  00087E  519B               	movf	___fladd@bexp& (0+255),w,b
  7278  000880  B4D8               	btfsc	status,2,c
  7279  000882  EF45  F004         	goto	u3351
  7280  000886  EF47  F004         	goto	u3350
  7281  00088A                     u3351:
  7282  00088A  EF48  F004         	goto	l3609
  7283  00088E                     u3350:
  7284  00088E                     
  7285                           ; BSR set to: 0
  7286  00088E  079B               	decf	___fladd@bexp& (0+255),f,b
  7287  000890                     l3609:
  7288                           
  7289                           ; BSR set to: 0
  7290  000890  AF8F               	btfss	(___fladd@b+2)& (0+255),7,b
  7291  000892  EF4D  F004         	goto	u3361
  7292  000896  EF4F  F004         	goto	u3360
  7293  00089A                     u3361:
  7294  00089A  EF25  F004         	goto	l3593
  7295  00089E                     u3360:
  7296  00089E                     l3611:
  7297                           
  7298                           ; BSR set to: 0
  7299  00089E  0E00               	movlw	0
  7300  0008A0  6F9A               	movwf	___fladd@aexp& (0+255),b
  7301  0008A2                     
  7302                           ; BSR set to: 0
  7303  0008A2  AF9C               	btfss	___fladd@grs& (0+255),7,b
  7304  0008A4  EF56  F004         	goto	u3371
  7305  0008A8  EF58  F004         	goto	u3370
  7306  0008AC                     u3371:
  7307  0008AC  EF70  F004         	goto	l1221
  7308  0008B0                     u3370:
  7309  0008B0                     
  7310                           ; BSR set to: 0
  7311  0008B0  C09C  F095         	movff	___fladd@grs,??___fladd
  7312  0008B4  0E7F               	movlw	127
  7313  0008B6  1795               	andwf	??___fladd& (0+255),f,b
  7314  0008B8  B4D8               	btfsc	status,2,c
  7315  0008BA  EF61  F004         	goto	u3381
  7316  0008BE  EF63  F004         	goto	u3380
  7317  0008C2                     u3381:
  7318  0008C2  EF67  F004         	goto	l1222
  7319  0008C6                     u3380:
  7320  0008C6                     l3617:
  7321                           
  7322                           ; BSR set to: 0
  7323  0008C6  0E01               	movlw	1
  7324  0008C8  6F9A               	movwf	___fladd@aexp& (0+255),b
  7325  0008CA  EF70  F004         	goto	l1221
  7326  0008CE                     l1222:
  7327                           
  7328                           ; BSR set to: 0
  7329  0008CE  A18D               	btfss	___fladd@b& (0+255),0,b
  7330  0008D0  EF6C  F004         	goto	u3391
  7331  0008D4  EF6E  F004         	goto	u3390
  7332  0008D8                     u3391:
  7333  0008D8  EF70  F004         	goto	l1221
  7334  0008DC                     u3390:
  7335  0008DC  EF63  F004         	goto	l3617
  7336  0008E0                     l1221:
  7337                           
  7338                           ; BSR set to: 0
  7339  0008E0  519A               	movf	___fladd@aexp& (0+255),w,b
  7340  0008E2  B4D8               	btfsc	status,2,c
  7341  0008E4  EF76  F004         	goto	u3401
  7342  0008E8  EF78  F004         	goto	u3400
  7343  0008EC                     u3401:
  7344  0008EC  EFA3  F004         	goto	l3629
  7345  0008F0                     u3400:
  7346  0008F0                     
  7347                           ; BSR set to: 0
  7348  0008F0  0E01               	movlw	1
  7349  0008F2  278D               	addwf	___fladd@b& (0+255),f,b
  7350  0008F4  0E00               	movlw	0
  7351  0008F6  238E               	addwfc	(___fladd@b+1)& (0+255),f,b
  7352  0008F8  238F               	addwfc	(___fladd@b+2)& (0+255),f,b
  7353  0008FA  2390               	addwfc	(___fladd@b+3)& (0+255),f,b
  7354  0008FC                     
  7355                           ; BSR set to: 0
  7356  0008FC  A190               	btfss	(___fladd@b+3)& (0+255),0,b
  7357  0008FE  EF83  F004         	goto	u3411
  7358  000902  EF85  F004         	goto	u3410
  7359  000906                     u3411:
  7360  000906  EFA3  F004         	goto	l3629
  7361  00090A                     u3410:
  7362  00090A                     
  7363                           ; BSR set to: 0
  7364  00090A  C08D  F095         	movff	___fladd@b,??___fladd
  7365  00090E  C08E  F096         	movff	___fladd@b+1,??___fladd+1
  7366  000912  C08F  F097         	movff	___fladd@b+2,??___fladd+2
  7367  000916  C090  F098         	movff	___fladd@b+3,??___fladd+3
  7368  00091A  3598               	rlcf	(??___fladd+3)& (0+255),w,b
  7369  00091C  3398               	rrcf	(??___fladd+3)& (0+255),f,b
  7370  00091E  3397               	rrcf	(??___fladd+2)& (0+255),f,b
  7371  000920  3396               	rrcf	(??___fladd+1)& (0+255),f,b
  7372  000922  3395               	rrcf	??___fladd& (0+255),f,b
  7373  000924  C095  F08D         	movff	??___fladd,___fladd@b
  7374  000928  C096  F08E         	movff	??___fladd+1,___fladd@b+1
  7375  00092C  C097  F08F         	movff	??___fladd+2,___fladd@b+2
  7376  000930  C098  F090         	movff	??___fladd+3,___fladd@b+3
  7377  000934  299B               	incf	___fladd@bexp& (0+255),w,b
  7378  000936  B4D8               	btfsc	status,2,c
  7379  000938  EFA0  F004         	goto	u3421
  7380  00093C  EFA2  F004         	goto	u3420
  7381  000940                     u3421:
  7382  000940  EFA3  F004         	goto	l3629
  7383  000944                     u3420:
  7384  000944                     
  7385                           ; BSR set to: 0
  7386  000944  2B9B               	incf	___fladd@bexp& (0+255),f,b
  7387  000946                     l3629:
  7388                           
  7389                           ; BSR set to: 0
  7390  000946  299B               	incf	___fladd@bexp& (0+255),w,b
  7391  000948  B4D8               	btfsc	status,2,c
  7392  00094A  EFA9  F004         	goto	u3431
  7393  00094E  EFAB  F004         	goto	u3430
  7394  000952                     u3431:
  7395  000952  EFB3  F004         	goto	l3633
  7396  000956                     u3430:
  7397  000956                     
  7398                           ; BSR set to: 0
  7399  000956  519B               	movf	___fladd@bexp& (0+255),w,b
  7400  000958  A4D8               	btfss	status,2,c
  7401  00095A  EFB1  F004         	goto	u3441
  7402  00095E  EFB3  F004         	goto	u3440
  7403  000962                     u3441:
  7404  000962  EFC5  F004         	goto	l3637
  7405  000966                     u3440:
  7406  000966                     l3633:
  7407                           
  7408                           ; BSR set to: 0
  7409  000966  0E00               	movlw	0
  7410  000968  6F8D               	movwf	___fladd@b& (0+255),b
  7411  00096A  0E00               	movlw	0
  7412  00096C  6F8E               	movwf	(___fladd@b+1)& (0+255),b
  7413  00096E  0E00               	movlw	0
  7414  000970  6F8F               	movwf	(___fladd@b+2)& (0+255),b
  7415  000972  0E00               	movlw	0
  7416  000974  6F90               	movwf	(___fladd@b+3)& (0+255),b
  7417  000976  519B               	movf	___fladd@bexp& (0+255),w,b
  7418  000978  A4D8               	btfss	status,2,c
  7419  00097A  EFC1  F004         	goto	u3451
  7420  00097E  EFC3  F004         	goto	u3450
  7421  000982                     u3451:
  7422  000982  EFC5  F004         	goto	l3637
  7423  000986                     u3450:
  7424  000986                     
  7425                           ; BSR set to: 0
  7426  000986  0E00               	movlw	0
  7427  000988  6F99               	movwf	___fladd@signs& (0+255),b
  7428  00098A                     l3637:
  7429                           
  7430                           ; BSR set to: 0
  7431  00098A  A19B               	btfss	___fladd@bexp& (0+255),0,b
  7432  00098C  EFCA  F004         	goto	u3461
  7433  000990  EFCC  F004         	goto	u3460
  7434  000994                     u3461:
  7435  000994  EFCF  F004         	goto	l3641
  7436  000998                     u3460:
  7437  000998                     
  7438                           ; BSR set to: 0
  7439  000998  8F8F               	bsf	(___fladd@b+2)& (0+255),7,b
  7440  00099A  EFD0  F004         	goto	l3643
  7441  00099E                     l3641:
  7442                           
  7443                           ; BSR set to: 0
  7444  00099E  9F8F               	bcf	(___fladd@b+2)& (0+255),7,b
  7445  0009A0                     l3643:
  7446                           
  7447                           ; BSR set to: 0
  7448  0009A0  90D8               	bcf	status,0,c
  7449  0009A2  319B               	rrcf	___fladd@bexp& (0+255),w,b
  7450  0009A4  6F90               	movwf	(___fladd@b+3)& (0+255),b
  7451  0009A6                     
  7452                           ; BSR set to: 0
  7453  0009A6  AF99               	btfss	___fladd@signs& (0+255),7,b
  7454  0009A8  EFD8  F004         	goto	u3471
  7455  0009AC  EFDA  F004         	goto	u3470
  7456  0009B0                     u3471:
  7457  0009B0  EFDB  F004         	goto	l3649
  7458  0009B4                     u3470:
  7459  0009B4                     
  7460                           ; BSR set to: 0
  7461  0009B4  8F90               	bsf	(___fladd@b+3)& (0+255),7,b
  7462  0009B6                     l3649:
  7463                           
  7464                           ; BSR set to: 0
  7465  0009B6  C08D  F08D         	movff	___fladd@b,?___fladd
  7466  0009BA  C08E  F08E         	movff	___fladd@b+1,?___fladd+1
  7467  0009BE  C08F  F08F         	movff	___fladd@b+2,?___fladd+2
  7468  0009C2  C090  F090         	movff	___fladd@b+3,?___fladd+3
  7469  0009C6                     l1204:
  7470                           
  7471                           ; BSR set to: 0
  7472  0009C6  0012               	return		;funcret
  7473  0009C8                     __end_of___fladd:
  7474                           	opt callstack 0
  7475                           
  7476 ;; *************** function _habilitarIntTMR1 *****************
  7477 ;; Defined at:
  7478 ;;		line 42 in file "Interrupciones.c"
  7479 ;; Parameters:    Size  Location     Type
  7480 ;;		None
  7481 ;; Auto vars:     Size  Location     Type
  7482 ;;		None
  7483 ;; Return value:  Size  Location     Type
  7484 ;;                  1    wreg      void 
  7485 ;; Registers used:
  7486 ;;		None
  7487 ;; Tracked objects:
  7488 ;;		On entry : 0/0
  7489 ;;		On exit  : 0/0
  7490 ;;		Unchanged: 0/0
  7491 ;; Data sizes:     COMRAM   BANK0   BANK1   BANK2   BANK3   BANK4   BANK5   BANK6   BANK7
  7492 ;;      Params:         0       0       0       0       0       0       0       0       0
  7493 ;;      Locals:         0       0       0       0       0       0       0       0       0
  7494 ;;      Temps:          0       0       0       0       0       0       0       0       0
  7495 ;;      Totals:         0       0       0       0       0       0       0       0       0
  7496 ;;Total ram usage:        0 bytes
  7497 ;; Hardware stack levels used:    1
  7498 ;; Hardware stack levels required when called:    5
  7499 ;; This function calls:
  7500 ;;		Nothing
  7501 ;; This function is called by:
  7502 ;;		_main
  7503 ;; This function uses a non-reentrant model
  7504 ;;
  7505                           
  7506                           	psect	text33
  7507  002AF2                     __ptext33:
  7508                           	opt callstack 0
  7509  002AF2                     _habilitarIntTMR1:
  7510                           	opt callstack 25
  7511  002AF2                     
  7512                           ;Interrupciones.c: 43:     PIE1bits.TMR1IE = 1;
  7513  002AF2  809D               	bsf	157,0,c	;volatile
  7514  002AF4  0012               	return		;funcret
  7515  002AF6                     __end_of_habilitarIntTMR1:
  7516                           	opt callstack 0
  7517                           
  7518 ;; *************** function _habilitarIntTMR0 *****************
  7519 ;; Defined at:
  7520 ;;		line 38 in file "Interrupciones.c"
  7521 ;; Parameters:    Size  Location     Type
  7522 ;;		None
  7523 ;; Auto vars:     Size  Location     Type
  7524 ;;		None
  7525 ;; Return value:  Size  Location     Type
  7526 ;;                  1    wreg      void 
  7527 ;; Registers used:
  7528 ;;		None
  7529 ;; Tracked objects:
  7530 ;;		On entry : 0/0
  7531 ;;		On exit  : 0/0
  7532 ;;		Unchanged: 0/0
  7533 ;; Data sizes:     COMRAM   BANK0   BANK1   BANK2   BANK3   BANK4   BANK5   BANK6   BANK7
  7534 ;;      Params:         0       0       0       0       0       0       0       0       0
  7535 ;;      Locals:         0       0       0       0       0       0       0       0       0
  7536 ;;      Temps:          0       0       0       0       0       0       0       0       0
  7537 ;;      Totals:         0       0       0       0       0       0       0       0       0
  7538 ;;Total ram usage:        0 bytes
  7539 ;; Hardware stack levels used:    1
  7540 ;; Hardware stack levels required when called:    5
  7541 ;; This function calls:
  7542 ;;		Nothing
  7543 ;; This function is called by:
  7544 ;;		_main
  7545 ;; This function uses a non-reentrant model
  7546 ;;
  7547                           
  7548                           	psect	text34
  7549  002AF6                     __ptext34:
  7550                           	opt callstack 0
  7551  002AF6                     _habilitarIntTMR0:
  7552                           	opt callstack 25
  7553  002AF6                     
  7554                           ;Interrupciones.c: 39:     INTCONbits.TMR0IE = 1;
  7555  002AF6  8AF2               	bsf	242,5,c	;volatile
  7556  002AF8  0012               	return		;funcret
  7557  002AFA                     __end_of_habilitarIntTMR0:
  7558                           	opt callstack 0
  7559                           
  7560 ;; *************** function _habilitarIntExternas *****************
  7561 ;; Defined at:
  7562 ;;		line 19 in file "Interrupciones.c"
  7563 ;; Parameters:    Size  Location     Type
  7564 ;;		None
  7565 ;; Auto vars:     Size  Location     Type
  7566 ;;		None
  7567 ;; Return value:  Size  Location     Type
  7568 ;;                  1    wreg      void 
  7569 ;; Registers used:
  7570 ;;		None
  7571 ;; Tracked objects:
  7572 ;;		On entry : 0/0
  7573 ;;		On exit  : 0/0
  7574 ;;		Unchanged: 0/0
  7575 ;; Data sizes:     COMRAM   BANK0   BANK1   BANK2   BANK3   BANK4   BANK5   BANK6   BANK7
  7576 ;;      Params:         0       0       0       0       0       0       0       0       0
  7577 ;;      Locals:         0       0       0       0       0       0       0       0       0
  7578 ;;      Temps:          0       0       0       0       0       0       0       0       0
  7579 ;;      Totals:         0       0       0       0       0       0       0       0       0
  7580 ;;Total ram usage:        0 bytes
  7581 ;; Hardware stack levels used:    1
  7582 ;; Hardware stack levels required when called:    5
  7583 ;; This function calls:
  7584 ;;		Nothing
  7585 ;; This function is called by:
  7586 ;;		_main
  7587 ;; This function uses a non-reentrant model
  7588 ;;
  7589                           
  7590                           	psect	text35
  7591  0029D4                     __ptext35:
  7592                           	opt callstack 0
  7593  0029D4                     _habilitarIntExternas:
  7594                           	opt callstack 25
  7595  0029D4                     
  7596                           ;Interrupciones.c: 22:     INTCONbits.INT0IF = 0;
  7597  0029D4  92F2               	bcf	242,1,c	;volatile
  7598                           
  7599                           ;Interrupciones.c: 23:     INTCONbits.INT0IE = 1;
  7600  0029D6  88F2               	bsf	242,4,c	;volatile
  7601                           
  7602                           ;Interrupciones.c: 24:     INTCON2bits.INTEDG0 = 1;
  7603  0029D8  8CF1               	bsf	241,6,c	;volatile
  7604                           
  7605                           ;Interrupciones.c: 25:     TRISBbits.RB0 = 1;
  7606  0029DA  8093               	bsf	147,0,c	;volatile
  7607                           
  7608                           ;Interrupciones.c: 27:     INTCON3bits.INT1F = 0;
  7609  0029DC  90F0               	bcf	240,0,c	;volatile
  7610                           
  7611                           ;Interrupciones.c: 28:     INTCON3bits.INT1IE = 1;
  7612  0029DE  86F0               	bsf	240,3,c	;volatile
  7613                           
  7614                           ;Interrupciones.c: 29:     INTCON2bits.INTEDG1 = 1;
  7615  0029E0  8AF1               	bsf	241,5,c	;volatile
  7616                           
  7617                           ;Interrupciones.c: 30:     TRISBbits.RB1 = 1;
  7618  0029E2  8293               	bsf	147,1,c	;volatile
  7619                           
  7620                           ;Interrupciones.c: 32:     INTCON3bits.INT2IF = 0;
  7621  0029E4  92F0               	bcf	240,1,c	;volatile
  7622                           
  7623                           ;Interrupciones.c: 33:     INTCON3bits.INT2IE = 1;
  7624  0029E6  88F0               	bsf	240,4,c	;volatile
  7625                           
  7626                           ;Interrupciones.c: 34:     INTCON2bits.INTEDG2 = 1;
  7627  0029E8  88F1               	bsf	241,4,c	;volatile
  7628                           
  7629                           ;Interrupciones.c: 35:     TRISBbits.RB2 = 1;
  7630  0029EA  8493               	bsf	147,2,c	;volatile
  7631  0029EC  0012               	return		;funcret
  7632  0029EE                     __end_of_habilitarIntExternas:
  7633                           	opt callstack 0
  7634                           
  7635 ;; *************** function _funcionToques *****************
  7636 ;; Defined at:
  7637 ;;		line 70 in file "FuncionesMenu.c"
  7638 ;; Parameters:    Size  Location     Type
  7639 ;;		None
  7640 ;; Auto vars:     Size  Location     Type
  7641 ;;  charNoNumeri    1    8[BANK0 ] unsigned char 
  7642 ;; Return value:  Size  Location     Type
  7643 ;;                  1    wreg      void 
  7644 ;; Registers used:
  7645 ;;		wreg, status,2, status,0, tblptrl, tblptrh, tblptru, prodl, prodh, cstack
  7646 ;; Tracked objects:
  7647 ;;		On entry : 0/0
  7648 ;;		On exit  : 0/0
  7649 ;;		Unchanged: 0/0
  7650 ;; Data sizes:     COMRAM   BANK0   BANK1   BANK2   BANK3   BANK4   BANK5   BANK6   BANK7
  7651 ;;      Params:         0       0       0       0       0       0       0       0       0
  7652 ;;      Locals:         0       1       0       0       0       0       0       0       0
  7653 ;;      Temps:          0       0       0       0       0       0       0       0       0
  7654 ;;      Totals:         0       1       0       0       0       0       0       0       0
  7655 ;;Total ram usage:        1 bytes
  7656 ;; Hardware stack levels used:    1
  7657 ;; Hardware stack levels required when called:    8
  7658 ;; This function calls:
  7659 ;;		_presionarPantalla
  7660 ;;		_printf
  7661 ;;		_receive
  7662 ;; This function is called by:
  7663 ;;		_main
  7664 ;; This function uses a non-reentrant model
  7665 ;;
  7666                           
  7667                           	psect	text36
  7668  002176                     __ptext36:
  7669                           	opt callstack 0
  7670  002176                     _funcionToques:
  7671                           	opt callstack 22
  7672  002176                     
  7673                           ;FuncionesMenu.c: 71:     uint8_t charNoNumerico = 0;
  7674  002176  0E00               	movlw	0
  7675  002178  0100               	movlb	0	; () banked
  7676  00217A  6F68               	movwf	funcionToques@charNoNumerico& (0+255),b
  7677  00217C                     
  7678                           ; BSR set to: 0
  7679                           ;FuncionesMenu.c: 72:     printf("TocarPantalla:\n");
  7680  00217C  0E60               	movlw	low STR_7
  7681  00217E  6F63               	movwf	printf@PointString& (0+255),b
  7682  002180  0E7F               	movlw	high STR_7
  7683  002182  6F64               	movwf	(printf@PointString+1)& (0+255),b
  7684  002184  EC2A  F013         	call	_printf	;wreg free
  7685  002188                     
  7686                           ;FuncionesMenu.c: 73:     presionarZCentenas = receive();
  7687  002188  ECB0  F014         	call	_receive	;wreg free
  7688  00218C  0100               	movlb	0	; () banked
  7689  00218E  6FDE               	movwf	_presionarZCentenas& (0+255),b
  7690  002190                     
  7691                           ; BSR set to: 0
  7692                           ;FuncionesMenu.c: 74:     presionarZDecenas = receive();
  7693  002190  ECB0  F014         	call	_receive	;wreg free
  7694  002194  0100               	movlb	0	; () banked
  7695  002196  6FDD               	movwf	_presionarZDecenas& (0+255),b
  7696  002198                     
  7697                           ; BSR set to: 0
  7698                           ;FuncionesMenu.c: 75:     presionarZUnidades = receive();
  7699  002198  ECB0  F014         	call	_receive	;wreg free
  7700  00219C  0100               	movlb	0	; () banked
  7701  00219E  6FDC               	movwf	_presionarZUnidades& (0+255),b
  7702  0021A0                     
  7703                           ; BSR set to: 0
  7704                           ;FuncionesMenu.c: 76:     if (presionarZCentenas > 57 || presionarZCentenas < 48) {
  7705  0021A0  0E3A               	movlw	58
  7706  0021A2  61DE               	cpfslt	_presionarZCentenas& (0+255),b
  7707  0021A4  EFD6  F010         	goto	u3681
  7708  0021A8  EFD8  F010         	goto	u3680
  7709  0021AC                     u3681:
  7710  0021AC  EFE0  F010         	goto	l3863
  7711  0021B0                     u3680:
  7712  0021B0                     
  7713                           ; BSR set to: 0
  7714  0021B0  0E30               	movlw	48
  7715  0021B2  61DE               	cpfslt	_presionarZCentenas& (0+255),b
  7716  0021B4  EFDE  F010         	goto	u3691
  7717  0021B8  EFE0  F010         	goto	u3690
  7718  0021BC                     u3691:
  7719  0021BC  EFE2  F010         	goto	l3865
  7720  0021C0                     u3690:
  7721  0021C0                     l3863:
  7722                           
  7723                           ; BSR set to: 0
  7724                           ;FuncionesMenu.c: 78:         charNoNumerico = 1;
  7725  0021C0  0E01               	movlw	1
  7726  0021C2  6F68               	movwf	funcionToques@charNoNumerico& (0+255),b
  7727  0021C4                     l3865:
  7728                           
  7729                           ; BSR set to: 0
  7730                           ;FuncionesMenu.c: 80:     if (presionarZDecenas > 57 || presionarZDecenas < 48) {
  7731  0021C4  0E3A               	movlw	58
  7732  0021C6  61DD               	cpfslt	_presionarZDecenas& (0+255),b
  7733  0021C8  EFE8  F010         	goto	u3701
  7734  0021CC  EFEA  F010         	goto	u3700
  7735  0021D0                     u3701:
  7736  0021D0  EFF2  F010         	goto	l3869
  7737  0021D4                     u3700:
  7738  0021D4                     
  7739                           ; BSR set to: 0
  7740  0021D4  0E30               	movlw	48
  7741  0021D6  61DD               	cpfslt	_presionarZDecenas& (0+255),b
  7742  0021D8  EFF0  F010         	goto	u3711
  7743  0021DC  EFF2  F010         	goto	u3710
  7744  0021E0                     u3711:
  7745  0021E0  EFF4  F010         	goto	l3871
  7746  0021E4                     u3710:
  7747  0021E4                     l3869:
  7748                           
  7749                           ; BSR set to: 0
  7750                           ;FuncionesMenu.c: 82:         charNoNumerico = 1;
  7751  0021E4  0E01               	movlw	1
  7752  0021E6  6F68               	movwf	funcionToques@charNoNumerico& (0+255),b
  7753  0021E8                     l3871:
  7754                           
  7755                           ; BSR set to: 0
  7756                           ;FuncionesMenu.c: 84:     if (presionarZUnidades > 57 || presionarZUnidades < 48) {
  7757  0021E8  0E3A               	movlw	58
  7758  0021EA  61DC               	cpfslt	_presionarZUnidades& (0+255),b
  7759  0021EC  EFFA  F010         	goto	u3721
  7760  0021F0  EFFC  F010         	goto	u3720
  7761  0021F4                     u3721:
  7762  0021F4  EF04  F011         	goto	l3875
  7763  0021F8                     u3720:
  7764  0021F8                     
  7765                           ; BSR set to: 0
  7766  0021F8  0E30               	movlw	48
  7767  0021FA  61DC               	cpfslt	_presionarZUnidades& (0+255),b
  7768  0021FC  EF02  F011         	goto	u3731
  7769  002200  EF04  F011         	goto	u3730
  7770  002204                     u3731:
  7771  002204  EF06  F011         	goto	l3877
  7772  002208                     u3730:
  7773  002208                     l3875:
  7774                           
  7775                           ; BSR set to: 0
  7776                           ;FuncionesMenu.c: 86:         charNoNumerico = 1;
  7777  002208  0E01               	movlw	1
  7778  00220A  6F68               	movwf	funcionToques@charNoNumerico& (0+255),b
  7779  00220C                     l3877:
  7780                           
  7781                           ; BSR set to: 0
  7782                           ;FuncionesMenu.c: 88:     if (charNoNumerico == 1) {
  7783  00220C  0568               	decf	funcionToques@charNoNumerico& (0+255),w,b
  7784  00220E  A4D8               	btfss	status,2,c
  7785  002210  EF0C  F011         	goto	u3741
  7786  002214  EF0E  F011         	goto	u3740
  7787  002218                     u3741:
  7788  002218  EF16  F011         	goto	l3881
  7789  00221C                     u3740:
  7790  00221C                     
  7791                           ; BSR set to: 0
  7792                           ;FuncionesMenu.c: 89:         printf("E,cNoV\n");
  7793  00221C  0EDE               	movlw	low STR_4
  7794  00221E  6F63               	movwf	printf@PointString& (0+255),b
  7795  002220  0E7F               	movlw	high STR_4
  7796  002222  6F64               	movwf	(printf@PointString+1)& (0+255),b
  7797  002224  EC2A  F013         	call	_printf	;wreg free
  7798                           
  7799                           ;FuncionesMenu.c: 90:     } else {
  7800  002228  EF24  F011         	goto	l340
  7801  00222C                     l3881:
  7802                           
  7803                           ; BSR set to: 0
  7804                           ;FuncionesMenu.c: 91:         presionarPantalla(presionarZCentenas, presionarZDecenas, p
      +                          resionarZUnidades);
  7805  00222C  C0DD  F061         	movff	_presionarZDecenas,presionarPantalla@presionarZDecenas
  7806  002230  C0DC  F062         	movff	_presionarZUnidades,presionarPantalla@presionarZUnidades
  7807  002234  51DE               	movf	_presionarZCentenas& (0+255),w,b
  7808  002236  EC25  F011         	call	_presionarPantalla
  7809  00223A                     
  7810                           ;FuncionesMenu.c: 92:         printf("Ok,comF\n");
  7811  00223A  0ED5               	movlw	low STR_6
  7812  00223C  0100               	movlb	0	; () banked
  7813  00223E  6F63               	movwf	printf@PointString& (0+255),b
  7814  002240  0E7F               	movlw	high STR_6
  7815  002242  6F64               	movwf	(printf@PointString+1)& (0+255),b
  7816  002244  EC2A  F013         	call	_printf	;wreg free
  7817  002248                     l340:
  7818  002248  0012               	return		;funcret
  7819  00224A                     __end_of_funcionToques:
  7820                           	opt callstack 0
  7821                           
  7822 ;; *************** function _receive *****************
  7823 ;; Defined at:
  7824 ;;		line 22 in file "UART.c"
  7825 ;; Parameters:    Size  Location     Type
  7826 ;;		None
  7827 ;; Auto vars:     Size  Location     Type
  7828 ;;  recibido        1    2[BANK0 ] unsigned char 
  7829 ;; Return value:  Size  Location     Type
  7830 ;;                  1    wreg      unsigned char 
  7831 ;; Registers used:
  7832 ;;		wreg, status,2, cstack
  7833 ;; Tracked objects:
  7834 ;;		On entry : 0/0
  7835 ;;		On exit  : 0/0
  7836 ;;		Unchanged: 0/0
  7837 ;; Data sizes:     COMRAM   BANK0   BANK1   BANK2   BANK3   BANK4   BANK5   BANK6   BANK7
  7838 ;;      Params:         0       0       0       0       0       0       0       0       0
  7839 ;;      Locals:         0       1       0       0       0       0       0       0       0
  7840 ;;      Temps:          0       0       0       0       0       0       0       0       0
  7841 ;;      Totals:         0       1       0       0       0       0       0       0       0
  7842 ;;Total ram usage:        1 bytes
  7843 ;; Hardware stack levels used:    1
  7844 ;; Hardware stack levels required when called:    6
  7845 ;; This function calls:
  7846 ;;		_errorUART
  7847 ;; This function is called by:
  7848 ;;		_scanf
  7849 ;;		_moverHaciaXY
  7850 ;;		_funcionToques
  7851 ;;		_slidePiston
  7852 ;;		_main
  7853 ;; This function uses a non-reentrant model
  7854 ;;
  7855                           
  7856                           	psect	text37
  7857  002960                     __ptext37:
  7858                           	opt callstack 0
  7859  002960                     _receive:
  7860                           	opt callstack 23
  7861  002960                     
  7862                           ;UART.c: 23:     errorUART();
  7863  002960  ECC1  F013         	call	_errorUART	;wreg free
  7864  002964                     l71:
  7865                           
  7866                           ;UART.c: 25:     while (PIR1bits.RCIF == 0) {
  7867  002964  AA9E               	btfss	158,5,c	;volatile
  7868  002966  EFB7  F014         	goto	u2971
  7869  00296A  EFB9  F014         	goto	u2970
  7870  00296E                     u2971:
  7871  00296E  EFB2  F014         	goto	l71
  7872  002972                     u2970:
  7873  002972                     
  7874                           ;UART.c: 28:     recibido = RCREG1;
  7875  002972  CFAE F062          	movff	4014,receive@recibido	;volatile
  7876  002976                     
  7877                           ;UART.c: 29:     RCREG1 = 0;
  7878  002976  0E00               	movlw	0
  7879  002978  6EAE               	movwf	174,c	;volatile
  7880                           
  7881                           ;UART.c: 31:     return recibido;
  7882  00297A  0100               	movlb	0	; () banked
  7883  00297C  5162               	movf	receive@recibido& (0+255),w,b
  7884  00297E                     
  7885                           ; BSR set to: 0
  7886  00297E  0012               	return		;funcret
  7887  002980                     __end_of_receive:
  7888                           	opt callstack 0
  7889                           
  7890 ;; *************** function _printf *****************
  7891 ;; Defined at:
  7892 ;;		line 6 in file "Comunicacion.c"
  7893 ;; Parameters:    Size  Location     Type
  7894 ;;  PointString     2    3[BANK0 ] PTR unsigned char 
  7895 ;;		 -> STR_50(7), STR_49(9), STR_48(9), STR_47(26), 
  7896 ;;		 -> STR_46(9), STR_45(9), STR_44(28), STR_43(9), 
  7897 ;;		 -> STR_42(9), STR_41(27), STR_40(9), STR_39(40), 
  7898 ;;		 -> STR_38(9), STR_37(46), STR_36(9), STR_35(31), 
  7899 ;;		 -> STR_34(9), STR_33(35), STR_32(28), STR_31(9), 
  7900 ;;		 -> STR_30(18), STR_29(79), STR_28(42), STR_27(42), 
  7901 ;;		 -> STR_26(46), STR_25(10), STR_24(52), STR_23(10), 
  7902 ;;		 -> STR_22(52), STR_21(11), STR_20(16), STR_19(11), 
  7903 ;;		 -> STR_18(16), STR_17(10), STR_16(11), STR_15(11), 
  7904 ;;		 -> STR_14(6), STR_13(4), STR_12(8), STR_11(9), 
  7905 ;;		 -> STR_10(9), STR_9(9), STR_8(8), STR_7(16), 
  7906 ;;		 -> STR_6(9), STR_5(43), STR_4(8), STR_3(52), 
  7907 ;;		 -> STR_2(4), STR_1(4), 
  7908 ;; Auto vars:     Size  Location     Type
  7909 ;;  i               1    7[BANK0 ] unsigned char 
  7910 ;; Return value:  Size  Location     Type
  7911 ;;                  1    wreg      void 
  7912 ;; Registers used:
  7913 ;;		wreg, status,2, status,0, tblptrl, tblptrh, tblptru, cstack
  7914 ;; Tracked objects:
  7915 ;;		On entry : 0/0
  7916 ;;		On exit  : 0/0
  7917 ;;		Unchanged: 0/0
  7918 ;; Data sizes:     COMRAM   BANK0   BANK1   BANK2   BANK3   BANK4   BANK5   BANK6   BANK7
  7919 ;;      Params:         0       2       0       0       0       0       0       0       0
  7920 ;;      Locals:         0       1       0       0       0       0       0       0       0
  7921 ;;      Temps:          0       2       0       0       0       0       0       0       0
  7922 ;;      Totals:         0       5       0       0       0       0       0       0       0
  7923 ;;Total ram usage:        5 bytes
  7924 ;; Hardware stack levels used:    1
  7925 ;; Hardware stack levels required when called:    7
  7926 ;; This function calls:
  7927 ;;		_errorUART
  7928 ;;		_send
  7929 ;; This function is called by:
  7930 ;;		_moverHaciaXY
  7931 ;;		_funcionToques
  7932 ;;		_slidePiston
  7933 ;;		_impCoordActual
  7934 ;;		_modificarZ
  7935 ;;		_moverHaciaY
  7936 ;;		_moverHaciaX
  7937 ;;		_main
  7938 ;; This function uses a non-reentrant model
  7939 ;;
  7940                           
  7941                           	psect	text38
  7942  002654                     __ptext38:
  7943                           	opt callstack 0
  7944  002654                     _printf:
  7945                           	opt callstack 22
  7946  002654                     
  7947                           ;Comunicacion.c: 7:     errorUART();
  7948  002654  ECC1  F013         	call	_errorUART	;wreg free
  7949  002658                     
  7950                           ;Comunicacion.c: 8:     for (unsigned char i = 0; i < 255; i++) {
  7951  002658  0E00               	movlw	0
  7952  00265A  0100               	movlb	0	; () banked
  7953  00265C  6F67               	movwf	printf@i& (0+255),b
  7954  00265E                     l3097:
  7955                           
  7956                           ; BSR set to: 0
  7957                           ;Comunicacion.c: 10:         if (PointString[i] == ((void*)0)) {
  7958  00265E  5167               	movf	printf@i& (0+255),w,b
  7959  002660  2563               	addwf	printf@PointString& (0+255),w,b
  7960  002662  6F65               	movwf	??_printf& (0+255),b
  7961  002664  0E00               	movlw	0
  7962  002666  2164               	addwfc	(printf@PointString+1)& (0+255),w,b
  7963  002668  6F66               	movwf	(??_printf+1)& (0+255),b
  7964  00266A  C065  FFF6         	movff	??_printf,tblptrl
  7965  00266E  C066  FFF7         	movff	??_printf+1,tblptrh
  7966  002672                     	if	0	;tblptru may be non-zero
  7967  002672                     	endif
  7968  002672                     	if	0	;tblptru may be non-zero
  7969  002672                     	endif
  7970  002672  0008               	tblrd		*
  7971  002674  50F5               	movf	tablat,w,c
  7972  002676  0900               	iorlw	0
  7973  002678  A4D8               	btfss	status,2,c
  7974  00267A  EF41  F013         	goto	u2531
  7975  00267E  EF43  F013         	goto	u2530
  7976  002682                     u2531:
  7977  002682  EF45  F013         	goto	l3103
  7978  002686                     u2530:
  7979  002686  EF5D  F013         	goto	l187
  7980  00268A                     l3103:
  7981                           
  7982                           ; BSR set to: 0
  7983                           ;Comunicacion.c: 13:             send(PointString[i]);
  7984  00268A  5167               	movf	printf@i& (0+255),w,b
  7985  00268C  2563               	addwf	printf@PointString& (0+255),w,b
  7986  00268E  6F65               	movwf	??_printf& (0+255),b
  7987  002690  0E00               	movlw	0
  7988  002692  2164               	addwfc	(printf@PointString+1)& (0+255),w,b
  7989  002694  6F66               	movwf	(??_printf+1)& (0+255),b
  7990  002696  C065  FFF6         	movff	??_printf,tblptrl
  7991  00269A  C066  FFF7         	movff	??_printf+1,tblptrh
  7992  00269E                     	if	0	;tblptru may be non-zero
  7993  00269E                     	endif
  7994  00269E                     	if	0	;tblptru may be non-zero
  7995  00269E                     	endif
  7996  00269E  0008               	tblrd		*
  7997  0026A0  50F5               	movf	tablat,w,c
  7998  0026A2  ECCF  F014         	call	_send
  7999  0026A6                     
  8000                           ;Comunicacion.c: 14:     }
  8001  0026A6  0100               	movlb	0	; () banked
  8002  0026A8  2B67               	incf	printf@i& (0+255),f,b
  8003  0026AA                     
  8004                           ; BSR set to: 0
  8005  0026AA  2967               	incf	printf@i& (0+255),w,b
  8006  0026AC  A4D8               	btfss	status,2,c
  8007  0026AE  EF5B  F013         	goto	u2541
  8008  0026B2  EF5D  F013         	goto	u2540
  8009  0026B6                     u2541:
  8010  0026B6  EF2F  F013         	goto	l3097
  8011  0026BA                     u2540:
  8012  0026BA                     l187:
  8013                           
  8014                           ; BSR set to: 0
  8015  0026BA  0012               	return		;funcret
  8016  0026BC                     __end_of_printf:
  8017                           	opt callstack 0
  8018                           
  8019 ;; *************** function _send *****************
  8020 ;; Defined at:
  8021 ;;		line 34 in file "UART.c"
  8022 ;; Parameters:    Size  Location     Type
  8023 ;;  enviarpc        1    wreg     unsigned char 
  8024 ;; Auto vars:     Size  Location     Type
  8025 ;;  enviarpc        1    2[BANK0 ] unsigned char 
  8026 ;; Return value:  Size  Location     Type
  8027 ;;                  1    wreg      void 
  8028 ;; Registers used:
  8029 ;;		wreg, cstack
  8030 ;; Tracked objects:
  8031 ;;		On entry : 0/0
  8032 ;;		On exit  : 0/0
  8033 ;;		Unchanged: 0/0
  8034 ;; Data sizes:     COMRAM   BANK0   BANK1   BANK2   BANK3   BANK4   BANK5   BANK6   BANK7
  8035 ;;      Params:         0       0       0       0       0       0       0       0       0
  8036 ;;      Locals:         0       1       0       0       0       0       0       0       0
  8037 ;;      Temps:          0       0       0       0       0       0       0       0       0
  8038 ;;      Totals:         0       1       0       0       0       0       0       0       0
  8039 ;;Total ram usage:        1 bytes
  8040 ;; Hardware stack levels used:    1
  8041 ;; Hardware stack levels required when called:    6
  8042 ;; This function calls:
  8043 ;;		_errorUART
  8044 ;; This function is called by:
  8045 ;;		_printf
  8046 ;;		_moverHaciaXY
  8047 ;;		_impCoordActual
  8048 ;;		_moverHaciaY
  8049 ;;		_moverHaciaX
  8050 ;; This function uses a non-reentrant model
  8051 ;;
  8052                           
  8053                           	psect	text39
  8054  00299E                     __ptext39:
  8055                           	opt callstack 0
  8056  00299E                     _send:
  8057                           	opt callstack 22
  8058                           
  8059                           ; BSR set to: 0
  8060                           ;incstack = 0
  8061                           ;send@enviarpc stored from wreg
  8062  00299E  0100               	movlb	0	; () banked
  8063  0029A0  6F62               	movwf	send@enviarpc& (0+255),b
  8064  0029A2                     
  8065                           ;UART.c: 35:     errorUART();
  8066  0029A2  ECC1  F013         	call	_errorUART	;wreg free
  8067  0029A6                     l77:
  8068                           
  8069                           ;UART.c: 36:     while (TXSTA1bits.TRMT == 0) {
  8070  0029A6  A2AC               	btfss	172,1,c	;volatile
  8071  0029A8  EFD8  F014         	goto	u2161
  8072  0029AC  EFDA  F014         	goto	u2160
  8073  0029B0                     u2161:
  8074  0029B0  EFD3  F014         	goto	l77
  8075  0029B4                     u2160:
  8076  0029B4                     
  8077                           ;UART.c: 39:     TXREG1 = enviarpc;
  8078  0029B4  C062  FFAD         	movff	send@enviarpc,4013	;volatile
  8079  0029B8  0012               	return		;funcret
  8080  0029BA                     __end_of_send:
  8081                           	opt callstack 0
  8082                           
  8083 ;; *************** function _errorUART *****************
  8084 ;; Defined at:
  8085 ;;		line 42 in file "UART.c"
  8086 ;; Parameters:    Size  Location     Type
  8087 ;;		None
  8088 ;; Auto vars:     Size  Location     Type
  8089 ;;  temp            1    1[BANK0 ] unsigned char 
  8090 ;; Return value:  Size  Location     Type
  8091 ;;                  1    wreg      void 
  8092 ;; Registers used:
  8093 ;;		wreg
  8094 ;; Tracked objects:
  8095 ;;		On entry : 0/0
  8096 ;;		On exit  : 0/0
  8097 ;;		Unchanged: 0/0
  8098 ;; Data sizes:     COMRAM   BANK0   BANK1   BANK2   BANK3   BANK4   BANK5   BANK6   BANK7
  8099 ;;      Params:         0       0       0       0       0       0       0       0       0
  8100 ;;      Locals:         0       1       0       0       0       0       0       0       0
  8101 ;;      Temps:          0       0       0       0       0       0       0       0       0
  8102 ;;      Totals:         0       1       0       0       0       0       0       0       0
  8103 ;;Total ram usage:        1 bytes
  8104 ;; Hardware stack levels used:    1
  8105 ;; Hardware stack levels required when called:    5
  8106 ;; This function calls:
  8107 ;;		Nothing
  8108 ;; This function is called by:
  8109 ;;		_receive
  8110 ;;		_send
  8111 ;;		_printf
  8112 ;;		_scanf
  8113 ;; This function uses a non-reentrant model
  8114 ;;
  8115                           
  8116                           	psect	text40
  8117  002782                     __ptext40:
  8118                           	opt callstack 0
  8119  002782                     _errorUART:
  8120                           	opt callstack 23
  8121  002782                     
  8122                           ;UART.c: 45:     uint8_t temp;;UART.c: 46:     if (OERR) {
  8123  002782  A2AB               	btfss	4011,1,c	;volatile
  8124  002784  EFC6  F013         	goto	u2131
  8125  002788  EFC8  F013         	goto	u2130
  8126  00278C                     u2131:
  8127  00278C  EFD9  F013         	goto	l83
  8128  002790                     u2130:
  8129  002790                     l84:
  8130                           
  8131                           ;UART.c: 48:             temp = RCREG;
  8132  002790  CFAE F061          	movff	4014,errorUART@temp	;volatile
  8133                           
  8134                           ;UART.c: 49:             temp = RCREG;
  8135  002794  CFAE F061          	movff	4014,errorUART@temp	;volatile
  8136                           
  8137                           ;UART.c: 50:             temp = RCREG;
  8138  002798  CFAE F061          	movff	4014,errorUART@temp	;volatile
  8139                           
  8140                           ;UART.c: 51:             temp = RCREG;
  8141  00279C  CFAE F061          	movff	4014,errorUART@temp	;volatile
  8142                           
  8143                           ;UART.c: 52:             CREN = 0;
  8144  0027A0  98AB               	bcf	4011,4,c	;volatile
  8145                           
  8146                           ;UART.c: 53:             CREN = 1;
  8147  0027A2  88AB               	bsf	4011,4,c	;volatile
  8148                           
  8149                           ;UART.c: 55:         } while (OERR);
  8150  0027A4  B2AB               	btfsc	4011,1,c	;volatile
  8151  0027A6  EFD7  F013         	goto	u2141
  8152  0027AA  EFD9  F013         	goto	u2140
  8153  0027AE                     u2141:
  8154  0027AE  EFC8  F013         	goto	l84
  8155  0027B2                     u2140:
  8156  0027B2                     l83:
  8157                           
  8158                           ;UART.c: 58:     if (FERR) {
  8159  0027B2  A4AB               	btfss	4011,2,c	;volatile
  8160  0027B4  EFDE  F013         	goto	u2151
  8161  0027B8  EFE0  F013         	goto	u2150
  8162  0027BC                     u2151:
  8163  0027BC  EFE3  F013         	goto	l87
  8164  0027C0                     u2150:
  8165  0027C0  50AE               	movf	174,w,c	;volatile
  8166                           
  8167                           ;UART.c: 60:         TXEN = 0;
  8168  0027C2  9AAC               	bcf	4012,5,c	;volatile
  8169                           
  8170                           ;UART.c: 61:         TXEN = 1;
  8171  0027C4  8AAC               	bsf	4012,5,c	;volatile
  8172  0027C6                     l87:
  8173  0027C6  0012               	return		;funcret
  8174  0027C8                     __end_of_errorUART:
  8175                           	opt callstack 0
  8176                           
  8177 ;; *************** function _presionarPantalla *****************
  8178 ;; Defined at:
  8179 ;;		line 67 in file "MotoresXYZ.c"
  8180 ;; Parameters:    Size  Location     Type
  8181 ;;  presionarZCe    1    wreg     unsigned char 
  8182 ;;  presionarZDe    1    1[BANK0 ] unsigned char 
  8183 ;;  presionarZUn    1    2[BANK0 ] unsigned char 
  8184 ;; Auto vars:     Size  Location     Type
  8185 ;;  presionarZCe    1    5[BANK0 ] unsigned char 
  8186 ;;  toques          1    6[BANK0 ] unsigned char 
  8187 ;; Return value:  Size  Location     Type
  8188 ;;                  1    wreg      void 
  8189 ;; Registers used:
  8190 ;;		wreg, status,2, status,0, prodl, prodh
  8191 ;; Tracked objects:
  8192 ;;		On entry : 0/0
  8193 ;;		On exit  : 0/0
  8194 ;;		Unchanged: 0/0
  8195 ;; Data sizes:     COMRAM   BANK0   BANK1   BANK2   BANK3   BANK4   BANK5   BANK6   BANK7
  8196 ;;      Params:         0       2       0       0       0       0       0       0       0
  8197 ;;      Locals:         0       2       0       0       0       0       0       0       0
  8198 ;;      Temps:          0       2       0       0       0       0       0       0       0
  8199 ;;      Totals:         0       6       0       0       0       0       0       0       0
  8200 ;;Total ram usage:        6 bytes
  8201 ;; Hardware stack levels used:    1
  8202 ;; Hardware stack levels required when called:    5
  8203 ;; This function calls:
  8204 ;;		Nothing
  8205 ;; This function is called by:
  8206 ;;		_funcionToques
  8207 ;; This function uses a non-reentrant model
  8208 ;;
  8209                           
  8210                           	psect	text41
  8211  00224A                     __ptext41:
  8212                           	opt callstack 0
  8213  00224A                     _presionarPantalla:
  8214                           	opt callstack 24
  8215                           
  8216                           ;incstack = 0
  8217                           ;presionarPantalla@presionarZCentenas stored from wreg
  8218  00224A  0100               	movlb	0	; () banked
  8219  00224C  6F65               	movwf	presionarPantalla@presionarZCentenas& (0+255),b
  8220  00224E                     
  8221                           ;MotoresXYZ.c: 68:     coordinates.timesToPress = ((presionarZCentenas - 48)*100)+((pres
      +                          ionarZDecenas - 48)*10)+(presionarZUnidades - 48);
  8222  00224E  0100               	movlb	0	; () banked
  8223  002250  5165               	movf	presionarPantalla@presionarZCentenas& (0+255),w,b
  8224  002252  0D64               	mullw	100
  8225  002254  CFF3 F063          	movff	prodl,??_presionarPantalla
  8226  002258  CFF4 F064          	movff	prodh,??_presionarPantalla+1
  8227  00225C  5161               	movf	presionarPantalla@presionarZDecenas& (0+255),w,b
  8228  00225E  0D0A               	mullw	10
  8229  002260  50F3               	movf	243,w,c
  8230  002262  2763               	addwf	??_presionarPantalla& (0+255),f,b
  8231  002264  50F4               	movf	244,w,c
  8232  002266  2364               	addwfc	(??_presionarPantalla+1)& (0+255),f,b
  8233  002268  5162               	movf	presionarPantalla@presionarZUnidades& (0+255),w,b
  8234  00226A  2763               	addwf	??_presionarPantalla& (0+255),f,b
  8235  00226C  0E00               	movlw	0
  8236  00226E  2364               	addwfc	(??_presionarPantalla+1)& (0+255),f,b
  8237  002270  0E30               	movlw	48
  8238  002272  2563               	addwf	??_presionarPantalla& (0+255),w,b
  8239  002274  6FCD               	movwf	(_coordinates+4)& (0+255),b
  8240  002276  0EEB               	movlw	235
  8241  002278  2164               	addwfc	(??_presionarPantalla+1)& (0+255),w,b
  8242  00227A  6FCE               	movwf	(_coordinates+5)& (0+255),b
  8243  00227C                     
  8244                           ; BSR set to: 0
  8245                           ;MotoresXYZ.c: 70:     if (coordinates.timesToPress != 0) {
  8246  00227C  51CD               	movf	(_coordinates+4)& (0+255),w,b
  8247  00227E  11CE               	iorwf	(_coordinates+5)& (0+255),w,b
  8248  002280  B4D8               	btfsc	status,2,c
  8249  002282  EF45  F011         	goto	u3061
  8250  002286  EF47  F011         	goto	u3060
  8251  00228A                     u3061:
  8252  00228A  EF83  F011         	goto	l456
  8253  00228E                     u3060:
  8254  00228E                     
  8255                           ; BSR set to: 0
  8256                           ;MotoresXYZ.c: 71:         if (coordinates.timesToPress < 16) {
  8257  00228E  51CE               	movf	(_coordinates+5)& (0+255),w,b
  8258  002290  E107               	bnz	u3071
  8259  002292  0E10               	movlw	16
  8260  002294  5DCD               	subwf	(_coordinates+4)& (0+255),w,b
  8261  002296  B0D8               	btfsc	status,0,c
  8262  002298  EF50  F011         	goto	u3071
  8263  00229C  EF52  F011         	goto	u3070
  8264  0022A0                     u3071:
  8265  0022A0  EF83  F011         	goto	l456
  8266  0022A4                     u3070:
  8267  0022A4                     
  8268                           ; BSR set to: 0
  8269                           ;MotoresXYZ.c: 73:             for (uint8_t toques = 0; toques < coordinates.timesToPres
      +                          s; toques++) {
  8270  0022A4  0E00               	movlw	0
  8271  0022A6  6F66               	movwf	presionarPantalla@toques& (0+255),b
  8272  0022A8  EF75  F011         	goto	l453
  8273  0022AC                     l454:
  8274                           
  8275                           ; BSR set to: 0
  8276                           ;MotoresXYZ.c: 74:                 LATEbits.LATE0 = 0;
  8277  0022AC  908D               	bcf	141,0,c	;volatile
  8278  0022AE                     
  8279                           ; BSR set to: 0
  8280                           ;MotoresXYZ.c: 75:                 _delay((unsigned long)((500)*(8000000/4000.0)));
  8281  0022AE  0E06               	movlw	6
  8282  0022B0  0100               	movlb	0	; () banked
  8283  0022B2  6F64               	movwf	(??_presionarPantalla+1)& (0+255),b
  8284  0022B4  0E13               	movlw	19
  8285  0022B6  6F63               	movwf	??_presionarPantalla& (0+255),b
  8286  0022B8  0EAD               	movlw	173
  8287  0022BA                     u4307:
  8288  0022BA  2EE8               	decfsz	wreg,f,c
  8289  0022BC  D7FE               	bra	u4307
  8290  0022BE  2F63               	decfsz	??_presionarPantalla& (0+255),f,b
  8291  0022C0  D7FC               	bra	u4307
  8292  0022C2  2F64               	decfsz	(??_presionarPantalla+1)& (0+255),f,b
  8293  0022C4  D7FA               	bra	u4307
  8294  0022C6  D000               	nop2	
  8295  0022C8                     
  8296                           ;MotoresXYZ.c: 76:                 LATEbits.LATE0 = 1;
  8297  0022C8  808D               	bsf	141,0,c	;volatile
  8298                           
  8299                           ;MotoresXYZ.c: 77:                 _delay((unsigned long)((500)*(8000000/4000.0)));
  8300  0022CA  0E06               	movlw	6
  8301  0022CC  0100               	movlb	0	; () banked
  8302  0022CE  6F64               	movwf	(??_presionarPantalla+1)& (0+255),b
  8303  0022D0  0E13               	movlw	19
  8304  0022D2  6F63               	movwf	??_presionarPantalla& (0+255),b
  8305  0022D4  0EAD               	movlw	173
  8306  0022D6                     u4317:
  8307  0022D6  2EE8               	decfsz	wreg,f,c
  8308  0022D8  D7FE               	bra	u4317
  8309  0022DA  2F63               	decfsz	??_presionarPantalla& (0+255),f,b
  8310  0022DC  D7FC               	bra	u4317
  8311  0022DE  2F64               	decfsz	(??_presionarPantalla+1)& (0+255),f,b
  8312  0022E0  D7FA               	bra	u4317
  8313  0022E2  D000               	nop2	
  8314  0022E4                     
  8315                           ;MotoresXYZ.c: 78:                 LATEbits.LATE0 = 0;
  8316  0022E4  908D               	bcf	141,0,c	;volatile
  8317  0022E6                     
  8318                           ;MotoresXYZ.c: 79:             }
  8319  0022E6  0100               	movlb	0	; () banked
  8320  0022E8  2B66               	incf	presionarPantalla@toques& (0+255),f,b
  8321  0022EA                     l453:
  8322                           
  8323                           ; BSR set to: 0
  8324  0022EA  5166               	movf	presionarPantalla@toques& (0+255),w,b
  8325  0022EC  6F63               	movwf	??_presionarPantalla& (0+255),b
  8326  0022EE  6B64               	clrf	(??_presionarPantalla+1)& (0+255),b
  8327  0022F0  51CD               	movf	(_coordinates+4)& (0+255),w,b
  8328  0022F2  5D63               	subwf	??_presionarPantalla& (0+255),w,b
  8329  0022F4  51CE               	movf	(_coordinates+5)& (0+255),w,b
  8330  0022F6  5964               	subwfb	(??_presionarPantalla+1)& (0+255),w,b
  8331  0022F8  A0D8               	btfss	status,0,c
  8332  0022FA  EF81  F011         	goto	u3081
  8333  0022FE  EF83  F011         	goto	u3080
  8334  002302                     u3081:
  8335  002302  EF56  F011         	goto	l454
  8336  002306                     u3080:
  8337  002306                     l456:
  8338                           
  8339                           ; BSR set to: 0
  8340  002306  0012               	return		;funcret
  8341  002308                     __end_of_presionarPantalla:
  8342                           	opt callstack 0
  8343                           
  8344 ;; *************** function _UARTinit *****************
  8345 ;; Defined at:
  8346 ;;		line 6 in file "UART.c"
  8347 ;; Parameters:    Size  Location     Type
  8348 ;;		None
  8349 ;; Auto vars:     Size  Location     Type
  8350 ;;		None
  8351 ;; Return value:  Size  Location     Type
  8352 ;;                  1    wreg      void 
  8353 ;; Registers used:
  8354 ;;		wreg, status,2
  8355 ;; Tracked objects:
  8356 ;;		On entry : 0/0
  8357 ;;		On exit  : 0/0
  8358 ;;		Unchanged: 0/0
  8359 ;; Data sizes:     COMRAM   BANK0   BANK1   BANK2   BANK3   BANK4   BANK5   BANK6   BANK7
  8360 ;;      Params:         0       0       0       0       0       0       0       0       0
  8361 ;;      Locals:         0       0       0       0       0       0       0       0       0
  8362 ;;      Temps:          0       0       0       0       0       0       0       0       0
  8363 ;;      Totals:         0       0       0       0       0       0       0       0       0
  8364 ;;Total ram usage:        0 bytes
  8365 ;; Hardware stack levels used:    1
  8366 ;; Hardware stack levels required when called:    5
  8367 ;; This function calls:
  8368 ;;		Nothing
  8369 ;; This function is called by:
  8370 ;;		_main
  8371 ;; This function uses a non-reentrant model
  8372 ;;
  8373                           
  8374                           	psect	text42
  8375  0029EE                     __ptext42:
  8376                           	opt callstack 0
  8377  0029EE                     _UARTinit:
  8378                           	opt callstack 25
  8379  0029EE                     
  8380                           ;UART.c: 7:     TRISCbits.RC6 = 1;
  8381  0029EE  8C94               	bsf	148,6,c	;volatile
  8382                           
  8383                           ;UART.c: 8:     TRISCbits.RC7 = 1;
  8384  0029F0  8E94               	bsf	148,7,c	;volatile
  8385  0029F2                     
  8386                           ;UART.c: 10:     SPBRG = 16;
  8387  0029F2  0E10               	movlw	16
  8388  0029F4  6EAF               	movwf	175,c	;volatile
  8389  0029F6                     
  8390                           ;UART.c: 11:     TXSTA1bits.BRGH = 1;
  8391  0029F6  84AC               	bsf	172,2,c	;volatile
  8392  0029F8                     
  8393                           ;UART.c: 12:     BAUDCONbits.BRG16 = 1;
  8394  0029F8  86B8               	bsf	184,3,c	;volatile
  8395  0029FA                     
  8396                           ;UART.c: 14:     TXSTA1bits.TX9 = 0;
  8397  0029FA  9CAC               	bcf	172,6,c	;volatile
  8398  0029FC                     
  8399                           ;UART.c: 15:     TXSTA1bits.TXEN = 1;
  8400  0029FC  8AAC               	bsf	172,5,c	;volatile
  8401  0029FE                     
  8402                           ;UART.c: 16:     TXSTA1bits.SYNC = 0;
  8403  0029FE  98AC               	bcf	172,4,c	;volatile
  8404  002A00                     
  8405                           ;UART.c: 17:     RCSTA1bits.SPEN = 1;
  8406  002A00  8EAB               	bsf	171,7,c	;volatile
  8407  002A02                     
  8408                           ;UART.c: 18:     RCSTA1bits.RX9 = 0;
  8409  002A02  9CAB               	bcf	171,6,c	;volatile
  8410  002A04                     
  8411                           ;UART.c: 19:     RCSTA1bits.CREN = 1;
  8412  002A04  88AB               	bsf	171,4,c	;volatile
  8413  002A06  0012               	return		;funcret
  8414  002A08                     __end_of_UARTinit:
  8415                           	opt callstack 0
  8416                           
  8417 ;; *************** function _PWM_CCP2_init *****************
  8418 ;; Defined at:
  8419 ;;		line 4 in file "PWMCCP2.c"
  8420 ;; Parameters:    Size  Location     Type
  8421 ;;		None
  8422 ;; Auto vars:     Size  Location     Type
  8423 ;;		None
  8424 ;; Return value:  Size  Location     Type
  8425 ;;                  1    wreg      void 
  8426 ;; Registers used:
  8427 ;;		wreg, status,2
  8428 ;; Tracked objects:
  8429 ;;		On entry : 0/0
  8430 ;;		On exit  : 0/0
  8431 ;;		Unchanged: 0/0
  8432 ;; Data sizes:     COMRAM   BANK0   BANK1   BANK2   BANK3   BANK4   BANK5   BANK6   BANK7
  8433 ;;      Params:         0       0       0       0       0       0       0       0       0
  8434 ;;      Locals:         0       0       0       0       0       0       0       0       0
  8435 ;;      Temps:          0       0       0       0       0       0       0       0       0
  8436 ;;      Totals:         0       0       0       0       0       0       0       0       0
  8437 ;;Total ram usage:        0 bytes
  8438 ;; Hardware stack levels used:    1
  8439 ;; Hardware stack levels required when called:    5
  8440 ;; This function calls:
  8441 ;;		Nothing
  8442 ;; This function is called by:
  8443 ;;		_main
  8444 ;; This function uses a non-reentrant model
  8445 ;;
  8446                           
  8447                           	psect	text43
  8448  002980                     __ptext43:
  8449                           	opt callstack 0
  8450  002980                     _PWM_CCP2_init:
  8451                           	opt callstack 25
  8452  002980                     
  8453                           ;PWMCCP2.c: 5:     TRISCbits.RC1 = 0;
  8454  002980  9294               	bcf	148,1,c	;volatile
  8455  002982                     
  8456                           ;PWMCCP2.c: 6:     CCP2CONbits.CCP2M = 0b1111;
  8457  002982  0E0F               	movlw	15
  8458  002984  12BA               	iorwf	186,f,c	;volatile
  8459                           
  8460                           ;PWMCCP2.c: 8:     PR2 = 249;
  8461  002986  0EF9               	movlw	249
  8462  002988  6ECB               	movwf	203,c	;volatile
  8463                           
  8464                           ;PWMCCP2.c: 9:     T2CONbits.T2CKPS = 0b11;
  8465  00298A  0E03               	movlw	3
  8466  00298C  12CA               	iorwf	202,f,c	;volatile
  8467                           
  8468                           ;PWMCCP2.c: 11:     CCP2CONbits.DC2B = 0;
  8469  00298E  0ECF               	movlw	-49
  8470  002990  16BA               	andwf	186,f,c	;volatile
  8471                           
  8472                           ;PWMCCP2.c: 12:     CCPR2L = 0;
  8473  002992  0E00               	movlw	0
  8474  002994  6EBB               	movwf	187,c	;volatile
  8475                           
  8476                           ;PWMCCP2.c: 13:     TMR2 = 0;
  8477  002996  0E00               	movlw	0
  8478  002998  6ECC               	movwf	204,c	;volatile
  8479  00299A                     
  8480                           ;PWMCCP2.c: 14:     T2CONbits.TMR2ON = 1;
  8481  00299A  84CA               	bsf	202,2,c	;volatile
  8482  00299C  0012               	return		;funcret
  8483  00299E                     __end_of_PWM_CCP2_init:
  8484                           	opt callstack 0
  8485                           
  8486 ;; *************** function _PWM_CCP1_init *****************
  8487 ;; Defined at:
  8488 ;;		line 5 in file "PWMCCP1.c"
  8489 ;; Parameters:    Size  Location     Type
  8490 ;;		None
  8491 ;; Auto vars:     Size  Location     Type
  8492 ;;		None
  8493 ;; Return value:  Size  Location     Type
  8494 ;;                  1    wreg      void 
  8495 ;; Registers used:
  8496 ;;		wreg, status,2
  8497 ;; Tracked objects:
  8498 ;;		On entry : 0/0
  8499 ;;		On exit  : 0/0
  8500 ;;		Unchanged: 0/0
  8501 ;; Data sizes:     COMRAM   BANK0   BANK1   BANK2   BANK3   BANK4   BANK5   BANK6   BANK7
  8502 ;;      Params:         0       0       0       0       0       0       0       0       0
  8503 ;;      Locals:         0       0       0       0       0       0       0       0       0
  8504 ;;      Temps:          0       0       0       0       0       0       0       0       0
  8505 ;;      Totals:         0       0       0       0       0       0       0       0       0
  8506 ;;Total ram usage:        0 bytes
  8507 ;; Hardware stack levels used:    1
  8508 ;; Hardware stack levels required when called:    5
  8509 ;; This function calls:
  8510 ;;		Nothing
  8511 ;; This function is called by:
  8512 ;;		_main
  8513 ;; This function uses a non-reentrant model
  8514 ;;
  8515                           
  8516                           	psect	text44
  8517  00293E                     __ptext44:
  8518                           	opt callstack 0
  8519  00293E                     _PWM_CCP1_init:
  8520                           	opt callstack 25
  8521  00293E                     
  8522                           ;PWMCCP1.c: 6:     TRISCbits.RC2 = 0;
  8523  00293E  9494               	bcf	148,2,c	;volatile
  8524  002940                     
  8525                           ;PWMCCP1.c: 7:     CCP1CONbits.CCP1M = 0b1100;
  8526  002940  50BD               	movf	189,w,c	;volatile
  8527  002942  0BF0               	andlw	-16
  8528  002944  090C               	iorlw	12
  8529  002946  6EBD               	movwf	189,c	;volatile
  8530                           
  8531                           ;PWMCCP1.c: 9:     PR2 = 249;
  8532  002948  0EF9               	movlw	249
  8533  00294A  6ECB               	movwf	203,c	;volatile
  8534                           
  8535                           ;PWMCCP1.c: 10:     T2CONbits.T2CKPS = 0b11;
  8536  00294C  0E03               	movlw	3
  8537  00294E  12CA               	iorwf	202,f,c	;volatile
  8538                           
  8539                           ;PWMCCP1.c: 12:     CCP1CONbits.DC1B = 0;
  8540  002950  0ECF               	movlw	-49
  8541  002952  16BD               	andwf	189,f,c	;volatile
  8542                           
  8543                           ;PWMCCP1.c: 13:     CCPR1L = 0;
  8544  002954  0E00               	movlw	0
  8545  002956  6EBE               	movwf	190,c	;volatile
  8546                           
  8547                           ;PWMCCP1.c: 14:     TMR2 = 0;
  8548  002958  0E00               	movlw	0
  8549  00295A  6ECC               	movwf	204,c	;volatile
  8550  00295C                     
  8551                           ;PWMCCP1.c: 15:     T2CONbits.TMR2ON = 1;
  8552  00295C  84CA               	bsf	202,2,c	;volatile
  8553  00295E  0012               	return		;funcret
  8554  002960                     __end_of_PWM_CCP1_init:
  8555                           	opt callstack 0
  8556                           
  8557 ;; *************** function _low_isr *****************
  8558 ;; Defined at:
  8559 ;;		line 79 in file "main.c"
  8560 ;; Parameters:    Size  Location     Type
  8561 ;;		None
  8562 ;; Auto vars:     Size  Location     Type
  8563 ;;		None
  8564 ;; Return value:  Size  Location     Type
  8565 ;;                  1    wreg      void 
  8566 ;; Registers used:
  8567 ;;		None
  8568 ;; Tracked objects:
  8569 ;;		On entry : 0/0
  8570 ;;		On exit  : 0/0
  8571 ;;		Unchanged: 0/0
  8572 ;; Data sizes:     COMRAM   BANK0   BANK1   BANK2   BANK3   BANK4   BANK5   BANK6   BANK7
  8573 ;;      Params:         0       0       0       0       0       0       0       0       0
  8574 ;;      Locals:         0       0       0       0       0       0       0       0       0
  8575 ;;      Temps:          0       1       0       0       0       0       0       0       0
  8576 ;;      Totals:         0       1       0       0       0       0       0       0       0
  8577 ;;Total ram usage:        1 bytes
  8578 ;; Hardware stack levels used:    1
  8579 ;; Hardware stack levels required when called:    4
  8580 ;; This function calls:
  8581 ;;		Nothing
  8582 ;; This function is called by:
  8583 ;;		Interrupt level 1
  8584 ;; This function uses a non-reentrant model
  8585 ;;
  8586                           
  8587                           	psect	intcodelo
  8588  000018                     __pintcodelo:
  8589                           	opt callstack 0
  8590  000018                     _low_isr:
  8591                           	opt callstack 21
  8592                           
  8593                           ;incstack = 0
  8594  000018  8046               	bsf	int$flags,0,c	;set compiler interrupt flag (level 1)
  8595  00001A  CFE0 F060          	movff	bsr,??_low_isr
  8596  00001E                     
  8597                           ;main.c: 80:     __nop();
  8598  00001E  F000               	nop	
  8599  000020  C060  FFE0         	movff	??_low_isr,bsr
  8600  000024  9046               	bcf	int$flags,0,c	;clear compiler interrupt flag (level 1)
  8601  000026  0010               	retfie	
  8602  000028                     __end_of_low_isr:
  8603                           	opt callstack 0
  8604                           
  8605 ;; *************** function _high_isr *****************
  8606 ;; Defined at:
  8607 ;;		line 19 in file "main.c"
  8608 ;; Parameters:    Size  Location     Type
  8609 ;;		None
  8610 ;; Auto vars:     Size  Location     Type
  8611 ;;		None
  8612 ;; Return value:  Size  Location     Type
  8613 ;;                  1    wreg      void 
  8614 ;; Registers used:
  8615 ;;		wreg, status,2, status,0, tblptrl, tblptrh, tblptru, prodl, prodh, cstack
  8616 ;; Tracked objects:
  8617 ;;		On entry : 0/0
  8618 ;;		On exit  : 0/0
  8619 ;;		Unchanged: 0/0
  8620 ;; Data sizes:     COMRAM   BANK0   BANK1   BANK2   BANK3   BANK4   BANK5   BANK6   BANK7
  8621 ;;      Params:         0       0       0       0       0       0       0       0       0
  8622 ;;      Locals:         0       0       0       0       0       0       0       0       0
  8623 ;;      Temps:          7       0       0       0       0       0       0       0       0
  8624 ;;      Totals:         7       0       0       0       0       0       0       0       0
  8625 ;;Total ram usage:        7 bytes
  8626 ;; Hardware stack levels used:    1
  8627 ;; Hardware stack levels required when called:    3
  8628 ;; This function calls:
  8629 ;;		i2_PWM_DutyCycleCCP1
  8630 ;;		i2_PWM_DutyCycleCCP2
  8631 ;;		i2_moverHomeX
  8632 ;;		i2_moverHomeY
  8633 ;;		i2_printf
  8634 ;; This function is called by:
  8635 ;;		Interrupt level 2
  8636 ;; This function uses a non-reentrant model
  8637 ;;
  8638                           
  8639                           	psect	intcode
  8640  000008                     __pintcode:
  8641                           	opt callstack 0
  8642  000008                     _high_isr:
  8643                           	opt callstack 21
  8644                           
  8645                           ;incstack = 0
  8646  000008  8246               	bsf	int$flags,1,c	;set compiler interrupt flag (level 2)
  8647  00000A  ED91  F00B         	call	int_func,f	;refresh shadow registers
  8648                           
  8649                           	psect	intcode_body
  8650  001722                     __pintcode_body:
  8651                           	opt callstack 21
  8652  001722                     int_func:
  8653                           	opt callstack 21
  8654  001722  0006               	pop		; remove dummy address from shadow register refresh
  8655  001724  CFF3 F03C          	movff	prodl,??_high_isr+1
  8656  001728  CFF4 F03D          	movff	prodh,??_high_isr+2
  8657  00172C  CFF6 F03E          	movff	tblptrl,??_high_isr+3
  8658  001730  CFF7 F03F          	movff	tblptrh,??_high_isr+4
  8659  001734  CFF8 F040          	movff	tblptru,??_high_isr+5
  8660  001738  CFF5 F041          	movff	tablat,??_high_isr+6
  8661  00173C                     
  8662                           ;main.c: 20:     if (INTCONbits.TMR0IF == 1) {
  8663  00173C  A4F2               	btfss	242,2,c	;volatile
  8664  00173E  EFA3  F00B         	goto	i2u388_41
  8665  001742  EFA5  F00B         	goto	i2u388_40
  8666  001746                     i2u388_41:
  8667  001746  EFC5  F00B         	goto	i2l4051
  8668  00174A                     i2u388_40:
  8669  00174A                     
  8670                           ;main.c: 21:         if (destinoHomeY == 0) {
  8671  00174A  5042               	movf	_destinoHomeY^0,w,c
  8672  00174C  A4D8               	btfss	status,2,c
  8673  00174E  EFAB  F00B         	goto	i2u389_41
  8674  001752  EFAD  F00B         	goto	i2u389_40
  8675  001756                     i2u389_41:
  8676  001756  EFB0  F00B         	goto	i2l4039
  8677  00175A                     i2u389_40:
  8678  00175A                     
  8679                           ;main.c: 22:             PWM_DutyCycleCCP2(0);
  8680  00175A  0E00               	movlw	0
  8681  00175C  EC40  F012         	call	i2_PWM_DutyCycleCCP2
  8682  001760                     i2l4039:
  8683                           
  8684                           ;main.c: 24:         CurrentPosY = coordinates.yWanted;
  8685  001760  C0CB  F0CF         	movff	_coordinates+2,_CurrentPosY
  8686  001764  C0CC  F0D0         	movff	_coordinates+3,_CurrentPosY+1
  8687  001768                     
  8688                           ;main.c: 25:         printf("Interrupcion TMR0, llegaste a coordenada deseada Y\n");
  8689  001768  0E14               	movlw	low STR_22
  8690  00176A  6E03               	movwf	i2printf@PointString^0,c
  8691  00176C  0E7D               	movlw	high STR_22
  8692  00176E  6E04               	movwf	(i2printf@PointString+1)^0,c
  8693  001770  ECF4  F012         	call	i2_printf	;wreg free
  8694  001774                     
  8695                           ;main.c: 26:         printf("Ok,coorY\n");
  8696  001774  0EA6               	movlw	low STR_23
  8697  001776  6E03               	movwf	i2printf@PointString^0,c
  8698  001778  0E7F               	movlw	high STR_23
  8699  00177A  6E04               	movwf	(i2printf@PointString+1)^0,c
  8700  00177C  ECF4  F012         	call	i2_printf	;wreg free
  8701  001780                     
  8702                           ;main.c: 27:         sparcEnMovimientoY = 0;
  8703  001780  0E00               	movlw	0
  8704  001782  0100               	movlb	0	; () banked
  8705  001784  6FDA               	movwf	_sparcEnMovimientoY& (0+255),b
  8706  001786                     
  8707                           ; BSR set to: 0
  8708                           ;main.c: 28:         LATDbits.LATD0 = 1;
  8709  001786  808C               	bsf	140,0,c	;volatile
  8710  001788                     
  8711                           ; BSR set to: 0
  8712                           ;main.c: 29:         INTCONbits.TMR0IF = 0;
  8713  001788  94F2               	bcf	242,2,c	;volatile
  8714  00178A                     i2l4051:
  8715                           
  8716                           ;main.c: 31:     if (PIR1bits.TMR1IF == 1) {
  8717  00178A  A09E               	btfss	158,0,c	;volatile
  8718  00178C  EFCA  F00B         	goto	i2u390_41
  8719  001790  EFCC  F00B         	goto	i2u390_40
  8720  001794                     i2u390_41:
  8721  001794  EFEC  F00B         	goto	i2l4069
  8722  001798                     i2u390_40:
  8723  001798                     
  8724                           ;main.c: 32:         if (destinoHomeX == 0) {
  8725  001798  5043               	movf	_destinoHomeX^0,w,c
  8726  00179A  A4D8               	btfss	status,2,c
  8727  00179C  EFD2  F00B         	goto	i2u391_41
  8728  0017A0  EFD4  F00B         	goto	i2u391_40
  8729  0017A4                     i2u391_41:
  8730  0017A4  EFD7  F00B         	goto	i2l4057
  8731  0017A8                     i2u391_40:
  8732  0017A8                     
  8733                           ;main.c: 33:             PWM_DutyCycleCCP1(0);
  8734  0017A8  0E00               	movlw	0
  8735  0017AA  EC9A  F012         	call	i2_PWM_DutyCycleCCP1
  8736  0017AE                     i2l4057:
  8737                           
  8738                           ;main.c: 35:         CurrentPosX = coordinates.xWanted;
  8739  0017AE  C0C9  F0D3         	movff	_coordinates,_CurrentPosX
  8740  0017B2  C0CA  F0D4         	movff	_coordinates+1,_CurrentPosX+1
  8741  0017B6                     
  8742                           ;main.c: 36:         printf("Interrupcion TMR1, llegaste a coordenada deseada X\n");
  8743  0017B6  0EE0               	movlw	low STR_24
  8744  0017B8  6E03               	movwf	i2printf@PointString^0,c
  8745  0017BA  0E7C               	movlw	high STR_24
  8746  0017BC  6E04               	movwf	(i2printf@PointString+1)^0,c
  8747  0017BE  ECF4  F012         	call	i2_printf	;wreg free
  8748  0017C2                     
  8749                           ;main.c: 37:         printf("Ok,coorX\n");
  8750  0017C2  0E9C               	movlw	low STR_25
  8751  0017C4  6E03               	movwf	i2printf@PointString^0,c
  8752  0017C6  0E7F               	movlw	high STR_25
  8753  0017C8  6E04               	movwf	(i2printf@PointString+1)^0,c
  8754  0017CA  ECF4  F012         	call	i2_printf	;wreg free
  8755  0017CE                     
  8756                           ;main.c: 38:         sparcEnMovimientoX = 0;
  8757  0017CE  0E00               	movlw	0
  8758  0017D0  0100               	movlb	0	; () banked
  8759  0017D2  6FDB               	movwf	_sparcEnMovimientoX& (0+255),b
  8760  0017D4                     
  8761                           ; BSR set to: 0
  8762                           ;main.c: 39:         LATDbits.LATD2 = 1;
  8763  0017D4  848C               	bsf	140,2,c	;volatile
  8764  0017D6                     
  8765                           ; BSR set to: 0
  8766                           ;main.c: 40:         PIR1bits.TMR1IF = 0;
  8767  0017D6  909E               	bcf	158,0,c	;volatile
  8768  0017D8                     i2l4069:
  8769                           
  8770                           ;main.c: 42:     if (INTCONbits.INT0IF) {
  8771  0017D8  A2F2               	btfss	242,1,c	;volatile
  8772  0017DA  EFF1  F00B         	goto	i2u392_41
  8773  0017DE  EFF3  F00B         	goto	i2u392_40
  8774  0017E2                     i2u392_41:
  8775  0017E2  EF10  F00C         	goto	i2l4085
  8776  0017E6                     i2u392_40:
  8777  0017E6                     
  8778                           ;main.c: 43:         _delay((unsigned long)((10)*(8000000/4000.0)));
  8779  0017E6  0E1A               	movlw	26
  8780  0017E8  6E3B               	movwf	??_high_isr^0,c
  8781  0017EA  0EF8               	movlw	248
  8782  0017EC                     i2u432_47:
  8783  0017EC  2EE8               	decfsz	wreg,f,c
  8784  0017EE  D7FE               	bra	i2u432_47
  8785  0017F0  2E3B               	decfsz	??_high_isr^0,f,c
  8786  0017F2  D7FC               	bra	i2u432_47
  8787  0017F4  D000               	nop2	
  8788  0017F6                     
  8789                           ;main.c: 44:         if (PORTBbits.RB0 == 1) {
  8790  0017F6  A081               	btfss	129,0,c	;volatile
  8791  0017F8  EF00  F00C         	goto	i2u393_41
  8792  0017FC  EF02  F00C         	goto	i2u393_40
  8793  001800                     i2u393_41:
  8794  001800  EF08  F00C         	goto	i2l4077
  8795  001804                     i2u393_40:
  8796  001804                     
  8797                           ;main.c: 45:             printf("Ocurrio la interrupcion limitSwitch3Esquinas\n");
  8798  001804  0EAA               	movlw	low STR_26
  8799  001806  6E03               	movwf	i2printf@PointString^0,c
  8800  001808  0E7D               	movlw	high STR_26
  8801  00180A  6E04               	movwf	(i2printf@PointString+1)^0,c
  8802  00180C  ECF4  F012         	call	i2_printf	;wreg free
  8803  001810                     i2l4077:
  8804                           
  8805                           ;main.c: 47:         moverHomeX();
  8806  001810  EC3D  F015         	call	i2_moverHomeX	;wreg free
  8807  001814                     
  8808                           ;main.c: 48:         moverHomeY();
  8809  001814  EC32  F015         	call	i2_moverHomeY	;wreg free
  8810  001818                     
  8811                           ;main.c: 49:         OcurrioIntEsq = 1;
  8812  001818  0E01               	movlw	1
  8813  00181A  0100               	movlb	0	; () banked
  8814  00181C  6FD7               	movwf	_OcurrioIntEsq& (0+255),b
  8815  00181E                     
  8816                           ; BSR set to: 0
  8817                           ;main.c: 50:         INTCONbits.INT0IF = 0;
  8818  00181E  92F2               	bcf	242,1,c	;volatile
  8819  001820                     i2l4085:
  8820                           
  8821                           ;main.c: 52:     if (INTCON3bits.INT2IF == 1) {
  8822  001820  A2F0               	btfss	240,1,c	;volatile
  8823  001822  EF15  F00C         	goto	i2u394_41
  8824  001826  EF17  F00C         	goto	i2u394_40
  8825  00182A                     i2u394_41:
  8826  00182A  EF3B  F00C         	goto	i2l4105
  8827  00182E                     i2u394_40:
  8828  00182E                     
  8829                           ;main.c: 53:         _delay((unsigned long)((10)*(8000000/4000.0)));
  8830  00182E  0E1A               	movlw	26
  8831  001830  6E3B               	movwf	??_high_isr^0,c
  8832  001832  0EF8               	movlw	248
  8833  001834                     i2u433_47:
  8834  001834  2EE8               	decfsz	wreg,f,c
  8835  001836  D7FE               	bra	i2u433_47
  8836  001838  2E3B               	decfsz	??_high_isr^0,f,c
  8837  00183A  D7FC               	bra	i2u433_47
  8838  00183C  D000               	nop2	
  8839  00183E                     
  8840                           ;main.c: 54:         if (PORTBbits.RB2 == 1) {
  8841  00183E  A481               	btfss	129,2,c	;volatile
  8842  001840  EF24  F00C         	goto	i2u395_41
  8843  001844  EF26  F00C         	goto	i2u395_40
  8844  001848                     i2u395_41:
  8845  001848  EF2C  F00C         	goto	i2l4093
  8846  00184C                     i2u395_40:
  8847  00184C                     
  8848                           ;main.c: 55:             printf("Ocurrio la interrupcion limitSwitchHomeX\n");
  8849  00184C  0E03               	movlw	low STR_27
  8850  00184E  6E03               	movwf	i2printf@PointString^0,c
  8851  001850  0E7E               	movlw	high STR_27
  8852  001852  6E04               	movwf	(i2printf@PointString+1)^0,c
  8853  001854  ECF4  F012         	call	i2_printf	;wreg free
  8854  001858                     i2l4093:
  8855                           
  8856                           ;main.c: 57:         PWM_DutyCycleCCP1(0);
  8857  001858  0E00               	movlw	0
  8858  00185A  EC9A  F012         	call	i2_PWM_DutyCycleCCP1
  8859  00185E                     
  8860                           ;main.c: 58:         CurrentPosX = 0;
  8861  00185E  0E00               	movlw	0
  8862  001860  0100               	movlb	0	; () banked
  8863  001862  6FD4               	movwf	(_CurrentPosX+1)& (0+255),b
  8864  001864  0E00               	movlw	0
  8865  001866  6FD3               	movwf	_CurrentPosX& (0+255),b
  8866  001868                     
  8867                           ; BSR set to: 0
  8868                           ;main.c: 59:         destinoHomeX = 0;
  8869  001868  0E00               	movlw	0
  8870  00186A  6E43               	movwf	_destinoHomeX^0,c
  8871  00186C                     
  8872                           ; BSR set to: 0
  8873                           ;main.c: 60:         llegoHomeX = 1;
  8874  00186C  0E01               	movlw	1
  8875  00186E  6FD9               	movwf	_llegoHomeX& (0+255),b
  8876  001870                     
  8877                           ; BSR set to: 0
  8878                           ;main.c: 61:         sparcEnMovimientoX = 0;
  8879  001870  0E00               	movlw	0
  8880  001872  6FDB               	movwf	_sparcEnMovimientoX& (0+255),b
  8881  001874                     
  8882                           ; BSR set to: 0
  8883                           ;main.c: 62:         INTCON3bits.INT2IF = 0;
  8884  001874  92F0               	bcf	240,1,c	;volatile
  8885  001876                     i2l4105:
  8886                           
  8887                           ;main.c: 64:     if (INTCON3bits.INT1IF == 1) {
  8888  001876  A0F0               	btfss	240,0,c	;volatile
  8889  001878  EF40  F00C         	goto	i2u396_41
  8890  00187C  EF42  F00C         	goto	i2u396_40
  8891  001880                     i2u396_41:
  8892  001880  EF66  F00C         	goto	i2l610
  8893  001884                     i2u396_40:
  8894  001884                     
  8895                           ;main.c: 65:         _delay((unsigned long)((10)*(8000000/4000.0)));
  8896  001884  0E1A               	movlw	26
  8897  001886  6E3B               	movwf	??_high_isr^0,c
  8898  001888  0EF8               	movlw	248
  8899  00188A                     i2u434_47:
  8900  00188A  2EE8               	decfsz	wreg,f,c
  8901  00188C  D7FE               	bra	i2u434_47
  8902  00188E  2E3B               	decfsz	??_high_isr^0,f,c
  8903  001890  D7FC               	bra	i2u434_47
  8904  001892  D000               	nop2	
  8905  001894                     
  8906                           ;main.c: 66:         if (PORTBbits.RB1 == 1) {
  8907  001894  A281               	btfss	129,1,c	;volatile
  8908  001896  EF4F  F00C         	goto	i2u397_41
  8909  00189A  EF51  F00C         	goto	i2u397_40
  8910  00189E                     i2u397_41:
  8911  00189E  EF57  F00C         	goto	i2l4113
  8912  0018A2                     i2u397_40:
  8913  0018A2                     
  8914                           ;main.c: 67:             printf("Ocurrio la interrupcion limitSwitchHomeY\n");
  8915  0018A2  0E2D               	movlw	low STR_28
  8916  0018A4  6E03               	movwf	i2printf@PointString^0,c
  8917  0018A6  0E7E               	movlw	high STR_28
  8918  0018A8  6E04               	movwf	(i2printf@PointString+1)^0,c
  8919  0018AA  ECF4  F012         	call	i2_printf	;wreg free
  8920  0018AE                     i2l4113:
  8921                           
  8922                           ;main.c: 69:         PWM_DutyCycleCCP2(0);
  8923  0018AE  0E00               	movlw	0
  8924  0018B0  EC40  F012         	call	i2_PWM_DutyCycleCCP2
  8925  0018B4                     
  8926                           ;main.c: 70:         CurrentPosY = 0;
  8927  0018B4  0E00               	movlw	0
  8928  0018B6  0100               	movlb	0	; () banked
  8929  0018B8  6FD0               	movwf	(_CurrentPosY+1)& (0+255),b
  8930  0018BA  0E00               	movlw	0
  8931  0018BC  6FCF               	movwf	_CurrentPosY& (0+255),b
  8932  0018BE                     
  8933                           ; BSR set to: 0
  8934                           ;main.c: 71:         destinoHomeY = 0;
  8935  0018BE  0E00               	movlw	0
  8936  0018C0  6E42               	movwf	_destinoHomeY^0,c
  8937  0018C2                     
  8938                           ; BSR set to: 0
  8939                           ;main.c: 72:         llegoHomeY = 1;
  8940  0018C2  0E01               	movlw	1
  8941  0018C4  6FD8               	movwf	_llegoHomeY& (0+255),b
  8942  0018C6                     
  8943                           ; BSR set to: 0
  8944                           ;main.c: 73:         sparcEnMovimientoY = 0;
  8945  0018C6  0E00               	movlw	0
  8946  0018C8  6FDA               	movwf	_sparcEnMovimientoY& (0+255),b
  8947  0018CA                     
  8948                           ; BSR set to: 0
  8949                           ;main.c: 74:         INTCON3bits.INT1IF = 0;
  8950  0018CA  90F0               	bcf	240,0,c	;volatile
  8951  0018CC                     i2l610:
  8952  0018CC  C041  FFF5         	movff	??_high_isr+6,tablat
  8953  0018D0  C040  FFF8         	movff	??_high_isr+5,tblptru
  8954  0018D4  C03F  FFF7         	movff	??_high_isr+4,tblptrh
  8955  0018D8  C03E  FFF6         	movff	??_high_isr+3,tblptrl
  8956  0018DC  C03D  FFF4         	movff	??_high_isr+2,prodh
  8957  0018E0  C03C  FFF3         	movff	??_high_isr+1,prodl
  8958  0018E4  9246               	bcf	int$flags,1,c	;clear compiler interrupt flag (level 2)
  8959  0018E6  0011               	retfie		f
  8960  0018E8                     __end_of_high_isr:
  8961                           	opt callstack 0
  8962                           
  8963 ;; *************** function i2_printf *****************
  8964 ;; Defined at:
  8965 ;;		line 6 in file "Comunicacion.c"
  8966 ;; Parameters:    Size  Location     Type
  8967 ;;  PointString     2    2[COMRAM] PTR unsigned char 
  8968 ;;		 -> STR_50(7), STR_49(9), STR_48(9), STR_47(26), 
  8969 ;;		 -> STR_46(9), STR_45(9), STR_44(28), STR_43(9), 
  8970 ;;		 -> STR_42(9), STR_41(27), STR_40(9), STR_39(40), 
  8971 ;;		 -> STR_38(9), STR_37(46), STR_36(9), STR_35(31), 
  8972 ;;		 -> STR_34(9), STR_33(35), STR_32(28), STR_31(9), 
  8973 ;;		 -> STR_30(18), STR_29(79), STR_28(42), STR_27(42), 
  8974 ;;		 -> STR_26(46), STR_25(10), STR_24(52), STR_23(10), 
  8975 ;;		 -> STR_22(52), STR_21(11), STR_20(16), STR_19(11), 
  8976 ;;		 -> STR_18(16), STR_17(10), STR_16(11), STR_15(11), 
  8977 ;;		 -> STR_14(6), STR_13(4), STR_12(8), STR_11(9), 
  8978 ;;		 -> STR_10(9), STR_9(9), STR_8(8), STR_7(16), 
  8979 ;;		 -> STR_6(9), STR_5(43), STR_4(8), STR_3(52), 
  8980 ;;		 -> STR_2(4), STR_1(4), 
  8981 ;; Auto vars:     Size  Location     Type
  8982 ;;  printf          1    6[COMRAM] unsigned char 
  8983 ;; Return value:  Size  Location     Type
  8984 ;;                  1    wreg      void 
  8985 ;; Registers used:
  8986 ;;		wreg, status,2, status,0, tblptrl, tblptrh, tblptru, cstack
  8987 ;; Tracked objects:
  8988 ;;		On entry : 0/0
  8989 ;;		On exit  : 0/0
  8990 ;;		Unchanged: 0/0
  8991 ;; Data sizes:     COMRAM   BANK0   BANK1   BANK2   BANK3   BANK4   BANK5   BANK6   BANK7
  8992 ;;      Params:         2       0       0       0       0       0       0       0       0
  8993 ;;      Locals:         1       0       0       0       0       0       0       0       0
  8994 ;;      Temps:          2       0       0       0       0       0       0       0       0
  8995 ;;      Totals:         5       0       0       0       0       0       0       0       0
  8996 ;;Total ram usage:        5 bytes
  8997 ;; Hardware stack levels used:    1
  8998 ;; Hardware stack levels required when called:    2
  8999 ;; This function calls:
  9000 ;;		i2_errorUART
  9001 ;;		i2_send
  9002 ;; This function is called by:
  9003 ;;		_high_isr
  9004 ;; This function uses a non-reentrant model
  9005 ;;
  9006                           
  9007                           	psect	text47
  9008  0025E8                     __ptext47:
  9009                           	opt callstack 0
  9010  0025E8                     i2_printf:
  9011                           	opt callstack 21
  9012  0025E8                     
  9013                           ;Comunicacion.c: 7:     errorUART();
  9014  0025E8  ECE4  F013         	call	i2_errorUART	;wreg free
  9015  0025EC                     
  9016                           ;Comunicacion.c: 8:     for (unsigned char i = 0; i < 255; i++) {
  9017  0025EC  0E00               	movlw	0
  9018  0025EE  6E07               	movwf	i2printf@i^0,c
  9019  0025F0                     i2l3989:
  9020  0025F0  2807               	incf	i2printf@i^0,w,c
  9021  0025F2  A4D8               	btfss	status,2,c
  9022  0025F4  EFFE  F012         	goto	i2u386_41
  9023  0025F8  EF00  F013         	goto	i2u386_40
  9024  0025FC                     i2u386_41:
  9025  0025FC  EF02  F013         	goto	i2l3993
  9026  002600                     i2u386_40:
  9027  002600  EF29  F013         	goto	i2l187
  9028  002604                     i2l3993:
  9029                           
  9030                           ;Comunicacion.c: 10:         if (PointString[i] == ((void*)0)) {
  9031  002604  5007               	movf	i2printf@i^0,w,c
  9032  002606  2403               	addwf	i2printf@PointString^0,w,c
  9033  002608  6E05               	movwf	??i2_printf^0,c
  9034  00260A  0E00               	movlw	0
  9035  00260C  2004               	addwfc	(i2printf@PointString+1)^0,w,c
  9036  00260E  6E06               	movwf	(??i2_printf+1)^0,c
  9037  002610  C005  FFF6         	movff	??i2_printf,tblptrl
  9038  002614  C006  FFF7         	movff	??i2_printf+1,tblptrh
  9039  002618                     	if	0	;tblptru may be non-zero
  9040  002618                     	endif
  9041  002618                     	if	0	;tblptru may be non-zero
  9042  002618                     	endif
  9043  002618  0008               	tblrd		*
  9044  00261A  50F5               	movf	tablat,w,c
  9045  00261C  0900               	iorlw	0
  9046  00261E  A4D8               	btfss	status,2,c
  9047  002620  EF14  F013         	goto	i2u387_41
  9048  002624  EF16  F013         	goto	i2u387_40
  9049  002628                     i2u387_41:
  9050  002628  EF18  F013         	goto	i2l3999
  9051  00262C                     i2u387_40:
  9052  00262C  EF29  F013         	goto	i2l187
  9053  002630                     i2l3999:
  9054                           
  9055                           ;Comunicacion.c: 13:             send(PointString[i]);
  9056  002630  5007               	movf	i2printf@i^0,w,c
  9057  002632  2403               	addwf	i2printf@PointString^0,w,c
  9058  002634  6E05               	movwf	??i2_printf^0,c
  9059  002636  0E00               	movlw	0
  9060  002638  2004               	addwfc	(i2printf@PointString+1)^0,w,c
  9061  00263A  6E06               	movwf	(??i2_printf+1)^0,c
  9062  00263C  C005  FFF6         	movff	??i2_printf,tblptrl
  9063  002640  C006  FFF7         	movff	??i2_printf+1,tblptrh
  9064  002644                     	if	0	;tblptru may be non-zero
  9065  002644                     	endif
  9066  002644                     	if	0	;tblptru may be non-zero
  9067  002644                     	endif
  9068  002644  0008               	tblrd		*
  9069  002646  50F5               	movf	tablat,w,c
  9070  002648  EC04  F015         	call	i2_send
  9071  00264C                     
  9072                           ;Comunicacion.c: 14:     }
  9073  00264C  2A07               	incf	i2printf@i^0,f,c
  9074  00264E  EFF8  F012         	goto	i2l3989
  9075  002652                     i2l187:
  9076  002652  0012               	return		;funcret
  9077  002654                     __end_ofi2_printf:
  9078                           	opt callstack 0
  9079                           
  9080 ;; *************** function i2_send *****************
  9081 ;; Defined at:
  9082 ;;		line 34 in file "UART.c"
  9083 ;; Parameters:    Size  Location     Type
  9084 ;;  enviarpc        1    wreg     unsigned char 
  9085 ;; Auto vars:     Size  Location     Type
  9086 ;;  enviarpc        1    1[COMRAM] unsigned char 
  9087 ;; Return value:  Size  Location     Type
  9088 ;;                  1    wreg      void 
  9089 ;; Registers used:
  9090 ;;		wreg, cstack
  9091 ;; Tracked objects:
  9092 ;;		On entry : 0/0
  9093 ;;		On exit  : 0/0
  9094 ;;		Unchanged: 0/0
  9095 ;; Data sizes:     COMRAM   BANK0   BANK1   BANK2   BANK3   BANK4   BANK5   BANK6   BANK7
  9096 ;;      Params:         0       0       0       0       0       0       0       0       0
  9097 ;;      Locals:         1       0       0       0       0       0       0       0       0
  9098 ;;      Temps:          0       0       0       0       0       0       0       0       0
  9099 ;;      Totals:         1       0       0       0       0       0       0       0       0
  9100 ;;Total ram usage:        1 bytes
  9101 ;; Hardware stack levels used:    1
  9102 ;; Hardware stack levels required when called:    1
  9103 ;; This function calls:
  9104 ;;		i2_errorUART
  9105 ;; This function is called by:
  9106 ;;		i2_printf
  9107 ;; This function uses a non-reentrant model
  9108 ;;
  9109                           
  9110                           	psect	text48
  9111  002A08                     __ptext48:
  9112                           	opt callstack 0
  9113  002A08                     i2_send:
  9114                           	opt callstack 21
  9115                           
  9116                           ;incstack = 0
  9117                           ;i2send@enviarpc stored from wreg
  9118  002A08  6E02               	movwf	i2send@enviarpc^0,c
  9119  002A0A                     
  9120                           ;UART.c: 35:     errorUART();
  9121  002A0A  ECE4  F013         	call	i2_errorUART	;wreg free
  9122  002A0E                     i2l77:
  9123                           
  9124                           ;UART.c: 36:     while (TXSTA1bits.TRMT == 0) {
  9125  002A0E  A2AC               	btfss	172,1,c	;volatile
  9126  002A10  EF0C  F015         	goto	i2u351_41
  9127  002A14  EF0E  F015         	goto	i2u351_40
  9128  002A18                     i2u351_41:
  9129  002A18  EF07  F015         	goto	i2l77
  9130  002A1C                     i2u351_40:
  9131  002A1C                     
  9132                           ;UART.c: 39:     TXREG1 = enviarpc;
  9133  002A1C  C002  FFAD         	movff	i2send@enviarpc,4013	;volatile
  9134  002A20  0012               	return		;funcret
  9135  002A22                     __end_ofi2_send:
  9136                           	opt callstack 0
  9137                           
  9138 ;; *************** function i2_errorUART *****************
  9139 ;; Defined at:
  9140 ;;		line 42 in file "UART.c"
  9141 ;; Parameters:    Size  Location     Type
  9142 ;;		None
  9143 ;; Auto vars:     Size  Location     Type
  9144 ;;  errorUART       1    0[COMRAM] unsigned char 
  9145 ;; Return value:  Size  Location     Type
  9146 ;;                  1    wreg      void 
  9147 ;; Registers used:
  9148 ;;		wreg
  9149 ;; Tracked objects:
  9150 ;;		On entry : 0/0
  9151 ;;		On exit  : 0/0
  9152 ;;		Unchanged: 0/0
  9153 ;; Data sizes:     COMRAM   BANK0   BANK1   BANK2   BANK3   BANK4   BANK5   BANK6   BANK7
  9154 ;;      Params:         0       0       0       0       0       0       0       0       0
  9155 ;;      Locals:         1       0       0       0       0       0       0       0       0
  9156 ;;      Temps:          0       0       0       0       0       0       0       0       0
  9157 ;;      Totals:         1       0       0       0       0       0       0       0       0
  9158 ;;Total ram usage:        1 bytes
  9159 ;; Hardware stack levels used:    1
  9160 ;; This function calls:
  9161 ;;		Nothing
  9162 ;; This function is called by:
  9163 ;;		i2_send
  9164 ;;		i2_printf
  9165 ;; This function uses a non-reentrant model
  9166 ;;
  9167                           
  9168                           	psect	text49
  9169  0027C8                     __ptext49:
  9170                           	opt callstack 0
  9171  0027C8                     i2_errorUART:
  9172                           	opt callstack 21
  9173  0027C8                     
  9174                           ;UART.c: 45:     uint8_t temp;;UART.c: 46:     if (OERR) {
  9175  0027C8  A2AB               	btfss	4011,1,c	;volatile
  9176  0027CA  EFE9  F013         	goto	i2u258_41
  9177  0027CE  EFEB  F013         	goto	i2u258_40
  9178  0027D2                     i2u258_41:
  9179  0027D2  EFFC  F013         	goto	i2l83
  9180  0027D6                     i2u258_40:
  9181  0027D6                     i2l84:
  9182                           
  9183                           ;UART.c: 48:             temp = RCREG;
  9184  0027D6  CFAE F001          	movff	4014,i2errorUART@temp	;volatile
  9185                           
  9186                           ;UART.c: 49:             temp = RCREG;
  9187  0027DA  CFAE F001          	movff	4014,i2errorUART@temp	;volatile
  9188                           
  9189                           ;UART.c: 50:             temp = RCREG;
  9190  0027DE  CFAE F001          	movff	4014,i2errorUART@temp	;volatile
  9191                           
  9192                           ;UART.c: 51:             temp = RCREG;
  9193  0027E2  CFAE F001          	movff	4014,i2errorUART@temp	;volatile
  9194                           
  9195                           ;UART.c: 52:             CREN = 0;
  9196  0027E6  98AB               	bcf	4011,4,c	;volatile
  9197                           
  9198                           ;UART.c: 53:             CREN = 1;
  9199  0027E8  88AB               	bsf	4011,4,c	;volatile
  9200                           
  9201                           ;UART.c: 55:         } while (OERR);
  9202  0027EA  B2AB               	btfsc	4011,1,c	;volatile
  9203  0027EC  EFFA  F013         	goto	i2u259_41
  9204  0027F0  EFFC  F013         	goto	i2u259_40
  9205  0027F4                     i2u259_41:
  9206  0027F4  EFEB  F013         	goto	i2l84
  9207  0027F8                     i2u259_40:
  9208  0027F8                     i2l83:
  9209                           
  9210                           ;UART.c: 58:     if (FERR) {
  9211  0027F8  A4AB               	btfss	4011,2,c	;volatile
  9212  0027FA  EF01  F014         	goto	i2u260_41
  9213  0027FE  EF03  F014         	goto	i2u260_40
  9214  002802                     i2u260_41:
  9215  002802  EF06  F014         	goto	i2l87
  9216  002806                     i2u260_40:
  9217  002806  50AE               	movf	174,w,c	;volatile
  9218                           
  9219                           ;UART.c: 60:         TXEN = 0;
  9220  002808  9AAC               	bcf	4012,5,c	;volatile
  9221                           
  9222                           ;UART.c: 61:         TXEN = 1;
  9223  00280A  8AAC               	bsf	4012,5,c	;volatile
  9224  00280C                     i2l87:
  9225  00280C  0012               	return		;funcret
  9226  00280E                     __end_ofi2_errorUART:
  9227                           	opt callstack 0
  9228                           
  9229 ;; *************** function i2_moverHomeY *****************
  9230 ;; Defined at:
  9231 ;;		line 95 in file "MotoresXYZ.c"
  9232 ;; Parameters:    Size  Location     Type
  9233 ;;		None
  9234 ;; Auto vars:     Size  Location     Type
  9235 ;;		None
  9236 ;; Return value:  Size  Location     Type
  9237 ;;                  1    wreg      void 
  9238 ;; Registers used:
  9239 ;;		wreg, status,2, status,0, prodl, prodh, cstack
  9240 ;; Tracked objects:
  9241 ;;		On entry : 0/0
  9242 ;;		On exit  : 0/0
  9243 ;;		Unchanged: 0/0
  9244 ;; Data sizes:     COMRAM   BANK0   BANK1   BANK2   BANK3   BANK4   BANK5   BANK6   BANK7
  9245 ;;      Params:         0       0       0       0       0       0       0       0       0
  9246 ;;      Locals:         0       0       0       0       0       0       0       0       0
  9247 ;;      Temps:          0       0       0       0       0       0       0       0       0
  9248 ;;      Totals:         0       0       0       0       0       0       0       0       0
  9249 ;;Total ram usage:        0 bytes
  9250 ;; Hardware stack levels used:    1
  9251 ;; Hardware stack levels required when called:    2
  9252 ;; This function calls:
  9253 ;;		i2_PWM_DutyCycleCCP2
  9254 ;; This function is called by:
  9255 ;;		_high_isr
  9256 ;; This function uses a non-reentrant model
  9257 ;;
  9258                           
  9259                           	psect	text50
  9260  002A64                     __ptext50:
  9261                           	opt callstack 0
  9262  002A64                     i2_moverHomeY:
  9263                           	opt callstack 21
  9264  002A64                     
  9265                           ;MotoresXYZ.c: 96:     LATDbits.LATD0 = 0;
  9266  002A64  908C               	bcf	140,0,c	;volatile
  9267  002A66                     
  9268                           ;MotoresXYZ.c: 97:     destinoHomeY = 1;
  9269  002A66  0E01               	movlw	1
  9270  002A68  6E42               	movwf	_destinoHomeY^0,c
  9271  002A6A                     
  9272                           ;MotoresXYZ.c: 99:     LATDbits.LATD1 = 0;
  9273  002A6A  928C               	bcf	140,1,c	;volatile
  9274                           
  9275                           ;MotoresXYZ.c: 100:     sparcEnMovimientoY = 1;
  9276  002A6C  0E01               	movlw	1
  9277  002A6E  0100               	movlb	0	; () banked
  9278  002A70  6FDA               	movwf	_sparcEnMovimientoY& (0+255),b
  9279  002A72                     
  9280                           ; BSR set to: 0
  9281                           ;MotoresXYZ.c: 101:     PWM_DutyCycleCCP2(50);
  9282  002A72  0E32               	movlw	50
  9283  002A74  EC40  F012         	call	i2_PWM_DutyCycleCCP2
  9284  002A78  0012               	return		;funcret
  9285  002A7A                     __end_ofi2_moverHomeY:
  9286                           	opt callstack 0
  9287                           
  9288 ;; *************** function i2_PWM_DutyCycleCCP2 *****************
  9289 ;; Defined at:
  9290 ;;		line 16 in file "PWMCCP2.c"
  9291 ;; Parameters:    Size  Location     Type
  9292 ;;  WantedDutyCy    1    wreg     unsigned char 
  9293 ;; Auto vars:     Size  Location     Type
  9294 ;;  WantedDutyCy    1   55[COMRAM] unsigned char 
  9295 ;;  PWM_DutyCycl    2   56[COMRAM] unsigned short 
  9296 ;; Return value:  Size  Location     Type
  9297 ;;                  1    wreg      void 
  9298 ;; Registers used:
  9299 ;;		wreg, status,2, status,0, prodl, prodh, cstack
  9300 ;; Tracked objects:
  9301 ;;		On entry : 0/0
  9302 ;;		On exit  : 0/0
  9303 ;;		Unchanged: 0/0
  9304 ;; Data sizes:     COMRAM   BANK0   BANK1   BANK2   BANK3   BANK4   BANK5   BANK6   BANK7
  9305 ;;      Params:         0       0       0       0       0       0       0       0       0
  9306 ;;      Locals:         7       0       0       0       0       0       0       0       0
  9307 ;;      Temps:          2       0       0       0       0       0       0       0       0
  9308 ;;      Totals:         9       0       0       0       0       0       0       0       0
  9309 ;;Total ram usage:        9 bytes
  9310 ;; Hardware stack levels used:    1
  9311 ;; Hardware stack levels required when called:    1
  9312 ;; This function calls:
  9313 ;;		i2___flmul
  9314 ;;		i2___fltol
  9315 ;;		i2___xxtofl
  9316 ;; This function is called by:
  9317 ;;		_high_isr
  9318 ;;		i2_moverHomeY
  9319 ;; This function uses a non-reentrant model
  9320 ;;
  9321                           
  9322                           	psect	text51
  9323  002480                     __ptext51:
  9324                           	opt callstack 0
  9325  002480                     i2_PWM_DutyCycleCCP2:
  9326                           	opt callstack 21
  9327                           
  9328                           ;incstack = 0
  9329                           ;i2PWM_DutyCycleCCP2@WantedDutyCycle stored from wreg
  9330  002480  6E38               	movwf	i2PWM_DutyCycleCCP2@WantedDutyCycle^0,c
  9331  002482                     
  9332                           ;PWMCCP2.c: 18:     uint16_t PWMDutyValue;;PWMCCP2.c: 19:     PWMDutyValue = (WantedDuty
      +                          Cycle * 0.01)*1000;
  9333  002482  0E0A               	movlw	10
  9334  002484  6E13               	movwf	i2___flmul@a^0,c
  9335  002486  0ED7               	movlw	215
  9336  002488  6E14               	movwf	(i2___flmul@a+1)^0,c
  9337  00248A  0E23               	movlw	35
  9338  00248C  6E15               	movwf	(i2___flmul@a+2)^0,c
  9339  00248E  0E3C               	movlw	60
  9340  002490  6E16               	movwf	(i2___flmul@a+3)^0,c
  9341  002492  5038               	movf	i2PWM_DutyCycleCCP2@WantedDutyCycle^0,w,c
  9342  002494  6E01               	movwf	i2___xxtofl@val^0,c
  9343  002496  6A02               	clrf	(i2___xxtofl@val+1)^0,c
  9344  002498  6A03               	clrf	(i2___xxtofl@val+2)^0,c
  9345  00249A  6A04               	clrf	(i2___xxtofl@val+3)^0,c
  9346  00249C  0E01               	movlw	1
  9347  00249E  EC50  F00D         	call	i2___xxtofl
  9348  0024A2  C001  F00F         	movff	?i2___xxtofl,i2___flmul@b
  9349  0024A6  C002  F010         	movff	?i2___xxtofl+1,i2___flmul@b+1
  9350  0024AA  C003  F011         	movff	?i2___xxtofl+2,i2___flmul@b+2
  9351  0024AE  C004  F012         	movff	?i2___xxtofl+3,i2___flmul@b+3
  9352  0024B2  ECFA  F006         	call	i2___flmul	;wreg free
  9353  0024B6  C00F  F034         	movff	?i2___flmul,i2_PWM_DutyCycleCCP2$3016
  9354  0024BA  C010  F035         	movff	?i2___flmul+1,i2_PWM_DutyCycleCCP2$3016+1
  9355  0024BE  C011  F036         	movff	?i2___flmul+2,i2_PWM_DutyCycleCCP2$3016+2
  9356  0024C2  C012  F037         	movff	?i2___flmul+3,i2_PWM_DutyCycleCCP2$3016+3
  9357                           
  9358                           ;PWMCCP2.c: 18:     uint16_t PWMDutyValue;;PWMCCP2.c: 19:     PWMDutyValue = (WantedDuty
      +                          Cycle * 0.01)*1000;
  9359  0024C6  0E00               	movlw	0
  9360  0024C8  6E13               	movwf	i2___flmul@a^0,c
  9361  0024CA  0E00               	movlw	0
  9362  0024CC  6E14               	movwf	(i2___flmul@a+1)^0,c
  9363  0024CE  0E7A               	movlw	122
  9364  0024D0  6E15               	movwf	(i2___flmul@a+2)^0,c
  9365  0024D2  0E44               	movlw	68
  9366  0024D4  6E16               	movwf	(i2___flmul@a+3)^0,c
  9367  0024D6  C034  F00F         	movff	i2_PWM_DutyCycleCCP2$3016,i2___flmul@b
  9368  0024DA  C035  F010         	movff	i2_PWM_DutyCycleCCP2$3016+1,i2___flmul@b+1
  9369  0024DE  C036  F011         	movff	i2_PWM_DutyCycleCCP2$3016+2,i2___flmul@b+2
  9370  0024E2  C037  F012         	movff	i2_PWM_DutyCycleCCP2$3016+3,i2___flmul@b+3
  9371  0024E6  ECFA  F006         	call	i2___flmul	;wreg free
  9372  0024EA  C00F  F028         	movff	?i2___flmul,i2___fltol@f1
  9373  0024EE  C010  F029         	movff	?i2___flmul+1,i2___fltol@f1+1
  9374  0024F2  C011  F02A         	movff	?i2___flmul+2,i2___fltol@f1+2
  9375  0024F6  C012  F02B         	movff	?i2___flmul+3,i2___fltol@f1+3
  9376  0024FA  EC34  F00F         	call	i2___fltol	;wreg free
  9377  0024FE  C028  F039         	movff	?i2___fltol,i2PWM_DutyCycleCCP2@PWMDutyValue
  9378  002502  C029  F03A         	movff	?i2___fltol+1,i2PWM_DutyCycleCCP2@PWMDutyValue+1
  9379  002506                     
  9380                           ;PWMCCP2.c: 21:     CCP2CONbits.DC2B = (PWMDutyValue & 0x03);
  9381  002506  C039  F032         	movff	i2PWM_DutyCycleCCP2@PWMDutyValue,??i2_PWM_DutyCycleCCP2
  9382  00250A  0E03               	movlw	3
  9383  00250C  1632               	andwf	??i2_PWM_DutyCycleCCP2^0,f,c
  9384  00250E  3A32               	swapf	??i2_PWM_DutyCycleCCP2^0,f,c
  9385  002510  50BA               	movf	186,w,c	;volatile
  9386  002512  1832               	xorwf	??i2_PWM_DutyCycleCCP2^0,w,c
  9387  002514  0BCF               	andlw	-49
  9388  002516  1832               	xorwf	??i2_PWM_DutyCycleCCP2^0,w,c
  9389  002518  6EBA               	movwf	186,c	;volatile
  9390  00251A                     
  9391                           ;PWMCCP2.c: 22:     CCPR2L = ((PWMDutyValue >> 2)&0xFF);
  9392  00251A  C039  F032         	movff	i2PWM_DutyCycleCCP2@PWMDutyValue,??i2_PWM_DutyCycleCCP2
  9393  00251E  C03A  F033         	movff	i2PWM_DutyCycleCCP2@PWMDutyValue+1,??i2_PWM_DutyCycleCCP2+1
  9394  002522  90D8               	bcf	status,0,c
  9395  002524  3233               	rrcf	(??i2_PWM_DutyCycleCCP2+1)^0,f,c
  9396  002526  3232               	rrcf	??i2_PWM_DutyCycleCCP2^0,f,c
  9397  002528  90D8               	bcf	status,0,c
  9398  00252A  3233               	rrcf	(??i2_PWM_DutyCycleCCP2+1)^0,f,c
  9399  00252C  3232               	rrcf	??i2_PWM_DutyCycleCCP2^0,f,c
  9400  00252E  5032               	movf	??i2_PWM_DutyCycleCCP2^0,w,c
  9401  002530  6EBB               	movwf	187,c	;volatile
  9402  002532  0012               	return		;funcret
  9403  002534                     __end_ofi2_PWM_DutyCycleCCP2:
  9404                           	opt callstack 0
  9405                           
  9406 ;; *************** function i2_moverHomeX *****************
  9407 ;; Defined at:
  9408 ;;		line 84 in file "MotoresXYZ.c"
  9409 ;; Parameters:    Size  Location     Type
  9410 ;;		None
  9411 ;; Auto vars:     Size  Location     Type
  9412 ;;		None
  9413 ;; Return value:  Size  Location     Type
  9414 ;;                  1    wreg      void 
  9415 ;; Registers used:
  9416 ;;		wreg, status,2, status,0, prodl, prodh, cstack
  9417 ;; Tracked objects:
  9418 ;;		On entry : 0/0
  9419 ;;		On exit  : 0/0
  9420 ;;		Unchanged: 0/0
  9421 ;; Data sizes:     COMRAM   BANK0   BANK1   BANK2   BANK3   BANK4   BANK5   BANK6   BANK7
  9422 ;;      Params:         0       0       0       0       0       0       0       0       0
  9423 ;;      Locals:         0       0       0       0       0       0       0       0       0
  9424 ;;      Temps:          0       0       0       0       0       0       0       0       0
  9425 ;;      Totals:         0       0       0       0       0       0       0       0       0
  9426 ;;Total ram usage:        0 bytes
  9427 ;; Hardware stack levels used:    1
  9428 ;; Hardware stack levels required when called:    2
  9429 ;; This function calls:
  9430 ;;		i2_PWM_DutyCycleCCP1
  9431 ;; This function is called by:
  9432 ;;		_high_isr
  9433 ;; This function uses a non-reentrant model
  9434 ;;
  9435                           
  9436                           	psect	text52
  9437  002A7A                     __ptext52:
  9438                           	opt callstack 0
  9439  002A7A                     i2_moverHomeX:
  9440                           	opt callstack 21
  9441  002A7A                     
  9442                           ;MotoresXYZ.c: 85:     LATDbits.LATD2 = 0;
  9443  002A7A  948C               	bcf	140,2,c	;volatile
  9444  002A7C                     
  9445                           ;MotoresXYZ.c: 86:     destinoHomeX = 1;
  9446  002A7C  0E01               	movlw	1
  9447  002A7E  6E43               	movwf	_destinoHomeX^0,c
  9448  002A80                     
  9449                           ;MotoresXYZ.c: 88:     LATDbits.LATD3 = 0;
  9450  002A80  968C               	bcf	140,3,c	;volatile
  9451                           
  9452                           ;MotoresXYZ.c: 89:     sparcEnMovimientoX = 1;
  9453  002A82  0E01               	movlw	1
  9454  002A84  0100               	movlb	0	; () banked
  9455  002A86  6FDB               	movwf	_sparcEnMovimientoX& (0+255),b
  9456  002A88                     
  9457                           ; BSR set to: 0
  9458                           ;MotoresXYZ.c: 91:     PWM_DutyCycleCCP1(50);
  9459  002A88  0E32               	movlw	50
  9460  002A8A  EC9A  F012         	call	i2_PWM_DutyCycleCCP1
  9461  002A8E  0012               	return		;funcret
  9462  002A90                     __end_ofi2_moverHomeX:
  9463                           	opt callstack 0
  9464                           
  9465 ;; *************** function i2_PWM_DutyCycleCCP1 *****************
  9466 ;; Defined at:
  9467 ;;		line 17 in file "PWMCCP1.c"
  9468 ;; Parameters:    Size  Location     Type
  9469 ;;  WantedDutyCy    1    wreg     unsigned char 
  9470 ;; Auto vars:     Size  Location     Type
  9471 ;;  WantedDutyCy    1   55[COMRAM] unsigned char 
  9472 ;;  PWM_DutyCycl    2   56[COMRAM] unsigned short 
  9473 ;; Return value:  Size  Location     Type
  9474 ;;                  1    wreg      void 
  9475 ;; Registers used:
  9476 ;;		wreg, status,2, status,0, prodl, prodh, cstack
  9477 ;; Tracked objects:
  9478 ;;		On entry : 0/0
  9479 ;;		On exit  : 0/0
  9480 ;;		Unchanged: 0/0
  9481 ;; Data sizes:     COMRAM   BANK0   BANK1   BANK2   BANK3   BANK4   BANK5   BANK6   BANK7
  9482 ;;      Params:         0       0       0       0       0       0       0       0       0
  9483 ;;      Locals:         7       0       0       0       0       0       0       0       0
  9484 ;;      Temps:          2       0       0       0       0       0       0       0       0
  9485 ;;      Totals:         9       0       0       0       0       0       0       0       0
  9486 ;;Total ram usage:        9 bytes
  9487 ;; Hardware stack levels used:    1
  9488 ;; Hardware stack levels required when called:    1
  9489 ;; This function calls:
  9490 ;;		i2___flmul
  9491 ;;		i2___fltol
  9492 ;;		i2___xxtofl
  9493 ;; This function is called by:
  9494 ;;		_high_isr
  9495 ;;		i2_moverHomeX
  9496 ;; This function uses a non-reentrant model
  9497 ;;
  9498                           
  9499                           	psect	text53
  9500  002534                     __ptext53:
  9501                           	opt callstack 0
  9502  002534                     i2_PWM_DutyCycleCCP1:
  9503                           	opt callstack 21
  9504                           
  9505                           ;incstack = 0
  9506                           ;i2PWM_DutyCycleCCP1@WantedDutyCycle stored from wreg
  9507  002534  6E38               	movwf	i2PWM_DutyCycleCCP1@WantedDutyCycle^0,c
  9508  002536                     
  9509                           ;PWMCCP1.c: 19:     uint16_t PWMDutyValue;;PWMCCP1.c: 20:     PWMDutyValue = (WantedDuty
      +                          Cycle * 0.01)*1000;
  9510  002536  0E0A               	movlw	10
  9511  002538  6E13               	movwf	i2___flmul@a^0,c
  9512  00253A  0ED7               	movlw	215
  9513  00253C  6E14               	movwf	(i2___flmul@a+1)^0,c
  9514  00253E  0E23               	movlw	35
  9515  002540  6E15               	movwf	(i2___flmul@a+2)^0,c
  9516  002542  0E3C               	movlw	60
  9517  002544  6E16               	movwf	(i2___flmul@a+3)^0,c
  9518  002546  5038               	movf	i2PWM_DutyCycleCCP1@WantedDutyCycle^0,w,c
  9519  002548  6E01               	movwf	i2___xxtofl@val^0,c
  9520  00254A  6A02               	clrf	(i2___xxtofl@val+1)^0,c
  9521  00254C  6A03               	clrf	(i2___xxtofl@val+2)^0,c
  9522  00254E  6A04               	clrf	(i2___xxtofl@val+3)^0,c
  9523  002550  0E01               	movlw	1
  9524  002552  EC50  F00D         	call	i2___xxtofl
  9525  002556  C001  F00F         	movff	?i2___xxtofl,i2___flmul@b
  9526  00255A  C002  F010         	movff	?i2___xxtofl+1,i2___flmul@b+1
  9527  00255E  C003  F011         	movff	?i2___xxtofl+2,i2___flmul@b+2
  9528  002562  C004  F012         	movff	?i2___xxtofl+3,i2___flmul@b+3
  9529  002566  ECFA  F006         	call	i2___flmul	;wreg free
  9530  00256A  C00F  F034         	movff	?i2___flmul,i2_PWM_DutyCycleCCP1$3017
  9531  00256E  C010  F035         	movff	?i2___flmul+1,i2_PWM_DutyCycleCCP1$3017+1
  9532  002572  C011  F036         	movff	?i2___flmul+2,i2_PWM_DutyCycleCCP1$3017+2
  9533  002576  C012  F037         	movff	?i2___flmul+3,i2_PWM_DutyCycleCCP1$3017+3
  9534                           
  9535                           ;PWMCCP1.c: 19:     uint16_t PWMDutyValue;;PWMCCP1.c: 20:     PWMDutyValue = (WantedDuty
      +                          Cycle * 0.01)*1000;
  9536  00257A  0E00               	movlw	0
  9537  00257C  6E13               	movwf	i2___flmul@a^0,c
  9538  00257E  0E00               	movlw	0
  9539  002580  6E14               	movwf	(i2___flmul@a+1)^0,c
  9540  002582  0E7A               	movlw	122
  9541  002584  6E15               	movwf	(i2___flmul@a+2)^0,c
  9542  002586  0E44               	movlw	68
  9543  002588  6E16               	movwf	(i2___flmul@a+3)^0,c
  9544  00258A  C034  F00F         	movff	i2_PWM_DutyCycleCCP1$3017,i2___flmul@b
  9545  00258E  C035  F010         	movff	i2_PWM_DutyCycleCCP1$3017+1,i2___flmul@b+1
  9546  002592  C036  F011         	movff	i2_PWM_DutyCycleCCP1$3017+2,i2___flmul@b+2
  9547  002596  C037  F012         	movff	i2_PWM_DutyCycleCCP1$3017+3,i2___flmul@b+3
  9548  00259A  ECFA  F006         	call	i2___flmul	;wreg free
  9549  00259E  C00F  F028         	movff	?i2___flmul,i2___fltol@f1
  9550  0025A2  C010  F029         	movff	?i2___flmul+1,i2___fltol@f1+1
  9551  0025A6  C011  F02A         	movff	?i2___flmul+2,i2___fltol@f1+2
  9552  0025AA  C012  F02B         	movff	?i2___flmul+3,i2___fltol@f1+3
  9553  0025AE  EC34  F00F         	call	i2___fltol	;wreg free
  9554  0025B2  C028  F039         	movff	?i2___fltol,i2PWM_DutyCycleCCP1@PWMDutyValue
  9555  0025B6  C029  F03A         	movff	?i2___fltol+1,i2PWM_DutyCycleCCP1@PWMDutyValue+1
  9556  0025BA                     
  9557                           ;PWMCCP1.c: 22:     CCP1CONbits.DC1B = (PWMDutyValue & 0x03);
  9558  0025BA  C039  F032         	movff	i2PWM_DutyCycleCCP1@PWMDutyValue,??i2_PWM_DutyCycleCCP1
  9559  0025BE  0E03               	movlw	3
  9560  0025C0  1632               	andwf	??i2_PWM_DutyCycleCCP1^0,f,c
  9561  0025C2  3A32               	swapf	??i2_PWM_DutyCycleCCP1^0,f,c
  9562  0025C4  50BD               	movf	189,w,c	;volatile
  9563  0025C6  1832               	xorwf	??i2_PWM_DutyCycleCCP1^0,w,c
  9564  0025C8  0BCF               	andlw	-49
  9565  0025CA  1832               	xorwf	??i2_PWM_DutyCycleCCP1^0,w,c
  9566  0025CC  6EBD               	movwf	189,c	;volatile
  9567  0025CE                     
  9568                           ;PWMCCP1.c: 23:     CCPR1L = ((PWMDutyValue >> 2)&0xFF);
  9569  0025CE  C039  F032         	movff	i2PWM_DutyCycleCCP1@PWMDutyValue,??i2_PWM_DutyCycleCCP1
  9570  0025D2  C03A  F033         	movff	i2PWM_DutyCycleCCP1@PWMDutyValue+1,??i2_PWM_DutyCycleCCP1+1
  9571  0025D6  90D8               	bcf	status,0,c
  9572  0025D8  3233               	rrcf	(??i2_PWM_DutyCycleCCP1+1)^0,f,c
  9573  0025DA  3232               	rrcf	??i2_PWM_DutyCycleCCP1^0,f,c
  9574  0025DC  90D8               	bcf	status,0,c
  9575  0025DE  3233               	rrcf	(??i2_PWM_DutyCycleCCP1+1)^0,f,c
  9576  0025E0  3232               	rrcf	??i2_PWM_DutyCycleCCP1^0,f,c
  9577  0025E2  5032               	movf	??i2_PWM_DutyCycleCCP1^0,w,c
  9578  0025E4  6EBE               	movwf	190,c	;volatile
  9579  0025E6  0012               	return		;funcret
  9580  0025E8                     __end_ofi2_PWM_DutyCycleCCP1:
  9581                           	opt callstack 0
  9582                           
  9583 ;; *************** function i2___xxtofl *****************
  9584 ;; Defined at:
  9585 ;;		line 10 in file "C:\Program Files (x86)\Microchip\xc8\v2.10\pic\sources\c99\common\xxtofl.c"
  9586 ;; Parameters:    Size  Location     Type
  9587 ;;  sign            1    wreg     unsigned char 
  9588 ;;  val             4    0[COMRAM] long 
  9589 ;; Auto vars:     Size  Location     Type
  9590 ;;  sign            1    8[COMRAM] unsigned char 
  9591 ;;  __xxtofl        4   10[COMRAM] unsigned long 
  9592 ;;  __xxtofl        1    9[COMRAM] unsigned char 
  9593 ;; Return value:  Size  Location     Type
  9594 ;;                  4    0[COMRAM] unsigned char 
  9595 ;; Registers used:
  9596 ;;		wreg, status,2, status,0
  9597 ;; Tracked objects:
  9598 ;;		On entry : 0/0
  9599 ;;		On exit  : 0/0
  9600 ;;		Unchanged: 0/0
  9601 ;; Data sizes:     COMRAM   BANK0   BANK1   BANK2   BANK3   BANK4   BANK5   BANK6   BANK7
  9602 ;;      Params:         4       0       0       0       0       0       0       0       0
  9603 ;;      Locals:         6       0       0       0       0       0       0       0       0
  9604 ;;      Temps:          4       0       0       0       0       0       0       0       0
  9605 ;;      Totals:        14       0       0       0       0       0       0       0       0
  9606 ;;Total ram usage:       14 bytes
  9607 ;; Hardware stack levels used:    1
  9608 ;; This function calls:
  9609 ;;		Nothing
  9610 ;; This function is called by:
  9611 ;;		i2_PWM_DutyCycleCCP2
  9612 ;;		i2_PWM_DutyCycleCCP1
  9613 ;; This function uses a non-reentrant model
  9614 ;;
  9615                           
  9616                           	psect	text54
  9617  001AA0                     __ptext54:
  9618                           	opt callstack 0
  9619  001AA0                     i2___xxtofl:
  9620                           	opt callstack 21
  9621                           
  9622                           ;incstack = 0
  9623                           ;i2___xxtofl@sign stored from wreg
  9624  001AA0  6E09               	movwf	i2___xxtofl@sign^0,c
  9625  001AA2  5009               	movf	i2___xxtofl@sign^0,w,c
  9626  001AA4  B4D8               	btfsc	status,2,c
  9627  001AA6  EF57  F00D         	goto	i2u287_41
  9628  001AAA  EF59  F00D         	goto	i2u287_40
  9629  001AAE                     i2u287_41:
  9630  001AAE  EF7B  F00D         	goto	i2l1322
  9631  001AB2                     i2u287_40:
  9632  001AB2  BE04               	btfsc	(i2___xxtofl@val+3)^0,7,c
  9633  001AB4  EF60  F00D         	goto	i2u288_40
  9634  001AB8  EF5E  F00D         	goto	i2u288_41
  9635  001ABC                     i2u288_41:
  9636  001ABC  EF7B  F00D         	goto	i2l1322
  9637  001AC0                     i2u288_40:
  9638  001AC0  C001  F005         	movff	i2___xxtofl@val,??i2___xxtofl
  9639  001AC4  C002  F006         	movff	i2___xxtofl@val+1,??i2___xxtofl+1
  9640  001AC8  C003  F007         	movff	i2___xxtofl@val+2,??i2___xxtofl+2
  9641  001ACC  C004  F008         	movff	i2___xxtofl@val+3,??i2___xxtofl+3
  9642  001AD0  1E05               	comf	??i2___xxtofl^0,f,c
  9643  001AD2  1E06               	comf	(??i2___xxtofl+1)^0,f,c
  9644  001AD4  1E07               	comf	(??i2___xxtofl+2)^0,f,c
  9645  001AD6  1E08               	comf	(??i2___xxtofl+3)^0,f,c
  9646  001AD8  2A05               	incf	??i2___xxtofl^0,f,c
  9647  001ADA  0E00               	movlw	0
  9648  001ADC  2206               	addwfc	(??i2___xxtofl+1)^0,f,c
  9649  001ADE  2207               	addwfc	(??i2___xxtofl+2)^0,f,c
  9650  001AE0  2208               	addwfc	(??i2___xxtofl+3)^0,f,c
  9651  001AE2  C005  F00B         	movff	??i2___xxtofl,i2___xxtofl@arg
  9652  001AE6  C006  F00C         	movff	??i2___xxtofl+1,i2___xxtofl@arg+1
  9653  001AEA  C007  F00D         	movff	??i2___xxtofl+2,i2___xxtofl@arg+2
  9654  001AEE  C008  F00E         	movff	??i2___xxtofl+3,i2___xxtofl@arg+3
  9655  001AF2  EF83  F00D         	goto	i2l3319
  9656  001AF6                     i2l1322:
  9657  001AF6  C001  F00B         	movff	i2___xxtofl@val,i2___xxtofl@arg
  9658  001AFA  C002  F00C         	movff	i2___xxtofl@val+1,i2___xxtofl@arg+1
  9659  001AFE  C003  F00D         	movff	i2___xxtofl@val+2,i2___xxtofl@arg+2
  9660  001B02  C004  F00E         	movff	i2___xxtofl@val+3,i2___xxtofl@arg+3
  9661  001B06                     i2l3319:
  9662  001B06  5001               	movf	i2___xxtofl@val^0,w,c
  9663  001B08  1002               	iorwf	(i2___xxtofl@val+1)^0,w,c
  9664  001B0A  1003               	iorwf	(i2___xxtofl@val+2)^0,w,c
  9665  001B0C  1004               	iorwf	(i2___xxtofl@val+3)^0,w,c
  9666  001B0E  A4D8               	btfss	status,2,c
  9667  001B10  EF8C  F00D         	goto	i2u289_41
  9668  001B14  EF8E  F00D         	goto	i2u289_40
  9669  001B18                     i2u289_41:
  9670  001B18  EF98  F00D         	goto	i2l3325
  9671  001B1C                     i2u289_40:
  9672  001B1C  0E00               	movlw	0
  9673  001B1E  6E01               	movwf	?i2___xxtofl^0,c
  9674  001B20  0E00               	movlw	0
  9675  001B22  6E02               	movwf	(?i2___xxtofl+1)^0,c
  9676  001B24  0E00               	movlw	0
  9677  001B26  6E03               	movwf	(?i2___xxtofl+2)^0,c
  9678  001B28  0E00               	movlw	0
  9679  001B2A  6E04               	movwf	(?i2___xxtofl+3)^0,c
  9680  001B2C  EF29  F00E         	goto	i2l1325
  9681  001B30                     i2l3325:
  9682  001B30  0E96               	movlw	150
  9683  001B32  6E0A               	movwf	i2___xxtofl@exp^0,c
  9684  001B34  EFA2  F00D         	goto	i2l3329
  9685  001B38                     i2l3327:
  9686  001B38  2A0A               	incf	i2___xxtofl@exp^0,f,c
  9687  001B3A  90D8               	bcf	status,0,c
  9688  001B3C  320E               	rrcf	(i2___xxtofl@arg+3)^0,f,c
  9689  001B3E  320D               	rrcf	(i2___xxtofl@arg+2)^0,f,c
  9690  001B40  320C               	rrcf	(i2___xxtofl@arg+1)^0,f,c
  9691  001B42  320B               	rrcf	i2___xxtofl@arg^0,f,c
  9692  001B44                     i2l3329:
  9693  001B44  0E00               	movlw	0
  9694  001B46  140B               	andwf	i2___xxtofl@arg^0,w,c
  9695  001B48  6E05               	movwf	??i2___xxtofl^0,c
  9696  001B4A  0E00               	movlw	0
  9697  001B4C  140C               	andwf	(i2___xxtofl@arg+1)^0,w,c
  9698  001B4E  6E06               	movwf	(??i2___xxtofl+1)^0,c
  9699  001B50  0E00               	movlw	0
  9700  001B52  140D               	andwf	(i2___xxtofl@arg+2)^0,w,c
  9701  001B54  6E07               	movwf	(??i2___xxtofl+2)^0,c
  9702  001B56  0EFE               	movlw	254
  9703  001B58  140E               	andwf	(i2___xxtofl@arg+3)^0,w,c
  9704  001B5A  6E08               	movwf	(??i2___xxtofl+3)^0,c
  9705  001B5C  5005               	movf	??i2___xxtofl^0,w,c
  9706  001B5E  1006               	iorwf	(??i2___xxtofl+1)^0,w,c
  9707  001B60  1007               	iorwf	(??i2___xxtofl+2)^0,w,c
  9708  001B62  1008               	iorwf	(??i2___xxtofl+3)^0,w,c
  9709  001B64  A4D8               	btfss	status,2,c
  9710  001B66  EFB7  F00D         	goto	i2u290_41
  9711  001B6A  EFB9  F00D         	goto	i2u290_40
  9712  001B6E                     i2u290_41:
  9713  001B6E  EF9C  F00D         	goto	i2l3327
  9714  001B72                     i2u290_40:
  9715  001B72  EFC7  F00D         	goto	i2l1329
  9716  001B76                     i2l3331:
  9717  001B76  2A0A               	incf	i2___xxtofl@exp^0,f,c
  9718  001B78  0E01               	movlw	1
  9719  001B7A  260B               	addwf	i2___xxtofl@arg^0,f,c
  9720  001B7C  0E00               	movlw	0
  9721  001B7E  220C               	addwfc	(i2___xxtofl@arg+1)^0,f,c
  9722  001B80  220D               	addwfc	(i2___xxtofl@arg+2)^0,f,c
  9723  001B82  220E               	addwfc	(i2___xxtofl@arg+3)^0,f,c
  9724  001B84  90D8               	bcf	status,0,c
  9725  001B86  320E               	rrcf	(i2___xxtofl@arg+3)^0,f,c
  9726  001B88  320D               	rrcf	(i2___xxtofl@arg+2)^0,f,c
  9727  001B8A  320C               	rrcf	(i2___xxtofl@arg+1)^0,f,c
  9728  001B8C  320B               	rrcf	i2___xxtofl@arg^0,f,c
  9729  001B8E                     i2l1329:
  9730  001B8E  0E00               	movlw	0
  9731  001B90  140B               	andwf	i2___xxtofl@arg^0,w,c
  9732  001B92  6E05               	movwf	??i2___xxtofl^0,c
  9733  001B94  0E00               	movlw	0
  9734  001B96  140C               	andwf	(i2___xxtofl@arg+1)^0,w,c
  9735  001B98  6E06               	movwf	(??i2___xxtofl+1)^0,c
  9736  001B9A  0E00               	movlw	0
  9737  001B9C  140D               	andwf	(i2___xxtofl@arg+2)^0,w,c
  9738  001B9E  6E07               	movwf	(??i2___xxtofl+2)^0,c
  9739  001BA0  0EFF               	movlw	255
  9740  001BA2  140E               	andwf	(i2___xxtofl@arg+3)^0,w,c
  9741  001BA4  6E08               	movwf	(??i2___xxtofl+3)^0,c
  9742  001BA6  5005               	movf	??i2___xxtofl^0,w,c
  9743  001BA8  1006               	iorwf	(??i2___xxtofl+1)^0,w,c
  9744  001BAA  1007               	iorwf	(??i2___xxtofl+2)^0,w,c
  9745  001BAC  1008               	iorwf	(??i2___xxtofl+3)^0,w,c
  9746  001BAE  A4D8               	btfss	status,2,c
  9747  001BB0  EFDC  F00D         	goto	i2u291_41
  9748  001BB4  EFDE  F00D         	goto	i2u291_40
  9749  001BB8                     i2u291_41:
  9750  001BB8  EFBB  F00D         	goto	i2l3331
  9751  001BBC                     i2u291_40:
  9752  001BBC  EFE6  F00D         	goto	i2l3339
  9753  001BC0                     i2l3337:
  9754  001BC0  060A               	decf	i2___xxtofl@exp^0,f,c
  9755  001BC2  90D8               	bcf	status,0,c
  9756  001BC4  360B               	rlcf	i2___xxtofl@arg^0,f,c
  9757  001BC6  360C               	rlcf	(i2___xxtofl@arg+1)^0,f,c
  9758  001BC8  360D               	rlcf	(i2___xxtofl@arg+2)^0,f,c
  9759  001BCA  360E               	rlcf	(i2___xxtofl@arg+3)^0,f,c
  9760  001BCC                     i2l3339:
  9761  001BCC  BE0D               	btfsc	(i2___xxtofl@arg+2)^0,7,c
  9762  001BCE  EFEB  F00D         	goto	i2u292_41
  9763  001BD2  EFED  F00D         	goto	i2u292_40
  9764  001BD6                     i2u292_41:
  9765  001BD6  EFF5  F00D         	goto	i2l1336
  9766  001BDA                     i2u292_40:
  9767  001BDA  0E02               	movlw	2
  9768  001BDC  600A               	cpfslt	i2___xxtofl@exp^0,c
  9769  001BDE  EFF3  F00D         	goto	i2u293_41
  9770  001BE2  EFF5  F00D         	goto	i2u293_40
  9771  001BE6                     i2u293_41:
  9772  001BE6  EFE0  F00D         	goto	i2l3337
  9773  001BEA                     i2u293_40:
  9774  001BEA                     i2l1336:
  9775  001BEA  B00A               	btfsc	i2___xxtofl@exp^0,0,c
  9776  001BEC  EFFA  F00D         	goto	i2u294_41
  9777  001BF0  EFFC  F00D         	goto	i2u294_40
  9778  001BF4                     i2u294_41:
  9779  001BF4  EFFD  F00D         	goto	i2l3345
  9780  001BF8                     i2u294_40:
  9781  001BF8  9E0D               	bcf	(i2___xxtofl@arg+2)^0,7,c
  9782  001BFA                     i2l3345:
  9783  001BFA  90D8               	bcf	status,0,c
  9784  001BFC  320A               	rrcf	i2___xxtofl@exp^0,f,c
  9785  001BFE  C00A  F005         	movff	i2___xxtofl@exp,??i2___xxtofl
  9786  001C02  6A06               	clrf	(??i2___xxtofl+1)^0,c
  9787  001C04  6A07               	clrf	(??i2___xxtofl+2)^0,c
  9788  001C06  6A08               	clrf	(??i2___xxtofl+3)^0,c
  9789  001C08  C005  F008         	movff	??i2___xxtofl,??i2___xxtofl+3
  9790  001C0C  6A07               	clrf	(??i2___xxtofl+2)^0,c
  9791  001C0E  6A06               	clrf	(??i2___xxtofl+1)^0,c
  9792  001C10  6A05               	clrf	??i2___xxtofl^0,c
  9793  001C12  5005               	movf	??i2___xxtofl^0,w,c
  9794  001C14  120B               	iorwf	i2___xxtofl@arg^0,f,c
  9795  001C16  5006               	movf	(??i2___xxtofl+1)^0,w,c
  9796  001C18  120C               	iorwf	(i2___xxtofl@arg+1)^0,f,c
  9797  001C1A  5007               	movf	(??i2___xxtofl+2)^0,w,c
  9798  001C1C  120D               	iorwf	(i2___xxtofl@arg+2)^0,f,c
  9799  001C1E  5008               	movf	(??i2___xxtofl+3)^0,w,c
  9800  001C20  120E               	iorwf	(i2___xxtofl@arg+3)^0,f,c
  9801  001C22  5009               	movf	i2___xxtofl@sign^0,w,c
  9802  001C24  B4D8               	btfsc	status,2,c
  9803  001C26  EF17  F00E         	goto	i2u295_41
  9804  001C2A  EF19  F00E         	goto	i2u295_40
  9805  001C2E                     i2u295_41:
  9806  001C2E  EF21  F00E         	goto	i2l3355
  9807  001C32                     i2u295_40:
  9808  001C32  BE04               	btfsc	(i2___xxtofl@val+3)^0,7,c
  9809  001C34  EF20  F00E         	goto	i2u296_40
  9810  001C38  EF1E  F00E         	goto	i2u296_41
  9811  001C3C                     i2u296_41:
  9812  001C3C  EF21  F00E         	goto	i2l3355
  9813  001C40                     i2u296_40:
  9814  001C40  8E0E               	bsf	(i2___xxtofl@arg+3)^0,7,c
  9815  001C42                     i2l3355:
  9816  001C42  C00B  F001         	movff	i2___xxtofl@arg,?i2___xxtofl
  9817  001C46  C00C  F002         	movff	i2___xxtofl@arg+1,?i2___xxtofl+1
  9818  001C4A  C00D  F003         	movff	i2___xxtofl@arg+2,?i2___xxtofl+2
  9819  001C4E  C00E  F004         	movff	i2___xxtofl@arg+3,?i2___xxtofl+3
  9820  001C52                     i2l1325:
  9821  001C52  0012               	return		;funcret
  9822  001C54                     __end_ofi2___xxtofl:
  9823                           	opt callstack 0
  9824                           
  9825 ;; *************** function i2___fltol *****************
  9826 ;; Defined at:
  9827 ;;		line 43 in file "C:\Program Files (x86)\Microchip\xc8\v2.10\pic\sources\c99\common\fltol.c"
  9828 ;; Parameters:    Size  Location     Type
  9829 ;;  f1              4   39[COMRAM] unsigned char 
  9830 ;; Auto vars:     Size  Location     Type
  9831 ;;  __fltol         1   48[COMRAM] unsigned char 
  9832 ;;  __fltol         1   47[COMRAM] unsigned char 
  9833 ;; Return value:  Size  Location     Type
  9834 ;;                  4   39[COMRAM] long 
  9835 ;; Registers used:
  9836 ;;		wreg, status,2, status,0
  9837 ;; Tracked objects:
  9838 ;;		On entry : 0/0
  9839 ;;		On exit  : 0/0
  9840 ;;		Unchanged: 0/0
  9841 ;; Data sizes:     COMRAM   BANK0   BANK1   BANK2   BANK3   BANK4   BANK5   BANK6   BANK7
  9842 ;;      Params:         4       0       0       0       0       0       0       0       0
  9843 ;;      Locals:         2       0       0       0       0       0       0       0       0
  9844 ;;      Temps:          4       0       0       0       0       0       0       0       0
  9845 ;;      Totals:        10       0       0       0       0       0       0       0       0
  9846 ;;Total ram usage:       10 bytes
  9847 ;; Hardware stack levels used:    1
  9848 ;; This function calls:
  9849 ;;		Nothing
  9850 ;; This function is called by:
  9851 ;;		i2_PWM_DutyCycleCCP2
  9852 ;;		i2_PWM_DutyCycleCCP1
  9853 ;; This function uses a non-reentrant model
  9854 ;;
  9855                           
  9856                           	psect	text55
  9857  001E68                     __ptext55:
  9858                           	opt callstack 0
  9859  001E68                     i2___fltol:
  9860                           	opt callstack 21
  9861  001E68  342A               	rlcf	(i2___fltol@f1+2)^0,w,c
  9862  001E6A  342B               	rlcf	(i2___fltol@f1+3)^0,w,c
  9863  001E6C  6E31               	movwf	i2___fltol@exp1^0,c
  9864  001E6E  5031               	movf	i2___fltol@exp1^0,w,c
  9865  001E70  A4D8               	btfss	status,2,c
  9866  001E72  EF3D  F00F         	goto	i2u261_41
  9867  001E76  EF3F  F00F         	goto	i2u261_40
  9868  001E7A                     i2u261_41:
  9869  001E7A  EF49  F00F         	goto	i2l3145
  9870  001E7E                     i2u261_40:
  9871  001E7E                     i2l3141:
  9872  001E7E  0E00               	movlw	0
  9873  001E80  6E28               	movwf	?i2___fltol^0,c
  9874  001E82  0E00               	movlw	0
  9875  001E84  6E29               	movwf	(?i2___fltol+1)^0,c
  9876  001E86  0E00               	movlw	0
  9877  001E88  6E2A               	movwf	(?i2___fltol+2)^0,c
  9878  001E8A  0E00               	movlw	0
  9879  001E8C  6E2B               	movwf	(?i2___fltol+3)^0,c
  9880  001E8E  EFB6  F00F         	goto	i2l964
  9881  001E92                     i2l3145:
  9882  001E92  C028  F02C         	movff	i2___fltol@f1,??i2___fltol
  9883  001E96  C029  F02D         	movff	i2___fltol@f1+1,??i2___fltol+1
  9884  001E9A  C02A  F02E         	movff	i2___fltol@f1+2,??i2___fltol+2
  9885  001E9E  C02B  F02F         	movff	i2___fltol@f1+3,??i2___fltol+3
  9886  001EA2  0E20               	movlw	32
  9887  001EA4  EF59  F00F         	goto	i2u262_40
  9888  001EA8                     i2u262_45:
  9889  001EA8  90D8               	bcf	status,0,c
  9890  001EAA  322F               	rrcf	(??i2___fltol+3)^0,f,c
  9891  001EAC  322E               	rrcf	(??i2___fltol+2)^0,f,c
  9892  001EAE  322D               	rrcf	(??i2___fltol+1)^0,f,c
  9893  001EB0  322C               	rrcf	??i2___fltol^0,f,c
  9894  001EB2                     i2u262_40:
  9895  001EB2  2EE8               	decfsz	wreg,f,c
  9896  001EB4  EF54  F00F         	goto	i2u262_45
  9897  001EB8  502C               	movf	??i2___fltol^0,w,c
  9898  001EBA  6E30               	movwf	i2___fltol@sign1^0,c
  9899  001EBC  8E2A               	bsf	(i2___fltol@f1+2)^0,7,c
  9900  001EBE  0EFF               	movlw	255
  9901  001EC0  1628               	andwf	i2___fltol@f1^0,f,c
  9902  001EC2  0EFF               	movlw	255
  9903  001EC4  1629               	andwf	(i2___fltol@f1+1)^0,f,c
  9904  001EC6  0EFF               	movlw	255
  9905  001EC8  162A               	andwf	(i2___fltol@f1+2)^0,f,c
  9906  001ECA  0E00               	movlw	0
  9907  001ECC  162B               	andwf	(i2___fltol@f1+3)^0,f,c
  9908  001ECE  0E96               	movlw	150
  9909  001ED0  5E31               	subwf	i2___fltol@exp1^0,f,c
  9910  001ED2  BE31               	btfsc	i2___fltol@exp1^0,7,c
  9911  001ED4  EF70  F00F         	goto	i2u263_40
  9912  001ED8  EF6E  F00F         	goto	i2u263_41
  9913  001EDC                     i2u263_41:
  9914  001EDC  EF86  F00F         	goto	i2l3165
  9915  001EE0                     i2u263_40:
  9916  001EE0  5031               	movf	i2___fltol@exp1^0,w,c
  9917  001EE2  0A80               	xorlw	128
  9918  001EE4  0F97               	addlw	151
  9919  001EE6  B0D8               	btfsc	status,0,c
  9920  001EE8  EF78  F00F         	goto	i2u264_41
  9921  001EEC  EF7A  F00F         	goto	i2u264_40
  9922  001EF0                     i2u264_41:
  9923  001EF0  EF7C  F00F         	goto	i2l3161
  9924  001EF4                     i2u264_40:
  9925  001EF4  EF3F  F00F         	goto	i2l3141
  9926  001EF8                     i2l3161:
  9927  001EF8  90D8               	bcf	status,0,c
  9928  001EFA  322B               	rrcf	(i2___fltol@f1+3)^0,f,c
  9929  001EFC  322A               	rrcf	(i2___fltol@f1+2)^0,f,c
  9930  001EFE  3229               	rrcf	(i2___fltol@f1+1)^0,f,c
  9931  001F00  3228               	rrcf	i2___fltol@f1^0,f,c
  9932  001F02  3E31               	incfsz	i2___fltol@exp1^0,f,c
  9933  001F04  EF7C  F00F         	goto	i2l3161
  9934  001F08  EF9E  F00F         	goto	i2l3175
  9935  001F0C                     i2l3165:
  9936  001F0C  0E1F               	movlw	31
  9937  001F0E  6431               	cpfsgt	i2___fltol@exp1^0,c
  9938  001F10  EF8C  F00F         	goto	i2u265_41
  9939  001F14  EF8E  F00F         	goto	i2u265_40
  9940  001F18                     i2u265_41:
  9941  001F18  EF96  F00F         	goto	i2l3173
  9942  001F1C                     i2u265_40:
  9943  001F1C  EF3F  F00F         	goto	i2l3141
  9944  001F20                     i2l3171:
  9945  001F20  90D8               	bcf	status,0,c
  9946  001F22  3628               	rlcf	i2___fltol@f1^0,f,c
  9947  001F24  3629               	rlcf	(i2___fltol@f1+1)^0,f,c
  9948  001F26  362A               	rlcf	(i2___fltol@f1+2)^0,f,c
  9949  001F28  362B               	rlcf	(i2___fltol@f1+3)^0,f,c
  9950  001F2A  0631               	decf	i2___fltol@exp1^0,f,c
  9951  001F2C                     i2l3173:
  9952  001F2C  5031               	movf	i2___fltol@exp1^0,w,c
  9953  001F2E  A4D8               	btfss	status,2,c
  9954  001F30  EF9C  F00F         	goto	i2u266_41
  9955  001F34  EF9E  F00F         	goto	i2u266_40
  9956  001F38                     i2u266_41:
  9957  001F38  EF90  F00F         	goto	i2l3171
  9958  001F3C                     i2u266_40:
  9959  001F3C                     i2l3175:
  9960  001F3C  5030               	movf	i2___fltol@sign1^0,w,c
  9961  001F3E  B4D8               	btfsc	status,2,c
  9962  001F40  EFA4  F00F         	goto	i2u267_41
  9963  001F44  EFA6  F00F         	goto	i2u267_40
  9964  001F48                     i2u267_41:
  9965  001F48  EFAE  F00F         	goto	i2l3179
  9966  001F4C                     i2u267_40:
  9967  001F4C  1E2B               	comf	(i2___fltol@f1+3)^0,f,c
  9968  001F4E  1E2A               	comf	(i2___fltol@f1+2)^0,f,c
  9969  001F50  1E29               	comf	(i2___fltol@f1+1)^0,f,c
  9970  001F52  6C28               	negf	i2___fltol@f1^0,c
  9971  001F54  0E00               	movlw	0
  9972  001F56  2229               	addwfc	(i2___fltol@f1+1)^0,f,c
  9973  001F58  222A               	addwfc	(i2___fltol@f1+2)^0,f,c
  9974  001F5A  222B               	addwfc	(i2___fltol@f1+3)^0,f,c
  9975  001F5C                     i2l3179:
  9976  001F5C  C028  F028         	movff	i2___fltol@f1,?i2___fltol
  9977  001F60  C029  F029         	movff	i2___fltol@f1+1,?i2___fltol+1
  9978  001F64  C02A  F02A         	movff	i2___fltol@f1+2,?i2___fltol+2
  9979  001F68  C02B  F02B         	movff	i2___fltol@f1+3,?i2___fltol+3
  9980  001F6C                     i2l964:
  9981  001F6C  0012               	return		;funcret
  9982  001F6E                     __end_ofi2___fltol:
  9983                           	opt callstack 0
  9984                           
  9985 ;; *************** function i2___flmul *****************
  9986 ;; Defined at:
  9987 ;;		line 8 in file "C:\Program Files (x86)\Microchip\xc8\v2.10\pic\sources\c99\common\sprcmul.c"
  9988 ;; Parameters:    Size  Location     Type
  9989 ;;  b               4   14[COMRAM] long 
  9990 ;;  a               4   18[COMRAM] long 
  9991 ;; Auto vars:     Size  Location     Type
  9992 ;;  __flmul         4   33[COMRAM] struct .
  9993 ;;  __flmul         4   27[COMRAM] unsigned long 
  9994 ;;  __flmul         2   37[COMRAM] struct .
  9995 ;;  __flmul         1   32[COMRAM] unsigned char 
  9996 ;;  __flmul         1   31[COMRAM] unsigned char 
  9997 ;;  __flmul         1   26[COMRAM] unsigned char 
  9998 ;; Return value:  Size  Location     Type
  9999 ;;                  4   14[COMRAM] unsigned char 
 10000 ;; Registers used:
 10001 ;;		wreg, status,2, status,0, prodl, prodh
 10002 ;; Tracked objects:
 10003 ;;		On entry : 0/0
 10004 ;;		On exit  : 0/0
 10005 ;;		Unchanged: 0/0
 10006 ;; Data sizes:     COMRAM   BANK0   BANK1   BANK2   BANK3   BANK4   BANK5   BANK6   BANK7
 10007 ;;      Params:         8       0       0       0       0       0       0       0       0
 10008 ;;      Locals:        13       0       0       0       0       0       0       0       0
 10009 ;;      Temps:          4       0       0       0       0       0       0       0       0
 10010 ;;      Totals:        25       0       0       0       0       0       0       0       0
 10011 ;;Total ram usage:       25 bytes
 10012 ;; Hardware stack levels used:    1
 10013 ;; This function calls:
 10014 ;;		Nothing
 10015 ;; This function is called by:
 10016 ;;		i2_PWM_DutyCycleCCP2
 10017 ;;		i2_PWM_DutyCycleCCP1
 10018 ;; This function uses a non-reentrant model
 10019 ;;
 10020                           
 10021                           	psect	text56
 10022  000DF4                     __ptext56:
 10023                           	opt callstack 0
 10024  000DF4                     i2___flmul:
 10025                           	opt callstack 21
 10026  000DF4  5012               	movf	(i2___flmul@b+3)^0,w,c
 10027  000DF6  0B80               	andlw	128
 10028  000DF8  6E1B               	movwf	i2___flmul@sign^0,c
 10029  000DFA  5012               	movf	(i2___flmul@b+3)^0,w,c
 10030  000DFC  2412               	addwf	(i2___flmul@b+3)^0,w,c
 10031  000DFE  6E21               	movwf	i2___flmul@bexp^0,c
 10032  000E00  AE11               	btfss	(i2___flmul@b+2)^0,7,c
 10033  000E02  EF05  F007         	goto	i2u268_41
 10034  000E06  EF07  F007         	goto	i2u268_40
 10035  000E0A                     i2u268_41:
 10036  000E0A  EF08  F007         	goto	i2l3189
 10037  000E0E                     i2u268_40:
 10038  000E0E  8021               	bsf	i2___flmul@bexp^0,0,c
 10039  000E10                     i2l3189:
 10040  000E10  5021               	movf	i2___flmul@bexp^0,w,c
 10041  000E12  B4D8               	btfsc	status,2,c
 10042  000E14  EF0E  F007         	goto	i2u269_41
 10043  000E18  EF10  F007         	goto	i2u269_40
 10044  000E1C                     i2u269_41:
 10045  000E1C  EF23  F007         	goto	i2l3197
 10046  000E20                     i2u269_40:
 10047  000E20  2821               	incf	i2___flmul@bexp^0,w,c
 10048  000E22  A4D8               	btfss	status,2,c
 10049  000E24  EF16  F007         	goto	i2u270_41
 10050  000E28  EF18  F007         	goto	i2u270_40
 10051  000E2C                     i2u270_41:
 10052  000E2C  EF20  F007         	goto	i2l3195
 10053  000E30                     i2u270_40:
 10054  000E30  0E00               	movlw	0
 10055  000E32  6E0F               	movwf	i2___flmul@b^0,c
 10056  000E34  0E00               	movlw	0
 10057  000E36  6E10               	movwf	(i2___flmul@b+1)^0,c
 10058  000E38  0E00               	movlw	0
 10059  000E3A  6E11               	movwf	(i2___flmul@b+2)^0,c
 10060  000E3C  0E00               	movlw	0
 10061  000E3E  6E12               	movwf	(i2___flmul@b+3)^0,c
 10062  000E40                     i2l3195:
 10063  000E40  8E11               	bsf	(i2___flmul@b+2)^0,7,c
 10064  000E42  EF2B  F007         	goto	i2l3199
 10065  000E46                     i2l3197:
 10066  000E46  0E00               	movlw	0
 10067  000E48  6E0F               	movwf	i2___flmul@b^0,c
 10068  000E4A  0E00               	movlw	0
 10069  000E4C  6E10               	movwf	(i2___flmul@b+1)^0,c
 10070  000E4E  0E00               	movlw	0
 10071  000E50  6E11               	movwf	(i2___flmul@b+2)^0,c
 10072  000E52  0E00               	movlw	0
 10073  000E54  6E12               	movwf	(i2___flmul@b+3)^0,c
 10074  000E56                     i2l3199:
 10075  000E56  5016               	movf	(i2___flmul@a+3)^0,w,c
 10076  000E58  0B80               	andlw	128
 10077  000E5A  1A1B               	xorwf	i2___flmul@sign^0,f,c
 10078  000E5C  5016               	movf	(i2___flmul@a+3)^0,w,c
 10079  000E5E  2416               	addwf	(i2___flmul@a+3)^0,w,c
 10080  000E60  6E20               	movwf	i2___flmul@aexp^0,c
 10081  000E62  AE15               	btfss	(i2___flmul@a+2)^0,7,c
 10082  000E64  EF36  F007         	goto	i2u271_41
 10083  000E68  EF38  F007         	goto	i2u271_40
 10084  000E6C                     i2u271_41:
 10085  000E6C  EF39  F007         	goto	i2l3207
 10086  000E70                     i2u271_40:
 10087  000E70  8020               	bsf	i2___flmul@aexp^0,0,c
 10088  000E72                     i2l3207:
 10089  000E72  5020               	movf	i2___flmul@aexp^0,w,c
 10090  000E74  B4D8               	btfsc	status,2,c
 10091  000E76  EF3F  F007         	goto	i2u272_41
 10092  000E7A  EF41  F007         	goto	i2u272_40
 10093  000E7E                     i2u272_41:
 10094  000E7E  EF54  F007         	goto	i2l3215
 10095  000E82                     i2u272_40:
 10096  000E82  2820               	incf	i2___flmul@aexp^0,w,c
 10097  000E84  A4D8               	btfss	status,2,c
 10098  000E86  EF47  F007         	goto	i2u273_41
 10099  000E8A  EF49  F007         	goto	i2u273_40
 10100  000E8E                     i2u273_41:
 10101  000E8E  EF51  F007         	goto	i2l3213
 10102  000E92                     i2u273_40:
 10103  000E92  0E00               	movlw	0
 10104  000E94  6E13               	movwf	i2___flmul@a^0,c
 10105  000E96  0E00               	movlw	0
 10106  000E98  6E14               	movwf	(i2___flmul@a+1)^0,c
 10107  000E9A  0E00               	movlw	0
 10108  000E9C  6E15               	movwf	(i2___flmul@a+2)^0,c
 10109  000E9E  0E00               	movlw	0
 10110  000EA0  6E16               	movwf	(i2___flmul@a+3)^0,c
 10111  000EA2                     i2l3213:
 10112  000EA2  8E15               	bsf	(i2___flmul@a+2)^0,7,c
 10113  000EA4  EF5C  F007         	goto	i2l1281
 10114  000EA8                     i2l3215:
 10115  000EA8  0E00               	movlw	0
 10116  000EAA  6E13               	movwf	i2___flmul@a^0,c
 10117  000EAC  0E00               	movlw	0
 10118  000EAE  6E14               	movwf	(i2___flmul@a+1)^0,c
 10119  000EB0  0E00               	movlw	0
 10120  000EB2  6E15               	movwf	(i2___flmul@a+2)^0,c
 10121  000EB4  0E00               	movlw	0
 10122  000EB6  6E16               	movwf	(i2___flmul@a+3)^0,c
 10123  000EB8                     i2l1281:
 10124  000EB8  5020               	movf	i2___flmul@aexp^0,w,c
 10125  000EBA  B4D8               	btfsc	status,2,c
 10126  000EBC  EF62  F007         	goto	i2u274_41
 10127  000EC0  EF64  F007         	goto	i2u274_40
 10128  000EC4                     i2u274_41:
 10129  000EC4  EF6C  F007         	goto	i2l3219
 10130  000EC8                     i2u274_40:
 10131  000EC8  5021               	movf	i2___flmul@bexp^0,w,c
 10132  000ECA  A4D8               	btfss	status,2,c
 10133  000ECC  EF6A  F007         	goto	i2u275_41
 10134  000ED0  EF6C  F007         	goto	i2u275_40
 10135  000ED4                     i2u275_41:
 10136  000ED4  EF76  F007         	goto	i2l3223
 10137  000ED8                     i2u275_40:
 10138  000ED8                     i2l3219:
 10139  000ED8  0E00               	movlw	0
 10140  000EDA  6E0F               	movwf	?i2___flmul^0,c
 10141  000EDC  0E00               	movlw	0
 10142  000EDE  6E10               	movwf	(?i2___flmul+1)^0,c
 10143  000EE0  0E00               	movlw	0
 10144  000EE2  6E11               	movwf	(?i2___flmul+2)^0,c
 10145  000EE4  0E00               	movlw	0
 10146  000EE6  6E12               	movwf	(?i2___flmul+3)^0,c
 10147  000EE8  EF0E  F009         	goto	i2l1285
 10148  000EEC                     i2l3223:
 10149  000EEC  5015               	movf	(i2___flmul@a+2)^0,w,c
 10150  000EEE  020F               	mulwf	i2___flmul@b^0,c
 10151  000EF0  CFF3 F026          	movff	prodl,i2___flmul@temp
 10152  000EF4  CFF4 F027          	movff	prodh,i2___flmul@temp+1
 10153  000EF8  5026               	movf	i2___flmul@temp^0,w,c
 10154  000EFA  6E1C               	movwf	i2___flmul@grs^0,c
 10155  000EFC  6A1D               	clrf	(i2___flmul@grs+1)^0,c
 10156  000EFE  6A1E               	clrf	(i2___flmul@grs+2)^0,c
 10157  000F00  6A1F               	clrf	(i2___flmul@grs+3)^0,c
 10158  000F02  5027               	movf	(i2___flmul@temp+1)^0,w,c
 10159  000F04  6E22               	movwf	i2___flmul@prod^0,c
 10160  000F06  6A23               	clrf	(i2___flmul@prod+1)^0,c
 10161  000F08  6A24               	clrf	(i2___flmul@prod+2)^0,c
 10162  000F0A  6A25               	clrf	(i2___flmul@prod+3)^0,c
 10163  000F0C  5014               	movf	(i2___flmul@a+1)^0,w,c
 10164  000F0E  0210               	mulwf	(i2___flmul@b+1)^0,c
 10165  000F10  CFF3 F026          	movff	prodl,i2___flmul@temp
 10166  000F14  CFF4 F027          	movff	prodh,i2___flmul@temp+1
 10167  000F18  5026               	movf	i2___flmul@temp^0,w,c
 10168  000F1A  261C               	addwf	i2___flmul@grs^0,f,c
 10169  000F1C  0E00               	movlw	0
 10170  000F1E  221D               	addwfc	(i2___flmul@grs+1)^0,f,c
 10171  000F20  221E               	addwfc	(i2___flmul@grs+2)^0,f,c
 10172  000F22  221F               	addwfc	(i2___flmul@grs+3)^0,f,c
 10173  000F24  5027               	movf	(i2___flmul@temp+1)^0,w,c
 10174  000F26  2622               	addwf	i2___flmul@prod^0,f,c
 10175  000F28  0E00               	movlw	0
 10176  000F2A  2223               	addwfc	(i2___flmul@prod+1)^0,f,c
 10177  000F2C  2224               	addwfc	(i2___flmul@prod+2)^0,f,c
 10178  000F2E  2225               	addwfc	(i2___flmul@prod+3)^0,f,c
 10179  000F30  5013               	movf	i2___flmul@a^0,w,c
 10180  000F32  0211               	mulwf	(i2___flmul@b+2)^0,c
 10181  000F34  CFF3 F026          	movff	prodl,i2___flmul@temp
 10182  000F38  CFF4 F027          	movff	prodh,i2___flmul@temp+1
 10183  000F3C  5026               	movf	i2___flmul@temp^0,w,c
 10184  000F3E  261C               	addwf	i2___flmul@grs^0,f,c
 10185  000F40  0E00               	movlw	0
 10186  000F42  221D               	addwfc	(i2___flmul@grs+1)^0,f,c
 10187  000F44  221E               	addwfc	(i2___flmul@grs+2)^0,f,c
 10188  000F46  221F               	addwfc	(i2___flmul@grs+3)^0,f,c
 10189  000F48  5027               	movf	(i2___flmul@temp+1)^0,w,c
 10190  000F4A  2622               	addwf	i2___flmul@prod^0,f,c
 10191  000F4C  0E00               	movlw	0
 10192  000F4E  2223               	addwfc	(i2___flmul@prod+1)^0,f,c
 10193  000F50  2224               	addwfc	(i2___flmul@prod+2)^0,f,c
 10194  000F52  2225               	addwfc	(i2___flmul@prod+3)^0,f,c
 10195  000F54  C01E  F01F         	movff	i2___flmul@grs+2,i2___flmul@grs+3
 10196  000F58  C01D  F01E         	movff	i2___flmul@grs+1,i2___flmul@grs+2
 10197  000F5C  C01C  F01D         	movff	i2___flmul@grs,i2___flmul@grs+1
 10198  000F60  6A1C               	clrf	i2___flmul@grs^0,c
 10199  000F62  5013               	movf	i2___flmul@a^0,w,c
 10200  000F64  0210               	mulwf	(i2___flmul@b+1)^0,c
 10201  000F66  CFF3 F026          	movff	prodl,i2___flmul@temp
 10202  000F6A  CFF4 F027          	movff	prodh,i2___flmul@temp+1
 10203  000F6E  5026               	movf	i2___flmul@temp^0,w,c
 10204  000F70  261C               	addwf	i2___flmul@grs^0,f,c
 10205  000F72  5027               	movf	(i2___flmul@temp+1)^0,w,c
 10206  000F74  221D               	addwfc	(i2___flmul@grs+1)^0,f,c
 10207  000F76  0E00               	movlw	0
 10208  000F78  221E               	addwfc	(i2___flmul@grs+2)^0,f,c
 10209  000F7A  0E00               	movlw	0
 10210  000F7C  221F               	addwfc	(i2___flmul@grs+3)^0,f,c
 10211  000F7E  5014               	movf	(i2___flmul@a+1)^0,w,c
 10212  000F80  020F               	mulwf	i2___flmul@b^0,c
 10213  000F82  CFF3 F026          	movff	prodl,i2___flmul@temp
 10214  000F86  CFF4 F027          	movff	prodh,i2___flmul@temp+1
 10215  000F8A  5026               	movf	i2___flmul@temp^0,w,c
 10216  000F8C  261C               	addwf	i2___flmul@grs^0,f,c
 10217  000F8E  5027               	movf	(i2___flmul@temp+1)^0,w,c
 10218  000F90  221D               	addwfc	(i2___flmul@grs+1)^0,f,c
 10219  000F92  0E00               	movlw	0
 10220  000F94  221E               	addwfc	(i2___flmul@grs+2)^0,f,c
 10221  000F96  0E00               	movlw	0
 10222  000F98  221F               	addwfc	(i2___flmul@grs+3)^0,f,c
 10223  000F9A  C01E  F01F         	movff	i2___flmul@grs+2,i2___flmul@grs+3
 10224  000F9E  C01D  F01E         	movff	i2___flmul@grs+1,i2___flmul@grs+2
 10225  000FA2  C01C  F01D         	movff	i2___flmul@grs,i2___flmul@grs+1
 10226  000FA6  6A1C               	clrf	i2___flmul@grs^0,c
 10227  000FA8  5013               	movf	i2___flmul@a^0,w,c
 10228  000FAA  020F               	mulwf	i2___flmul@b^0,c
 10229  000FAC  CFF3 F026          	movff	prodl,i2___flmul@temp
 10230  000FB0  CFF4 F027          	movff	prodh,i2___flmul@temp+1
 10231  000FB4  5026               	movf	i2___flmul@temp^0,w,c
 10232  000FB6  261C               	addwf	i2___flmul@grs^0,f,c
 10233  000FB8  5027               	movf	(i2___flmul@temp+1)^0,w,c
 10234  000FBA  221D               	addwfc	(i2___flmul@grs+1)^0,f,c
 10235  000FBC  0E00               	movlw	0
 10236  000FBE  221E               	addwfc	(i2___flmul@grs+2)^0,f,c
 10237  000FC0  0E00               	movlw	0
 10238  000FC2  221F               	addwfc	(i2___flmul@grs+3)^0,f,c
 10239  000FC4  5015               	movf	(i2___flmul@a+2)^0,w,c
 10240  000FC6  0210               	mulwf	(i2___flmul@b+1)^0,c
 10241  000FC8  CFF3 F026          	movff	prodl,i2___flmul@temp
 10242  000FCC  CFF4 F027          	movff	prodh,i2___flmul@temp+1
 10243  000FD0  5026               	movf	i2___flmul@temp^0,w,c
 10244  000FD2  2622               	addwf	i2___flmul@prod^0,f,c
 10245  000FD4  5027               	movf	(i2___flmul@temp+1)^0,w,c
 10246  000FD6  2223               	addwfc	(i2___flmul@prod+1)^0,f,c
 10247  000FD8  0E00               	movlw	0
 10248  000FDA  2224               	addwfc	(i2___flmul@prod+2)^0,f,c
 10249  000FDC  0E00               	movlw	0
 10250  000FDE  2225               	addwfc	(i2___flmul@prod+3)^0,f,c
 10251  000FE0  5014               	movf	(i2___flmul@a+1)^0,w,c
 10252  000FE2  0211               	mulwf	(i2___flmul@b+2)^0,c
 10253  000FE4  CFF3 F026          	movff	prodl,i2___flmul@temp
 10254  000FE8  CFF4 F027          	movff	prodh,i2___flmul@temp+1
 10255  000FEC  5026               	movf	i2___flmul@temp^0,w,c
 10256  000FEE  2622               	addwf	i2___flmul@prod^0,f,c
 10257  000FF0  5027               	movf	(i2___flmul@temp+1)^0,w,c
 10258  000FF2  2223               	addwfc	(i2___flmul@prod+1)^0,f,c
 10259  000FF4  0E00               	movlw	0
 10260  000FF6  2224               	addwfc	(i2___flmul@prod+2)^0,f,c
 10261  000FF8  0E00               	movlw	0
 10262  000FFA  2225               	addwfc	(i2___flmul@prod+3)^0,f,c
 10263  000FFC  5015               	movf	(i2___flmul@a+2)^0,w,c
 10264  000FFE  0211               	mulwf	(i2___flmul@b+2)^0,c
 10265  001000  CFF3 F026          	movff	prodl,i2___flmul@temp
 10266  001004  CFF4 F027          	movff	prodh,i2___flmul@temp+1
 10267  001008  5026               	movf	i2___flmul@temp^0,w,c
 10268  00100A  6E17               	movwf	??i2___flmul^0,c
 10269  00100C  5027               	movf	(i2___flmul@temp+1)^0,w,c
 10270  00100E  6E18               	movwf	(??i2___flmul+1)^0,c
 10271  001010  6A19               	clrf	(??i2___flmul+2)^0,c
 10272  001012  6A1A               	clrf	(??i2___flmul+3)^0,c
 10273  001014  C019  F01A         	movff	??i2___flmul+2,??i2___flmul+3
 10274  001018  C018  F019         	movff	??i2___flmul+1,??i2___flmul+2
 10275  00101C  C017  F018         	movff	??i2___flmul,??i2___flmul+1
 10276  001020  6A17               	clrf	??i2___flmul^0,c
 10277  001022  5017               	movf	??i2___flmul^0,w,c
 10278  001024  2622               	addwf	i2___flmul@prod^0,f,c
 10279  001026  5018               	movf	(??i2___flmul+1)^0,w,c
 10280  001028  2223               	addwfc	(i2___flmul@prod+1)^0,f,c
 10281  00102A  5019               	movf	(??i2___flmul+2)^0,w,c
 10282  00102C  2224               	addwfc	(i2___flmul@prod+2)^0,f,c
 10283  00102E  501A               	movf	(??i2___flmul+3)^0,w,c
 10284  001030  2225               	addwfc	(i2___flmul@prod+3)^0,f,c
 10285  001032  C01C  F017         	movff	i2___flmul@grs,??i2___flmul
 10286  001036  C01D  F018         	movff	i2___flmul@grs+1,??i2___flmul+1
 10287  00103A  C01E  F019         	movff	i2___flmul@grs+2,??i2___flmul+2
 10288  00103E  C01F  F01A         	movff	i2___flmul@grs+3,??i2___flmul+3
 10289  001042  0E19               	movlw	25
 10290  001044  EF29  F008         	goto	i2u276_40
 10291  001048                     i2u276_45:
 10292  001048  90D8               	bcf	status,0,c
 10293  00104A  321A               	rrcf	(??i2___flmul+3)^0,f,c
 10294  00104C  3219               	rrcf	(??i2___flmul+2)^0,f,c
 10295  00104E  3218               	rrcf	(??i2___flmul+1)^0,f,c
 10296  001050  3217               	rrcf	??i2___flmul^0,f,c
 10297  001052                     i2u276_40:
 10298  001052  2EE8               	decfsz	wreg,f,c
 10299  001054  EF24  F008         	goto	i2u276_45
 10300  001058  5017               	movf	??i2___flmul^0,w,c
 10301  00105A  2622               	addwf	i2___flmul@prod^0,f,c
 10302  00105C  5018               	movf	(??i2___flmul+1)^0,w,c
 10303  00105E  2223               	addwfc	(i2___flmul@prod+1)^0,f,c
 10304  001060  5019               	movf	(??i2___flmul+2)^0,w,c
 10305  001062  2224               	addwfc	(i2___flmul@prod+2)^0,f,c
 10306  001064  501A               	movf	(??i2___flmul+3)^0,w,c
 10307  001066  2225               	addwfc	(i2___flmul@prod+3)^0,f,c
 10308  001068  C01E  F01F         	movff	i2___flmul@grs+2,i2___flmul@grs+3
 10309  00106C  C01D  F01E         	movff	i2___flmul@grs+1,i2___flmul@grs+2
 10310  001070  C01C  F01D         	movff	i2___flmul@grs,i2___flmul@grs+1
 10311  001074  6A1C               	clrf	i2___flmul@grs^0,c
 10312  001076  5020               	movf	i2___flmul@aexp^0,w,c
 10313  001078  C021  F017         	movff	i2___flmul@bexp,??i2___flmul
 10314  00107C  6A18               	clrf	(??i2___flmul+1)^0,c
 10315  00107E  2617               	addwf	??i2___flmul^0,f,c
 10316  001080  0E00               	movlw	0
 10317  001082  2218               	addwfc	(??i2___flmul+1)^0,f,c
 10318  001084  0E82               	movlw	130
 10319  001086  2417               	addwf	??i2___flmul^0,w,c
 10320  001088  6E26               	movwf	i2___flmul@temp^0,c
 10321  00108A  0EFF               	movlw	255
 10322  00108C  2018               	addwfc	(??i2___flmul+1)^0,w,c
 10323  00108E  6E27               	movwf	(i2___flmul@temp+1)^0,c
 10324  001090  EF5F  F008         	goto	i2l3271
 10325  001094                     i2l3265:
 10326  001094  90D8               	bcf	status,0,c
 10327  001096  3622               	rlcf	i2___flmul@prod^0,f,c
 10328  001098  3623               	rlcf	(i2___flmul@prod+1)^0,f,c
 10329  00109A  3624               	rlcf	(i2___flmul@prod+2)^0,f,c
 10330  00109C  3625               	rlcf	(i2___flmul@prod+3)^0,f,c
 10331  00109E  AE1F               	btfss	(i2___flmul@grs+3)^0,7,c
 10332  0010A0  EF54  F008         	goto	i2u277_41
 10333  0010A4  EF56  F008         	goto	i2u277_40
 10334  0010A8                     i2u277_41:
 10335  0010A8  EF57  F008         	goto	i2l1288
 10336  0010AC                     i2u277_40:
 10337  0010AC  8022               	bsf	i2___flmul@prod^0,0,c
 10338  0010AE                     i2l1288:
 10339  0010AE  90D8               	bcf	status,0,c
 10340  0010B0  361C               	rlcf	i2___flmul@grs^0,f,c
 10341  0010B2  361D               	rlcf	(i2___flmul@grs+1)^0,f,c
 10342  0010B4  361E               	rlcf	(i2___flmul@grs+2)^0,f,c
 10343  0010B6  361F               	rlcf	(i2___flmul@grs+3)^0,f,c
 10344  0010B8  0626               	decf	i2___flmul@temp^0,f,c
 10345  0010BA  A0D8               	btfss	status,0,c
 10346  0010BC  0627               	decf	(i2___flmul@temp+1)^0,f,c
 10347  0010BE                     i2l3271:
 10348  0010BE  AE24               	btfss	(i2___flmul@prod+2)^0,7,c
 10349  0010C0  EF64  F008         	goto	i2u278_41
 10350  0010C4  EF66  F008         	goto	i2u278_40
 10351  0010C8                     i2u278_41:
 10352  0010C8  EF4A  F008         	goto	i2l3265
 10353  0010CC                     i2u278_40:
 10354  0010CC  0E00               	movlw	0
 10355  0010CE  6E20               	movwf	i2___flmul@aexp^0,c
 10356  0010D0  AE1F               	btfss	(i2___flmul@grs+3)^0,7,c
 10357  0010D2  EF6D  F008         	goto	i2u279_41
 10358  0010D6  EF6F  F008         	goto	i2u279_40
 10359  0010DA                     i2u279_41:
 10360  0010DA  EF93  F008         	goto	i2l1290
 10361  0010DE                     i2u279_40:
 10362  0010DE  0EFF               	movlw	255
 10363  0010E0  141C               	andwf	i2___flmul@grs^0,w,c
 10364  0010E2  6E17               	movwf	??i2___flmul^0,c
 10365  0010E4  0EFF               	movlw	255
 10366  0010E6  141D               	andwf	(i2___flmul@grs+1)^0,w,c
 10367  0010E8  6E18               	movwf	(??i2___flmul+1)^0,c
 10368  0010EA  0EFF               	movlw	255
 10369  0010EC  141E               	andwf	(i2___flmul@grs+2)^0,w,c
 10370  0010EE  6E19               	movwf	(??i2___flmul+2)^0,c
 10371  0010F0  0E7F               	movlw	127
 10372  0010F2  141F               	andwf	(i2___flmul@grs+3)^0,w,c
 10373  0010F4  6E1A               	movwf	(??i2___flmul+3)^0,c
 10374  0010F6  5017               	movf	??i2___flmul^0,w,c
 10375  0010F8  1018               	iorwf	(??i2___flmul+1)^0,w,c
 10376  0010FA  1019               	iorwf	(??i2___flmul+2)^0,w,c
 10377  0010FC  101A               	iorwf	(??i2___flmul+3)^0,w,c
 10378  0010FE  B4D8               	btfsc	status,2,c
 10379  001100  EF84  F008         	goto	i2u280_41
 10380  001104  EF86  F008         	goto	i2u280_40
 10381  001108                     i2u280_41:
 10382  001108  EF8A  F008         	goto	i2l1291
 10383  00110C                     i2u280_40:
 10384  00110C                     i2l3279:
 10385  00110C  0E01               	movlw	1
 10386  00110E  6E20               	movwf	i2___flmul@aexp^0,c
 10387  001110  EF93  F008         	goto	i2l1290
 10388  001114                     i2l1291:
 10389  001114  A022               	btfss	i2___flmul@prod^0,0,c
 10390  001116  EF8F  F008         	goto	i2u281_41
 10391  00111A  EF91  F008         	goto	i2u281_40
 10392  00111E                     i2u281_41:
 10393  00111E  EF93  F008         	goto	i2l1290
 10394  001122                     i2u281_40:
 10395  001122  EF86  F008         	goto	i2l3279
 10396  001126                     i2l1290:
 10397  001126  5020               	movf	i2___flmul@aexp^0,w,c
 10398  001128  B4D8               	btfsc	status,2,c
 10399  00112A  EF99  F008         	goto	i2u282_41
 10400  00112E  EF9B  F008         	goto	i2u282_40
 10401  001132                     i2u282_41:
 10402  001132  EFBF  F008         	goto	i2l3291
 10403  001136                     i2u282_40:
 10404  001136  0E01               	movlw	1
 10405  001138  2622               	addwf	i2___flmul@prod^0,f,c
 10406  00113A  0E00               	movlw	0
 10407  00113C  2223               	addwfc	(i2___flmul@prod+1)^0,f,c
 10408  00113E  2224               	addwfc	(i2___flmul@prod+2)^0,f,c
 10409  001140  2225               	addwfc	(i2___flmul@prod+3)^0,f,c
 10410  001142  A025               	btfss	(i2___flmul@prod+3)^0,0,c
 10411  001144  EFA6  F008         	goto	i2u283_41
 10412  001148  EFA8  F008         	goto	i2u283_40
 10413  00114C                     i2u283_41:
 10414  00114C  EFBF  F008         	goto	i2l3291
 10415  001150                     i2u283_40:
 10416  001150  C022  F017         	movff	i2___flmul@prod,??i2___flmul
 10417  001154  C023  F018         	movff	i2___flmul@prod+1,??i2___flmul+1
 10418  001158  C024  F019         	movff	i2___flmul@prod+2,??i2___flmul+2
 10419  00115C  C025  F01A         	movff	i2___flmul@prod+3,??i2___flmul+3
 10420  001160  341A               	rlcf	(??i2___flmul+3)^0,w,c
 10421  001162  321A               	rrcf	(??i2___flmul+3)^0,f,c
 10422  001164  3219               	rrcf	(??i2___flmul+2)^0,f,c
 10423  001166  3218               	rrcf	(??i2___flmul+1)^0,f,c
 10424  001168  3217               	rrcf	??i2___flmul^0,f,c
 10425  00116A  C017  F022         	movff	??i2___flmul,i2___flmul@prod
 10426  00116E  C018  F023         	movff	??i2___flmul+1,i2___flmul@prod+1
 10427  001172  C019  F024         	movff	??i2___flmul+2,i2___flmul@prod+2
 10428  001176  C01A  F025         	movff	??i2___flmul+3,i2___flmul@prod+3
 10429  00117A  4A26               	infsnz	i2___flmul@temp^0,f,c
 10430  00117C  2A27               	incf	(i2___flmul@temp+1)^0,f,c
 10431  00117E                     i2l3291:
 10432  00117E  BE27               	btfsc	(i2___flmul@temp+1)^0,7,c
 10433  001180  EFCA  F008         	goto	i2u284_41
 10434  001184  5027               	movf	(i2___flmul@temp+1)^0,w,c
 10435  001186  E108               	bnz	i2u284_40
 10436  001188  2826               	incf	i2___flmul@temp^0,w,c
 10437  00118A  A0D8               	btfss	status,0,c
 10438  00118C  EFCA  F008         	goto	i2u284_41
 10439  001190  EFCC  F008         	goto	i2u284_40
 10440  001194                     i2u284_41:
 10441  001194  EFD6  F008         	goto	i2l3295
 10442  001198                     i2u284_40:
 10443  001198  0E00               	movlw	0
 10444  00119A  6E22               	movwf	i2___flmul@prod^0,c
 10445  00119C  0E00               	movlw	0
 10446  00119E  6E23               	movwf	(i2___flmul@prod+1)^0,c
 10447  0011A0  0E80               	movlw	128
 10448  0011A2  6E24               	movwf	(i2___flmul@prod+2)^0,c
 10449  0011A4  0E7F               	movlw	127
 10450  0011A6  6E25               	movwf	(i2___flmul@prod+3)^0,c
 10451  0011A8  EF04  F009         	goto	i2l3307
 10452  0011AC                     i2l3295:
 10453  0011AC  BE27               	btfsc	(i2___flmul@temp+1)^0,7,c
 10454  0011AE  EFE3  F008         	goto	i2u285_40
 10455  0011B2  5027               	movf	(i2___flmul@temp+1)^0,w,c
 10456  0011B4  E106               	bnz	i2u285_41
 10457  0011B6  0426               	decf	i2___flmul@temp^0,w,c
 10458  0011B8  B0D8               	btfsc	status,0,c
 10459  0011BA  EFE1  F008         	goto	i2u285_41
 10460  0011BE  EFE3  F008         	goto	i2u285_40
 10461  0011C2                     i2u285_41:
 10462  0011C2  EFEF  F008         	goto	i2l1298
 10463  0011C6                     i2u285_40:
 10464  0011C6  0E00               	movlw	0
 10465  0011C8  6E22               	movwf	i2___flmul@prod^0,c
 10466  0011CA  0E00               	movlw	0
 10467  0011CC  6E23               	movwf	(i2___flmul@prod+1)^0,c
 10468  0011CE  0E00               	movlw	0
 10469  0011D0  6E24               	movwf	(i2___flmul@prod+2)^0,c
 10470  0011D2  0E00               	movlw	0
 10471  0011D4  6E25               	movwf	(i2___flmul@prod+3)^0,c
 10472  0011D6  0E00               	movlw	0
 10473  0011D8  6E1B               	movwf	i2___flmul@sign^0,c
 10474  0011DA  EF04  F009         	goto	i2l3307
 10475  0011DE                     i2l1298:
 10476  0011DE  C026  F021         	movff	i2___flmul@temp,i2___flmul@bexp
 10477  0011E2  0EFF               	movlw	255
 10478  0011E4  1622               	andwf	i2___flmul@prod^0,f,c
 10479  0011E6  0EFF               	movlw	255
 10480  0011E8  1623               	andwf	(i2___flmul@prod+1)^0,f,c
 10481  0011EA  0E7F               	movlw	127
 10482  0011EC  1624               	andwf	(i2___flmul@prod+2)^0,f,c
 10483  0011EE  0E00               	movlw	0
 10484  0011F0  1625               	andwf	(i2___flmul@prod+3)^0,f,c
 10485  0011F2  A021               	btfss	i2___flmul@bexp^0,0,c
 10486  0011F4  EFFE  F008         	goto	i2u286_41
 10487  0011F8  EF00  F009         	goto	i2u286_40
 10488  0011FC                     i2u286_41:
 10489  0011FC  EF01  F009         	goto	i2l3305
 10490  001200                     i2u286_40:
 10491  001200  8E24               	bsf	(i2___flmul@prod+2)^0,7,c
 10492  001202                     i2l3305:
 10493  001202  90D8               	bcf	status,0,c
 10494  001204  3021               	rrcf	i2___flmul@bexp^0,w,c
 10495  001206  6E25               	movwf	(i2___flmul@prod+3)^0,c
 10496  001208                     i2l3307:
 10497  001208  501B               	movf	i2___flmul@sign^0,w,c
 10498  00120A  1225               	iorwf	(i2___flmul@prod+3)^0,f,c
 10499  00120C  C022  F00F         	movff	i2___flmul@prod,?i2___flmul
 10500  001210  C023  F010         	movff	i2___flmul@prod+1,?i2___flmul+1
 10501  001214  C024  F011         	movff	i2___flmul@prod+2,?i2___flmul+2
 10502  001218  C025  F012         	movff	i2___flmul@prod+3,?i2___flmul+3
 10503  00121C                     i2l1285:
 10504  00121C  0012               	return		;funcret
 10505  00121E                     __end_ofi2___flmul:
 10506                           	opt callstack 0
 10507                           
 10508                           	psect	rparam
 10509  0000                     
 10510                           	psect	temp
 10511  000046                     btemp:
 10512                           	opt callstack 0
 10513  000046                     	ds	1
 10514  0000                     int$flags	set	btemp
 10515  0000                     wtemp8	set	btemp+1
 10516  0000                     ttemp5	set	btemp+1
 10517  0000                     ttemp6	set	btemp+4
 10518  0000                     ttemp7	set	btemp+8
 10519                           tosu	equ	0xFFF
 10520                           tosh	equ	0xFFE
 10521                           tosl	equ	0xFFD
 10522                           stkptr	equ	0xFFC
 10523                           pclatu	equ	0xFFB
 10524                           pclath	equ	0xFFA
 10525                           pcl	equ	0xFF9
 10526                           tblptru	equ	0xFF8
 10527                           tblptrh	equ	0xFF7
 10528                           tblptrl	equ	0xFF6
 10529                           tablat	equ	0xFF5
 10530                           prodh	equ	0xFF4
 10531                           prodl	equ	0xFF3
 10532                           indf0	equ	0xFEF
 10533                           postinc0	equ	0xFEE
 10534                           postdec0	equ	0xFED
 10535                           preinc0	equ	0xFEC
 10536                           plusw0	equ	0xFEB
 10537                           fsr0h	equ	0xFEA
 10538                           fsr0l	equ	0xFE9
 10539                           wreg	equ	0xFE8
 10540                           indf1	equ	0xFE7
 10541                           postinc1	equ	0xFE6
 10542                           postdec1	equ	0xFE5
 10543                           preinc1	equ	0xFE4
 10544                           plusw1	equ	0xFE3
 10545                           fsr1h	equ	0xFE2
 10546                           fsr1l	equ	0xFE1
 10547                           bsr	equ	0xFE0
 10548                           indf2	equ	0xFDF
 10549                           postinc2	equ	0xFDE
 10550                           postdec2	equ	0xFDD
 10551                           preinc2	equ	0xFDC
 10552                           plusw2	equ	0xFDB
 10553                           fsr2h	equ	0xFDA
 10554                           fsr2l	equ	0xFD9
 10555                           status	equ	0xFD8


Data Sizes:
    Strings     878
    Constant    0
    Data        0
    BSS         32
    Persistent  0
    Stack       0

Auto Spaces:
    Space          Size  Autos    Used
    COMRAM           94     65      69
    BANK0           160    105     133
    BANK1           256      0       0
    BANK2           256      0       0
    BANK3           256      0       0
    BANK4           256      0       0
    BANK5           256      0       0
    BANK6           256      0       0
    BANK7           256      0       0

Pointer List with Targets:

    main@pActMenu	PTR unsigned char  size(2) Largest target is 5
		 -> main@activarmenu(BANK0[5]), 

    scanf@guardarscan	PTR unsigned char  size(2) Largest target is 5
		 -> main@activarmenu(BANK0[5]), 

    printf@PointString	PTR unsigned char  size(2) Largest target is 79
		 -> STR_50(CODE[7]), STR_49(CODE[9]), STR_48(CODE[9]), STR_47(CODE[26]), 
		 -> STR_46(CODE[9]), STR_45(CODE[9]), STR_44(CODE[28]), STR_43(CODE[9]), 
		 -> STR_42(CODE[9]), STR_41(CODE[27]), STR_40(CODE[9]), STR_39(CODE[40]), 
		 -> STR_38(CODE[9]), STR_37(CODE[46]), STR_36(CODE[9]), STR_35(CODE[31]), 
		 -> STR_34(CODE[9]), STR_33(CODE[35]), STR_32(CODE[28]), STR_31(CODE[9]), 
		 -> STR_30(CODE[18]), STR_29(CODE[79]), STR_28(CODE[42]), STR_27(CODE[42]), 
		 -> STR_26(CODE[46]), STR_25(CODE[10]), STR_24(CODE[52]), STR_23(CODE[10]), 
		 -> STR_22(CODE[52]), STR_21(CODE[11]), STR_20(CODE[16]), STR_19(CODE[11]), 
		 -> STR_18(CODE[16]), STR_17(CODE[10]), STR_16(CODE[11]), STR_15(CODE[11]), 
		 -> STR_14(CODE[6]), STR_13(CODE[4]), STR_12(CODE[8]), STR_11(CODE[9]), 
		 -> STR_10(CODE[9]), STR_9(CODE[9]), STR_8(CODE[8]), STR_7(CODE[16]), 
		 -> STR_6(CODE[9]), STR_5(CODE[43]), STR_4(CODE[8]), STR_3(CODE[52]), 
		 -> STR_2(CODE[4]), STR_1(CODE[4]), 


Critical Paths under _main in COMRAM

    None.

Critical Paths under _low_isr in COMRAM

    None.

Critical Paths under _high_isr in COMRAM

    _high_isr->i2_PWM_DutyCycleCCP1
    _high_isr->i2_PWM_DutyCycleCCP2
    i2_printf->i2_send
    i2_send->i2_errorUART
    i2_moverHomeY->i2_PWM_DutyCycleCCP2
    i2_PWM_DutyCycleCCP2->i2___fltol
    i2_moverHomeX->i2_PWM_DutyCycleCCP1
    i2_PWM_DutyCycleCCP1->i2___fltol
    i2___fltol->i2___flmul
    i2___flmul->i2___xxtofl

Critical Paths under _main in BANK0

    _main->_moverHaciaXY
    _slidePiston->_printf
    _scanf->_receive
    _moverHomeY->_PWM_DutyCycleCCP2
    _moverHomeX->_PWM_DutyCycleCCP1
    _moverHaciaXY->_moverHaciaX
    _moverHaciaXY->_moverHaciaY
    _moverHaciaY->_PWM_DutyCycleCCP2
    _PWM_DutyCycleCCP2->___fltol
    _moverHaciaX->_PWM_DutyCycleCCP1
    ___wmul->_abs
    _PWM_DutyCycleCCP1->___fltol
    _modificarZ->_printf
    _impCoordActual->___fltol
    ___xxtofl->___lwmod
    ___fltol->___fladd
    ___flmul->___xxtofl
    ___fladd->___flmul
    _funcionToques->_printf
    _receive->_errorUART
    _printf->_send
    _send->_errorUART

Critical Paths under _low_isr in BANK0

    None.

Critical Paths under _high_isr in BANK0

    None.

Critical Paths under _main in BANK1

    None.

Critical Paths under _low_isr in BANK1

    None.

Critical Paths under _high_isr in BANK1

    None.

Critical Paths under _main in BANK2

    None.

Critical Paths under _low_isr in BANK2

    None.

Critical Paths under _high_isr in BANK2

    None.

Critical Paths under _main in BANK3

    None.

Critical Paths under _low_isr in BANK3

    None.

Critical Paths under _high_isr in BANK3

    None.

Critical Paths under _main in BANK4

    None.

Critical Paths under _low_isr in BANK4

    None.

Critical Paths under _high_isr in BANK4

    None.

Critical Paths under _main in BANK5

    None.

Critical Paths under _low_isr in BANK5

    None.

Critical Paths under _high_isr in BANK5

    None.

Critical Paths under _main in BANK6

    None.

Critical Paths under _low_isr in BANK6

    None.

Critical Paths under _high_isr in BANK6

    None.

Critical Paths under _main in BANK7

    None.

Critical Paths under _low_isr in BANK7

    None.

Critical Paths under _high_isr in BANK7

    None.

Call Graph Tables:

 ---------------------------------------------------------------------------------
 (Depth) Function   	        Calls       Base Space   Used Autos Params    Refs
 ---------------------------------------------------------------------------------
 (0) _main                                                13    13      0   89109
                                             92 BANK0     13    13      0
                      _PWM_CCP1_init
                      _PWM_CCP2_init
                  _PWM_DutyCycleCCP1
                  _PWM_DutyCycleCCP2
                           _UARTinit
                      _funcionToques
               _habilitarIntExternas
                   _habilitarIntTMR0
                   _habilitarIntTMR1
                     _impCoordActual
                   _interruptsEnable
                     _limpiarIntExtF
                         _modificarZ
                         _motorXinit
                         _motorYinit
                       _motoresZinit
                        _moverHaciaX
                       _moverHaciaXY
                        _moverHaciaY
                         _moverHomeX
                         _moverHomeY
                         _pistonInit
                           _portInit
                             _printf
                            _receive
                              _scanf
                        _slidePiston
                           _tmr0Init
                           _tmr1Init
 ---------------------------------------------------------------------------------
 (1) _tmr1Init                                             0     0      0       0
 ---------------------------------------------------------------------------------
 (1) _tmr0Init                                             0     0      0       0
 ---------------------------------------------------------------------------------
 (1) _slidePiston                                          1     1      0    3857
                                              8 BANK0      1     1      0
                             _printf
                            _receive
 ---------------------------------------------------------------------------------
 (1) _scanf                                                4     1      3     275
                                              3 BANK0      4     1      3
                          _errorUART
                            _receive
 ---------------------------------------------------------------------------------
 (1) _portInit                                             0     0      0       0
 ---------------------------------------------------------------------------------
 (1) _pistonInit                                           0     0      0       0
 ---------------------------------------------------------------------------------
 (1) _moverHomeY                                           0     0      0    4361
                  _PWM_DutyCycleCCP2
 ---------------------------------------------------------------------------------
 (1) _moverHomeX                                           0     0      0    4361
                  _PWM_DutyCycleCCP1
 ---------------------------------------------------------------------------------
 (1) _moverHaciaXY                                         7     7      0   23604
                                             85 BANK0      7     7      0
                        _moverHaciaX
                        _moverHaciaY
                             _printf
                            _receive
                               _send
 ---------------------------------------------------------------------------------
 (1) _moverHaciaY                                          5     3      2    9844
                                             80 BANK0      5     3      2
                  _PWM_DutyCycleCCP2
                             ___wmul
                                _abs
                             _printf
                               _send
                       _setNumPasosY
 ---------------------------------------------------------------------------------
 (2) _setNumPasosY                                         4     2      2     165
                                              1 BANK0      4     2      2
 ---------------------------------------------------------------------------------
 (2) _PWM_DutyCycleCCP2                                    9     9      0    4361
                                             71 BANK0      9     9      0
                            ___flmul
                            ___fltol
                           ___xxtofl
 ---------------------------------------------------------------------------------
 (2) _moverHaciaX                                          5     3      2    9844
                                             80 BANK0      5     3      2
                  _PWM_DutyCycleCCP1
                             ___wmul
                                _abs
                             _printf
                               _send
                       _setNumPasosX
 ---------------------------------------------------------------------------------
 (3) _setNumPasosX                                         4     2      2     165
                                              1 BANK0      4     2      2
 ---------------------------------------------------------------------------------
 (2) _abs                                                  4     2      2     218
                                              1 BANK0      4     2      2
 ---------------------------------------------------------------------------------
 (2) ___wmul                                               6     2      4     463
                                              5 BANK0      6     2      4
                                _abs (ARG)
 ---------------------------------------------------------------------------------
 (2) _PWM_DutyCycleCCP1                                    9     9      0    4361
                                             71 BANK0      9     9      0
                            ___flmul
                            ___fltol
                           ___xxtofl
 ---------------------------------------------------------------------------------
 (1) _motoresZinit                                         0     0      0       0
 ---------------------------------------------------------------------------------
 (1) _motorYinit                                           0     0      0       0
 ---------------------------------------------------------------------------------
 (1) _motorXinit                                           0     0      0       0
 ---------------------------------------------------------------------------------
 (1) _modificarZ                                           2     2      0    3808
                                              8 BANK0      2     2      0
                            _apagarZ
                        _moverZAbajo
                       _moverZArriba
                             _printf
 ---------------------------------------------------------------------------------
 (2) _moverZArriba                                         0     0      0       0
 ---------------------------------------------------------------------------------
 (2) _moverZAbajo                                          0     0      0       0
 ---------------------------------------------------------------------------------
 (2) _apagarZ                                              0     0      0       0
 ---------------------------------------------------------------------------------
 (1) _limpiarIntExtF                                       0     0      0       0
 ---------------------------------------------------------------------------------
 (1) _interruptsEnable                                     0     0      0       0
 ---------------------------------------------------------------------------------
 (1) _impCoordActual                                       2     2      0   12043
                                             71 BANK0      2     2      0
                            ___fladd
                            ___flmul
                            ___fltol
                            ___lwmod
                           ___xxtofl
                             _printf
                               _send
 ---------------------------------------------------------------------------------
 (3) ___xxtofl                                            14    10      4     778
                                              6 BANK0     14    10      4
                            ___lwmod (ARG)
 ---------------------------------------------------------------------------------
 (2) ___lwmod                                              5     1      4    1071
                                              1 BANK0      5     1      4
 ---------------------------------------------------------------------------------
 (3) ___fltol                                             10     6      4     685
                                             61 BANK0     10     6      4
                            ___fladd (ARG)
                            ___flmul (ARG)
                            ___lwmod (ARG)
                           ___xxtofl (ARG)
 ---------------------------------------------------------------------------------
 (3) ___flmul                                             25    17      8    2808
                                             20 BANK0     25    17      8
                            ___lwmod (ARG)
                           ___xxtofl (ARG)
 ---------------------------------------------------------------------------------
 (2) ___fladd                                             16     8      8    2844
                                             45 BANK0     16     8      8
                            ___flmul (ARG)
                            ___lwmod (ARG)
                           ___xxtofl (ARG)
 ---------------------------------------------------------------------------------
 (1) _habilitarIntTMR1                                     0     0      0       0
 ---------------------------------------------------------------------------------
 (1) _habilitarIntTMR0                                     0     0      0       0
 ---------------------------------------------------------------------------------
 (1) _habilitarIntExternas                                 0     0      0       0
 ---------------------------------------------------------------------------------
 (1) _funcionToques                                        1     1      0    4080
                                              8 BANK0      1     1      0
                  _presionarPantalla
                             _printf
                            _receive
 ---------------------------------------------------------------------------------
 (2) _receive                                              1     1      0      28
                                              2 BANK0      1     1      0
                          _errorUART
 ---------------------------------------------------------------------------------
 (2) _printf                                               5     3      2    3784
                                              3 BANK0      5     3      2
                          _errorUART
                               _send
 ---------------------------------------------------------------------------------
 (3) _send                                                 1     1      0      27
                                              2 BANK0      1     1      0
                          _errorUART
 ---------------------------------------------------------------------------------
 (3) _errorUART                                            1     1      0       5
                                              1 BANK0      1     1      0
 ---------------------------------------------------------------------------------
 (2) _presionarPantalla                                    6     4      2     242
                                              1 BANK0      6     4      2
 ---------------------------------------------------------------------------------
 (1) _UARTinit                                             0     0      0       0
 ---------------------------------------------------------------------------------
 (1) _PWM_CCP2_init                                        0     0      0       0
 ---------------------------------------------------------------------------------
 (1) _PWM_CCP1_init                                        0     0      0       0
 ---------------------------------------------------------------------------------
 Estimated maximum stack depth 3
 ---------------------------------------------------------------------------------
 (Depth) Function   	        Calls       Base Space   Used Autos Params    Refs
 ---------------------------------------------------------------------------------
 (6) _low_isr                                              1     1      0       0
                                              0 BANK0      1     1      0
 ---------------------------------------------------------------------------------
 Estimated maximum stack depth 6
 ---------------------------------------------------------------------------------
 (Depth) Function   	        Calls       Base Space   Used Autos Params    Refs
 ---------------------------------------------------------------------------------
 (7) _high_isr                                             7     7      0   10024
                                             58 COMRAM     7     7      0
                i2_PWM_DutyCycleCCP1
                i2_PWM_DutyCycleCCP2
                       i2_moverHomeX
                       i2_moverHomeY
                           i2_printf
 ---------------------------------------------------------------------------------
 (8) i2_printf                                             5     3      2     348
                                              2 COMRAM     5     3      2
                        i2_errorUART
                             i2_send
 ---------------------------------------------------------------------------------
 (9) i2_send                                               1     1      0      27
                                              1 COMRAM     1     1      0
                        i2_errorUART
 ---------------------------------------------------------------------------------
 (10) i2_errorUART                                         1     1      0       5
                                              0 COMRAM     1     1      0
 ---------------------------------------------------------------------------------
 (8) i2_moverHomeY                                         0     0      0    2419
                i2_PWM_DutyCycleCCP2
 ---------------------------------------------------------------------------------
 (9) i2_PWM_DutyCycleCCP2                                  9     9      0    2419
                                             49 COMRAM     9     9      0
                          i2___flmul
                          i2___fltol
                         i2___xxtofl
 ---------------------------------------------------------------------------------
 (8) i2_moverHomeX                                         0     0      0    2419
                i2_PWM_DutyCycleCCP1
 ---------------------------------------------------------------------------------
 (9) i2_PWM_DutyCycleCCP1                                  9     9      0    2419
                                             49 COMRAM     9     9      0
                          i2___flmul
                          i2___fltol
                         i2___xxtofl
 ---------------------------------------------------------------------------------
 (10) i2___xxtofl                                         14    10      4     374
                                              0 COMRAM    14    10      4
 ---------------------------------------------------------------------------------
 (10) i2___fltol                                          10     6      4     281
                                             39 COMRAM    10     6      4
                          i2___flmul (ARG)
                         i2___xxtofl (ARG)
 ---------------------------------------------------------------------------------
 (10) i2___flmul                                          25    17      8    1674
                                             14 COMRAM    25    17      8
                         i2___xxtofl (ARG)
 ---------------------------------------------------------------------------------
 Estimated maximum stack depth 10
 ---------------------------------------------------------------------------------

 Call Graph Graphs:

 _main (ROOT)
   _PWM_CCP1_init
   _PWM_CCP2_init
   _PWM_DutyCycleCCP1
     ___flmul
       ___lwmod (ARG)
       ___xxtofl (ARG)
         ___lwmod (ARG)
     ___fltol
       ___fladd (ARG)
         ___flmul (ARG)
           ___lwmod (ARG)
           ___xxtofl (ARG)
             ___lwmod (ARG)
         ___lwmod (ARG)
         ___xxtofl (ARG)
           ___lwmod (ARG)
       ___flmul (ARG)
         ___lwmod (ARG)
         ___xxtofl (ARG)
           ___lwmod (ARG)
       ___lwmod (ARG)
       ___xxtofl (ARG)
         ___lwmod (ARG)
     ___xxtofl
       ___lwmod (ARG)
   _PWM_DutyCycleCCP2
     ___flmul
       ___lwmod (ARG)
       ___xxtofl (ARG)
         ___lwmod (ARG)
     ___fltol
       ___fladd (ARG)
         ___flmul (ARG)
           ___lwmod (ARG)
           ___xxtofl (ARG)
             ___lwmod (ARG)
         ___lwmod (ARG)
         ___xxtofl (ARG)
           ___lwmod (ARG)
       ___flmul (ARG)
         ___lwmod (ARG)
         ___xxtofl (ARG)
           ___lwmod (ARG)
       ___lwmod (ARG)
       ___xxtofl (ARG)
         ___lwmod (ARG)
     ___xxtofl
       ___lwmod (ARG)
   _UARTinit
   _funcionToques
     _presionarPantalla
     _printf
       _errorUART
       _send
         _errorUART
     _receive
       _errorUART
   _habilitarIntExternas
   _habilitarIntTMR0
   _habilitarIntTMR1
   _impCoordActual
     ___fladd
       ___flmul (ARG)
         ___lwmod (ARG)
         ___xxtofl (ARG)
           ___lwmod (ARG)
       ___lwmod (ARG)
       ___xxtofl (ARG)
         ___lwmod (ARG)
     ___flmul
       ___lwmod (ARG)
       ___xxtofl (ARG)
         ___lwmod (ARG)
     ___fltol
       ___fladd (ARG)
         ___flmul (ARG)
           ___lwmod (ARG)
           ___xxtofl (ARG)
             ___lwmod (ARG)
         ___lwmod (ARG)
         ___xxtofl (ARG)
           ___lwmod (ARG)
       ___flmul (ARG)
         ___lwmod (ARG)
         ___xxtofl (ARG)
           ___lwmod (ARG)
       ___lwmod (ARG)
       ___xxtofl (ARG)
         ___lwmod (ARG)
     ___lwmod
     ___xxtofl
       ___lwmod (ARG)
     _printf
       _errorUART
       _send
         _errorUART
     _send
       _errorUART
   _interruptsEnable
   _limpiarIntExtF
   _modificarZ
     _apagarZ
     _moverZAbajo
     _moverZArriba
     _printf
       _errorUART
       _send
         _errorUART
   _motorXinit
   _motorYinit
   _motoresZinit
   _moverHaciaX
     _PWM_DutyCycleCCP1
       ___flmul
         ___lwmod (ARG)
         ___xxtofl (ARG)
           ___lwmod (ARG)
       ___fltol
         ___fladd (ARG)
           ___flmul (ARG)
             ___lwmod (ARG)
             ___xxtofl (ARG)
               ___lwmod (ARG)
           ___lwmod (ARG)
           ___xxtofl (ARG)
             ___lwmod (ARG)
         ___flmul (ARG)
           ___lwmod (ARG)
           ___xxtofl (ARG)
             ___lwmod (ARG)
         ___lwmod (ARG)
         ___xxtofl (ARG)
           ___lwmod (ARG)
       ___xxtofl
         ___lwmod (ARG)
     ___wmul
       _abs (ARG)
     _abs
     _printf
       _errorUART
       _send
         _errorUART
     _send
       _errorUART
     _setNumPasosX
   _moverHaciaXY
     _moverHaciaX
       _PWM_DutyCycleCCP1
         ___flmul
           ___lwmod (ARG)
           ___xxtofl (ARG)
             ___lwmod (ARG)
         ___fltol
           ___fladd (ARG)
             ___flmul (ARG)
               ___lwmod (ARG)
               ___xxtofl (ARG)
                 ___lwmod (ARG)
             ___lwmod (ARG)
             ___xxtofl (ARG)
               ___lwmod (ARG)
           ___flmul (ARG)
             ___lwmod (ARG)
             ___xxtofl (ARG)
               ___lwmod (ARG)
           ___lwmod (ARG)
           ___xxtofl (ARG)
             ___lwmod (ARG)
         ___xxtofl
           ___lwmod (ARG)
       ___wmul
         _abs (ARG)
       _abs
       _printf
         _errorUART
         _send
           _errorUART
       _send
         _errorUART
       _setNumPasosX
     _moverHaciaY
       _PWM_DutyCycleCCP2
         ___flmul
           ___lwmod (ARG)
           ___xxtofl (ARG)
             ___lwmod (ARG)
         ___fltol
           ___fladd (ARG)
             ___flmul (ARG)
               ___lwmod (ARG)
               ___xxtofl (ARG)
                 ___lwmod (ARG)
             ___lwmod (ARG)
             ___xxtofl (ARG)
               ___lwmod (ARG)
           ___flmul (ARG)
             ___lwmod (ARG)
             ___xxtofl (ARG)
               ___lwmod (ARG)
           ___lwmod (ARG)
           ___xxtofl (ARG)
             ___lwmod (ARG)
         ___xxtofl
           ___lwmod (ARG)
       ___wmul
         _abs (ARG)
       _abs
       _printf
         _errorUART
         _send
           _errorUART
       _send
         _errorUART
       _setNumPasosY
     _printf
       _errorUART
       _send
         _errorUART
     _receive
       _errorUART
     _send
       _errorUART
   _moverHaciaY
     _PWM_DutyCycleCCP2
       ___flmul
         ___lwmod (ARG)
         ___xxtofl (ARG)
           ___lwmod (ARG)
       ___fltol
         ___fladd (ARG)
           ___flmul (ARG)
             ___lwmod (ARG)
             ___xxtofl (ARG)
               ___lwmod (ARG)
           ___lwmod (ARG)
           ___xxtofl (ARG)
             ___lwmod (ARG)
         ___flmul (ARG)
           ___lwmod (ARG)
           ___xxtofl (ARG)
             ___lwmod (ARG)
         ___lwmod (ARG)
         ___xxtofl (ARG)
           ___lwmod (ARG)
       ___xxtofl
         ___lwmod (ARG)
     ___wmul
       _abs (ARG)
     _abs
     _printf
       _errorUART
       _send
         _errorUART
     _send
       _errorUART
     _setNumPasosY
   _moverHomeX
     _PWM_DutyCycleCCP1
       ___flmul
         ___lwmod (ARG)
         ___xxtofl (ARG)
           ___lwmod (ARG)
       ___fltol
         ___fladd (ARG)
           ___flmul (ARG)
             ___lwmod (ARG)
             ___xxtofl (ARG)
               ___lwmod (ARG)
           ___lwmod (ARG)
           ___xxtofl (ARG)
             ___lwmod (ARG)
         ___flmul (ARG)
           ___lwmod (ARG)
           ___xxtofl (ARG)
             ___lwmod (ARG)
         ___lwmod (ARG)
         ___xxtofl (ARG)
           ___lwmod (ARG)
       ___xxtofl
         ___lwmod (ARG)
   _moverHomeY
     _PWM_DutyCycleCCP2
       ___flmul
         ___lwmod (ARG)
         ___xxtofl (ARG)
           ___lwmod (ARG)
       ___fltol
         ___fladd (ARG)
           ___flmul (ARG)
             ___lwmod (ARG)
             ___xxtofl (ARG)
               ___lwmod (ARG)
           ___lwmod (ARG)
           ___xxtofl (ARG)
             ___lwmod (ARG)
         ___flmul (ARG)
           ___lwmod (ARG)
           ___xxtofl (ARG)
             ___lwmod (ARG)
         ___lwmod (ARG)
         ___xxtofl (ARG)
           ___lwmod (ARG)
       ___xxtofl
         ___lwmod (ARG)
   _pistonInit
   _portInit
   _printf
     _errorUART
     _send
       _errorUART
   _receive
     _errorUART
   _scanf
     _errorUART
     _receive
       _errorUART
   _slidePiston
     _printf
       _errorUART
       _send
         _errorUART
     _receive
       _errorUART
   _tmr0Init
   _tmr1Init

 _low_isr (ROOT)

 _high_isr (ROOT)
   i2_PWM_DutyCycleCCP1
     i2___flmul
       i2___xxtofl (ARG)
     i2___fltol
       i2___flmul (ARG)
         i2___xxtofl (ARG)
       i2___xxtofl (ARG)
     i2___xxtofl
   i2_PWM_DutyCycleCCP2
     i2___flmul
       i2___xxtofl (ARG)
     i2___fltol
       i2___flmul (ARG)
         i2___xxtofl (ARG)
       i2___xxtofl (ARG)
     i2___xxtofl
   i2_moverHomeX
     i2_PWM_DutyCycleCCP1
       i2___flmul
         i2___xxtofl (ARG)
       i2___fltol
         i2___flmul (ARG)
           i2___xxtofl (ARG)
         i2___xxtofl (ARG)
       i2___xxtofl
   i2_moverHomeY
     i2_PWM_DutyCycleCCP2
       i2___flmul
         i2___xxtofl (ARG)
       i2___fltol
         i2___flmul (ARG)
           i2___xxtofl (ARG)
         i2___xxtofl (ARG)
       i2___xxtofl
   i2_printf
     i2_errorUART
     i2_send
       i2_errorUART

 Address spaces:
Name               Size   Autos  Total    Cost      Usage
BIGRAM             7FF      0       0      21        0.0%
EEDATA             100      0       0       0        0.0%
BITBANK7           100      0       0      18        0.0%
BANK7              100      0       0      19        0.0%
BITBANK6           100      0       0      16        0.0%
BANK6              100      0       0      17        0.0%
BITBANK5           100      0       0      14        0.0%
BANK5              100      0       0      15        0.0%
BITBANK4           100      0       0      12        0.0%
BANK4              100      0       0      13        0.0%
BITBANK3           100      0       0      10        0.0%
BANK3              100      0       0      11        0.0%
BITBANK2           100      0       0       8        0.0%
BANK2              100      0       0       9        0.0%
BITBANK1           100      0       0       6        0.0%
BANK1              100      0       0       7        0.0%
BITBANK0            A0      0       0       4        0.0%
BANK0               A0     69      85       5       83.1%
BITCOMRAM           5E      0       0       0        0.0%
COMRAM              5E     41      45       1       73.4%
BITSFR               0      0       0     200        0.0%
SFR                  0      0       0     200        0.0%
STACK                0      0       0       2        0.0%
NULL                 0      0       0       0        0.0%
ABS                  0      0      CA      20        0.0%
DATA                 0      0      CA       3        0.0%
CODE                 0      0       0       0        0.0%


Microchip Technology PIC18 Macro Assembler V2.10 build 88905656 
Symbol Table                                                                                   Thu Dec 12 08:04:51 2019

                                 l31 2ABA                                   l25 2AAC  
                                 l34 2A9E                                   l28 2AC8  
                                 l37 2ADE                                   l71 2964  
                                 l80 29B8                                   l73 2972  
                                 l74 297E                                   l83 27B2  
                                 l68 2A06                                   l84 2790  
                                 l77 29A6                                   l87 27C6  
                                 l79 29B4                                   bsr 000FE0  
              setNumPasosX@numPasosX 0061                  ___wmul@multiplicand 0067  
                                l102 299C                                  l120 295E  
                                l105 23C2                                  l123 247E  
                                l222 28EE                                  l224 28F2  
                                l216 29D2                                  l171 2AF4  
                                l227 28B8                                  l219 2A36  
                                l340 2248                                  l165 29EC  
                                l229 28BC                                  l350 14C8  
                                l174 2AD0                                  l326 1720  
                                l159 2AD8                                  l431 1F84  
                                l168 2AF8                                  l193 2886  
                                l354 1C60                                  l442 2088  
                                l187 26BA                                  l347 2780  
                                l453 22EA                                  l437 2070  
                                l454 22AC                                  l366 1D5E  
                                l462 2A4C                                  l471 2AE4  
                                l456 2306                                  l448 2174  
                                l474 2AEA                                  l459 2A62  
                                l477 2AF0                                  l667 291A  
                                l964 1E66                                  _PR2 000FCB  
              setNumPasosX@resultado 0063                                  _abs 280E  
                         i2___xxtofl 1AA0                                  wreg 000FE8  
                        i2___flmul@a 0013                          i2___flmul@b 000F  
                         _TXSTA1bits 000FAC                setNumPasosY@numPasosY 0061  
               __end_ofi2_moverHomeX 2A90                 __end_ofi2_moverHomeY 2A7A  
                       ___flmul@aexp 0085                         ___flmul@bexp 0086  
                       ___flmul@sign 0080                         ___flmul@temp 008B  
                       ___flmul@prod 0087                         __CFG_LVP$OFF 000000  
                       ___fltol@exp1 00A6                setNumPasosY@resultado 0063  
                       __CFG_WDT$OFF 000000                                 ?_abs 0061  
                               l1212 0810                                 l1204 09C6  
                               l1221 08E0                                 l1222 08CE  
                               l3001 1DCC                                 l1322 1942  
                               l3011 1DFC                                 l3003 1DDA  
                               l3021 1E26                                 l3013 1E06  
                               l1325 1A9E                                 l1342 2846  
                               l3103 268A                                 l3023 1E36  
                               l1175 2720                                 l3031 18EC  
                               l3111 28D2                                 l1168 2718  
                               l1336 1A36                                 l3105 26A6  
                               l1281 0A8E                                 l3025 1E46  
                               l3009 1DF2                                 l1329 19DA  
                               l3033 18FE                                 l1345 284E  
                               l3113 28E2                                 l3121 28AC  
                               l1290 0CFC                                 l3107 26AA  
                               l1195 06F6                                 l1291 0CEA  
                               l3027 1E56                                 l3019 1E1A  
                               l3051 19C4                                 l3043 197C  
                               l3035 190C                                 l3131 2912  
                               l3115 28E6                                 l3123 28B0  
                               l1196 06E4                                 l1197 06AA  
                               l1285 0DF2                                 l3061 1A44  
                               l3053 19D0                                 l3045 1984  
                               l3037 1952                                 l3125 280E  
                               l3109 28BE                                 l3117 2888  
                               l3071 1A8C                                 l3063 1A46  
                               l3055 1A0C                                 l3047 1990  
                               l3039 1968                                 l3127 282A  
                               l3119 289C                                 l1288 0C84  
                               l3073 1A8E                                 l3065 1A4A  
                               l3057 1A18                                 l3049 19C2  
                               l3129 28F4                                 l3081 23AA  
                               l3401 1F86                                 l4201 01D4  
                               l1298 0DB4                                 l3091 2658  
                               l3067 1A6E                                 l3059 1A26  
                               l3083 23C8                                 l3411 2014  
                               l3403 1FB2                                 l4203 01DC  
                               l4131 0042                                 l3501 0610  
                               l3069 1A7E                                 l3085 2450  
                               l3077 230C                                 l3421 2048  
                               l3413 2016                                 l3405 1FE0  
                               l4301 044A                                 l4221 0242  
                               l4213 0206                                 l4205 01E4  
                               l4141 0060                                 l4133 0048  
                               l3431 227C                                 l3511 0624  
                               l3503 0614                                 l3087 2466  
                               l3079 2394                                 l3423 204E  
                               l3415 202E                                 l3407 1FF8  
                               l4311 049E                                 l4303 045C  
                               l4231 026C                                 l4223 0252  
                               l4215 0216                                 l4207 01E8  
                               l4151 0076                                 l4143 0064  
                               l4135 004C                                 l4127 002C  
                               l3441 22E4                                 l3433 228E  
                               l3097 265E                                 l3089 2654  
                               l3361 2976                                 l3601 0872  
                               l3521 0638                                 l3513 0628  
                               l3505 0618                                 l3425 205A  
                               l3417 203A                                 l3409 1FFE  
                               l4313 04B0                                 l4305 046E  
                               l4241 02A8                                 l4225 0258  
                               l4217 0226                                 l4233 0270  
                               l4209 01F4                                 l4161 00AC  
                               l4153 007E                                 l4145 0068  
                               l4137 0058                                 l4129 003C  
                               l3443 22E6                                 l3435 22A4  
                               l3603 087A                                 l3611 089E  
                               l3531 064C                                 l3523 063C  
                               l3515 062C                                 l3507 061C  
                               l3451 0506                                 l3371 20B6  
                               l3419 2042                                 l3427 2064  
                               l4315 04C2                                 l4307 0488  
                               l4251 0308                                 l4243 02C2  
                               l4235 027C                                 l4227 025C  
                               l4219 0232                                 l4171 0108  
                               l4163 00C0                                 l4155 0082  
                               l4147 006C                                 l4139 005C  
                               l3701 29F6                                 l3437 22AE  
                               l3429 224E                                 l3621 08F0  
                               l3613 08A2                                 l3605 087E  
                               l3541 06C4                                 l3533 0676  
                               l3525 0640                                 l3517 0630  
                               l3509 0620                                 l3461 0544  
                               l3453 0514                                 l2901 0AD8  
                               l3445 2AEC                                 l3381 211A  
                               l3373 20E4                                 l3365 2076  
                               l4317 04F2                                 l4309 048C  
                               l4253 030A                                 l4261 0332  
                               l4245 02CA                                 l4237 0284  
                               l4229 0264                                 l4181 015A  
                               l4173 010C                                 l4165 00D2  
                               l4157 008A                                 l4149 0070  
                               l3711 2A00                                 l3703 29F8  
                               l3439 22C8                                 l3359 2960  
                               l3631 0956                                 l3623 08FC  
                               l3615 08B0                                 l3607 088E  
                               l3551 0704                                 l3543 06C8  
                               l3535 0692                                 l3527 0644  
                               l3519 0634                                 l3471 0574  
                               l3463 0554                                 l3455 0522  
                               l2911 0B2A                                 l2903 0AEE  
                               l3447 2AE0                                 l3391 2152  
                               l3383 2132                                 l3375 20FC  
                               l3367 2076                                 l4271 0390  
                               l4263 0344                                 l4255 030E  
                               l4247 02DC                                 l4239 0296  
                               l4191 019E                                 l4183 0174  
                               l4167 00E4                                 l4159 0096  
                               l4175 0118                                 l3721 299A  
                               l3713 2A02                                 l3705 29FA  
                               l3641 099E                                 l3633 0966  
                               l3625 090A                                 l3617 08C6  
                               l3609 0890                                 l3561 0746  
                               l3553 0714                                 l3545 06D6  
                               l3537 06A2                                 l3529 0648  
                               l3481 059E                                 l3473 0586  
                               l3465 0556                                 l3457 0524  
                               l2921 0B70                                 l2913 0B38  
                               l2905 0AFA                                 l3449 2AE6  
                               l3393 215E                                 l3385 213E  
                               l3377 2102                                 l3369 208A  
                               l3801 15E4                                 l4281 03D8  
                               l4273 0394                                 l4265 0356  
                               l4257 0328                                 l4249 02EE  
                               l4193 01AA                                 l4185 0178  
                               l4177 012A                                 l4169 00F6  
                               l3723 293E                                 l3715 2A04  
                               l3707 29FC                                 l2851 2782  
                               l3731 29D4                                 l3643 09A0  
                               l3635 0986                                 l3627 0944  
                               l3571 0774                                 l3563 0754  
                               l3547 06D8                                 l3539 06B8  
                               l3483 05AE                                 l3491 05D8  
                               l3475 0588                                 l3459 0534  
                               l3467 055E                                 l2931 0BDE  
                               l2923 0B8A                                 l2915 0B44  
                               l2907 0B12                                 l3387 2146  
                               l3395 2168                                 l3379 2118  
                               l3811 1628                                 l3803 15F4  
                               l4291 0420                                 l4283 03DC  
                               l4267 0370                                 l4275 039A  
                               l4259 032C                                 l4195 01BA  
                               l4187 017C                                 l4179 013C  
                               l3725 2940                                 l3717 2980  
                               l3709 29FE                                 l2853 27C0  
                               l3733 2AF6                                 l3645 09A6  
                               l3637 098A                                 l3629 0946  
                               l3581 07E0                                 l3573 077E  
                               l3565 0760                                 l3557 0728  
                               l3549 06E2                                 l3493 05E8  
                               l3485 05BE                                 l3477 058E  
                               l3469 056E                                 l2941 0C74  
                               l2933 0C08                                 l2925 0B9A  
                               l2917 0B54                                 l2909 0B1E  
                               l2861 09E4                                 l3661 26EE  
                               l3653 26BC                                 l3389 214C  
                               l3397 1F72                                 l3821 1666  
                               l3813 162C                                 l3805 1604  
                               l3741 2854                                 l3901 277E  
                               l4293 0426                                 l4285 03E0  
                               l4277 03AC                                 l4269 0376  
                               l4197 01CA                                 l4189 018E  
                               l3727 295C                                 l3719 2982  
                               l2855 29A2                                 l3735 2AF2  
                               l3647 09B4                                 l3639 0998  
                               l3583 07F0                                 l3567 0764  
                               l3559 0738                                 l3575 0784  
                               l3495 05FA                                 l3487 05CE  
                               l3479 059C                                 l2951 0CB4  
                               l2943 0C82                                 l2935 0C3E  
                               l2927 0BB6                                 l2919 0B60  
                               l2871 0A1C                                 l2863 09E6  
                               l3663 2704                                 l3655 26D0  
                               l3911 1350                                 l3903 121E  
                               l3399 1F72                                 l3831 16BE  
                               l3823 167C                                 l3815 163C  
                               l3807 1608                                 l3743 285E  
                               l3751 29C8                                 l4295 042A  
                               l4287 03F2                                 l4279 03BE  
                               l4199 01D0                                 l3649 09B6  
                               l3593 084A                                 l3577 07AA  
                               l3585 0800                                 l3569 0772  
                               l3497 0608                                 l3489 05D0  
                               l2961 0D26                                 l2953 0CE2  
                               l2945 0C94                                 l2937 0C4C  
                               l2929 0BC2                                 l2881 0A48  
                               l2873 0A2C                                 l2865 09F6  
                               l2857 09C8                                 l3665 270C  
                               l3657 26D8                                 l3921 14C2  
                               l3913 137E                                 l3905 122C  
                               l3729 2AD2                                 l3737 2ACA  
                               l3841 16E4                                 l3833 16C6  
                               l3825 168C                                 l3817 164C  
                               l3809 1618                                 l3761 14CA  
                               l3745 2870                                 l3753 29D0  
                               l4297 0432                                 l4289 0402  
                               l3851 217C                                 l3595 0854  
                               l3587 0826                                 l3579 07DE  
                               l3499 060C                                 l2971 0D9C  
                               l2963 0D50                                 l2947 0CA2  
                               l2939 0C6A                                 l2891 0A9E  
                               l2883 0A58                                 l2875 0A32  
                               l2867 0A06                                 l2859 09D6  
                               l3667 2712                                 l3659 26E0  
                               l3915 13F6                                 l3907 12A4  
                               l3931 1C8E                                 l3923 1C54  
                               l3691 2AAE                                 l3843 16EC  
                               l3835 16CE                                 l3827 16AA  
                               l3819 1650                                 l3771 14FC  
                               l3763 14D8                                 l3683 2AA0  
                               l3747 2874                                 l3739 2850  
                               l3755 2A22                                 l4299 043A  
                               l3861 21B0                                 l3853 2188  
                               l3597 0862                                 l3589 0836  
                               l2973 0DB8                                 l2981 0DDE  
                               l2957 0D0C                                 l2965 0D54  
                               l2949 0CA6                                 l2893 0AAE  
                               l2885 0A68                                 l2877 0A38  
                               l2869 0A16                                 l3917 1484  
                               l3909 1332                                 l3941 1CB6  
                               l3933 1C9C                                 l3925 1C5A  
                               l3693 2A90                                 l3845 16F2  
                               l3837 16D4                                 l3829 16B6  
                               l3781 154C                                 l3773 1508  
                               l3765 14E4                                 l3685 2AA8  
                               l3757 2A2C                                 l3749 29BA  
                               l3871 21E8                                 l3863 21C0  
                               l3855 2190                                 l3599 0864  
                               l2983 0DE2                                 l2975 0DC8  
                               l2967 0D6E                                 l2959 0D18  
                               l2887 0A78                                 l2879 0A46  
                               l3919 14A2                                 l3951 1CF6  
                               l3943 1CC8                                 l3935 1CA0  
                               l3927 1C6E                                 l3847 1702  
                               l3839 16DC                                 l3791 15AC  
                               l3783 1578                                 l3775 1510  
                               l3767 14EC                                 l3695 2ADA  
                               l3687 2AAA                                 l3759 2A34  
                               l3697 29EE                                 l3881 222C  
                               l3873 21F8                                 l3865 21C4  
                               l3857 2198                                 l3849 2176  
                               l2977 0DD6                                 l2969 0D82  
                               l2897 0AC2                                 l2889 0A7E  
                               l2993 1D8C                                 l3961 1D36  
                               l3945 1CD6                                 l3953 1CFA  
                               l3937 1CA2                                 l3929 1C80  
                               l3689 2ABC                                 l3793 15BC  
                               l3785 1588                                 l3777 1518  
                               l3769 14F4                                 l3699 29F2  
                               l3883 223A                                 l3875 2208  
                               l3867 21D4                                 l3859 21A0  
                               l2979 0DD8                                 l2899 0ACE  
                               l2995 1DB6                                 l2987 1D60  
                               l3963 1D3A                                 l3955 1D08  
                               l3947 1CE4                                 l3939 1CA8  
                               l3795 15C0                                 l3787 1598  
                               l3779 1520                                 l3971 2A50  
                               l3891 273E                                 l3877 220C  
                               l3869 21E4                                 l2997 1DB8  
                               l2989 1D78                                 l3965 1D48  
                               l3957 1D1A                                 l3949 1CE8  
                               l3797 15D0                                 l3789 159C  
                               l3973 2A54                                 l3981 2A3E  
                               l3893 274E                                 l3885 2722  
                               l3879 221C                                 l2999 1DC8  
                               l3959 1D28                                 l3967 1D4C  
                               l3799 15E0                                 l3975 2A5C  
                               l3983 2A46                                 l3895 2760  
                               l3887 272A                                 l3969 2A4E  
                               l3977 2A38                                 l3897 2762  
                               l3889 273C                                 l3979 2A3A  
                               l3899 2772                                 STR_1 7FF3  
                               STR_2 7FF7                                 STR_3 7D48  
                               STR_4 7FDE                                 STR_5 7DD8  
                               STR_6 7FD5                                 STR_7 7F60  
                               STR_8 7FDE                                 STR_9 7FD5  
                               _CREN 007D5C                                 _FERR 007D5A  
                               u2200 0A46                                 u3000 2118  
                               u2201 0A42                                 u3001 2114  
                               u2130 2790                                 u2210 0A58  
                               u3010 2132                                 u2131 278C  
                               u2211 0A54                                 u3011 212E  
                               u2140 27B2                                 u3100 0534  
                               u2300 0CF8                                 u2220 0A68  
                               u3020 1F84                                 u2141 27AE  
                               u3101 0530                                 u2301 0CF4  
                               u2221 0A64                                 u3021 1F80  
                               u2150 27C0                                 u3110 0544  
                               u2310 0D0C                                 u2230 0A9E  
                               u3030 1FF8                                 u2151 27BC  
                               u3111 0540                                 u2311 0D08  
                               u2231 0A9A                                 u3031 1FF4  
                               u2160 29B4                                 u3200 0690  
                               u3120 0586                                 u2320 0D26  
                               u2240 0AAE                                 u2400 1E16  
                               u3040 2014                                 u4000 00E4  
                               u2161 29B0                                 u3121 0582  
                               u2321 0D22                                 u2241 0AAA  
                               u2401 1E12                                 u3041 2010  
                               u4001 00E0                                 u3210 06B8  
                               u3130 059C                                 u2330 0D6E  
                               u2250 0C28                                 u2170 09E4  
                               u2410 1E36                                 u3050 202E  
                               u4010 00F6                                 u3211 06B4  
                               u3131 0598                                 u2331 0D6A  
                               u2171 09E0                                 u2411 1E32  
                               u3051 202A                                 u4011 00F2  
                               u3060 228E                                 u3300 07F0  
                               u3220 06D6                                 u3140 05AE  
                               u2340 0D9C                                 u2260 0C82  
                               u2180 09F6                                 u2420 1E46  
                               u2500 1A44                                 u4100 0296  
                               u4020 0108                                 u3061 228A  
                               u3301 07EC                                 u3221 06D2  
                               u3141 05AA                                 u2341 0D98  
                               u2261 0C7E                                 u2181 09F2  
                               u2421 1E42                                 u2501 1A40  
                               u4101 0292                                 u4021 0104  
                               u3070 22A4                                 u3310 0826  
                               u3230 06F6                                 u3150 05BE  
                               u2350 0DD6                                 u2270 0CA2  
                               u2190 0A06                                 u2510 1A7E  
                               u2430 18FE                                 u4110 02A8  
                               u4030 012A                                 u3071 22A0  
                               u3311 0822                                 u3231 06F2  
                               u3151 05BA                                 u2351 0DD2  
                               u2271 0C9E                                 u2255 0C1E  
                               u2191 0A02                                 u2511 1A7A  
                               u2431 18FA                                 u4111 02A4  
                               u4031 0126                                 u3080 2306  
                               u3400 08F0                                 u3320 0836  
                               u3240 0704                                 u3160 05FA  
                               u2280 0CB4                                 u2360 1D78  
                               u2520 1A8C                                 u2440 190C  
                               u4200 045C                                 u4120 02DC  
                               u4040 013C                                 u3081 2302  
                               u3401 08EC                                 u3321 0832  
                               u3241 0700                                 u3161 05F6  
                               u2281 0CB0                                 u2361 1D74  
                               u2521 1A88                                 u2441 1908  
                               u4201 0458                                 u4121 02D8  
                               u4041 0138                                 u2530 2686  
                               u3410 090A                                 u3330 0862  
                               u3250 0714                                 u3170 0608  
                               u3090 0522                                 u2290 0CE2  
                               u2370 1DAC                                 u2450 1968  
                               u4210 046E                                 u4130 02EE  
                               u4050 018E                                 u2531 2682  
                               u3411 0906                                 u3331 085E  
                               u3251 0710                                 u3171 0604  
                               u3091 051E                                 u2291 0CDE  
                               u2451 1964                                 u4211 046A  
                               u4131 02EA                                 u4051 018A  
                               u2540 26BA                                 u3420 0944  
                               u3340 0872                                 u3260 0746  
                               u3180 0676                                 u2380 1DDA  
                               u3500 2704                                 u2460 19BE  
                               u4220 04B0                                 u4140 0344  
                               u4060 019E                                 u2541 26B6  
                               u3421 0940                                 u3341 086E  
                               u3261 0742                                 u3181 0672  
                               u2381 1DD6                                 u3501 2700  
                               u2461 19BA                                 u4221 04AC  
                               u4141 0340                                 u4061 019A  
                               u3430 0956                                 u3350 088E  
                               u3270 0754                                 u3190 068E  
                               u2390 1DEE                                 u2470 1A08  
                               u2550 28D2                                 u4230 04C2  
                               u4150 0356                                 u4070 0206  
                               u3431 0952                                 u3351 088A  
                               u3271 0750                                 u3191 0688  
                               u2391 1DEA                                 u2375 1DA2  
                               u2471 1A04                                 u2551 28CE  
                               u4231 04BE                                 u4151 0352  
                               u4071 0202                                 u3440 0966  
                               u3360 089E                                 u3280 0772  
                               u2480 1A26                                 u2560 289C  
                               u3600 1604                                 u3520 2886  
                               u4160 03AC                                 u4080 0216  
                               u3441 0962                                 u3361 089A  
                               u3281 076E                                 u2481 1A22  
                               u2561 2898                                 u3601 1600  
                               u3521 2882                                 u4161 03A8  
                               u4081 0212                                 u3450 0986  
                               u3370 08B0                                 u3290 07AA  
                               u2490 1A36                                 u2570 282A  
                               u3610 1618                                 u3530 1588  
                               u4170 03BE                                 u4090 0226  
                               u4307 22BA                                 u3451 0982  
                               u3371 08AC                                 u3291 07A6  
                               u2491 1A32                                 u2571 2826  
                               u3611 1614                                 u3531 1584  
                               u4171 03BA                                 u4091 0222  
                               u3700 21D4                                 u3460 0998  
                               u3380 08C6                                 u3620 1628  
                               u3540 1598                                 u4180 03F2  
                               u4317 22D6                                 u3701 21D0  
                               u3461 0994                                 u3381 08C2  
                               u3621 1624                                 u3541 1594  
                               u4181 03EE                                 u3710 21E4  
                               u3470 09B4                                 u3390 08DC  
                               u3630 163C                                 u3550 15AC  
                               u4190 0402                                 u3711 21E0  
                               u3471 09B0                                 u3391 08D8  
                               u3631 1638                                 u3551 15A8  
                               u4191 03FE                                 u4247 0166  
                               u3720 21F8                                 u3480 26D0  
                               u3800 1CD6                                 u3640 164C  
                               u3560 15BC                                 u3721 21F4  
                               u3481 26CC                                 u3801 1CD2  
                               u3641 1648                                 u3561 15B8  
                               u4257 031A                                 u3730 2208  
                               u3490 26EE                                 u3810 1CF6  
                               u3650 1666                                 u3570 15D0  
                               u3731 2204                                 u3491 26EA  
                               u3811 1CF2                                 u3651 1662  
                               u3571 15CC                                 u4267 0382  
                               u3740 221C                                 u3820 1D08  
                               u3660 167C                                 u3580 15E0  
                               u3741 2218                                 u3821 1D04  
                               u4277 1C76                                 u3661 1678  
                               u3581 15DC                                 u3830 1D28  
                               u3670 168C                                 u3590 15F4  
                               u3750 273C                                 u3831 1D24  
                               u4287 1CBE                                 u3671 1688  
                               u3591 15F0                                 u3751 2738  
                               u3680 21B0                                 u3840 1D48  
                               u3760 2760                                 u3681 21AC  
                               u3841 1D44                                 u4297 1D10  
                               u3761 275C                                 u2970 2972  
                               u3690 21C0                                 u3850 1D5E  
                               u3770 1C6E                                 u2971 296E  
                               u3691 21BC                                 u3851 1D5A  
                               u3771 1C6A                                 u3780 1C8E  
                               u2980 2088                                 u3781 1C8A  
                               u2981 2084                                 u3790 1CB6  
                               u2990 20FC                                 u3791 1CB2  
                               u2991 20F8                                 u3980 00C0  
                               u3981 00BC                                 u3990 00D2  
                               u3991 00CE                                 i2l80 2A20  
                               _OERR 007D59                                 i2l83 27F8  
                               i2l84 27D6                                 i2l77 2A0E  
                               i2l87 280C                                 i2l79 2A1C  
                               _TMR0 000FD6                                 _TMR1 000FCE  
                               _TMR2 000FCC                                 _TXEN 007D65  
                               abs@a 0061                                 _main 002C  
                               _send 299E                                 indf2 000FDF  
                               fsr2l 000FD9                                 btemp 0046  
                   scanf@guardarscan 0063                         main@pActMenu 00C0  
                               prodh 000FF4                                 prodl 000FF3  
                               start 0028                         i2___fltol@f1 0028  
                      __CFG_MCLRE$ON 000000                         ___param_bank 000000  
                              ??_abs 0063             __end_of_interruptsEnable 2ADA  
                      ___fltol@sign1 00A5                      __end_of___fladd 09C8  
                              ?_main 0001                                ?_send 0001  
                              STR_10 7FD5                                STR_11 7FD5  
                              STR_12 7FDE                                STR_20 7F40  
                              STR_13 7FFB                                STR_21 7F70  
                              STR_14 7FED                                STR_30 7F2E  
                              STR_22 7D14                                STR_31 7FC3  
                              STR_23 7FA6                                STR_15 7F91  
                              STR_40 7FCC                                STR_16 7F86  
                              STR_32 7EDD                                STR_24 7CE0  
                              STR_17 7FB0                                STR_25 7F9C  
                              STR_41 7EF9                                STR_33 7E7F  
                              STR_42 7FCC                                STR_50 7FE6  
                              STR_34 7FBA                                STR_18 7F50  
                              STR_26 7DAA                                STR_43 7FD5  
                              STR_19 7F7B                                STR_35 7EA2  
                              STR_27 7E03                                STR_36 7FCC  
                              STR_44 7EC1                                STR_28 7E2D  
                              STR_45 7FCC                                STR_37 7D7C  
                              STR_29 7C91                                STR_46 7FD5  
                              STR_38 7FCC                                STR_47 7F14  
                              STR_39 7E57                                STR_48 7FCC  
                              STR_49 7FD5                      __end_of___flmul 0DF4  
                    __end_of___fltol 1E68                                i2l105 2532  
                    __end_of___lwmod 2722                                i2l123 25E6  
                              i1l615 0020                                i2l610 18CC  
                              i2l187 2652                                i2l462 2A78  
                              i2l459 2A8E                                i2l964 1F6C  
                              _RCREG 000FAE                                _TMR0H 000FD7  
                              _TMR1H 000FCF                                _TMR0L 000FD6  
                              _TMR1L 000FCE                                _SPBRG 000FAF  
                    __end_of_apagarZ 2AF2                       _impCoordActual 121E  
                        i2_errorUART 27C8                     __end_of_UARTinit 2A08  
                    _coordenadaNueva 0045                                _scanf 2850  
                    __end_of_receive 2980                      __end_of_low_isr 0028  
                    ??_PWM_CCP1_init 0061                      ??_PWM_CCP2_init 0061  
                              tablat 000FF5                                ttemp5 0047  
                              ttemp6 004A                                ttemp7 004E  
                              status 000FD8         __size_ofi2_PWM_DutyCycleCCP1 00B4  
       __size_ofi2_PWM_DutyCycleCCP2 00B4                                wtemp8 0047  
                      i2___flmul@grs 001C                   __size_ofi2___flmul 042A  
                 __size_ofi2___fltol 0106                     __end_ofi2_printf 2654  
          moverHaciaY@coordYCentenas 00B4                      __initialization 291C  
                       __end_of_main 0506                         __end_of_send 29BA  
                             ??_main 00BC                               ??_send 0062  
                      __activetblptr 000002                     ??_limpiarIntExtF 0061  
             __end_of_impCoordActual 14CA                          ?i2___xxtofl 0001  
                   _habilitarIntTMR0 2AF6                     _habilitarIntTMR1 2AF2  
    i2PWM_DutyCycleCCP1@PWMDutyValue 0039        PWM_DutyCycleCCP1@PWMDutyValue 00AE  
                  main@calibrarSparc 00C7        __size_of_habilitarIntExternas 001A  
          moverHaciaY@coordYUnidades 00B1                               ?_scanf 0063  
                             _ADRESH 000FC4                               _ADRESL 000FC3  
                             _CCPR1L 000FBE                               _CCPR2L 000FBB  
                             i1l4125 001E                               i2l1322 1AF6  
                             i2l1325 1C52                               i2l1336 1BEA  
                             i2l1281 0EB8                               i2l3201 0E5C  
                             i2l1329 1B8E                               i2l4001 264C  
                             i2l1290 1126                               i2l1291 1114  
                             i2l3211 0E92                               i2l3203 0E62  
                             i2l4011 2A88                               i2l3301 11F2  
                             i2l1285 121C                               i2l3213 0EA2  
                             i2l3205 0E70                               i2l3141 1E7E  
                             i2l4005 2A7A                               i2l4013 2A64  
                             i2l4101 1870                               i2l3303 1200  
                             i2l3231 0F24                               i2l3223 0EEC  
                             i2l3215 0EA8                               i2l3207 0E72  
                             i2l3151 1ECE                               i2l4007 2A7C  
                             i2l4015 2A66                               i2l3135 27C8  
                             i2l4111 18A2                               i2l4103 1874  
                             i2l1288 10AE                               i2l3305 1202  
                             i2l3241 0F6E                               i2l3233 0F3C  
                             i2l3225 0EF8                               i2l3217 0EC8  
                             i2l3209 0E82                               i2l3161 1EF8  
                             i2l3153 1ED2                               i2l3145 1E92  
                             i2l3321 1B1C                               i2l3313 1AA2  
                             i2l4009 2A80                               i2l4017 2A6A  
                             i2l3137 2806                               i2l4121 18C6  
                             i2l4113 18AE                               i2l4105 1876  
                             i2l4041 1768                               i2l4033 173C  
                             i2l1298 11DE                               i2l3307 1208  
                             i2l3251 0FC4                               i2l3243 0F7E  
                             i2l3235 0F48                               i2l3227 0F02  
                             i2l3219 0ED8                               i2l3171 1F20  
                             i2l3163 1F02                               i2l3155 1EE0  
                             i2l3147 1EBC                               i2l3139 1E68  
                             i2l3331 1B76                               i2l3315 1AB2  
                             i2l4019 2A72                               i2l4123 18CA  
                             i2l4115 18B4                               i2l4107 1884  
                             i2l4043 1774                               i2l4035 174A  
                             i2l4051 178A                               i2l3309 120C  
                             i2l3261 1068                               i2l3253 0FE0  
                             i2l3245 0F8A                               i2l3237 0F54  
                             i2l3229 0F18                               i2l3173 1F2C  
                             i2l3165 1F0C                               i2l3149 1EBE  
                             i2l3341 1BDA                               i2l3333 1B78  
                             i2l3325 1B30                               i2l3317 1AC0  
                             i2l4117 18BE                               i2l4109 1894  
                             i2l4061 17C2                               i2l4053 1798  
                             i2l4045 1780                               i2l4037 175A  
                             i2l3271 10BE                               i2l3263 1076  
                             i2l3255 0FEC                               i2l3247 0F9A  
                             i2l3239 0F62                               i2l3191 0E20  
                             i2l3183 0DF4                               i2l3175 1F3C  
                             i2l3351 1C32                               i2l3343 1BF8  
                             i2l3335 1B84                               i2l3327 1B38  
                             i2l3319 1B06                               i2l4119 18C2  
                             i2l4071 17E6                               i2l4063 17CE  
                             i2l4055 17A8                               i2l4047 1786  
                             i2l4039 1760                               i2l3273 10CC  
                             i2l3265 1094                               i2l3257 1008  
                             i2l3249 0FB4                               i2l3193 0E30  
                             i2l3185 0E00                               i2l3177 1F4C  
                             i2l3353 1C40                               i2l3345 1BFA  
                             i2l3337 1BC0                               i2l3329 1B44  
                             i2l4081 1818                               i2l4073 17F6  
                             i2l4065 17D4                               i2l4057 17AE  
                             i2l4049 1788                               i2l3283 1136  
                             i2l3291 117E                               i2l3275 10D0  
                             i2l3267 109E                               i2l3259 1032  
                             i2l3195 0E40                               i2l3187 0E0E  
                             i2l3179 1F5C                               i2l3355 1C42  
                             i2l3347 1BFE                               i2l3339 1BCC  
                             i2l4091 184C                               i2l4083 181E  
                             i2l4075 1804                               i2l4067 17D6  
                             i2l4059 17B6                               i2l3293 1198  
                             i2l3285 1142                               i2l3277 10DE  
                             i2l3269 10AC                               i2l3197 0E46  
                             i2l3189 0E10                               i2l3349 1C22  
                             i2l4093 1858                               i2l4077 1810  
                             i2l4085 1820                               i2l4069 17D8  
                             i2l3295 11AC                               i2l3287 1150  
                             i2l3279 110C                               i2l3199 0E56  
                             i2l4095 185E                               i2l4087 182E  
                             i2l4079 1814                               i2l3297 11C6  
                             i2l3289 117A                               i2l4097 1868  
                             i2l4089 183E                               i2l3299 11E2  
                             i2l4099 186C                               i2l3671 2482  
                             i2l3681 25CE                               i2l3673 2506  
                             i2l3675 251A                               i2l3677 2536  
                             i2l3669 2A0A                               i2l3679 25BA  
                             i2l3993 2604                               i2l3985 25E8  
                             i2l3987 25EC                               i2l3989 25F0  
                             i2l3999 2630                               _RCREG1 000FAE  
                             _OSCCON 000FD3                               _TXREG1 000FAD  
                   __end_of___xxtofl 1AA0                         ?_moverHaciaX 00B0  
                       ?_moverHaciaY 00B0                         ?_moverZAbajo 0001  
                             i2_send 2A08                      i2errorUART@temp 0001  
                   __end_of_high_isr 18E8                         ?_slidePiston 0001  
                          ??___fladd 0095                               ___wmul 28F4  
                          ??___flmul 007C                            ??___fltol 00A1  
                          ??___lwmod 0065                        main@opcionsel 00C8  
                             clear_0 2922                            ??_apagarZ 0061  
              __size_ofi2_moverHomeX 0016                __size_ofi2_moverHomeY 0016  
                             _printf 2654                     __end_of_tmr0Init 2A38  
                   __end_of_tmr1Init 29D4                               scanf@i 0066  
                    ?_impCoordActual 0001                    __end_ofi2___flmul 121E  
                          ??_receive 0062                    __end_ofi2___fltol 1F6E  
                       __mediumconst 7C90                     __end_of_portInit 2AAE  
                          ??_low_isr 0060               __size_of_funcionToques 00D4  
                             tblptrh 000FF7                               tblptrl 000FF6  
                             tblptru 000FF8                  _impCoordActual$2926 00A7  
                     i2___flmul@aexp 0020                       i2___flmul@bexp 0021  
                     i2___flmul@sign 001B                       i2___flmul@temp 0026  
                     i2___flmul@prod 0022                         ___xxtofl@arg 0070  
                       ___xxtofl@exp 006F                         ___xxtofl@val 0066  
                         __accesstop 0060              __end_of__initialization 2930  
                     i2___fltol@exp1 0031                        ___rparam_used 000001  
                  _presionarZDecenas 00DD                           ___fltol@f1 009D  
                __size_ofi2___xxtofl 01B4                         i2_moverHomeX 2A7A  
                       i2_moverHomeY 2A64                       __pcstackCOMRAM 0001  
                  _presionarPantalla 224A                        __end_of_scanf 2888  
                          ?_UARTinit 0001                          _CurrentPosX 00D3  
                        _CurrentPosY 00CF                   ?_presionarPantalla 0061  
           i2_PWM_DutyCycleCCP1$3017 0034             i2_PWM_DutyCycleCCP2$3016 0034  
                ??_presionarPantalla 0063                            ?i2_printf 0003  
    i2PWM_DutyCycleCCP2@PWMDutyValue 0039        PWM_DutyCycleCCP2@PWMDutyValue 00AE  
                            ??_scanf 0066                           __pbssBANK0 00C9  
                 __size_of_errorUART 0046                              ?i2_send 0001  
                  _habilitarModCoord 0044                        _funcionToques 2176  
          __end_of_presionarPantalla 2308                        ?_setNumPasosX 0061  
                      ?_setNumPasosY 0061                              ?___wmul 0065  
                         ??_UARTinit 0061                              ?_printf 0063  
                  ?_interruptsEnable 0001                  i2_PWM_DutyCycleCCP1 2534  
                i2_PWM_DutyCycleCCP2 2480                   ??_interruptsEnable 0061  
                          ?___xxtofl 0066                           ??i2_printf 0005  
                       ?i2_errorUART 0001                            ?_high_isr 0001  
                      ?_moverHaciaXY 0001                 ?i2_PWM_DutyCycleCCP1 0001  
               ?i2_PWM_DutyCycleCCP2 0001                        ?_moverZArriba 0001  
                          ?_tmr0Init 0001                            ?_tmr1Init 0001  
                         _xToAdvance 00D5                      __size_ofi2_send 001A  
                     ?_funcionToques 0001             __end_of_habilitarIntTMR0 2AFA  
           __end_of_habilitarIntTMR1 2AF6                              __Hparam 0000  
                            __Lparam 0000                 __size_of_moverHaciaX 0104  
               __size_of_moverHaciaY 0104                 __size_of_moverZAbajo 0006  
                         _yToAdvance 00D1                       ??_setNumPasosX 0063  
                     ??_setNumPasosY 0063                            ?_portInit 0001  
                            ___fladd 0506                              ___flmul 09C8  
                            ___fltol 1D60                           _llegoHomeX 00D9  
                         _llegoHomeY 00D8                      __size_of___wmul 0028  
                            ___lwmod 26BC                              __pcinit 291C  
               __size_of_slidePiston 0060                              _apagarZ 2AEC  
                            __ramtop 0800                              __ptext0 002C  
                            __ptext1 29BA                              __ptext2 2A22  
                            __ptext3 2722                              __ptext4 2850  
                            __ptext5 2AA0                              __ptext6 2ADA  
                            __ptext7 2A38                              __ptext8 2A4E  
                            __ptext9 14CA                      __size_of_printf 0068  
                          _T0CONbits 000FD5                            _T1CONbits 000FCD  
                  __end_of_errorUART 27C8                            _T2CONbits 000FCA  
                       __size_of_abs 0042                         ??i2___xxtofl 0005  
                         ??___xxtofl 006A                        _OcurrioIntEsq 00D7  
                            _receive 2960                           _modificarZ 1C54  
                            _low_isr 0018                         _destinoHomeX 0043  
                       _destinoHomeY 0042                           ??_high_isr 003B  
                     __pintcode_body 1722                       ??_moverHaciaXY 00B5  
               end_of_initialization 2930                        ?_motoresZinit 0001  
         moverHaciaXY@charNoNumerico 00BB                ??i2_PWM_DutyCycleCCP1 0032  
              ??i2_PWM_DutyCycleCCP2 0032                       ??_moverZArriba 0061  
                      __Lmediumconst 7C90                __end_of_PWM_CCP1_init 2960  
                            int_func 1722                __end_of_PWM_CCP2_init 299E  
                     i2___xxtofl@arg 000B                       i2___xxtofl@exp 000A  
                     i2___xxtofl@val 0001                           ??_tmr0Init 0061  
                         ??_tmr1Init 0061                           _moverHomeX 2A4E  
                         _moverHomeY 2A38         __end_of_habilitarIntExternas 29EE  
         __size_of_presionarPantalla 00BE                              printf@i 0067  
                 __end_ofi2___xxtofl 1C54                           ??_portInit 0061  
                            postinc0 000FEE          funcionToques@charNoNumerico 0068  
                         _motorXinit 2ABC                           _motorYinit 2AAE  
                         _pistonInit 2ADA                     ??_impCoordActual 00A7  
                    receive@recibido 0062                            _PORTAbits 000F80  
                          _PORTBbits 000F81                            _PORTCbits 000F82  
                        ___fladd@grs 009C             moverHaciaX@coordXDecenas 00B0  
                      ___xxtofl@sign 006E                            _TRISAbits 000F92  
                          _TRISBbits 000F93                            _TRISCbits 000F94  
                          _TRISDbits 000F95                            _TRISEbits 000F96  
                    i2___fltol@sign1 0030                            i2___flmul 0DF4  
                          i2___fltol 1E68                       ??_motoresZinit 0061  
                        ___flmul@grs 0081                          _CCP1CONbits 000FBD  
                    ??_funcionToques 0068                          _CCP2CONbits 000FBA  
                 _presionarZCentenas 00DE                  i2printf@PointString 0003  
                     __end_ofi2_send 2A22                       __end_of___wmul 291C  
                        _BAUDCONbits 000FB8                    __size_of_UARTinit 001A  
                     __end_of_printf 26BC                  start_initialization 291C  
                        ?_modificarZ 0001                   _presionarZUnidades 00DC  
                        __end_of_abs 2850                            i2printf@i 0007  
               __end_of_setNumPasosX 28F4                 __end_of_setNumPasosY 28BE  
                         ?i2___flmul 000F                           ?i2___fltol 0028  
                    main@activarmenu 00C2                    __size_ofi2_printf 006C  
               __size_ofi2_errorUART 0046              __size_of_limpiarIntExtF 0008  
          moverHaciaX@coordXCentenas 00B4                             ??i2_send 0002  
                        ?_moverHomeX 0001                          ?_moverHomeY 0001  
                 _sparcEnMovimientoX 00DB                   _sparcEnMovimientoY 00DA  
                           ??___wmul 0069                          ?_motorXinit 0001  
                        ?_motorYinit 0001                          ?_pistonInit 0001  
               __end_of_moverHaciaXY 1722                             ??_printf 0065  
 presionarPantalla@presionarZDecenas 0061                 __end_of_moverZArriba 2AE6  
                          ___fladd@a 0091                            ___fladd@b 008D  
          moverHaciaX@coordXUnidades 00B1                            ___flmul@a 0078  
                          ___flmul@b 0074                          __pbssCOMRAM 0042  
                      __pcstackBANK0 0060                         send@enviarpc 0062  
               _habilitarIntExternas 29D4                    __size_of___xxtofl 01B8  
          __size_of_interruptsEnable 0008                    __size_of_high_isr 18E0  
                  _PWM_DutyCycleCCP1 23C4                    _PWM_DutyCycleCCP2 2308  
                 ?_PWM_DutyCycleCCP1 0001                   ?_PWM_DutyCycleCCP2 0001  
          moverHaciaXY@validarCoordX 00B7            moverHaciaXY@validarCoordY 00B9  
                  ?_habilitarIntTMR0 0001                    ?_habilitarIntTMR1 0001  
                __size_of_modificarZ 010C                    __size_of_tmr0Init 0016  
                  __size_of_tmr1Init 001A                            __pintcode 0008  
                      __pmediumconst 7C90                             ?___fladd 008D  
                 ??_habilitarIntTMR0 0061                   ??_habilitarIntTMR1 0061  
                           ?___flmul 0074                             ?___fltol 009D  
                           ?___lwmod 0061                  ??_PWM_DutyCycleCCP1 00A7  
                ??_PWM_DutyCycleCCP2 00A7                 __end_of_motoresZinit 2AA0  
                        __pintcodelo 0018                    __size_of_portInit 000E  
                           ?_apagarZ 0001                             ?_receive 0001  
                           ?_low_isr 0001                ?_habilitarIntExternas 0001  
                __size_of_moverHomeX 0016                  __size_of_moverHomeY 0016  
                          _errorUART 2782                          ??i2___flmul 0017  
                        ??i2___fltol 002C                       __size_of_scanf 0038  
                __size_of_motorXinit 000E            __end_of_PWM_DutyCycleCCP1 2480  
          __end_of_PWM_DutyCycleCCP2 23C4                  __size_of_motorYinit 000E  
                __size_of_pistonInit 0006                       ___wmul@product 0069  
                           _LATBbits 000F8A                             _LATCbits 000F8B  
                           _LATDbits 000F8C                             _LATEbits 000F8D  
                      ??_moverHaciaX 00B2                        ??_moverHaciaY 00B2  
                      ??_moverZAbajo 0061                             _PIE1bits 000F9D  
                           i2u260_40 2806                             i2u260_41 2802  
                           i2u261_40 1E7E                             i2u261_41 1E7A  
                           i2u270_40 0E30                             i2u262_40 1EB2  
                           i2u270_41 0E2C                             i2u262_45 1EA8  
                           i2u271_40 0E70                             i2u263_40 1EE0  
                           i2u351_40 2A1C                             i2u271_41 0E6C  
                           i2u263_41 1EDC                             i2u351_41 2A18  
                           i2u280_40 110C                             i2u272_40 0E82  
                           i2u264_40 1EF4                             i2u280_41 1108  
                           i2u272_41 0E7E                             i2u264_41 1EF0  
                           i2u432_47 17EC                             i2u281_40 1122  
                           i2u273_40 0E92                             i2u265_40 1F1C  
                           i2u281_41 111E                             i2u273_41 0E8E  
                           i2u265_41 1F18                             _PIR1bits 000F9E  
                           i2u433_47 1834                             i2u282_40 1136  
                           i2u274_40 0EC8                             i2u266_40 1F3C  
                           i2u290_40 1B72                             i2u258_40 27D6  
                           i2u282_41 1132                             i2u274_41 0EC4  
                           i2u266_41 1F38                             i2u290_41 1B6E  
                           i2u258_41 27D2                             i2u434_47 188A  
                           i2u283_40 1150                             i2u275_40 0ED8  
                           i2u267_40 1F4C                             i2u291_40 1BBC  
                           i2u259_40 27F8                             i2u283_41 114C  
                           i2u275_41 0ED4                             i2u267_41 1F48  
                           i2u291_41 1BB8                             i2u259_41 27F4  
                           i2u284_40 1198                             i2u276_40 1052  
                           i2u268_40 0E0E                             i2u292_40 1BDA  
                           i2u284_41 1194                             i2u268_41 0E0A  
                           i2u292_41 1BD6                             i2u276_45 1048  
                           i2u285_40 11C6                             i2u277_40 10AC  
                           i2u269_40 0E20                             i2u293_40 1BEA  
                           i2u285_41 11C2                             i2u277_41 10A8  
                           i2u269_41 0E1C                             i2u293_41 1BE6  
                           i2u286_40 1200                             i2u278_40 10CC  
                           i2u294_40 1BF8                             i2u390_40 1798  
                           i2u286_41 11FC                             i2u278_41 10C8  
                           i2u294_41 1BF4                             i2u390_41 1794  
                           i2u279_40 10DE                             i2u295_40 1C32  
                           i2u287_40 1AB2                             i2u391_40 17A8  
                           i2u279_41 10DA                             i2u295_41 1C2E  
                           i2u287_41 1AAE                             i2u391_41 17A4  
                           i2u296_40 1C40                             i2u288_40 1AC0  
                           i2u392_40 17E6                             i2u296_41 1C3C  
                           i2u288_41 1ABC                             i2u392_41 17E2  
                           i2u289_40 1B1C                             i2u393_40 1804  
                           i2u289_41 1B18                             i2u393_41 1800  
                           i2u386_40 2600                             i2u394_40 182E  
                           i2u386_41 25FC                             i2u394_41 182A  
                           i2u387_40 262C                             i2u395_40 184C  
                           i2u387_41 2628                             i2u395_41 1848  
                           i2u396_40 1884                             i2u388_40 174A  
                           i2u396_41 1880                             i2u388_41 1746  
                           i2u397_40 18A2                             i2u389_40 175A  
                           i2u397_41 189E                             i2u389_41 1756  
                           _UCFGbits 000F6F                             _RCONbits 000FD0  
                      ??_slidePiston 0068                             _UCONbits 000F6D  
                           _UARTinit 29EE                           _ADCON0bits 000FC2  
                         _ADCON1bits 000FC1                           _ADCON2bits 000FC0  
                  ___wmul@multiplier 0065                __size_of_setNumPasosX 0036  
              __size_of_setNumPasosY 0036                          _coordinates 00C9  
           moverHaciaY@coordYDecenas 00B0          __end_ofi2_PWM_DutyCycleCCP1 25E8  
        __end_ofi2_PWM_DutyCycleCCP2 2534                             i2_printf 25E8  
                         ?_errorUART 0001                        errorUART@temp 0061  
                        _INTCON2bits 000FF1                          _INTCON3bits 000FF0  
                 scanf@numcaracteres 0065                       _limpiarIntExtF 2ACA  
                           __Hrparam 0000                        ?i2_moverHomeX 0001  
                      ?i2_moverHomeY 0001                __size_of_moverHaciaXY 0258  
                           __Lrparam 0000                  __end_of_moverHaciaX 2176  
                __end_of_moverHaciaY 2072                         _setNumPasosX 28BE  
                       _setNumPasosY 2888                __size_of_moverZArriba 0006  
                __end_of_moverZAbajo 2AEC                     __size_of___fladd 04C2  
               slidePiston@selection 0068                     __size_of___flmul 042C  
                   __size_of___fltol 0108                     __size_of___lwmod 0066  
                   __size_of_apagarZ 0006                  __end_of_slidePiston 2782  
             __size_of_PWM_CCP1_init 0022                    printf@PointString 0063  
             __size_of_PWM_CCP2_init 001E                             ___xxtofl 18E8  
             ??_habilitarIntExternas 0061                         ??_modificarZ 0068  
                    main@tamanoarray 00BE                     __size_of_receive 0020  
                   __size_of_low_isr 0010                             __ptext10 1F6E  
                           __ptext11 2888                             __ptext20 2ABC  
                           __ptext12 2308                             __ptext21 1C54  
                           __ptext13 2072                             __ptext30 1D60  
                           __ptext22 2AE0                             __ptext14 28BE  
                           __ptext31 09C8                             __ptext23 2AE6  
                           __ptext15 280E                             __ptext40 2782  
                           __ptext32 0506                             __ptext24 2AEC  
                           __ptext16 28F4                             __ptext41 224A  
                           __ptext33 2AF2                             __ptext25 2ACA  
                           __ptext17 23C4                             __ptext50 2A64  
                           __ptext42 29EE                             __ptext34 2AF6  
                           __ptext26 2AD2                             __ptext18 2A90  
                           __ptext51 2480                             __ptext43 2980  
                           __ptext35 29D4                             __ptext27 121E  
                           __ptext19 2AAE                             __ptext52 2A7A  
                           __ptext44 293E                             __ptext36 2176  
                           __ptext28 18E8                             __ptext53 2534  
                           __ptext37 2960                             __ptext29 26BC  
                           __ptext54 1AA0                             __ptext38 2654  
                           __ptext55 1E68                             __ptext47 25E8  
                           __ptext39 299E                             __ptext56 0DF4  
                           __ptext48 2A08                             __ptext49 27C8  
presionarPantalla@presionarZCentenas 0065               __end_of_limpiarIntExtF 2AD2  
                           _high_isr 0008                       i2send@enviarpc 0002  
 i2PWM_DutyCycleCCP1@WantedDutyCycle 0038     PWM_DutyCycleCCP1@WantedDutyCycle 00AD  
         __size_of_PWM_DutyCycleCCP1 00BC           __size_of_PWM_DutyCycleCCP2 00BC  
                   _interruptsEnable 2AD2                         _moverHaciaXY 14CA  
                      __size_of_main 04DA                        __size_of_send 001C  
                       _moverZArriba 2AE0                             _tmr0Init 2A22  
                           _tmr1Init 29BA                __end_of_funcionToques 224A  
                     ??i2_moverHomeX 003B                       ??i2_moverHomeY 003B  
                       ??_moverHomeX 00B0                         ??_moverHomeY 00B0  
              __size_of_motoresZinit 0010                             _portInit 2AA0  
                 __end_of_modificarZ 1D60                             int$flags 0046  
                       ??_motorXinit 0061                         ??_motorYinit 0061  
                       ??_pistonInit 0061                modificarZ@OkEncendido 0069  
presionarPantalla@presionarZUnidades 0062                           _INTCONbits 000FF2  
                      ??i2_errorUART 0001                          ??_errorUART 0061  
            __size_of_impCoordActual 02AC                   __end_of_moverHomeX 2A64  
                 __end_of_moverHomeY 2A4E                      ?_limpiarIntExtF 0001  
             _PWM_DutyCycleCCP1$2925 00A9               _PWM_DutyCycleCCP2$2924 00A9  
                           intlevel1 0000                             intlevel2 0000  
                       _motoresZinit 2A90                      i2___xxtofl@sign 0009  
                 __end_of_motorXinit 2ACA                   __end_of_motorYinit 2ABC  
                   ___lwmod@dividend 0061                   __end_of_pistonInit 2AE0  
                     _coordXCentenas 00E4                        _PWM_CCP1_init 293E  
                      _PWM_CCP2_init 2980                          _moverHaciaX 2072  
                        _moverHaciaY 1F6E                           _RCSTA1bits 000FAB  
                        _moverZAbajo 2AE6                       _coordYCentenas 00E1  
 i2PWM_DutyCycleCCP2@WantedDutyCycle 0038     PWM_DutyCycleCCP2@WantedDutyCycle 00AD  
                        _slidePiston 2722                  __CFG_FOSC$INTOSC_EC 000000  
                      _coordXDecenas 00E3                        _coordYDecenas 00E0  
                    ___lwmod@divisor 0063            __size_of_habilitarIntTMR0 0004  
          __size_of_habilitarIntTMR1 0004                      ___lwmod@counter 0065  
                     _coordXUnidades 00E2                       _coordYUnidades 00DF  
                      ___fladd@signs 0099              presionarPantalla@toques 0066  
                       ___fladd@aexp 009A                         ___fladd@bexp 009B  
                     ?_PWM_CCP1_init 0001                  __end_ofi2_errorUART 280E  
                     ?_PWM_CCP2_init 0001  
