

Microchip MPLAB XC8 Assembler V2.10 build 88905656 
                                                                                               Wed Dec 04 15:52:56 2019

Microchip MPLAB XC8 C Compiler v2.10 (Free license) build 20190730164152 Og1 
     1                           	processor	18F4550
     2                           	fnconf	rparam,??,?,0
     3                           	opt	pw 120
     4                           	opt	flic
     5                           	psect	mediumconst,global,reloc=2,class=MEDIUMCONST,delta=1,noexec
     6                           	psect	cinit,global,reloc=2,class=CODE,delta=1
     7                           	psect	bssCOMRAM,global,class=COMRAM,space=1,delta=1,noexec
     8                           	psect	bssBANK0,global,class=BANK0,space=1,delta=1,lowdata,noexec
     9                           	psect	cstackBANK0,global,class=BANK0,space=1,delta=1,noexec
    10                           	psect	cstackCOMRAM,global,class=COMRAM,space=1,delta=1,noexec
    11                           	psect	text0,global,reloc=2,class=CODE,delta=1
    12                           	psect	text1,global,reloc=2,class=CODE,delta=1
    13                           	psect	text2,global,reloc=2,class=CODE,delta=1
    14                           	psect	text3,global,reloc=2,class=CODE,delta=1
    15                           	psect	text4,global,reloc=2,class=CODE,delta=1
    16                           	psect	text5,global,reloc=2,class=CODE,delta=1
    17                           	psect	text6,global,reloc=2,class=CODE,delta=1
    18                           	psect	text7,global,reloc=2,class=CODE,delta=1
    19                           	psect	text8,global,reloc=2,class=CODE,delta=1
    20                           	psect	text9,global,reloc=2,class=CODE,delta=1
    21                           	psect	text10,global,reloc=2,class=CODE,delta=1
    22                           	psect	text11,global,reloc=2,class=CODE,delta=1
    23                           	psect	text12,global,reloc=2,class=CODE,delta=1
    24                           	psect	text13,global,reloc=2,class=CODE,delta=1
    25                           	psect	text14,global,reloc=2,class=CODE,delta=1,group=2
    26                           	psect	text15,global,reloc=2,class=CODE,delta=1,group=1
    27                           	psect	text16,global,reloc=2,class=CODE,delta=1
    28                           	psect	text17,global,reloc=2,class=CODE,delta=1
    29                           	psect	text18,global,reloc=2,class=CODE,delta=1
    30                           	psect	text19,global,reloc=2,class=CODE,delta=1
    31                           	psect	text20,global,reloc=2,class=CODE,delta=1
    32                           	psect	text21,global,reloc=2,class=CODE,delta=1
    33                           	psect	text22,global,reloc=2,class=CODE,delta=1
    34                           	psect	text23,global,reloc=2,class=CODE,delta=1
    35                           	psect	text24,global,reloc=2,class=CODE,delta=1
    36                           	psect	text25,global,reloc=2,class=CODE,delta=1
    37                           	psect	text26,global,reloc=2,class=CODE,delta=1,group=1
    38                           	psect	text27,global,reloc=2,class=CODE,delta=1,group=1
    39                           	psect	text28,global,reloc=2,class=CODE,delta=1,group=1
    40                           	psect	text29,global,reloc=2,class=CODE,delta=1,group=1
    41                           	psect	text30,global,reloc=2,class=CODE,delta=1,group=1
    42                           	psect	text31,global,reloc=2,class=CODE,delta=1
    43                           	psect	text32,global,reloc=2,class=CODE,delta=1
    44                           	psect	text33,global,reloc=2,class=CODE,delta=1
    45                           	psect	text34,global,reloc=2,class=CODE,delta=1
    46                           	psect	text35,global,reloc=2,class=CODE,delta=1
    47                           	psect	text36,global,reloc=2,class=CODE,delta=1
    48                           	psect	text37,global,reloc=2,class=CODE,delta=1
    49                           	psect	text38,global,reloc=2,class=CODE,delta=1
    50                           	psect	text39,global,reloc=2,class=CODE,delta=1
    51                           	psect	text40,global,reloc=2,class=CODE,delta=1
    52                           	psect	text41,global,reloc=2,class=CODE,delta=1
    53                           	psect	intcodelo,global,reloc=2,class=CODE,delta=1
    54                           	psect	intcode,global,reloc=2,class=CODE,delta=1
    55                           	psect	intcode_body,global,reloc=2,class=CODE,delta=1
    56                           	psect	text44,global,reloc=2,class=CODE,delta=1
    57                           	psect	text45,global,reloc=2,class=CODE,delta=1
    58                           	psect	text46,global,reloc=2,class=CODE,delta=1
    59                           	psect	text47,global,reloc=2,class=CODE,delta=1
    60                           	psect	text48,global,reloc=2,class=CODE,delta=1
    61                           	psect	text49,global,reloc=2,class=CODE,delta=1
    62                           	psect	text50,global,reloc=2,class=CODE,delta=1
    63                           	psect	text51,global,reloc=2,class=CODE,delta=1
    64                           	psect	text52,global,reloc=2,class=CODE,delta=1
    65                           	psect	text53,global,reloc=2,class=CODE,delta=1
    66                           	psect	intsave_regs,global,class=BIGRAM,space=1,delta=1,noexec
    67                           	psect	rparam,global,class=COMRAM,space=1,delta=1,noexec
    68                           	psect	temp,global,ovrld,common,class=COMRAM,space=1,delta=1
    69  0000                     
    70                           ; Version 2.10
    71                           ; Generated 31/07/2019 GMT
    72                           ; 
    73                           ; Copyright © 2019, Microchip Technology Inc. and its subsidiaries ("Microchip")
    74                           ; All rights reserved.
    75                           ; 
    76                           ; This software is developed by Microchip Technology Inc. and its subsidiaries ("Microch
      +                          ip").
    77                           ; 
    78                           ; Redistribution and use in source and binary forms, with or without modification, are
    79                           ; permitted provided that the following conditions are met:
    80                           ; 
    81                           ;     1. Redistributions of source code must retain the above copyright notice, this lis
      +                          t of
    82                           ;        conditions and the following disclaimer.
    83                           ; 
    84                           ;     2. Redistributions in binary form must reproduce the above copyright notice, this 
      +                          list
    85                           ;        of conditions and the following disclaimer in the documentation and/or other
    86                           ;        materials provided with the distribution.
    87                           ; 
    88                           ;     3. Microchip's name may not be used to endorse or promote products derived from th
      +                          is
    89                           ;        software without specific prior written permission.
    90                           ; 
    91                           ; THIS SOFTWARE IS PROVIDED BY MICROCHIP "AS IS" AND ANY EXPRESS OR IMPLIED WARRANTIES,
    92                           ; INCLUDING, BUT NOT LIMITED TO, THE IMPLIED WARRANTIES OF MERCHANTABILITY AND FITNESS F
      +                          OR
    93                           ; PURPOSE ARE DISCLAIMED.  IN NO EVENT SHALL MICROCHIP BE LIABLE FOR ANY DIRECT, INDIREC
      +                          T,
    94                           ; INCIDENTAL, SPECIAL, EXEMPLARY, OR CONSEQUENTIAL DAMAGES (INCLUDING BUT NOT LIMITED TO
    95                           ; PROCUREMENT OF SUBSTITUTE GOODS OR SERVICES; LOSS OF USE, DATA OR PROFITS; OR BUSINESS
    96                           ; INTERRUPTION) HOWSOEVER CAUSED AND ON ANY THEORY OF LIABILITY, WHETHER IN CONTRACT, ST
      +                          RICT
    97                           ; LIABILITY, OR TORT (INCLUDING NEGLIGENCE OR OTHERWISE) ARISING IN ANY WAY OUT OF THE U
      +                          SE OF
    98                           ; THIS SOFTWARE, EVEN IF ADVISED OF THE POSSIBILITY OF SUCH DAMAGE.
    99                           ; 
   100                           ; 
   101                           ; Code-generator required, PIC18F4550 Definitions
   102                           ; 
   103                           ; SFR Addresses
   104  0000                     _TMR0	set	4054
   105  0000                     _TMR1	set	4046
   106  0000                     _PORTBbits	set	3969
   107  0000                     _LATBbits	set	3978
   108  0000                     _PORTCbits	set	3970
   109  0000                     _PORTAbits	set	3968
   110  0000                     _LATEbits	set	3981
   111  0000                     _TMR0L	set	4054
   112  0000                     _TMR0H	set	4055
   113  0000                     _TMR1L	set	4046
   114  0000                     _TMR1H	set	4047
   115  0000                     _T0CONbits	set	4053
   116  0000                     _T1CONbits	set	4045
   117  0000                     _PIE1bits	set	3997
   118  0000                     _INTCON3bits	set	4080
   119  0000                     _TRISBbits	set	3987
   120  0000                     _INTCON2bits	set	4081
   121  0000                     _INTCONbits	set	4082
   122  0000                     _RCONbits	set	4048
   123  0000                     _ADRESL	set	4035
   124  0000                     _ADRESH	set	4036
   125  0000                     _ADCON2bits	set	4032
   126  0000                     _ADCON0bits	set	4034
   127  0000                     _CCPR1L	set	4030
   128  0000                     _CCP1CONbits	set	4029
   129  0000                     _TMR2	set	4044
   130  0000                     _CCPR2L	set	4027
   131  0000                     _T2CONbits	set	4042
   132  0000                     _PR2	set	4043
   133  0000                     _CCP2CONbits	set	4026
   134  0000                     _RCREG	set	4014
   135  0000                     _TXREG1	set	4013
   136  0000                     _RCREG1	set	4014
   137  0000                     _PIR1bits	set	3998
   138  0000                     _RCSTA1bits	set	4011
   139  0000                     _BAUDCONbits	set	4024
   140  0000                     _TXSTA1bits	set	4012
   141  0000                     _SPBRG	set	4015
   142  0000                     _TRISEbits	set	3990
   143  0000                     _TRISAbits	set	3986
   144  0000                     _LATCbits	set	3979
   145  0000                     _LATDbits	set	3980
   146  0000                     _TRISCbits	set	3988
   147  0000                     _TRISDbits	set	3989
   148  0000                     _UCFGbits	set	3951
   149  0000                     _UCONbits	set	3949
   150  0000                     _OSCCON	set	4051
   151  0000                     _ADCON1bits	set	4033
   152  0000                     _TXEN	set	32101
   153  0000                     _FERR	set	32090
   154  0000                     _CREN	set	32092
   155  0000                     _OERR	set	32089
   156                           
   157                           	psect	mediumconst
   158  007CAE                     __pmediumconst:
   159                           	opt callstack 0
   160  007CAE  00                 	db	0
   161  007CAF                     STR_22:
   162  007CAF  45                 	db	69	;'E'
   163  007CB0  73                 	db	115	;'s'
   164  007CB1  63                 	db	99	;'c'
   165  007CB2  72                 	db	114	;'r'
   166  007CB3  69                 	db	105	;'i'
   167  007CB4  62                 	db	98	;'b'
   168  007CB5  65                 	db	101	;'e'
   169  007CB6  20                 	db	32
   170  007CB7  69                 	db	105	;'i'
   171  007CB8  6E                 	db	110	;'n'
   172  007CB9  69                 	db	105	;'i'
   173  007CBA  74                 	db	116	;'t'
   174  007CBB  20                 	db	32
   175  007CBC  70                 	db	112	;'p'
   176  007CBD  61                 	db	97	;'a'
   177  007CBE  72                 	db	114	;'r'
   178  007CBF  61                 	db	97	;'a'
   179  007CC0  20                 	db	32
   180  007CC1  63                 	db	99	;'c'
   181  007CC2  61                 	db	97	;'a'
   182  007CC3  6C                 	db	108	;'l'
   183  007CC4  69                 	db	105	;'i'
   184  007CC5  62                 	db	98	;'b'
   185  007CC6  61                 	db	97	;'a'
   186  007CC7  72                 	db	114	;'r'
   187  007CC8  20                 	db	32
   188  007CC9  65                 	db	101	;'e'
   189  007CCA  6C                 	db	108	;'l'
   190  007CCB  20                 	db	32
   191  007CCC  53                 	db	83	;'S'
   192  007CCD  50                 	db	80	;'P'
   193  007CCE  41                 	db	65	;'A'
   194  007CCF  52                 	db	82	;'R'
   195  007CD0  43                 	db	67	;'C'
   196  007CD1  20                 	db	32
   197  007CD2  79                 	db	121	;'y'
   198  007CD3  20                 	db	32
   199  007CD4  70                 	db	112	;'p'
   200  007CD5  6F                 	db	111	;'o'
   201  007CD6  64                 	db	100	;'d'
   202  007CD7  65                 	db	101	;'e'
   203  007CD8  72                 	db	114	;'r'
   204  007CD9  20                 	db	32
   205  007CDA  65                 	db	101	;'e'
   206  007CDB  6D                 	db	109	;'m'
   207  007CDC  70                 	db	112	;'p'
   208  007CDD  65                 	db	101	;'e'
   209  007CDE  7A                 	db	122	;'z'
   210  007CDF  61                 	db	97	;'a'
   211  007CE0  72                 	db	114	;'r'
   212  007CE1  20                 	db	32
   213  007CE2  65                 	db	101	;'e'
   214  007CE3  6C                 	db	108	;'l'
   215  007CE4  20                 	db	32
   216  007CE5  70                 	db	112	;'p'
   217  007CE6  72                 	db	114	;'r'
   218  007CE7  6F                 	db	111	;'o'
   219  007CE8  67                 	db	103	;'g'
   220  007CE9  72                 	db	114	;'r'
   221  007CEA  61                 	db	97	;'a'
   222  007CEB  6D                 	db	109	;'m'
   223  007CEC  61                 	db	97	;'a'
   224  007CED  0A                 	db	10
   225  007CEE  00                 	db	0
   226  007CEF                     STR_18:
   227  007CEF  49                 	db	73	;'I'
   228  007CF0  6E                 	db	110	;'n'
   229  007CF1  74                 	db	116	;'t'
   230  007CF2  65                 	db	101	;'e'
   231  007CF3  72                 	db	114	;'r'
   232  007CF4  72                 	db	114	;'r'
   233  007CF5  75                 	db	117	;'u'
   234  007CF6  70                 	db	112	;'p'
   235  007CF7  63                 	db	99	;'c'
   236  007CF8  69                 	db	105	;'i'
   237  007CF9  6F                 	db	111	;'o'
   238  007CFA  6E                 	db	110	;'n'
   239  007CFB  20                 	db	32
   240  007CFC  54                 	db	84	;'T'
   241  007CFD  4D                 	db	77	;'M'
   242  007CFE  52                 	db	82	;'R'
   243  007CFF  31                 	db	49	;'1'
   244  007D00  2C                 	db	44
   245  007D01  20                 	db	32
   246  007D02  6C                 	db	108	;'l'
   247  007D03  6C                 	db	108	;'l'
   248  007D04  65                 	db	101	;'e'
   249  007D05  67                 	db	103	;'g'
   250  007D06  61                 	db	97	;'a'
   251  007D07  73                 	db	115	;'s'
   252  007D08  74                 	db	116	;'t'
   253  007D09  65                 	db	101	;'e'
   254  007D0A  20                 	db	32
   255  007D0B  61                 	db	97	;'a'
   256  007D0C  20                 	db	32
   257  007D0D  63                 	db	99	;'c'
   258  007D0E  6F                 	db	111	;'o'
   259  007D0F  6F                 	db	111	;'o'
   260  007D10  72                 	db	114	;'r'
   261  007D11  64                 	db	100	;'d'
   262  007D12  65                 	db	101	;'e'
   263  007D13  6E                 	db	110	;'n'
   264  007D14  61                 	db	97	;'a'
   265  007D15  64                 	db	100	;'d'
   266  007D16  61                 	db	97	;'a'
   267  007D17  20                 	db	32
   268  007D18  64                 	db	100	;'d'
   269  007D19  65                 	db	101	;'e'
   270  007D1A  73                 	db	115	;'s'
   271  007D1B  65                 	db	101	;'e'
   272  007D1C  61                 	db	97	;'a'
   273  007D1D  64                 	db	100	;'d'
   274  007D1E  61                 	db	97	;'a'
   275  007D1F  20                 	db	32
   276  007D20  58                 	db	88	;'X'
   277  007D21  0A                 	db	10
   278  007D22  00                 	db	0
   279  007D23                     STR_17:
   280  007D23  49                 	db	73	;'I'
   281  007D24  6E                 	db	110	;'n'
   282  007D25  74                 	db	116	;'t'
   283  007D26  65                 	db	101	;'e'
   284  007D27  72                 	db	114	;'r'
   285  007D28  72                 	db	114	;'r'
   286  007D29  75                 	db	117	;'u'
   287  007D2A  70                 	db	112	;'p'
   288  007D2B  63                 	db	99	;'c'
   289  007D2C  69                 	db	105	;'i'
   290  007D2D  6F                 	db	111	;'o'
   291  007D2E  6E                 	db	110	;'n'
   292  007D2F  20                 	db	32
   293  007D30  54                 	db	84	;'T'
   294  007D31  4D                 	db	77	;'M'
   295  007D32  52                 	db	82	;'R'
   296  007D33  30                 	db	48	;'0'
   297  007D34  2C                 	db	44
   298  007D35  20                 	db	32
   299  007D36  6C                 	db	108	;'l'
   300  007D37  6C                 	db	108	;'l'
   301  007D38  65                 	db	101	;'e'
   302  007D39  67                 	db	103	;'g'
   303  007D3A  61                 	db	97	;'a'
   304  007D3B  73                 	db	115	;'s'
   305  007D3C  74                 	db	116	;'t'
   306  007D3D  65                 	db	101	;'e'
   307  007D3E  20                 	db	32
   308  007D3F  61                 	db	97	;'a'
   309  007D40  20                 	db	32
   310  007D41  63                 	db	99	;'c'
   311  007D42  6F                 	db	111	;'o'
   312  007D43  6F                 	db	111	;'o'
   313  007D44  72                 	db	114	;'r'
   314  007D45  64                 	db	100	;'d'
   315  007D46  65                 	db	101	;'e'
   316  007D47  6E                 	db	110	;'n'
   317  007D48  61                 	db	97	;'a'
   318  007D49  64                 	db	100	;'d'
   319  007D4A  61                 	db	97	;'a'
   320  007D4B  20                 	db	32
   321  007D4C  64                 	db	100	;'d'
   322  007D4D  65                 	db	101	;'e'
   323  007D4E  73                 	db	115	;'s'
   324  007D4F  65                 	db	101	;'e'
   325  007D50  61                 	db	97	;'a'
   326  007D51  64                 	db	100	;'d'
   327  007D52  61                 	db	97	;'a'
   328  007D53  20                 	db	32
   329  007D54  59                 	db	89	;'Y'
   330  007D55  0A                 	db	10
   331  007D56  00                 	db	0
   332  007D57                     STR_4:
   333  007D57  4D                 	db	77	;'M'
   334  007D58  65                 	db	101	;'e'
   335  007D59  74                 	db	116	;'t'
   336  007D5A  69                 	db	105	;'i'
   337  007D5B  73                 	db	115	;'s'
   338  007D5C  74                 	db	116	;'t'
   339  007D5D  65                 	db	101	;'e'
   340  007D5E  20                 	db	32
   341  007D5F  75                 	db	117	;'u'
   342  007D60  6E                 	db	110	;'n'
   343  007D61  61                 	db	97	;'a'
   344  007D62  20                 	db	32
   345  007D63  63                 	db	99	;'c'
   346  007D64  6F                 	db	111	;'o'
   347  007D65  6F                 	db	111	;'o'
   348  007D66  72                 	db	114	;'r'
   349  007D67  64                 	db	100	;'d'
   350  007D68  65                 	db	101	;'e'
   351  007D69  6E                 	db	110	;'n'
   352  007D6A  61                 	db	97	;'a'
   353  007D6B  64                 	db	100	;'d'
   354  007D6C  61                 	db	97	;'a'
   355  007D6D  20                 	db	32
   356  007D6E  69                 	db	105	;'i'
   357  007D6F  6E                 	db	110	;'n'
   358  007D70  76                 	db	118	;'v'
   359  007D71  61                 	db	97	;'a'
   360  007D72  6C                 	db	108	;'l'
   361  007D73  69                 	db	105	;'i'
   362  007D74  64                 	db	100	;'d'
   363  007D75  61                 	db	97	;'a'
   364  007D76  2C                 	db	44
   365  007D77  20                 	db	32
   366  007D78  76                 	db	118	;'v'
   367  007D79  75                 	db	117	;'u'
   368  007D7A  65                 	db	101	;'e'
   369  007D7B  6C                 	db	108	;'l'
   370  007D7C  76                 	db	118	;'v'
   371  007D7D  65                 	db	101	;'e'
   372  007D7E  20                 	db	32
   373  007D7F  61                 	db	97	;'a'
   374  007D80  20                 	db	32
   375  007D81  69                 	db	105	;'i'
   376  007D82  6E                 	db	110	;'n'
   377  007D83  74                 	db	116	;'t'
   378  007D84  65                 	db	101	;'e'
   379  007D85  6E                 	db	110	;'n'
   380  007D86  74                 	db	116	;'t'
   381  007D87  61                 	db	97	;'a'
   382  007D88  72                 	db	114	;'r'
   383  007D89  0A                 	db	10
   384  007D8A  00                 	db	0
   385  007D8B                     STR_1:
   386  007D8B  53                 	db	83	;'S'
   387  007D8C  6F                 	db	111	;'o'
   388  007D8D  6C                 	db	108	;'l'
   389  007D8E  6F                 	db	111	;'o'
   390  007D8F  20                 	db	32
   391  007D90  70                 	db	112	;'p'
   392  007D91  75                 	db	117	;'u'
   393  007D92  65                 	db	101	;'e'
   394  007D93  64                 	db	100	;'d'
   395  007D94  65                 	db	101	;'e'
   396  007D95  73                 	db	115	;'s'
   397  007D96  20                 	db	32
   398  007D97  69                 	db	105	;'i'
   399  007D98  6E                 	db	110	;'n'
   400  007D99  74                 	db	116	;'t'
   401  007D9A  72                 	db	114	;'r'
   402  007D9B  6F                 	db	111	;'o'
   403  007D9C  64                 	db	100	;'d'
   404  007D9D  75                 	db	117	;'u'
   405  007D9E  63                 	db	99	;'c'
   406  007D9F  69                 	db	105	;'i'
   407  007DA0  72                 	db	114	;'r'
   408  007DA1  20                 	db	32
   409  007DA2  6E                 	db	110	;'n'
   410  007DA3  75                 	db	117	;'u'
   411  007DA4  6D                 	db	109	;'m'
   412  007DA5  65                 	db	101	;'e'
   413  007DA6  72                 	db	114	;'r'
   414  007DA7  6F                 	db	111	;'o'
   415  007DA8  73                 	db	115	;'s'
   416  007DA9  2C                 	db	44
   417  007DAA  20                 	db	32
   418  007DAB  70                 	db	112	;'p'
   419  007DAC  72                 	db	114	;'r'
   420  007DAD  75                 	db	117	;'u'
   421  007DAE  65                 	db	101	;'e'
   422  007DAF  62                 	db	98	;'b'
   423  007DB0  61                 	db	97	;'a'
   424  007DB1  20                 	db	32
   425  007DB2  64                 	db	100	;'d'
   426  007DB3  65                 	db	101	;'e'
   427  007DB4  20                 	db	32
   428  007DB5  6E                 	db	110	;'n'
   429  007DB6  75                 	db	117	;'u'
   430  007DB7  65                 	db	101	;'e'
   431  007DB8  76                 	db	118	;'v'
   432  007DB9  6F                 	db	111	;'o'
   433  007DBA  00                 	db	0
   434  007DBB                     STR_28:
   435  007DBB  50                 	db	80	;'P'
   436  007DBC  72                 	db	114	;'r'
   437  007DBD  65                 	db	101	;'e'
   438  007DBE  73                 	db	115	;'s'
   439  007DBF  69                 	db	105	;'i'
   440  007DC0  6F                 	db	111	;'o'
   441  007DC1  6E                 	db	110	;'n'
   442  007DC2  61                 	db	97	;'a'
   443  007DC3  72                 	db	114	;'r'
   444  007DC4  20                 	db	32
   445  007DC5  5A                 	db	90	;'Z'
   446  007DC6  20                 	db	32
   447  007DC7  63                 	db	99	;'c'
   448  007DC8  69                 	db	105	;'i'
   449  007DC9  65                 	db	101	;'e'
   450  007DCA  72                 	db	114	;'r'
   451  007DCB  74                 	db	116	;'t'
   452  007DCC  6F                 	db	111	;'o'
   453  007DCD  20                 	db	32
   454  007DCE  6E                 	db	110	;'n'
   455  007DCF  75                 	db	117	;'u'
   456  007DD0  6D                 	db	109	;'m'
   457  007DD1  65                 	db	101	;'e'
   458  007DD2  72                 	db	114	;'r'
   459  007DD3  6F                 	db	111	;'o'
   460  007DD4  20                 	db	32
   461  007DD5  64                 	db	100	;'d'
   462  007DD6  65                 	db	101	;'e'
   463  007DD7  20                 	db	32
   464  007DD8  76                 	db	118	;'v'
   465  007DD9  65                 	db	101	;'e'
   466  007DDA  63                 	db	99	;'c'
   467  007DDB  65                 	db	101	;'e'
   468  007DDC  73                 	db	115	;'s'
   469  007DDD  20                 	db	32
   470  007DDE  72                 	db	114	;'r'
   471  007DDF  65                 	db	101	;'e'
   472  007DE0  63                 	db	99	;'c'
   473  007DE1  69                 	db	105	;'i'
   474  007DE2  62                 	db	98	;'b'
   475  007DE3  69                 	db	105	;'i'
   476  007DE4  64                 	db	100	;'d'
   477  007DE5  61                 	db	97	;'a'
   478  007DE6  73                 	db	115	;'s'
   479  007DE7  0A                 	db	10
   480  007DE8  00                 	db	0
   481  007DE9                     STR_19:
   482  007DE9  4F                 	db	79	;'O'
   483  007DEA  63                 	db	99	;'c'
   484  007DEB  75                 	db	117	;'u'
   485  007DEC  72                 	db	114	;'r'
   486  007DED  72                 	db	114	;'r'
   487  007DEE  69                 	db	105	;'i'
   488  007DEF  6F                 	db	111	;'o'
   489  007DF0  20                 	db	32
   490  007DF1  6C                 	db	108	;'l'
   491  007DF2  61                 	db	97	;'a'
   492  007DF3  20                 	db	32
   493  007DF4  69                 	db	105	;'i'
   494  007DF5  6E                 	db	110	;'n'
   495  007DF6  74                 	db	116	;'t'
   496  007DF7  65                 	db	101	;'e'
   497  007DF8  72                 	db	114	;'r'
   498  007DF9  72                 	db	114	;'r'
   499  007DFA  75                 	db	117	;'u'
   500  007DFB  70                 	db	112	;'p'
   501  007DFC  63                 	db	99	;'c'
   502  007DFD  69                 	db	105	;'i'
   503  007DFE  6F                 	db	111	;'o'
   504  007DFF  6E                 	db	110	;'n'
   505  007E00  20                 	db	32
   506  007E01  6C                 	db	108	;'l'
   507  007E02  69                 	db	105	;'i'
   508  007E03  6D                 	db	109	;'m'
   509  007E04  69                 	db	105	;'i'
   510  007E05  74                 	db	116	;'t'
   511  007E06  53                 	db	83	;'S'
   512  007E07  77                 	db	119	;'w'
   513  007E08  69                 	db	105	;'i'
   514  007E09  74                 	db	116	;'t'
   515  007E0A  63                 	db	99	;'c'
   516  007E0B  68                 	db	104	;'h'
   517  007E0C  33                 	db	51	;'3'
   518  007E0D  45                 	db	69	;'E'
   519  007E0E  73                 	db	115	;'s'
   520  007E0F  71                 	db	113	;'q'
   521  007E10  75                 	db	117	;'u'
   522  007E11  69                 	db	105	;'i'
   523  007E12  6E                 	db	110	;'n'
   524  007E13  61                 	db	97	;'a'
   525  007E14  73                 	db	115	;'s'
   526  007E15  0A                 	db	10
   527  007E16  00                 	db	0
   528  007E17                     STR_6:
   529  007E17  43                 	db	67	;'C'
   530  007E18  6F                 	db	111	;'o'
   531  007E19  6F                 	db	111	;'o'
   532  007E1A  72                 	db	114	;'r'
   533  007E1B  64                 	db	100	;'d'
   534  007E1C  65                 	db	101	;'e'
   535  007E1D  6E                 	db	110	;'n'
   536  007E1E  61                 	db	97	;'a'
   537  007E1F  64                 	db	100	;'d'
   538  007E20  61                 	db	97	;'a'
   539  007E21  20                 	db	32
   540  007E22  72                 	db	114	;'r'
   541  007E23  65                 	db	101	;'e'
   542  007E24  63                 	db	99	;'c'
   543  007E25  69                 	db	105	;'i'
   544  007E26  62                 	db	98	;'b'
   545  007E27  69                 	db	105	;'i'
   546  007E28  64                 	db	100	;'d'
   547  007E29  61                 	db	97	;'a'
   548  007E2A  2C                 	db	44
   549  007E2B  20                 	db	32
   550  007E2C  6C                 	db	108	;'l'
   551  007E2D  6F                 	db	111	;'o'
   552  007E2E  20                 	db	32
   553  007E2F  71                 	db	113	;'q'
   554  007E30  75                 	db	117	;'u'
   555  007E31  65                 	db	101	;'e'
   556  007E32  20                 	db	32
   557  007E33  72                 	db	114	;'r'
   558  007E34  65                 	db	101	;'e'
   559  007E35  63                 	db	99	;'c'
   560  007E36  69                 	db	105	;'i'
   561  007E37  62                 	db	98	;'b'
   562  007E38  69                 	db	105	;'i'
   563  007E39  6D                 	db	109	;'m'
   564  007E3A  6F                 	db	111	;'o'
   565  007E3B  73                 	db	115	;'s'
   566  007E3C  20                 	db	32
   567  007E3D  66                 	db	102	;'f'
   568  007E3E  75                 	db	117	;'u'
   569  007E3F  65                 	db	101	;'e'
   570  007E40  3A                 	db	58	;':'
   571  007E41  00                 	db	0
   572  007E42                     STR_20:
   573  007E42  4F                 	db	79	;'O'
   574  007E43  63                 	db	99	;'c'
   575  007E44  75                 	db	117	;'u'
   576  007E45  72                 	db	114	;'r'
   577  007E46  72                 	db	114	;'r'
   578  007E47  69                 	db	105	;'i'
   579  007E48  6F                 	db	111	;'o'
   580  007E49  20                 	db	32
   581  007E4A  6C                 	db	108	;'l'
   582  007E4B  61                 	db	97	;'a'
   583  007E4C  20                 	db	32
   584  007E4D  69                 	db	105	;'i'
   585  007E4E  6E                 	db	110	;'n'
   586  007E4F  74                 	db	116	;'t'
   587  007E50  65                 	db	101	;'e'
   588  007E51  72                 	db	114	;'r'
   589  007E52  72                 	db	114	;'r'
   590  007E53  75                 	db	117	;'u'
   591  007E54  70                 	db	112	;'p'
   592  007E55  63                 	db	99	;'c'
   593  007E56  69                 	db	105	;'i'
   594  007E57  6F                 	db	111	;'o'
   595  007E58  6E                 	db	110	;'n'
   596  007E59  20                 	db	32
   597  007E5A  6C                 	db	108	;'l'
   598  007E5B  69                 	db	105	;'i'
   599  007E5C  6D                 	db	109	;'m'
   600  007E5D  69                 	db	105	;'i'
   601  007E5E  74                 	db	116	;'t'
   602  007E5F  53                 	db	83	;'S'
   603  007E60  77                 	db	119	;'w'
   604  007E61  69                 	db	105	;'i'
   605  007E62  74                 	db	116	;'t'
   606  007E63  63                 	db	99	;'c'
   607  007E64  68                 	db	104	;'h'
   608  007E65  48                 	db	72	;'H'
   609  007E66  6F                 	db	111	;'o'
   610  007E67  6D                 	db	109	;'m'
   611  007E68  65                 	db	101	;'e'
   612  007E69  58                 	db	88	;'X'
   613  007E6A  0A                 	db	10
   614  007E6B  00                 	db	0
   615  007E6C                     STR_21:
   616  007E6C  4F                 	db	79	;'O'
   617  007E6D  63                 	db	99	;'c'
   618  007E6E  75                 	db	117	;'u'
   619  007E6F  72                 	db	114	;'r'
   620  007E70  72                 	db	114	;'r'
   621  007E71  69                 	db	105	;'i'
   622  007E72  6F                 	db	111	;'o'
   623  007E73  20                 	db	32
   624  007E74  6C                 	db	108	;'l'
   625  007E75  61                 	db	97	;'a'
   626  007E76  20                 	db	32
   627  007E77  69                 	db	105	;'i'
   628  007E78  6E                 	db	110	;'n'
   629  007E79  74                 	db	116	;'t'
   630  007E7A  65                 	db	101	;'e'
   631  007E7B  72                 	db	114	;'r'
   632  007E7C  72                 	db	114	;'r'
   633  007E7D  75                 	db	117	;'u'
   634  007E7E  70                 	db	112	;'p'
   635  007E7F  63                 	db	99	;'c'
   636  007E80  69                 	db	105	;'i'
   637  007E81  6F                 	db	111	;'o'
   638  007E82  6E                 	db	110	;'n'
   639  007E83  20                 	db	32
   640  007E84  6C                 	db	108	;'l'
   641  007E85  69                 	db	105	;'i'
   642  007E86  6D                 	db	109	;'m'
   643  007E87  69                 	db	105	;'i'
   644  007E88  74                 	db	116	;'t'
   645  007E89  53                 	db	83	;'S'
   646  007E8A  77                 	db	119	;'w'
   647  007E8B  69                 	db	105	;'i'
   648  007E8C  74                 	db	116	;'t'
   649  007E8D  63                 	db	99	;'c'
   650  007E8E  68                 	db	104	;'h'
   651  007E8F  48                 	db	72	;'H'
   652  007E90  6F                 	db	111	;'o'
   653  007E91  6D                 	db	109	;'m'
   654  007E92  65                 	db	101	;'e'
   655  007E93  59                 	db	89	;'Y'
   656  007E94  0A                 	db	10
   657  007E95  00                 	db	0
   658  007E96                     STR_31:
   659  007E96  50                 	db	80	;'P'
   660  007E97  69                 	db	105	;'i'
   661  007E98  73                 	db	115	;'s'
   662  007E99  74                 	db	116	;'t'
   663  007E9A  6F                 	db	111	;'o'
   664  007E9B  6E                 	db	110	;'n'
   665  007E9C  20                 	db	32
   666  007E9D  70                 	db	112	;'p'
   667  007E9E  61                 	db	97	;'a'
   668  007E9F  72                 	db	114	;'r'
   669  007EA0  61                 	db	97	;'a'
   670  007EA1  20                 	db	32
   671  007EA2  64                 	db	100	;'d'
   672  007EA3  65                 	db	101	;'e'
   673  007EA4  73                 	db	115	;'s'
   674  007EA5  6C                 	db	108	;'l'
   675  007EA6  69                 	db	105	;'i'
   676  007EA7  7A                 	db	122	;'z'
   677  007EA8  61                 	db	97	;'a'
   678  007EA9  72                 	db	114	;'r'
   679  007EAA  20                 	db	32
   680  007EAB  6F                 	db	111	;'o'
   681  007EAC  20                 	db	32
   682  007EAD  64                 	db	100	;'d'
   683  007EAE  65                 	db	101	;'e'
   684  007EAF  6A                 	db	106	;'j'
   685  007EB0  61                 	db	97	;'a'
   686  007EB1  72                 	db	114	;'r'
   687  007EB2  20                 	db	32
   688  007EB3  72                 	db	114	;'r'
   689  007EB4  65                 	db	101	;'e'
   690  007EB5  74                 	db	116	;'t'
   691  007EB6  72                 	db	114	;'r'
   692  007EB7  61                 	db	97	;'a'
   693  007EB8  69                 	db	105	;'i'
   694  007EB9  64                 	db	100	;'d'
   695  007EBA  6F                 	db	111	;'o'
   696  007EBB  3F                 	db	63	;'?'
   697  007EBC  0A                 	db	10
   698  007EBD  00                 	db	0
   699  007EBE                     STR_36:
   700  007EBE  56                 	db	86	;'V'
   701  007EBF  61                 	db	97	;'a'
   702  007EC0  73                 	db	115	;'s'
   703  007EC1  20                 	db	32
   704  007EC2  61                 	db	97	;'a'
   705  007EC3  20                 	db	32
   706  007EC4  69                 	db	105	;'i'
   707  007EC5  72                 	db	114	;'r'
   708  007EC6  20                 	db	32
   709  007EC7  69                 	db	105	;'i'
   710  007EC8  6E                 	db	110	;'n'
   711  007EC9  66                 	db	102	;'f'
   712  007ECA  69                 	db	105	;'i'
   713  007ECB  6E                 	db	110	;'n'
   714  007ECC  69                 	db	105	;'i'
   715  007ECD  74                 	db	116	;'t'
   716  007ECE  6F                 	db	111	;'o'
   717  007ECF  20                 	db	32
   718  007ED0  58                 	db	88	;'X'
   719  007ED1  20                 	db	32
   720  007ED2  65                 	db	101	;'e'
   721  007ED3  20                 	db	32
   722  007ED4  69                 	db	105	;'i'
   723  007ED5  6E                 	db	110	;'n'
   724  007ED6  66                 	db	102	;'f'
   725  007ED7  69                 	db	105	;'i'
   726  007ED8  6E                 	db	110	;'n'
   727  007ED9  69                 	db	105	;'i'
   728  007EDA  74                 	db	116	;'t'
   729  007EDB  6F                 	db	111	;'o'
   730  007EDC  20                 	db	32
   731  007EDD  59                 	db	89	;'Y'
   732  007EDE  0A                 	db	10
   733  007EDF  00                 	db	0
   734  007EE0                     STR_25:
   735  007EE0  56                 	db	86	;'V'
   736  007EE1  61                 	db	97	;'a'
   737  007EE2  73                 	db	115	;'s'
   738  007EE3  20                 	db	32
   739  007EE4  61                 	db	97	;'a'
   740  007EE5  20                 	db	32
   741  007EE6  6D                 	db	109	;'m'
   742  007EE7  6F                 	db	111	;'o'
   743  007EE8  76                 	db	118	;'v'
   744  007EE9  65                 	db	101	;'e'
   745  007EEA  72                 	db	114	;'r'
   746  007EEB  20                 	db	32
   747  007EEC  65                 	db	101	;'e'
   748  007EED  6C                 	db	108	;'l'
   749  007EEE  20                 	db	32
   750  007EEF  53                 	db	83	;'S'
   751  007EF0  70                 	db	112	;'p'
   752  007EF1  61                 	db	97	;'a'
   753  007EF2  72                 	db	114	;'r'
   754  007EF3  63                 	db	99	;'c'
   755  007EF4  20                 	db	32
   756  007EF5  65                 	db	101	;'e'
   757  007EF6  6E                 	db	110	;'n'
   758  007EF7  20                 	db	32
   759  007EF8  58                 	db	88	;'X'
   760  007EF9  20                 	db	32
   761  007EFA  79                 	db	121	;'y'
   762  007EFB  20                 	db	32
   763  007EFC  59                 	db	89	;'Y'
   764  007EFD  0A                 	db	10
   765  007EFE  00                 	db	0
   766  007EFF                     STR_38:
   767  007EFF  49                 	db	73	;'I'
   768  007F00  6D                 	db	109	;'m'
   769  007F01  70                 	db	112	;'p'
   770  007F02  72                 	db	114	;'r'
   771  007F03  6D                 	db	109	;'m'
   772  007F04  69                 	db	105	;'i'
   773  007F05  72                 	db	114	;'r'
   774  007F06  20                 	db	32
   775  007F07  63                 	db	99	;'c'
   776  007F08  6F                 	db	111	;'o'
   777  007F09  6F                 	db	111	;'o'
   778  007F0A  72                 	db	114	;'r'
   779  007F0B  64                 	db	100	;'d'
   780  007F0C  65                 	db	101	;'e'
   781  007F0D  6E                 	db	110	;'n'
   782  007F0E  61                 	db	97	;'a'
   783  007F0F  64                 	db	100	;'d'
   784  007F10  61                 	db	97	;'a'
   785  007F11  20                 	db	32
   786  007F12  61                 	db	97	;'a'
   787  007F13  63                 	db	99	;'c'
   788  007F14  74                 	db	116	;'t'
   789  007F15  75                 	db	117	;'u'
   790  007F16  61                 	db	97	;'a'
   791  007F17  6C                 	db	108	;'l'
   792  007F18  20                 	db	32
   793  007F19  0A                 	db	10
   794  007F1A  00                 	db	0
   795  007F1B                     STR_34:
   796  007F1B  56                 	db	86	;'V'
   797  007F1C  61                 	db	97	;'a'
   798  007F1D  73                 	db	115	;'s'
   799  007F1E  20                 	db	32
   800  007F1F  61                 	db	97	;'a'
   801  007F20  20                 	db	32
   802  007F21  69                 	db	105	;'i'
   803  007F22  72                 	db	114	;'r'
   804  007F23  20                 	db	32
   805  007F24  61                 	db	97	;'a'
   806  007F25  20                 	db	32
   807  007F26  68                 	db	104	;'h'
   808  007F27  6F                 	db	111	;'o'
   809  007F28  6D                 	db	109	;'m'
   810  007F29  65                 	db	101	;'e'
   811  007F2A  58                 	db	88	;'X'
   812  007F2B  20                 	db	32
   813  007F2C  79                 	db	121	;'y'
   814  007F2D  20                 	db	32
   815  007F2E  68                 	db	104	;'h'
   816  007F2F  6F                 	db	111	;'o'
   817  007F30  6D                 	db	109	;'m'
   818  007F31  65                 	db	101	;'e'
   819  007F32  20                 	db	32
   820  007F33  59                 	db	89	;'Y'
   821  007F34  0A                 	db	10
   822  007F35  00                 	db	0
   823  007F36                     STR_41:
   824  007F36  45                 	db	69	;'E'
   825  007F37  6E                 	db	110	;'n'
   826  007F38  74                 	db	116	;'t'
   827  007F39  72                 	db	114	;'r'
   828  007F3A  61                 	db	97	;'a'
   829  007F3B  73                 	db	115	;'s'
   830  007F3C  74                 	db	116	;'t'
   831  007F3D  65                 	db	101	;'e'
   832  007F3E  20                 	db	32
   833  007F3F  61                 	db	97	;'a'
   834  007F40  20                 	db	32
   835  007F41  6D                 	db	109	;'m'
   836  007F42  6F                 	db	111	;'o'
   837  007F43  76                 	db	118	;'v'
   838  007F44  65                 	db	101	;'e'
   839  007F45  72                 	db	114	;'r'
   840  007F46  20                 	db	32
   841  007F47  6C                 	db	108	;'l'
   842  007F48  61                 	db	97	;'a'
   843  007F49  20                 	db	32
   844  007F4A  62                 	db	98	;'b'
   845  007F4B  61                 	db	97	;'a'
   846  007F4C  73                 	db	115	;'s'
   847  007F4D  65                 	db	101	;'e'
   848  007F4E  0A                 	db	10
   849  007F4F  00                 	db	0
   850  007F50                     STR_7:
   851  007F50  54                 	db	84	;'T'
   852  007F51  6F                 	db	111	;'o'
   853  007F52  63                 	db	99	;'c'
   854  007F53  61                 	db	97	;'a'
   855  007F54  72                 	db	114	;'r'
   856  007F55  50                 	db	80	;'P'
   857  007F56  61                 	db	97	;'a'
   858  007F57  6E                 	db	110	;'n'
   859  007F58  74                 	db	116	;'t'
   860  007F59  61                 	db	97	;'a'
   861  007F5A  6C                 	db	108	;'l'
   862  007F5B  6C                 	db	108	;'l'
   863  007F5C  61                 	db	97	;'a'
   864  007F5D  3A                 	db	58	;':'
   865  007F5E  0A                 	db	10
   866  007F5F  00                 	db	0
   867  007F60                     STR_15:
   868  007F60  78                 	db	120	;'x'
   869  007F61  54                 	db	84	;'T'
   870  007F62  6F                 	db	111	;'o'
   871  007F63  41                 	db	65	;'A'
   872  007F64  64                 	db	100	;'d'
   873  007F65  76                 	db	118	;'v'
   874  007F66  61                 	db	97	;'a'
   875  007F67  6E                 	db	110	;'n'
   876  007F68  63                 	db	99	;'c'
   877  007F69  65                 	db	101	;'e'
   878  007F6A  20                 	db	32
   879  007F6B  69                 	db	105	;'i'
   880  007F6C  73                 	db	115	;'s'
   881  007F6D  3A                 	db	58	;':'
   882  007F6E  00                 	db	0
   883  007F6F                     STR_13:
   884  007F6F  79                 	db	121	;'y'
   885  007F70  54                 	db	84	;'T'
   886  007F71  6F                 	db	111	;'o'
   887  007F72  41                 	db	65	;'A'
   888  007F73  64                 	db	100	;'d'
   889  007F74  76                 	db	118	;'v'
   890  007F75  61                 	db	97	;'a'
   891  007F76  6E                 	db	110	;'n'
   892  007F77  63                 	db	99	;'c'
   893  007F78  65                 	db	101	;'e'
   894  007F79  20                 	db	32
   895  007F7A  69                 	db	105	;'i'
   896  007F7B  73                 	db	115	;'s'
   897  007F7C  3A                 	db	58	;':'
   898  007F7D  00                 	db	0
   899  007F7E                     STR_23:
   900  007F7E  49                 	db	73	;'I'
   901  007F7F  6E                 	db	110	;'n'
   902  007F80  69                 	db	105	;'i'
   903  007F81  74                 	db	116	;'t'
   904  007F82  69                 	db	105	;'i'
   905  007F83  61                 	db	97	;'a'
   906  007F84  6C                 	db	108	;'l'
   907  007F85  69                 	db	105	;'i'
   908  007F86  7A                 	db	122	;'z'
   909  007F87  69                 	db	105	;'i'
   910  007F88  6E                 	db	110	;'n'
   911  007F89  67                 	db	103	;'g'
   912  007F8A  0A                 	db	10
   913  007F8B  00                 	db	0
   914  007F8C                     STR_16:
   915  007F8C  45                 	db	69	;'E'
   916  007F8D  2C                 	db	44
   917  007F8E  63                 	db	99	;'c'
   918  007F8F  6F                 	db	111	;'o'
   919  007F90  6F                 	db	111	;'o'
   920  007F91  72                 	db	114	;'r'
   921  007F92  41                 	db	65	;'A'
   922  007F93  63                 	db	99	;'c'
   923  007F94  58                 	db	88	;'X'
   924  007F95  0A                 	db	10
   925  007F96  00                 	db	0
   926  007F97                     STR_14:
   927  007F97  45                 	db	69	;'E'
   928  007F98  2C                 	db	44
   929  007F99  63                 	db	99	;'c'
   930  007F9A  6F                 	db	111	;'o'
   931  007F9B  6F                 	db	111	;'o'
   932  007F9C  72                 	db	114	;'r'
   933  007F9D  41                 	db	65	;'A'
   934  007F9E  63                 	db	99	;'c'
   935  007F9F  59                 	db	89	;'Y'
   936  007FA0  0A                 	db	10
   937  007FA1  00                 	db	0
   938  007FA2                     STR_11:
   939  007FA2  4D                 	db	77	;'M'
   940  007FA3  6F                 	db	111	;'o'
   941  007FA4  76                 	db	118	;'v'
   942  007FA5  41                 	db	65	;'A'
   943  007FA6  72                 	db	114	;'r'
   944  007FA7  72                 	db	114	;'r'
   945  007FA8  69                 	db	105	;'i'
   946  007FA9  62                 	db	98	;'b'
   947  007FAA  61                 	db	97	;'a'
   948  007FAB  0A                 	db	10
   949  007FAC  00                 	db	0
   950  007FAD                     STR_10:
   951  007FAD  0A                 	db	10
   952  007FAE  53                 	db	83	;'S'
   953  007FAF  61                 	db	97	;'a'
   954  007FB0  6C                 	db	108	;'l'
   955  007FB1  69                 	db	105	;'i'
   956  007FB2  65                 	db	101	;'e'
   957  007FB3  6E                 	db	110	;'n'
   958  007FB4  64                 	db	100	;'d'
   959  007FB5  6F                 	db	111	;'o'
   960  007FB6  0A                 	db	10
   961  007FB7  00                 	db	0
   962  007FB8                     STR_12:
   963  007FB8  4D                 	db	77	;'M'
   964  007FB9  6F                 	db	111	;'o'
   965  007FBA  76                 	db	118	;'v'
   966  007FBB  41                 	db	65	;'A'
   967  007FBC  42                 	db	66	;'B'
   968  007FBD  61                 	db	97	;'a'
   969  007FBE  6A                 	db	106	;'j'
   970  007FBF  6F                 	db	111	;'o'
   971  007FC0  0A                 	db	10
   972  007FC1  00                 	db	0
   973  007FC2                     STR_27:
   974  007FC2  4F                 	db	79	;'O'
   975  007FC3  6B                 	db	107	;'k'
   976  007FC4  2C                 	db	44
   977  007FC5  63                 	db	99	;'c'
   978  007FC6  6F                 	db	111	;'o'
   979  007FC7  6D                 	db	109	;'m'
   980  007FC8  46                 	db	70	;'F'
   981  007FC9  0A                 	db	10
   982  007FCA  00                 	db	0
   983  007FCB                     STR_24:
   984  007FCB  4F                 	db	79	;'O'
   985  007FCC  6B                 	db	107	;'k'
   986  007FCD  2C                 	db	44
   987  007FCE  63                 	db	99	;'c'
   988  007FCF  6F                 	db	111	;'o'
   989  007FD0  6D                 	db	109	;'m'
   990  007FD1  4E                 	db	78	;'N'
   991  007FD2  0A                 	db	10
   992  007FD3  00                 	db	0
   993  007FD4                     STR_26:
   994  007FD4  4F                 	db	79	;'O'
   995  007FD5  6B                 	db	107	;'k'
   996  007FD6  2C                 	db	44
   997  007FD7  63                 	db	99	;'c'
   998  007FD8  6F                 	db	111	;'o'
   999  007FD9  6D                 	db	109	;'m'
  1000  007FDA  56                 	db	86	;'V'
  1001  007FDB  0A                 	db	10
  1002  007FDC  00                 	db	0
  1003  007FDD                     STR_5:
  1004  007FDD  45                 	db	69	;'E'
  1005  007FDE  2C                 	db	44
  1006  007FDF  63                 	db	99	;'c'
  1007  007FE0  4E                 	db	78	;'N'
  1008  007FE1  6F                 	db	111	;'o'
  1009  007FE2  56                 	db	86	;'V'
  1010  007FE3  0A                 	db	10
  1011  007FE4  00                 	db	0
  1012  007FE5                     STR_44:
  1013  007FE5  45                 	db	69	;'E'
  1014  007FE6  2C                 	db	44
  1015  007FE7  63                 	db	99	;'c'
  1016  007FE8  6F                 	db	111	;'o'
  1017  007FE9  6D                 	db	109	;'m'
  1018  007FEA  0A                 	db	10
  1019  007FEB  00                 	db	0
  1020  007FEC                     STR_9:
  1021  007FEC  20                 	db	32
  1022  007FED  2C                 	db	44
  1023  007FEE  59                 	db	89	;'Y'
  1024  007FEF  3A                 	db	58	;':'
  1025  007FF0  20                 	db	32
  1026  007FF1  00                 	db	0
  1027  007FF2                     STR_2:
  1028  007FF2  58                 	db	88	;'X'
  1029  007FF3  3A                 	db	58	;':'
  1030  007FF4  0A                 	db	10
  1031  007FF5  00                 	db	0
  1032  007FF6                     STR_3:
  1033  007FF6  59                 	db	89	;'Y'
  1034  007FF7  3A                 	db	58	;':'
  1035  007FF8  0A                 	db	10
  1036  007FF9  00                 	db	0
  1037  007FFA                     STR_8:
  1038  007FFA  58                 	db	88	;'X'
  1039  007FFB  3A                 	db	58	;':'
  1040  007FFC  20                 	db	32
  1041  007FFD  00                 	db	0
  1042  0000                     
  1043                           ; #config settings
  1044  007FFE  00                 	db	0	; dummy byte at the end
  1045  0000                     
  1046                           	psect	cinit
  1047  002600                     __pcinit:
  1048                           	opt callstack 0
  1049  002600                     start_initialization:
  1050                           	opt callstack 0
  1051  002600                     __initialization:
  1052                           	opt callstack 0
  1053                           
  1054                           ; Clear objects allocated to BANK0 (25 bytes)
  1055  002600  EE00  F0C6         	lfsr	0,__pbssBANK0
  1056  002604  0E19               	movlw	25
  1057  002606                     clear_0:
  1058  002606  6AEE               	clrf	postinc0,c
  1059  002608  06E8               	decf	wreg,f,c
  1060  00260A  E1FD               	bnz	clear_0
  1061                           
  1062                           ; Clear objects allocated to COMRAM (6 bytes)
  1063  00260C  6A47               	clrf	(__pbssCOMRAM+5)& (0+255),c
  1064  00260E  6A46               	clrf	(__pbssCOMRAM+4)& (0+255),c
  1065  002610  6A45               	clrf	(__pbssCOMRAM+3)& (0+255),c
  1066  002612  6A44               	clrf	(__pbssCOMRAM+2)& (0+255),c
  1067  002614  6A43               	clrf	(__pbssCOMRAM+1)& (0+255),c
  1068  002616  6A42               	clrf	__pbssCOMRAM& (0+255),c
  1069  002618                     end_of_initialization:
  1070                           	opt callstack 0
  1071  002618                     __end_of__initialization:
  1072                           	opt callstack 0
  1073  002618  9048               	bcf	int$flags,0,c	;clear compiler interrupt flag (level 1)
  1074  00261A  9248               	bcf	int$flags,1,c	;clear compiler interrupt flag (level 2)
  1075  00261C  0E00               	movlw	low (__Lmediumconst shr (0+16))
  1076  00261E  6EF8               	movwf	tblptru,c
  1077  002620  0100               	movlb	0
  1078  002622  EFA2  F006         	goto	_main	;jump to C main() function
  1079                           
  1080                           	psect	bssCOMRAM
  1081  000042                     __pbssCOMRAM:
  1082                           	opt callstack 0
  1083  000042                     _llegoHomeY:
  1084                           	opt callstack 0
  1085  000042                     	ds	1
  1086  000043                     _llegoHomeX:
  1087                           	opt callstack 0
  1088  000043                     	ds	1
  1089  000044                     _destinoHomeY:
  1090                           	opt callstack 0
  1091  000044                     	ds	1
  1092  000045                     _destinoHomeX:
  1093                           	opt callstack 0
  1094  000045                     	ds	1
  1095  000046                     _habilitarModCoord:
  1096                           	opt callstack 0
  1097  000046                     	ds	1
  1098  000047                     _coordenadaNueva:
  1099                           	opt callstack 0
  1100  000047                     	ds	1
  1101                           
  1102                           	psect	bssBANK0
  1103  0000C6                     __pbssBANK0:
  1104                           	opt callstack 0
  1105  0000C6                     _coordinates:
  1106                           	opt callstack 0
  1107  0000C6                     	ds	6
  1108  0000CC                     _CurrentPosY:
  1109                           	opt callstack 0
  1110  0000CC                     	ds	2
  1111  0000CE                     _yToAdvance:
  1112                           	opt callstack 0
  1113  0000CE                     	ds	2
  1114  0000D0                     _CurrentPosX:
  1115                           	opt callstack 0
  1116  0000D0                     	ds	2
  1117  0000D2                     _xToAdvance:
  1118                           	opt callstack 0
  1119  0000D2                     	ds	2
  1120  0000D4                     _sparcEnMovimientoY:
  1121                           	opt callstack 0
  1122  0000D4                     	ds	1
  1123  0000D5                     _sparcEnMovimientoX:
  1124                           	opt callstack 0
  1125  0000D5                     	ds	1
  1126  0000D6                     _presionarZUnidades:
  1127                           	opt callstack 0
  1128  0000D6                     	ds	1
  1129  0000D7                     _presionarZDecenas:
  1130                           	opt callstack 0
  1131  0000D7                     	ds	1
  1132  0000D8                     _presionarZCentenas:
  1133                           	opt callstack 0
  1134  0000D8                     	ds	1
  1135  0000D9                     _coordYUnidades:
  1136                           	opt callstack 0
  1137  0000D9                     	ds	1
  1138  0000DA                     _coordYDecenas:
  1139                           	opt callstack 0
  1140  0000DA                     	ds	1
  1141  0000DB                     _coordYCentenas:
  1142                           	opt callstack 0
  1143  0000DB                     	ds	1
  1144  0000DC                     _coordXUnidades:
  1145                           	opt callstack 0
  1146  0000DC                     	ds	1
  1147  0000DD                     _coordXDecenas:
  1148                           	opt callstack 0
  1149  0000DD                     	ds	1
  1150  0000DE                     _coordXCentenas:
  1151                           	opt callstack 0
  1152  0000DE                     	ds	1
  1153                           
  1154                           	psect	cstackBANK0
  1155  000060                     __pcstackBANK0:
  1156                           	opt callstack 0
  1157  000060                     ??_low_isr:
  1158                           
  1159                           ; 1 bytes @ 0x0
  1160  000060                     	ds	1
  1161  000061                     ?_abs:
  1162                           	opt callstack 0
  1163  000061                     ?___lwmod:
  1164                           	opt callstack 0
  1165  000061                     errorUART@temp:
  1166                           	opt callstack 0
  1167  000061                     presionarPantalla@presionarZDecenas:
  1168                           	opt callstack 0
  1169  000061                     setNumPasosX@numPasosX:
  1170                           	opt callstack 0
  1171  000061                     setNumPasosY@numPasosY:
  1172                           	opt callstack 0
  1173  000061                     ___lwmod@dividend:
  1174                           	opt callstack 0
  1175  000061                     abs@a:
  1176                           	opt callstack 0
  1177                           
  1178                           ; 2 bytes @ 0x1
  1179  000061                     	ds	1
  1180  000062                     receive@recibido:
  1181                           	opt callstack 0
  1182  000062                     send@enviarpc:
  1183                           	opt callstack 0
  1184  000062                     presionarPantalla@presionarZUnidades:
  1185                           	opt callstack 0
  1186                           
  1187                           ; 1 bytes @ 0x2
  1188  000062                     	ds	1
  1189  000063                     ??_presionarPantalla:
  1190  000063                     ??_abs:
  1191  000063                     printf@PointString:
  1192                           	opt callstack 0
  1193  000063                     scanf@guardarscan:
  1194                           	opt callstack 0
  1195  000063                     setNumPasosX@resultado:
  1196                           	opt callstack 0
  1197  000063                     setNumPasosY@resultado:
  1198                           	opt callstack 0
  1199  000063                     ___lwmod@divisor:
  1200                           	opt callstack 0
  1201                           
  1202                           ; 2 bytes @ 0x3
  1203  000063                     	ds	2
  1204  000065                     ??_printf:
  1205  000065                     ?___wmul:
  1206                           	opt callstack 0
  1207  000065                     scanf@numcaracteres:
  1208                           	opt callstack 0
  1209  000065                     presionarPantalla@presionarZCentenas:
  1210                           	opt callstack 0
  1211  000065                     ___lwmod@counter:
  1212                           	opt callstack 0
  1213  000065                     ___wmul@multiplier:
  1214                           	opt callstack 0
  1215                           
  1216                           ; 2 bytes @ 0x5
  1217  000065                     	ds	1
  1218  000066                     ?___xxtofl:
  1219                           	opt callstack 0
  1220  000066                     scanf@i:
  1221                           	opt callstack 0
  1222  000066                     presionarPantalla@toques:
  1223                           	opt callstack 0
  1224  000066                     ___xxtofl@val:
  1225                           	opt callstack 0
  1226                           
  1227                           ; 4 bytes @ 0x6
  1228  000066                     	ds	1
  1229  000067                     printf@i:
  1230                           	opt callstack 0
  1231  000067                     ___wmul@multiplicand:
  1232                           	opt callstack 0
  1233                           
  1234                           ; 2 bytes @ 0x7
  1235  000067                     	ds	1
  1236  000068                     ??_modificarZ:
  1237  000068                     receiveNum@recibido:
  1238                           	opt callstack 0
  1239                           
  1240                           ; 1 bytes @ 0x8
  1241  000068                     	ds	1
  1242  000069                     slidePiston@selection:
  1243                           	opt callstack 0
  1244  000069                     modificarZ@OkEncendido:
  1245                           	opt callstack 0
  1246  000069                     ___wmul@product:
  1247                           	opt callstack 0
  1248                           
  1249                           ; 2 bytes @ 0x9
  1250  000069                     	ds	1
  1251  00006A                     ??___xxtofl:
  1252                           
  1253                           ; 1 bytes @ 0xA
  1254  00006A                     	ds	4
  1255  00006E                     ___xxtofl@sign:
  1256                           	opt callstack 0
  1257                           
  1258                           ; 1 bytes @ 0xE
  1259  00006E                     	ds	1
  1260  00006F                     ___xxtofl@exp:
  1261                           	opt callstack 0
  1262                           
  1263                           ; 1 bytes @ 0xF
  1264  00006F                     	ds	1
  1265  000070                     ___xxtofl@arg:
  1266                           	opt callstack 0
  1267                           
  1268                           ; 4 bytes @ 0x10
  1269  000070                     	ds	4
  1270  000074                     ?___flmul:
  1271                           	opt callstack 0
  1272  000074                     ___flmul@b:
  1273                           	opt callstack 0
  1274                           
  1275                           ; 4 bytes @ 0x14
  1276  000074                     	ds	4
  1277  000078                     ___flmul@a:
  1278                           	opt callstack 0
  1279                           
  1280                           ; 4 bytes @ 0x18
  1281  000078                     	ds	4
  1282  00007C                     ??___flmul:
  1283                           
  1284                           ; 1 bytes @ 0x1C
  1285  00007C                     	ds	4
  1286  000080                     ___flmul@sign:
  1287                           	opt callstack 0
  1288                           
  1289                           ; 1 bytes @ 0x20
  1290  000080                     	ds	1
  1291  000081                     ___flmul@grs:
  1292                           	opt callstack 0
  1293                           
  1294                           ; 4 bytes @ 0x21
  1295  000081                     	ds	4
  1296  000085                     ___flmul@aexp:
  1297                           	opt callstack 0
  1298                           
  1299                           ; 1 bytes @ 0x25
  1300  000085                     	ds	1
  1301  000086                     ___flmul@bexp:
  1302                           	opt callstack 0
  1303                           
  1304                           ; 1 bytes @ 0x26
  1305  000086                     	ds	1
  1306  000087                     ___flmul@prod:
  1307                           	opt callstack 0
  1308                           
  1309                           ; 4 bytes @ 0x27
  1310  000087                     	ds	4
  1311  00008B                     ___flmul@temp:
  1312                           	opt callstack 0
  1313                           
  1314                           ; 2 bytes @ 0x2B
  1315  00008B                     	ds	2
  1316  00008D                     ?___fladd:
  1317                           	opt callstack 0
  1318  00008D                     ___fladd@b:
  1319                           	opt callstack 0
  1320                           
  1321                           ; 4 bytes @ 0x2D
  1322  00008D                     	ds	4
  1323  000091                     ___fladd@a:
  1324                           	opt callstack 0
  1325                           
  1326                           ; 4 bytes @ 0x31
  1327  000091                     	ds	4
  1328  000095                     ??___fladd:
  1329                           
  1330                           ; 1 bytes @ 0x35
  1331  000095                     	ds	4
  1332  000099                     ___fladd@signs:
  1333                           	opt callstack 0
  1334                           
  1335                           ; 1 bytes @ 0x39
  1336  000099                     	ds	1
  1337  00009A                     ___fladd@aexp:
  1338                           	opt callstack 0
  1339                           
  1340                           ; 1 bytes @ 0x3A
  1341  00009A                     	ds	1
  1342  00009B                     ___fladd@bexp:
  1343                           	opt callstack 0
  1344                           
  1345                           ; 1 bytes @ 0x3B
  1346  00009B                     	ds	1
  1347  00009C                     ___fladd@grs:
  1348                           	opt callstack 0
  1349                           
  1350                           ; 1 bytes @ 0x3C
  1351  00009C                     	ds	1
  1352  00009D                     ?___fltol:
  1353                           	opt callstack 0
  1354  00009D                     ___fltol@f1:
  1355                           	opt callstack 0
  1356                           
  1357                           ; 4 bytes @ 0x3D
  1358  00009D                     	ds	4
  1359  0000A1                     ??___fltol:
  1360                           
  1361                           ; 1 bytes @ 0x41
  1362  0000A1                     	ds	4
  1363  0000A5                     ___fltol@sign1:
  1364                           	opt callstack 0
  1365                           
  1366                           ; 1 bytes @ 0x45
  1367  0000A5                     	ds	1
  1368  0000A6                     ___fltol@exp1:
  1369                           	opt callstack 0
  1370                           
  1371                           ; 1 bytes @ 0x46
  1372  0000A6                     	ds	1
  1373  0000A7                     ??_PWM_DutyCycleCCP2:
  1374  0000A7                     ??_PWM_DutyCycleCCP1:
  1375  0000A7                     _impCoordActual$2878:
  1376                           	opt callstack 0
  1377                           
  1378                           ; 2 bytes @ 0x47
  1379  0000A7                     	ds	2
  1380  0000A9                     _PWM_DutyCycleCCP2$2876:
  1381                           	opt callstack 0
  1382  0000A9                     _PWM_DutyCycleCCP1$2877:
  1383                           	opt callstack 0
  1384                           
  1385                           ; 4 bytes @ 0x49
  1386  0000A9                     	ds	4
  1387  0000AD                     PWM_DutyCycleCCP2@WantedDutyCycle:
  1388                           	opt callstack 0
  1389  0000AD                     PWM_DutyCycleCCP1@WantedDutyCycle:
  1390                           	opt callstack 0
  1391                           
  1392                           ; 1 bytes @ 0x4D
  1393  0000AD                     	ds	1
  1394  0000AE                     PWM_DutyCycleCCP2@PWMDutyValue:
  1395                           	opt callstack 0
  1396  0000AE                     PWM_DutyCycleCCP1@PWMDutyValue:
  1397                           	opt callstack 0
  1398                           
  1399                           ; 2 bytes @ 0x4E
  1400  0000AE                     	ds	2
  1401  0000B0                     moverHaciaY@coordYDecenas:
  1402                           	opt callstack 0
  1403  0000B0                     moverHaciaX@coordXDecenas:
  1404                           	opt callstack 0
  1405                           
  1406                           ; 1 bytes @ 0x50
  1407  0000B0                     	ds	1
  1408  0000B1                     moverHaciaY@coordYUnidades:
  1409                           	opt callstack 0
  1410  0000B1                     moverHaciaX@coordXUnidades:
  1411                           	opt callstack 0
  1412                           
  1413                           ; 1 bytes @ 0x51
  1414  0000B1                     	ds	1
  1415  0000B2                     ??_moverHaciaY:
  1416  0000B2                     ??_moverHaciaX:
  1417                           
  1418                           ; 1 bytes @ 0x52
  1419  0000B2                     	ds	2
  1420  0000B4                     moverHaciaY@coordYCentenas:
  1421                           	opt callstack 0
  1422  0000B4                     moverHaciaX@coordXCentenas:
  1423                           	opt callstack 0
  1424                           
  1425                           ; 1 bytes @ 0x54
  1426  0000B4                     	ds	1
  1427  0000B5                     ??_moverHaciaXY:
  1428                           
  1429                           ; 1 bytes @ 0x55
  1430  0000B5                     	ds	2
  1431  0000B7                     moverHaciaXY@validarCoordX:
  1432                           	opt callstack 0
  1433                           
  1434                           ; 2 bytes @ 0x57
  1435  0000B7                     	ds	2
  1436  0000B9                     moverHaciaXY@validarCoordY:
  1437                           	opt callstack 0
  1438                           
  1439                           ; 2 bytes @ 0x59
  1440  0000B9                     	ds	2
  1441  0000BB                     main@tamanoarray:
  1442                           	opt callstack 0
  1443                           
  1444                           ; 1 bytes @ 0x5B
  1445  0000BB                     	ds	2
  1446  0000BD                     main@pActMenu:
  1447                           	opt callstack 0
  1448                           
  1449                           ; 2 bytes @ 0x5D
  1450  0000BD                     	ds	2
  1451  0000BF                     main@activarmenu:
  1452                           	opt callstack 0
  1453                           
  1454                           ; 5 bytes @ 0x5F
  1455  0000BF                     	ds	5
  1456  0000C4                     main@calibrarSparc:
  1457                           	opt callstack 0
  1458                           
  1459                           ; 1 bytes @ 0x64
  1460  0000C4                     	ds	1
  1461  0000C5                     main@opcionsel:
  1462                           	opt callstack 0
  1463                           
  1464                           ; 1 bytes @ 0x65
  1465  0000C5                     	ds	1
  1466                           
  1467                           	psect	cstackCOMRAM
  1468  000001                     __pcstackCOMRAM:
  1469                           	opt callstack 0
  1470  000001                     ?i2___xxtofl:
  1471                           	opt callstack 0
  1472  000001                     i2errorUART@temp:
  1473                           	opt callstack 0
  1474  000001                     i2___xxtofl@val:
  1475                           	opt callstack 0
  1476                           
  1477                           ; 4 bytes @ 0x0
  1478  000001                     	ds	1
  1479  000002                     i2send@enviarpc:
  1480                           	opt callstack 0
  1481                           
  1482                           ; 1 bytes @ 0x1
  1483  000002                     	ds	1
  1484  000003                     i2printf@PointString:
  1485                           	opt callstack 0
  1486                           
  1487                           ; 2 bytes @ 0x2
  1488  000003                     	ds	2
  1489  000005                     ??i2_printf:
  1490  000005                     ??i2___xxtofl:
  1491                           
  1492                           ; 1 bytes @ 0x4
  1493  000005                     	ds	2
  1494  000007                     i2printf@i:
  1495                           	opt callstack 0
  1496                           
  1497                           ; 1 bytes @ 0x6
  1498  000007                     	ds	2
  1499  000009                     i2___xxtofl@sign:
  1500                           	opt callstack 0
  1501                           
  1502                           ; 1 bytes @ 0x8
  1503  000009                     	ds	1
  1504  00000A                     i2___xxtofl@exp:
  1505                           	opt callstack 0
  1506                           
  1507                           ; 1 bytes @ 0x9
  1508  00000A                     	ds	1
  1509  00000B                     i2___xxtofl@arg:
  1510                           	opt callstack 0
  1511                           
  1512                           ; 4 bytes @ 0xA
  1513  00000B                     	ds	4
  1514  00000F                     ?i2___flmul:
  1515                           	opt callstack 0
  1516  00000F                     i2___flmul@b:
  1517                           	opt callstack 0
  1518                           
  1519                           ; 4 bytes @ 0xE
  1520  00000F                     	ds	4
  1521  000013                     i2___flmul@a:
  1522                           	opt callstack 0
  1523                           
  1524                           ; 4 bytes @ 0x12
  1525  000013                     	ds	4
  1526  000017                     ??i2___flmul:
  1527                           
  1528                           ; 1 bytes @ 0x16
  1529  000017                     	ds	4
  1530  00001B                     i2___flmul@sign:
  1531                           	opt callstack 0
  1532                           
  1533                           ; 1 bytes @ 0x1A
  1534  00001B                     	ds	1
  1535  00001C                     i2___flmul@grs:
  1536                           	opt callstack 0
  1537                           
  1538                           ; 4 bytes @ 0x1B
  1539  00001C                     	ds	4
  1540  000020                     i2___flmul@aexp:
  1541                           	opt callstack 0
  1542                           
  1543                           ; 1 bytes @ 0x1F
  1544  000020                     	ds	1
  1545  000021                     i2___flmul@bexp:
  1546                           	opt callstack 0
  1547                           
  1548                           ; 1 bytes @ 0x20
  1549  000021                     	ds	1
  1550  000022                     i2___flmul@prod:
  1551                           	opt callstack 0
  1552                           
  1553                           ; 4 bytes @ 0x21
  1554  000022                     	ds	4
  1555  000026                     i2___flmul@temp:
  1556                           	opt callstack 0
  1557                           
  1558                           ; 2 bytes @ 0x25
  1559  000026                     	ds	2
  1560  000028                     ?i2___fltol:
  1561                           	opt callstack 0
  1562  000028                     i2___fltol@f1:
  1563                           	opt callstack 0
  1564                           
  1565                           ; 4 bytes @ 0x27
  1566  000028                     	ds	4
  1567  00002C                     ??i2___fltol:
  1568                           
  1569                           ; 1 bytes @ 0x2B
  1570  00002C                     	ds	4
  1571  000030                     i2___fltol@sign1:
  1572                           	opt callstack 0
  1573                           
  1574                           ; 1 bytes @ 0x2F
  1575  000030                     	ds	1
  1576  000031                     i2___fltol@exp1:
  1577                           	opt callstack 0
  1578                           
  1579                           ; 1 bytes @ 0x30
  1580  000031                     	ds	1
  1581  000032                     ??i2_PWM_DutyCycleCCP2:
  1582  000032                     ??i2_PWM_DutyCycleCCP1:
  1583                           
  1584                           ; 1 bytes @ 0x31
  1585  000032                     	ds	2
  1586  000034                     i2_PWM_DutyCycleCCP2$2960:
  1587                           	opt callstack 0
  1588  000034                     i2_PWM_DutyCycleCCP1$2961:
  1589                           	opt callstack 0
  1590                           
  1591                           ; 4 bytes @ 0x33
  1592  000034                     	ds	4
  1593  000038                     i2PWM_DutyCycleCCP2@WantedDutyCycle:
  1594                           	opt callstack 0
  1595  000038                     i2PWM_DutyCycleCCP1@WantedDutyCycle:
  1596                           	opt callstack 0
  1597                           
  1598                           ; 1 bytes @ 0x37
  1599  000038                     	ds	1
  1600  000039                     i2PWM_DutyCycleCCP2@PWMDutyValue:
  1601                           	opt callstack 0
  1602  000039                     i2PWM_DutyCycleCCP1@PWMDutyValue:
  1603                           	opt callstack 0
  1604                           
  1605                           ; 2 bytes @ 0x38
  1606  000039                     	ds	2
  1607  00003B                     ??_high_isr:
  1608                           
  1609                           ; 1 bytes @ 0x3A
  1610  00003B                     	ds	7
  1611                           
  1612 ;;
  1613 ;;Main: autosize = 0, tempsize = 0, incstack = 0, save=0
  1614 ;;
  1615 ;; *************** function _main *****************
  1616 ;; Defined at:
  1617 ;;		line 78 in file "main.c"
  1618 ;; Parameters:    Size  Location     Type
  1619 ;;		None
  1620 ;; Auto vars:     Size  Location     Type
  1621 ;;  opcionsel       1  101[BANK0 ] unsigned char 
  1622 ;;  activarmenu     5   95[BANK0 ] unsigned char [5]
  1623 ;;  pActMenu        2   93[BANK0 ] PTR unsigned char 
  1624 ;;		 -> main@activarmenu(5), 
  1625 ;;  calibrarSpar    1  100[BANK0 ] unsigned char 
  1626 ;;  desechable      1    0        unsigned char 
  1627 ;;  tamanoarray     1   91[BANK0 ] unsigned char 
  1628 ;; Return value:  Size  Location     Type
  1629 ;;                  1    wreg      void 
  1630 ;; Registers used:
  1631 ;;		wreg, fsr2l, fsr2h, status,2, status,0, tblptrl, tblptrh, tblptru, prodl, prodh, cstack
  1632 ;; Tracked objects:
  1633 ;;		On entry : 0/0
  1634 ;;		On exit  : 0/0
  1635 ;;		Unchanged: 0/0
  1636 ;; Data sizes:     COMRAM   BANK0   BANK1   BANK2   BANK3   BANK4   BANK5   BANK6   BANK7
  1637 ;;      Params:         0       0       0       0       0       0       0       0       0
  1638 ;;      Locals:         0      11       0       0       0       0       0       0       0
  1639 ;;      Temps:          0       0       0       0       0       0       0       0       0
  1640 ;;      Totals:         0      11       0       0       0       0       0       0       0
  1641 ;;Total ram usage:       11 bytes
  1642 ;; Hardware stack levels required when called:   10
  1643 ;; This function calls:
  1644 ;;		_PWM_CCP1_init
  1645 ;;		_PWM_CCP2_init
  1646 ;;		_PWM_DutyCycleCCP1
  1647 ;;		_PWM_DutyCycleCCP2
  1648 ;;		_UARTinit
  1649 ;;		_funcionToques
  1650 ;;		_habilitarIntTMR0
  1651 ;;		_habilitarIntTMR1
  1652 ;;		_impCoordActual
  1653 ;;		_interruptsEnable
  1654 ;;		_modificarZ
  1655 ;;		_motorXinit
  1656 ;;		_motorYinit
  1657 ;;		_motoresZinit
  1658 ;;		_moverHaciaXY
  1659 ;;		_pistonInit
  1660 ;;		_portInit
  1661 ;;		_printf
  1662 ;;		_receive
  1663 ;;		_scanf
  1664 ;;		_slidePiston
  1665 ;;		_tmr0Init
  1666 ;;		_tmr1Init
  1667 ;; This function is called by:
  1668 ;;		Startup code after reset
  1669 ;; This function uses a non-reentrant model
  1670 ;;
  1671                           
  1672                           	psect	text0
  1673  000D44                     __ptext0:
  1674                           	opt callstack 0
  1675  000D44                     _main:
  1676                           	opt callstack 21
  1677  000D44                     
  1678                           ;main.c: 80:     portInit();
  1679  000D44  EC97  F013         	call	_portInit	;wreg free
  1680                           
  1681                           ;main.c: 81:     UARTinit();
  1682  000D48  EC5E  F013         	call	_UARTinit	;wreg free
  1683                           
  1684                           ;main.c: 83:     PWM_CCP2_init();
  1685  000D4C  EC34  F013         	call	_PWM_CCP2_init	;wreg free
  1686                           
  1687                           ;main.c: 84:     PWM_CCP1_init();
  1688  000D50  EC13  F013         	call	_PWM_CCP1_init	;wreg free
  1689  000D54                     
  1690                           ;main.c: 85:     PWM_DutyCycleCCP2(0);
  1691  000D54  0E00               	movlw	0
  1692  000D56  EC5E  F00F         	call	_PWM_DutyCycleCCP2
  1693  000D5A                     
  1694                           ;main.c: 86:     PWM_DutyCycleCCP1(0);
  1695  000D5A  0E00               	movlw	0
  1696  000D5C  ECBC  F00F         	call	_PWM_DutyCycleCCP1
  1697  000D60                     
  1698                           ;main.c: 87:     motorXinit();
  1699  000D60  ECAC  F013         	call	_motorXinit	;wreg free
  1700  000D64                     
  1701                           ;main.c: 88:     motorYinit();
  1702  000D64  ECA5  F013         	call	_motorYinit	;wreg free
  1703                           
  1704                           ;main.c: 89:     tmr0Init();
  1705  000D68  EC78  F013         	call	_tmr0Init	;wreg free
  1706                           
  1707                           ;main.c: 90:     tmr1Init();
  1708  000D6C  EC51  F013         	call	_tmr1Init	;wreg free
  1709  000D70                     
  1710                           ;main.c: 91:     interruptsEnable();
  1711  000D70  ECB3  F013         	call	_interruptsEnable	;wreg free
  1712  000D74                     
  1713                           ;main.c: 92:     habilitarIntTMR0();
  1714  000D74  ECC4  F013         	call	_habilitarIntTMR0	;wreg free
  1715  000D78                     
  1716                           ;main.c: 93:     habilitarIntTMR1();
  1717  000D78  ECC2  F013         	call	_habilitarIntTMR1	;wreg free
  1718  000D7C                     
  1719                           ;main.c: 95:     motoresZinit();
  1720  000D7C  EC9E  F013         	call	_motoresZinit	;wreg free
  1721  000D80                     
  1722                           ;main.c: 96:     pistonInit();
  1723  000D80  ECC0  F013         	call	_pistonInit	;wreg free
  1724                           
  1725                           ;main.c: 100:     uint8_t activarmenu[5];;main.c: 101:     activarmenu[4] = ((void*)0);
  1726  000D84  0E00               	movlw	0
  1727  000D86  0100               	movlb	0	; () banked
  1728  000D88  6FC3               	movwf	(main@activarmenu+4)& (0+255),b
  1729  000D8A                     
  1730                           ; BSR set to: 0
  1731                           ;main.c: 102:     uint8_t *pActMenu = (unsigned char *) &activarmenu;
  1732  000D8A  0EBF               	movlw	low main@activarmenu
  1733  000D8C  6FBD               	movwf	main@pActMenu& (0+255),b
  1734  000D8E  0E00               	movlw	high main@activarmenu
  1735  000D90  6FBE               	movwf	(main@pActMenu+1)& (0+255),b
  1736  000D92                     
  1737                           ; BSR set to: 0
  1738                           ;main.c: 103:     uint8_t tamanoarray;;main.c: 104:     uint8_t calibrarSparc = 0;
  1739  000D92  0E00               	movlw	0
  1740  000D94  6FC4               	movwf	main@calibrarSparc& (0+255),b
  1741  000D96                     
  1742                           ; BSR set to: 0
  1743  000D96  EC24  F013         	call	_receive	;wreg free
  1744                           
  1745                           ;main.c: 107:     while (calibrarSparc == 0) {
  1746  000D9A  EF16  F007         	goto	l3835
  1747  000D9E                     l3817:
  1748                           
  1749                           ; BSR set to: 0
  1750                           ;main.c: 108:         printf("Escribe init para calibar el SPARC y poder empezar el prog
      +                          rama\n");
  1751  000D9E  0EAF               	movlw	low STR_22
  1752  000DA0  6F63               	movwf	printf@PointString& (0+255),b
  1753  000DA2  0E7C               	movlw	high STR_22
  1754  000DA4  6F64               	movwf	(printf@PointString+1)& (0+255),b
  1755  000DA6  EC93  F011         	call	_printf	;wreg free
  1756  000DAA                     
  1757                           ;main.c: 109:         scanf(pActMenu, tamanoarray = (sizeof (activarmenu) - 1));
  1758  000DAA  C0BD  F063         	movff	main@pActMenu,scanf@guardarscan
  1759  000DAE  C0BE  F064         	movff	main@pActMenu+1,scanf@guardarscan+1
  1760  000DB2  0E04               	movlw	4
  1761  000DB4  0100               	movlb	0	; () banked
  1762  000DB6  6FBB               	movwf	main@tamanoarray& (0+255),b
  1763  000DB8  C0BB  F065         	movff	main@tamanoarray,scanf@numcaracteres
  1764  000DBC  EC7F  F012         	call	_scanf	;wreg free
  1765  000DC0                     
  1766                           ;main.c: 110:         if ((activarmenu[0] == 'i' || activarmenu[0] == 'I') && activarmen
      +                          u[1] == 'n' && activarmenu[2] == 'i' && activarmenu[3] == 't') {
  1767  000DC0  0E69               	movlw	105
  1768  000DC2  0100               	movlb	0	; () banked
  1769  000DC4  19BF               	xorwf	main@activarmenu& (0+255),w,b
  1770  000DC6  B4D8               	btfsc	status,2,c
  1771  000DC8  EFE8  F006         	goto	u3601
  1772  000DCC  EFEA  F006         	goto	u3600
  1773  000DD0                     u3601:
  1774  000DD0  EFF3  F006         	goto	l3825
  1775  000DD4                     u3600:
  1776  000DD4                     
  1777                           ; BSR set to: 0
  1778  000DD4  0E49               	movlw	73
  1779  000DD6  19BF               	xorwf	main@activarmenu& (0+255),w,b
  1780  000DD8  A4D8               	btfss	status,2,c
  1781  000DDA  EFF1  F006         	goto	u3611
  1782  000DDE  EFF3  F006         	goto	u3610
  1783  000DE2                     u3611:
  1784  000DE2  EF16  F007         	goto	l3835
  1785  000DE6                     u3610:
  1786  000DE6                     l3825:
  1787                           
  1788                           ; BSR set to: 0
  1789  000DE6  0E6E               	movlw	110
  1790  000DE8  19C0               	xorwf	(main@activarmenu+1)& (0+255),w,b
  1791  000DEA  A4D8               	btfss	status,2,c
  1792  000DEC  EFFA  F006         	goto	u3621
  1793  000DF0  EFFC  F006         	goto	u3620
  1794  000DF4                     u3621:
  1795  000DF4  EF16  F007         	goto	l3835
  1796  000DF8                     u3620:
  1797  000DF8                     
  1798                           ; BSR set to: 0
  1799  000DF8  0E69               	movlw	105
  1800  000DFA  19C1               	xorwf	(main@activarmenu+2)& (0+255),w,b
  1801  000DFC  A4D8               	btfss	status,2,c
  1802  000DFE  EF03  F007         	goto	u3631
  1803  000E02  EF05  F007         	goto	u3630
  1804  000E06                     u3631:
  1805  000E06  EF16  F007         	goto	l3835
  1806  000E0A                     u3630:
  1807  000E0A                     
  1808                           ; BSR set to: 0
  1809  000E0A  0E74               	movlw	116
  1810  000E0C  19C2               	xorwf	(main@activarmenu+3)& (0+255),w,b
  1811  000E0E  A4D8               	btfss	status,2,c
  1812  000E10  EF0C  F007         	goto	u3641
  1813  000E14  EF0E  F007         	goto	u3640
  1814  000E18                     u3641:
  1815  000E18  EF16  F007         	goto	l3835
  1816  000E1C                     u3640:
  1817  000E1C                     
  1818                           ; BSR set to: 0
  1819                           ;main.c: 111:             calibrarSparc = 1;
  1820  000E1C  0E01               	movlw	1
  1821  000E1E  6FC4               	movwf	main@calibrarSparc& (0+255),b
  1822  000E20                     
  1823                           ; BSR set to: 0
  1824                           ;main.c: 112:             printf("Initializing\n");
  1825  000E20  0E7E               	movlw	low STR_23
  1826  000E22  6F63               	movwf	printf@PointString& (0+255),b
  1827  000E24  0E7F               	movlw	high STR_23
  1828  000E26  6F64               	movwf	(printf@PointString+1)& (0+255),b
  1829  000E28  EC93  F011         	call	_printf	;wreg free
  1830  000E2C                     l3835:
  1831                           
  1832                           ;main.c: 107:     while (calibrarSparc == 0) {
  1833  000E2C  0100               	movlb	0	; () banked
  1834  000E2E  51C4               	movf	main@calibrarSparc& (0+255),w,b
  1835  000E30  B4D8               	btfsc	status,2,c
  1836  000E32  EF1D  F007         	goto	u3651
  1837  000E36  EF1F  F007         	goto	u3650
  1838  000E3A                     u3651:
  1839  000E3A  EFCF  F006         	goto	l3817
  1840  000E3E                     u3650:
  1841  000E3E                     l3837:
  1842                           
  1843                           ;main.c: 136:         printf("Ok,comN\n");
  1844  000E3E  0ECB               	movlw	low STR_24
  1845  000E40  0100               	movlb	0	; () banked
  1846  000E42  6F63               	movwf	printf@PointString& (0+255),b
  1847  000E44  0E7F               	movlw	high STR_24
  1848  000E46  6F64               	movwf	(printf@PointString+1)& (0+255),b
  1849  000E48  EC93  F011         	call	_printf	;wreg free
  1850  000E4C                     
  1851                           ;main.c: 137:         uint8_t opcionsel = receive();
  1852  000E4C  EC24  F013         	call	_receive	;wreg free
  1853  000E50  0100               	movlb	0	; () banked
  1854  000E52  6FC5               	movwf	main@opcionsel& (0+255),b
  1855  000E54                     
  1856                           ; BSR set to: 0
  1857                           ;main.c: 138:         if (opcionsel == 'm' || opcionsel == 'M') {
  1858  000E54  0E6D               	movlw	109
  1859  000E56  19C5               	xorwf	main@opcionsel& (0+255),w,b
  1860  000E58  B4D8               	btfsc	status,2,c
  1861  000E5A  EF31  F007         	goto	u3661
  1862  000E5E  EF33  F007         	goto	u3660
  1863  000E62                     u3661:
  1864  000E62  EF3C  F007         	goto	l3845
  1865  000E66                     u3660:
  1866  000E66                     
  1867                           ; BSR set to: 0
  1868  000E66  0E4D               	movlw	77
  1869  000E68  19C5               	xorwf	main@opcionsel& (0+255),w,b
  1870  000E6A  A4D8               	btfss	status,2,c
  1871  000E6C  EF3A  F007         	goto	u3671
  1872  000E70  EF3C  F007         	goto	u3670
  1873  000E74                     u3671:
  1874  000E74  EF54  F007         	goto	l3851
  1875  000E78                     u3670:
  1876  000E78                     l3845:
  1877                           
  1878                           ; BSR set to: 0
  1879                           ;main.c: 139:             printf("Vas a mover el Sparc en X y Y\n");
  1880  000E78  0EE0               	movlw	low STR_25
  1881  000E7A  6F63               	movwf	printf@PointString& (0+255),b
  1882  000E7C  0E7E               	movlw	high STR_25
  1883  000E7E  6F64               	movwf	(printf@PointString+1)& (0+255),b
  1884  000E80  EC93  F011         	call	_printf	;wreg free
  1885                           
  1886                           ;main.c: 140:             printf("Ok,comV\n");
  1887  000E84  0ED4               	movlw	low STR_26
  1888  000E86  0100               	movlb	0	; () banked
  1889  000E88  6F63               	movwf	printf@PointString& (0+255),b
  1890  000E8A  0E7F               	movlw	high STR_26
  1891  000E8C  6F64               	movwf	(printf@PointString+1)& (0+255),b
  1892  000E8E  EC93  F011         	call	_printf	;wreg free
  1893  000E92                     
  1894                           ;main.c: 141:             moverHaciaXY();
  1895  000E92  EC26  F00C         	call	_moverHaciaXY	;wreg free
  1896  000E96                     
  1897                           ;main.c: 142:             printf("Ok,comF\n");
  1898  000E96  0EC2               	movlw	low STR_27
  1899  000E98  0100               	movlb	0	; () banked
  1900  000E9A  6F63               	movwf	printf@PointString& (0+255),b
  1901  000E9C  0E7F               	movlw	high STR_27
  1902  000E9E  6F64               	movwf	(printf@PointString+1)& (0+255),b
  1903  000EA0  EC93  F011         	call	_printf	;wreg free
  1904                           
  1905                           ;main.c: 143:         } else if (opcionsel == 'p' || opcionsel == 'P') {
  1906  000EA4  EF1F  F007         	goto	l3837
  1907  000EA8                     l3851:
  1908                           
  1909                           ; BSR set to: 0
  1910  000EA8  0E70               	movlw	112
  1911  000EAA  19C5               	xorwf	main@opcionsel& (0+255),w,b
  1912  000EAC  B4D8               	btfsc	status,2,c
  1913  000EAE  EF5B  F007         	goto	u3681
  1914  000EB2  EF5D  F007         	goto	u3680
  1915  000EB6                     u3681:
  1916  000EB6  EF66  F007         	goto	l3855
  1917  000EBA                     u3680:
  1918  000EBA                     
  1919                           ; BSR set to: 0
  1920  000EBA  0E50               	movlw	80
  1921  000EBC  19C5               	xorwf	main@opcionsel& (0+255),w,b
  1922  000EBE  A4D8               	btfss	status,2,c
  1923  000EC0  EF64  F007         	goto	u3691
  1924  000EC4  EF66  F007         	goto	u3690
  1925  000EC8                     u3691:
  1926  000EC8  EF7E  F007         	goto	l3861
  1927  000ECC                     u3690:
  1928  000ECC                     l3855:
  1929                           
  1930                           ; BSR set to: 0
  1931                           ;main.c: 144:             printf("Presionar Z cierto numero de veces recibidas\n");
  1932  000ECC  0EBB               	movlw	low STR_28
  1933  000ECE  6F63               	movwf	printf@PointString& (0+255),b
  1934  000ED0  0E7D               	movlw	high STR_28
  1935  000ED2  6F64               	movwf	(printf@PointString+1)& (0+255),b
  1936  000ED4  EC93  F011         	call	_printf	;wreg free
  1937                           
  1938                           ;main.c: 145:             printf("Ok,comV\n");
  1939  000ED8  0ED4               	movlw	low STR_26
  1940  000EDA  0100               	movlb	0	; () banked
  1941  000EDC  6F63               	movwf	printf@PointString& (0+255),b
  1942  000EDE  0E7F               	movlw	high STR_26
  1943  000EE0  6F64               	movwf	(printf@PointString+1)& (0+255),b
  1944  000EE2  EC93  F011         	call	_printf	;wreg free
  1945  000EE6                     
  1946                           ;main.c: 146:             funcionToques();
  1947  000EE6  ECD1  F012         	call	_funcionToques	;wreg free
  1948  000EEA                     
  1949                           ;main.c: 147:             printf("Ok,comF\n");
  1950  000EEA  0EC2               	movlw	low STR_27
  1951  000EEC  0100               	movlb	0	; () banked
  1952  000EEE  6F63               	movwf	printf@PointString& (0+255),b
  1953  000EF0  0E7F               	movlw	high STR_27
  1954  000EF2  6F64               	movwf	(printf@PointString+1)& (0+255),b
  1955  000EF4  EC93  F011         	call	_printf	;wreg free
  1956                           
  1957                           ;main.c: 148:         } else if (opcionsel == 's' || opcionsel == 'S') {
  1958  000EF8  EF1F  F007         	goto	l3837
  1959  000EFC                     l3861:
  1960                           
  1961                           ; BSR set to: 0
  1962  000EFC  0E73               	movlw	115
  1963  000EFE  19C5               	xorwf	main@opcionsel& (0+255),w,b
  1964  000F00  B4D8               	btfsc	status,2,c
  1965  000F02  EF85  F007         	goto	u3701
  1966  000F06  EF87  F007         	goto	u3700
  1967  000F0A                     u3701:
  1968  000F0A  EF90  F007         	goto	l3865
  1969  000F0E                     u3700:
  1970  000F0E                     
  1971                           ; BSR set to: 0
  1972  000F0E  0E53               	movlw	83
  1973  000F10  19C5               	xorwf	main@opcionsel& (0+255),w,b
  1974  000F12  A4D8               	btfss	status,2,c
  1975  000F14  EF8E  F007         	goto	u3711
  1976  000F18  EF90  F007         	goto	u3710
  1977  000F1C                     u3711:
  1978  000F1C  EFA8  F007         	goto	l3867
  1979  000F20                     u3710:
  1980  000F20                     l3865:
  1981                           
  1982                           ; BSR set to: 0
  1983                           ;main.c: 149:             printf("Piston para deslizar o dejar retraido?\n");
  1984  000F20  0E96               	movlw	low STR_31
  1985  000F22  6F63               	movwf	printf@PointString& (0+255),b
  1986  000F24  0E7E               	movlw	high STR_31
  1987  000F26  6F64               	movwf	(printf@PointString+1)& (0+255),b
  1988  000F28  EC93  F011         	call	_printf	;wreg free
  1989                           
  1990                           ;main.c: 150:             printf("Ok,comV\n");
  1991  000F2C  0ED4               	movlw	low STR_26
  1992  000F2E  0100               	movlb	0	; () banked
  1993  000F30  6F63               	movwf	printf@PointString& (0+255),b
  1994  000F32  0E7F               	movlw	high STR_26
  1995  000F34  6F64               	movwf	(printf@PointString+1)& (0+255),b
  1996  000F36  EC93  F011         	call	_printf	;wreg free
  1997                           
  1998                           ;main.c: 151:             slidePiston();
  1999  000F3A  EC61  F012         	call	_slidePiston	;wreg free
  2000                           
  2001                           ;main.c: 152:             printf("Ok,comF\n");
  2002  000F3E  0EC2               	movlw	low STR_27
  2003  000F40  0100               	movlb	0	; () banked
  2004  000F42  6F63               	movwf	printf@PointString& (0+255),b
  2005  000F44  0E7F               	movlw	high STR_27
  2006  000F46  6F64               	movwf	(printf@PointString+1)& (0+255),b
  2007  000F48  EC93  F011         	call	_printf	;wreg free
  2008                           
  2009                           ;main.c: 153:         } else if (opcionsel == 'h' || opcionsel == 'H') {
  2010  000F4C  EF1F  F007         	goto	l3837
  2011  000F50                     l3867:
  2012                           
  2013                           ; BSR set to: 0
  2014  000F50  0E68               	movlw	104
  2015  000F52  19C5               	xorwf	main@opcionsel& (0+255),w,b
  2016  000F54  B4D8               	btfsc	status,2,c
  2017  000F56  EFAF  F007         	goto	u3721
  2018  000F5A  EFB1  F007         	goto	u3720
  2019  000F5E                     u3721:
  2020  000F5E  EFBA  F007         	goto	l3871
  2021  000F62                     u3720:
  2022  000F62                     
  2023                           ; BSR set to: 0
  2024  000F62  0E48               	movlw	72
  2025  000F64  19C5               	xorwf	main@opcionsel& (0+255),w,b
  2026  000F66  A4D8               	btfss	status,2,c
  2027  000F68  EFB8  F007         	goto	u3731
  2028  000F6C  EFBA  F007         	goto	u3730
  2029  000F70                     u3731:
  2030  000F70  EFC9  F007         	goto	l3873
  2031  000F74                     u3730:
  2032  000F74                     l3871:
  2033                           
  2034                           ; BSR set to: 0
  2035                           ;main.c: 154:             printf("Vas a ir a homeX y home Y\n");
  2036  000F74  0E1B               	movlw	low STR_34
  2037  000F76  6F63               	movwf	printf@PointString& (0+255),b
  2038  000F78  0E7F               	movlw	high STR_34
  2039  000F7A  6F64               	movwf	(printf@PointString+1)& (0+255),b
  2040  000F7C  EC93  F011         	call	_printf	;wreg free
  2041                           
  2042                           ;main.c: 155:             printf("Ok,comV\n");
  2043  000F80  0ED4               	movlw	low STR_26
  2044  000F82  0100               	movlb	0	; () banked
  2045  000F84  6F63               	movwf	printf@PointString& (0+255),b
  2046  000F86  0E7F               	movlw	high STR_26
  2047  000F88  6F64               	movwf	(printf@PointString+1)& (0+255),b
  2048  000F8A  EC93  F011         	call	_printf	;wreg free
  2049                           
  2050                           ;main.c: 156:         } else if (opcionsel == 'i' || opcionsel == 'I') {
  2051  000F8E  EF1F  F007         	goto	l3837
  2052  000F92                     l3873:
  2053                           
  2054                           ; BSR set to: 0
  2055  000F92  0E69               	movlw	105
  2056  000F94  19C5               	xorwf	main@opcionsel& (0+255),w,b
  2057  000F96  B4D8               	btfsc	status,2,c
  2058  000F98  EFD0  F007         	goto	u3741
  2059  000F9C  EFD2  F007         	goto	u3740
  2060  000FA0                     u3741:
  2061  000FA0  EFDB  F007         	goto	l3877
  2062  000FA4                     u3740:
  2063  000FA4                     
  2064                           ; BSR set to: 0
  2065  000FA4  0E49               	movlw	73
  2066  000FA6  19C5               	xorwf	main@opcionsel& (0+255),w,b
  2067  000FA8  A4D8               	btfss	status,2,c
  2068  000FAA  EFD9  F007         	goto	u3751
  2069  000FAE  EFDB  F007         	goto	u3750
  2070  000FB2                     u3751:
  2071  000FB2  EFEA  F007         	goto	l3879
  2072  000FB6                     u3750:
  2073  000FB6                     l3877:
  2074                           
  2075                           ; BSR set to: 0
  2076                           ;main.c: 157:             printf("Vas a ir infinito X e infinito Y\n");
  2077  000FB6  0EBE               	movlw	low STR_36
  2078  000FB8  6F63               	movwf	printf@PointString& (0+255),b
  2079  000FBA  0E7E               	movlw	high STR_36
  2080  000FBC  6F64               	movwf	(printf@PointString+1)& (0+255),b
  2081  000FBE  EC93  F011         	call	_printf	;wreg free
  2082                           
  2083                           ;main.c: 158:             printf("Ok,comV\n");
  2084  000FC2  0ED4               	movlw	low STR_26
  2085  000FC4  0100               	movlb	0	; () banked
  2086  000FC6  6F63               	movwf	printf@PointString& (0+255),b
  2087  000FC8  0E7F               	movlw	high STR_26
  2088  000FCA  6F64               	movwf	(printf@PointString+1)& (0+255),b
  2089  000FCC  EC93  F011         	call	_printf	;wreg free
  2090                           
  2091                           ;main.c: 159:         } else if (opcionsel == 'c' || opcionsel == 'C') {
  2092  000FD0  EF1F  F007         	goto	l3837
  2093  000FD4                     l3879:
  2094                           
  2095                           ; BSR set to: 0
  2096  000FD4  0E63               	movlw	99
  2097  000FD6  19C5               	xorwf	main@opcionsel& (0+255),w,b
  2098  000FD8  B4D8               	btfsc	status,2,c
  2099  000FDA  EFF1  F007         	goto	u3761
  2100  000FDE  EFF3  F007         	goto	u3760
  2101  000FE2                     u3761:
  2102  000FE2  EFFC  F007         	goto	l3883
  2103  000FE6                     u3760:
  2104  000FE6                     
  2105                           ; BSR set to: 0
  2106  000FE6  0E43               	movlw	67
  2107  000FE8  19C5               	xorwf	main@opcionsel& (0+255),w,b
  2108  000FEA  A4D8               	btfss	status,2,c
  2109  000FEC  EFFA  F007         	goto	u3771
  2110  000FF0  EFFC  F007         	goto	u3770
  2111  000FF4                     u3771:
  2112  000FF4  EF14  F008         	goto	l3889
  2113  000FF8                     u3770:
  2114  000FF8                     l3883:
  2115                           
  2116                           ; BSR set to: 0
  2117                           ;main.c: 160:             printf("Imprmir coordenada actual \n");
  2118  000FF8  0EFF               	movlw	low STR_38
  2119  000FFA  6F63               	movwf	printf@PointString& (0+255),b
  2120  000FFC  0E7E               	movlw	high STR_38
  2121  000FFE  6F64               	movwf	(printf@PointString+1)& (0+255),b
  2122  001000  EC93  F011         	call	_printf	;wreg free
  2123                           
  2124                           ;main.c: 161:             printf("Ok,comV\n");
  2125  001004  0ED4               	movlw	low STR_26
  2126  001006  0100               	movlb	0	; () banked
  2127  001008  6F63               	movwf	printf@PointString& (0+255),b
  2128  00100A  0E7F               	movlw	high STR_26
  2129  00100C  6F64               	movwf	(printf@PointString+1)& (0+255),b
  2130  00100E  EC93  F011         	call	_printf	;wreg free
  2131  001012                     
  2132                           ;main.c: 162:             impCoordActual();
  2133  001012  EC48  F008         	call	_impCoordActual	;wreg free
  2134  001016                     
  2135                           ;main.c: 163:             printf("Ok,comF\n");
  2136  001016  0EC2               	movlw	low STR_27
  2137  001018  0100               	movlb	0	; () banked
  2138  00101A  6F63               	movwf	printf@PointString& (0+255),b
  2139  00101C  0E7F               	movlw	high STR_27
  2140  00101E  6F64               	movwf	(printf@PointString+1)& (0+255),b
  2141  001020  EC93  F011         	call	_printf	;wreg free
  2142                           
  2143                           ;main.c: 164:         } else if (opcionsel == 'b' || opcionsel == 'B') {
  2144  001024  EF1F  F007         	goto	l3837
  2145  001028                     l3889:
  2146                           
  2147                           ; BSR set to: 0
  2148  001028  0E62               	movlw	98
  2149  00102A  19C5               	xorwf	main@opcionsel& (0+255),w,b
  2150  00102C  B4D8               	btfsc	status,2,c
  2151  00102E  EF1B  F008         	goto	u3781
  2152  001032  EF1D  F008         	goto	u3780
  2153  001036                     u3781:
  2154  001036  EF26  F008         	goto	l3893
  2155  00103A                     u3780:
  2156  00103A                     
  2157                           ; BSR set to: 0
  2158  00103A  0E42               	movlw	66
  2159  00103C  19C5               	xorwf	main@opcionsel& (0+255),w,b
  2160  00103E  A4D8               	btfss	status,2,c
  2161  001040  EF24  F008         	goto	u3791
  2162  001044  EF26  F008         	goto	u3790
  2163  001048                     u3791:
  2164  001048  EF3E  F008         	goto	l3895
  2165  00104C                     u3790:
  2166  00104C                     l3893:
  2167                           
  2168                           ; BSR set to: 0
  2169                           ;main.c: 165:             printf("Entraste a mover la base\n");
  2170  00104C  0E36               	movlw	low STR_41
  2171  00104E  6F63               	movwf	printf@PointString& (0+255),b
  2172  001050  0E7F               	movlw	high STR_41
  2173  001052  6F64               	movwf	(printf@PointString+1)& (0+255),b
  2174  001054  EC93  F011         	call	_printf	;wreg free
  2175                           
  2176                           ;main.c: 166:             printf("Ok,comV\n");
  2177  001058  0ED4               	movlw	low STR_26
  2178  00105A  0100               	movlb	0	; () banked
  2179  00105C  6F63               	movwf	printf@PointString& (0+255),b
  2180  00105E  0E7F               	movlw	high STR_26
  2181  001060  6F64               	movwf	(printf@PointString+1)& (0+255),b
  2182  001062  EC93  F011         	call	_printf	;wreg free
  2183                           
  2184                           ;main.c: 167:             modificarZ();
  2185  001066  ECDE  F00E         	call	_modificarZ	;wreg free
  2186                           
  2187                           ;main.c: 168:             printf("Ok,comF\n");
  2188  00106A  0EC2               	movlw	low STR_27
  2189  00106C  0100               	movlb	0	; () banked
  2190  00106E  6F63               	movwf	printf@PointString& (0+255),b
  2191  001070  0E7F               	movlw	high STR_27
  2192  001072  6F64               	movwf	(printf@PointString+1)& (0+255),b
  2193  001074  EC93  F011         	call	_printf	;wreg free
  2194                           
  2195                           ;main.c: 169:         }else{
  2196  001078  EF1F  F007         	goto	l3837
  2197  00107C                     l3895:
  2198                           
  2199                           ; BSR set to: 0
  2200                           ;main.c: 170:             printf("E,com\n");
  2201  00107C  0EE5               	movlw	low STR_44
  2202  00107E  6F63               	movwf	printf@PointString& (0+255),b
  2203  001080  0E7F               	movlw	high STR_44
  2204  001082  6F64               	movwf	(printf@PointString+1)& (0+255),b
  2205  001084  EC93  F011         	call	_printf	;wreg free
  2206  001088  EF1F  F007         	goto	l3837
  2207  00108C  EF14  F000         	goto	start
  2208  001090                     __end_of_main:
  2209                           	opt callstack 0
  2210                           
  2211 ;; *************** function _tmr1Init *****************
  2212 ;; Defined at:
  2213 ;;		line 7 in file "Timers.c"
  2214 ;; Parameters:    Size  Location     Type
  2215 ;;		None
  2216 ;; Auto vars:     Size  Location     Type
  2217 ;;		None
  2218 ;; Return value:  Size  Location     Type
  2219 ;;                  1    wreg      void 
  2220 ;; Registers used:
  2221 ;;		wreg, status,2
  2222 ;; Tracked objects:
  2223 ;;		On entry : 0/0
  2224 ;;		On exit  : 0/0
  2225 ;;		Unchanged: 0/0
  2226 ;; Data sizes:     COMRAM   BANK0   BANK1   BANK2   BANK3   BANK4   BANK5   BANK6   BANK7
  2227 ;;      Params:         0       0       0       0       0       0       0       0       0
  2228 ;;      Locals:         0       0       0       0       0       0       0       0       0
  2229 ;;      Temps:          0       0       0       0       0       0       0       0       0
  2230 ;;      Totals:         0       0       0       0       0       0       0       0       0
  2231 ;;Total ram usage:        0 bytes
  2232 ;; Hardware stack levels used:    1
  2233 ;; Hardware stack levels required when called:    5
  2234 ;; This function calls:
  2235 ;;		Nothing
  2236 ;; This function is called by:
  2237 ;;		_main
  2238 ;; This function uses a non-reentrant model
  2239 ;;
  2240                           
  2241                           	psect	text1
  2242  0026A2                     __ptext1:
  2243                           	opt callstack 0
  2244  0026A2                     _tmr1Init:
  2245                           	opt callstack 25
  2246  0026A2                     
  2247                           ;Timers.c: 9:     T1CONbits.TMR1ON = 0;
  2248  0026A2  90CD               	bcf	205,0,c	;volatile
  2249                           
  2250                           ;Timers.c: 10:     T1CONbits.RD16 = 1;
  2251  0026A4  8ECD               	bsf	205,7,c	;volatile
  2252                           
  2253                           ;Timers.c: 11:     T1CONbits.T1OSCEN = 0;
  2254  0026A6  96CD               	bcf	205,3,c	;volatile
  2255                           
  2256                           ;Timers.c: 12:     T1CONbits.T1RUN = 1;
  2257  0026A8  8CCD               	bsf	205,6,c	;volatile
  2258                           
  2259                           ;Timers.c: 13:     T1CONbits.TMR1CS = 1;
  2260  0026AA  82CD               	bsf	205,1,c	;volatile
  2261                           
  2262                           ;Timers.c: 14:     T1CONbits.T1SYNC = 1;
  2263  0026AC  84CD               	bsf	205,2,c	;volatile
  2264                           
  2265                           ;Timers.c: 15:     TRISCbits.RC0 = 1;
  2266  0026AE  8094               	bsf	148,0,c	;volatile
  2267  0026B0                     
  2268                           ;Timers.c: 16:     TMR1 = 0;
  2269  0026B0  0E00               	movlw	0
  2270  0026B2  6ECF               	movwf	207,c	;volatile
  2271  0026B4  0E00               	movlw	0
  2272  0026B6  6ECE               	movwf	206,c	;volatile
  2273  0026B8                     
  2274                           ;Timers.c: 17:     T1CONbits.TMR1ON = 1;
  2275  0026B8  80CD               	bsf	205,0,c	;volatile
  2276  0026BA  0012               	return		;funcret
  2277  0026BC                     __end_of_tmr1Init:
  2278                           	opt callstack 0
  2279                           
  2280 ;; *************** function _tmr0Init *****************
  2281 ;; Defined at:
  2282 ;;		line 20 in file "Timers.c"
  2283 ;; Parameters:    Size  Location     Type
  2284 ;;		None
  2285 ;; Auto vars:     Size  Location     Type
  2286 ;;		None
  2287 ;; Return value:  Size  Location     Type
  2288 ;;                  1    wreg      void 
  2289 ;; Registers used:
  2290 ;;		wreg, status,2
  2291 ;; Tracked objects:
  2292 ;;		On entry : 0/0
  2293 ;;		On exit  : 0/0
  2294 ;;		Unchanged: 0/0
  2295 ;; Data sizes:     COMRAM   BANK0   BANK1   BANK2   BANK3   BANK4   BANK5   BANK6   BANK7
  2296 ;;      Params:         0       0       0       0       0       0       0       0       0
  2297 ;;      Locals:         0       0       0       0       0       0       0       0       0
  2298 ;;      Temps:          0       0       0       0       0       0       0       0       0
  2299 ;;      Totals:         0       0       0       0       0       0       0       0       0
  2300 ;;Total ram usage:        0 bytes
  2301 ;; Hardware stack levels used:    1
  2302 ;; Hardware stack levels required when called:    5
  2303 ;; This function calls:
  2304 ;;		Nothing
  2305 ;; This function is called by:
  2306 ;;		_main
  2307 ;; This function uses a non-reentrant model
  2308 ;;
  2309                           
  2310                           	psect	text2
  2311  0026F0                     __ptext2:
  2312                           	opt callstack 0
  2313  0026F0                     _tmr0Init:
  2314                           	opt callstack 25
  2315  0026F0                     
  2316                           ;Timers.c: 22:     T0CONbits.TMR0ON = 0;
  2317  0026F0  9ED5               	bcf	213,7,c	;volatile
  2318                           
  2319                           ;Timers.c: 23:     T0CONbits.T08BIT = 0;
  2320  0026F2  9CD5               	bcf	213,6,c	;volatile
  2321                           
  2322                           ;Timers.c: 24:     T0CONbits.T0CS = 1;
  2323  0026F4  8AD5               	bsf	213,5,c	;volatile
  2324                           
  2325                           ;Timers.c: 25:     T0CONbits.T0SE = 0;
  2326  0026F6  98D5               	bcf	213,4,c	;volatile
  2327                           
  2328                           ;Timers.c: 26:     TRISAbits.RA4 = 1;
  2329  0026F8  8892               	bsf	146,4,c	;volatile
  2330  0026FA                     
  2331                           ;Timers.c: 27:     TMR0 = 0;
  2332  0026FA  0E00               	movlw	0
  2333  0026FC  6ED7               	movwf	215,c	;volatile
  2334  0026FE  0E00               	movlw	0
  2335  002700  6ED6               	movwf	214,c	;volatile
  2336  002702                     
  2337                           ;Timers.c: 28:     T0CONbits.TMR0ON = 1;
  2338  002702  8ED5               	bsf	213,7,c	;volatile
  2339  002704  0012               	return		;funcret
  2340  002706                     __end_of_tmr0Init:
  2341                           	opt callstack 0
  2342                           
  2343 ;; *************** function _slidePiston *****************
  2344 ;; Defined at:
  2345 ;;		line 52 in file "FuncionesMenu.c"
  2346 ;; Parameters:    Size  Location     Type
  2347 ;;		None
  2348 ;; Auto vars:     Size  Location     Type
  2349 ;;  selection       1    9[BANK0 ] unsigned char 
  2350 ;; Return value:  Size  Location     Type
  2351 ;;                  1    wreg      void 
  2352 ;; Registers used:
  2353 ;;		wreg, status,2, status,0, tblptrl, tblptrh, tblptru, cstack
  2354 ;; Tracked objects:
  2355 ;;		On entry : 0/0
  2356 ;;		On exit  : 0/0
  2357 ;;		Unchanged: 0/0
  2358 ;; Data sizes:     COMRAM   BANK0   BANK1   BANK2   BANK3   BANK4   BANK5   BANK6   BANK7
  2359 ;;      Params:         0       0       0       0       0       0       0       0       0
  2360 ;;      Locals:         0       1       0       0       0       0       0       0       0
  2361 ;;      Temps:          0       0       0       0       0       0       0       0       0
  2362 ;;      Totals:         0       1       0       0       0       0       0       0       0
  2363 ;;Total ram usage:        1 bytes
  2364 ;; Hardware stack levels used:    1
  2365 ;; Hardware stack levels required when called:    9
  2366 ;; This function calls:
  2367 ;;		_receiveNum
  2368 ;; This function is called by:
  2369 ;;		_main
  2370 ;; This function uses a non-reentrant model
  2371 ;;
  2372                           
  2373                           	psect	text3
  2374  0024C2                     __ptext3:
  2375                           	opt callstack 0
  2376  0024C2                     _slidePiston:
  2377                           	opt callstack 21
  2378  0024C2                     
  2379                           ;FuncionesMenu.c: 53:     uint8_t selection;;FuncionesMenu.c: 54:     selection = receiv
      +                          eNum();
  2380  0024C2  EC21  F011         	call	_receiveNum	;wreg free
  2381  0024C6  0100               	movlb	0	; () banked
  2382  0024C8  6F69               	movwf	slidePiston@selection& (0+255),b
  2383  0024CA                     
  2384                           ; BSR set to: 0
  2385                           ;FuncionesMenu.c: 55:     if(selection == '1'){
  2386  0024CA  0E31               	movlw	49
  2387  0024CC  1969               	xorwf	slidePiston@selection& (0+255),w,b
  2388  0024CE  A4D8               	btfss	status,2,c
  2389  0024D0  EF6C  F012         	goto	u3371
  2390  0024D4  EF6E  F012         	goto	u3370
  2391  0024D8                     u3371:
  2392  0024D8  EF71  F012         	goto	l3603
  2393  0024DC                     u3370:
  2394  0024DC                     
  2395                           ; BSR set to: 0
  2396                           ;FuncionesMenu.c: 56:         LATEbits.LATE0 = 1;
  2397  0024DC  808D               	bsf	141,0,c	;volatile
  2398                           
  2399                           ;FuncionesMenu.c: 57:     }else if (selection == '0'){
  2400  0024DE  EF7E  F012         	goto	l327
  2401  0024E2                     l3603:
  2402                           
  2403                           ; BSR set to: 0
  2404  0024E2  0E30               	movlw	48
  2405  0024E4  1969               	xorwf	slidePiston@selection& (0+255),w,b
  2406  0024E6  A4D8               	btfss	status,2,c
  2407  0024E8  EF78  F012         	goto	u3381
  2408  0024EC  EF7A  F012         	goto	u3380
  2409  0024F0                     u3381:
  2410  0024F0  EF7D  F012         	goto	l325
  2411  0024F4                     u3380:
  2412  0024F4                     
  2413                           ; BSR set to: 0
  2414                           ;FuncionesMenu.c: 58:         LATEbits.LATE0 = 0;
  2415  0024F4  908D               	bcf	141,0,c	;volatile
  2416                           
  2417                           ;FuncionesMenu.c: 59:     }else{
  2418  0024F6  EF7E  F012         	goto	l327
  2419  0024FA                     l325:
  2420                           
  2421                           ; BSR set to: 0
  2422                           ;FuncionesMenu.c: 61:         LATEbits.LATE0 = 0;
  2423  0024FA  908D               	bcf	141,0,c	;volatile
  2424  0024FC                     l327:
  2425                           
  2426                           ; BSR set to: 0
  2427  0024FC  0012               	return		;funcret
  2428  0024FE                     __end_of_slidePiston:
  2429                           	opt callstack 0
  2430                           
  2431 ;; *************** function _scanf *****************
  2432 ;; Defined at:
  2433 ;;		line 17 in file "Comunicacion.c"
  2434 ;; Parameters:    Size  Location     Type
  2435 ;;  guardarscan     2    3[BANK0 ] PTR unsigned char 
  2436 ;;		 -> main@activarmenu(5), 
  2437 ;;  numcaractere    1    5[BANK0 ] unsigned char 
  2438 ;; Auto vars:     Size  Location     Type
  2439 ;;  i               1    6[BANK0 ] unsigned char 
  2440 ;; Return value:  Size  Location     Type
  2441 ;;                  1    wreg      void 
  2442 ;; Registers used:
  2443 ;;		wreg, fsr2l, fsr2h, status,2, status,0, cstack
  2444 ;; Tracked objects:
  2445 ;;		On entry : 0/0
  2446 ;;		On exit  : 0/0
  2447 ;;		Unchanged: 0/0
  2448 ;; Data sizes:     COMRAM   BANK0   BANK1   BANK2   BANK3   BANK4   BANK5   BANK6   BANK7
  2449 ;;      Params:         0       3       0       0       0       0       0       0       0
  2450 ;;      Locals:         0       1       0       0       0       0       0       0       0
  2451 ;;      Temps:          0       0       0       0       0       0       0       0       0
  2452 ;;      Totals:         0       4       0       0       0       0       0       0       0
  2453 ;;Total ram usage:        4 bytes
  2454 ;; Hardware stack levels used:    1
  2455 ;; Hardware stack levels required when called:    7
  2456 ;; This function calls:
  2457 ;;		_errorUART
  2458 ;;		_receive
  2459 ;; This function is called by:
  2460 ;;		_main
  2461 ;; This function uses a non-reentrant model
  2462 ;;
  2463                           
  2464                           	psect	text4
  2465  0024FE                     __ptext4:
  2466                           	opt callstack 0
  2467  0024FE                     _scanf:
  2468                           	opt callstack 23
  2469  0024FE                     
  2470                           ;Comunicacion.c: 18:     errorUART();
  2471  0024FE  ECFA  F011         	call	_errorUART	;wreg free
  2472  002502                     
  2473                           ;Comunicacion.c: 19:     for (uint8_t i = 0; i < numcaracteres; i++) {
  2474  002502  0E00               	movlw	0
  2475  002504  0100               	movlb	0	; () banked
  2476  002506  6F66               	movwf	scanf@i& (0+255),b
  2477  002508  EF91  F012         	goto	l3529
  2478  00250C                     l3525:
  2479                           
  2480                           ; BSR set to: 0
  2481                           ;Comunicacion.c: 21:         guardarscan[i] = receive();
  2482  00250C  5166               	movf	scanf@i& (0+255),w,b
  2483  00250E  2563               	addwf	scanf@guardarscan& (0+255),w,b
  2484  002510  6ED9               	movwf	fsr2l,c
  2485  002512  0E00               	movlw	0
  2486  002514  2164               	addwfc	(scanf@guardarscan+1)& (0+255),w,b
  2487  002516  6EDA               	movwf	fsr2h,c
  2488  002518  EC24  F013         	call	_receive	;wreg free
  2489  00251C  6EDF               	movwf	indf2,c
  2490  00251E                     
  2491                           ;Comunicacion.c: 22:     }
  2492  00251E  0100               	movlb	0	; () banked
  2493  002520  2B66               	incf	scanf@i& (0+255),f,b
  2494  002522                     l3529:
  2495                           
  2496                           ; BSR set to: 0
  2497  002522  5165               	movf	scanf@numcaracteres& (0+255),w,b
  2498  002524  5D66               	subwf	scanf@i& (0+255),w,b
  2499  002526  A0D8               	btfss	status,0,c
  2500  002528  EF98  F012         	goto	u3341
  2501  00252C  EF9A  F012         	goto	u3340
  2502  002530                     u3341:
  2503  002530  EF86  F012         	goto	l3525
  2504  002534                     u3340:
  2505  002534                     
  2506                           ; BSR set to: 0
  2507  002534  0012               	return		;funcret
  2508  002536                     __end_of_scanf:
  2509                           	opt callstack 0
  2510                           
  2511 ;; *************** function _receive *****************
  2512 ;; Defined at:
  2513 ;;		line 22 in file "UART.c"
  2514 ;; Parameters:    Size  Location     Type
  2515 ;;		None
  2516 ;; Auto vars:     Size  Location     Type
  2517 ;;  recibido        1    2[BANK0 ] unsigned char 
  2518 ;; Return value:  Size  Location     Type
  2519 ;;                  1    wreg      unsigned char 
  2520 ;; Registers used:
  2521 ;;		wreg, status,2, cstack
  2522 ;; Tracked objects:
  2523 ;;		On entry : 0/0
  2524 ;;		On exit  : 0/0
  2525 ;;		Unchanged: 0/0
  2526 ;; Data sizes:     COMRAM   BANK0   BANK1   BANK2   BANK3   BANK4   BANK5   BANK6   BANK7
  2527 ;;      Params:         0       0       0       0       0       0       0       0       0
  2528 ;;      Locals:         0       1       0       0       0       0       0       0       0
  2529 ;;      Temps:          0       0       0       0       0       0       0       0       0
  2530 ;;      Totals:         0       1       0       0       0       0       0       0       0
  2531 ;;Total ram usage:        1 bytes
  2532 ;; Hardware stack levels used:    1
  2533 ;; Hardware stack levels required when called:    6
  2534 ;; This function calls:
  2535 ;;		_errorUART
  2536 ;; This function is called by:
  2537 ;;		_scanf
  2538 ;;		_main
  2539 ;; This function uses a non-reentrant model
  2540 ;;
  2541                           
  2542                           	psect	text5
  2543  002648                     __ptext5:
  2544                           	opt callstack 0
  2545  002648                     _receive:
  2546                           	opt callstack 23
  2547  002648                     
  2548                           ;UART.c: 23:     errorUART();
  2549  002648  ECFA  F011         	call	_errorUART	;wreg free
  2550  00264C                     l69:
  2551                           
  2552                           ;UART.c: 25:     while (PIR1bits.RCIF == 0) {
  2553  00264C  AA9E               	btfss	158,5,c	;volatile
  2554  00264E  EF2B  F013         	goto	u2751
  2555  002652  EF2D  F013         	goto	u2750
  2556  002656                     u2751:
  2557  002656  EF26  F013         	goto	l69
  2558  00265A                     u2750:
  2559  00265A                     
  2560                           ;UART.c: 28:     recibido = RCREG1;
  2561  00265A  CFAE F062          	movff	4014,receive@recibido	;volatile
  2562  00265E                     
  2563                           ;UART.c: 29:     RCREG1 = 0;
  2564  00265E  0E00               	movlw	0
  2565  002660  6EAE               	movwf	174,c	;volatile
  2566                           
  2567                           ;UART.c: 31:     return recibido;
  2568  002662  0100               	movlb	0	; () banked
  2569  002664  5162               	movf	receive@recibido& (0+255),w,b
  2570  002666                     
  2571                           ; BSR set to: 0
  2572  002666  0012               	return		;funcret
  2573  002668                     __end_of_receive:
  2574                           	opt callstack 0
  2575                           
  2576 ;; *************** function _portInit *****************
  2577 ;; Defined at:
  2578 ;;		line 11 in file "Gpio.c"
  2579 ;; Parameters:    Size  Location     Type
  2580 ;;		None
  2581 ;; Auto vars:     Size  Location     Type
  2582 ;;		None
  2583 ;; Return value:  Size  Location     Type
  2584 ;;                  1    wreg      void 
  2585 ;; Registers used:
  2586 ;;		wreg, status,2
  2587 ;; Tracked objects:
  2588 ;;		On entry : 0/0
  2589 ;;		On exit  : 0/0
  2590 ;;		Unchanged: 0/0
  2591 ;; Data sizes:     COMRAM   BANK0   BANK1   BANK2   BANK3   BANK4   BANK5   BANK6   BANK7
  2592 ;;      Params:         0       0       0       0       0       0       0       0       0
  2593 ;;      Locals:         0       0       0       0       0       0       0       0       0
  2594 ;;      Temps:          0       0       0       0       0       0       0       0       0
  2595 ;;      Totals:         0       0       0       0       0       0       0       0       0
  2596 ;;Total ram usage:        0 bytes
  2597 ;; Hardware stack levels used:    1
  2598 ;; Hardware stack levels required when called:    5
  2599 ;; This function calls:
  2600 ;;		Nothing
  2601 ;; This function is called by:
  2602 ;;		_main
  2603 ;; This function uses a non-reentrant model
  2604 ;;
  2605                           
  2606                           	psect	text6
  2607  00272E                     __ptext6:
  2608                           	opt callstack 0
  2609  00272E                     _portInit:
  2610                           	opt callstack 25
  2611  00272E                     
  2612                           ;Gpio.c: 13:     TRISCbits.RC2 = 0;
  2613  00272E  0E0F               	movlw	15
  2614  002730  12C1               	iorwf	193,f,c	;volatile
  2615                           
  2616                           ;Gpio.c: 14:     LATDbits.LATD2 = 0;
  2617  002732  0E70               	movlw	112
  2618  002734  6ED3               	movwf	211,c	;volatile
  2619  002736                     
  2620                           ;Gpio.c: 15:     LATDbits.LATD3 = 0;
  2621  002736  966D               	bcf	109,3,c	;volatile
  2622  002738                     
  2623                           ;Gpio.c: 16:     LATCbits.LATC2 = 0;
  2624  002738  866F               	bsf	111,3,c	;volatile
  2625  00273A  0012               	return		;funcret
  2626  00273C                     __end_of_portInit:
  2627                           	opt callstack 0
  2628                           
  2629 ;; *************** function _pistonInit *****************
  2630 ;; Defined at:
  2631 ;;		line 47 in file "Gpio.c"
  2632 ;; Parameters:    Size  Location     Type
  2633 ;;		None
  2634 ;; Auto vars:     Size  Location     Type
  2635 ;;		None
  2636 ;; Return value:  Size  Location     Type
  2637 ;;                  1    wreg      void 
  2638 ;; Registers used:
  2639 ;;		None
  2640 ;; Tracked objects:
  2641 ;;		On entry : 0/0
  2642 ;;		On exit  : 0/0
  2643 ;;		Unchanged: 0/0
  2644 ;; Data sizes:     COMRAM   BANK0   BANK1   BANK2   BANK3   BANK4   BANK5   BANK6   BANK7
  2645 ;;      Params:         0       0       0       0       0       0       0       0       0
  2646 ;;      Locals:         0       0       0       0       0       0       0       0       0
  2647 ;;      Temps:          0       0       0       0       0       0       0       0       0
  2648 ;;      Totals:         0       0       0       0       0       0       0       0       0
  2649 ;;Total ram usage:        0 bytes
  2650 ;; Hardware stack levels used:    1
  2651 ;; Hardware stack levels required when called:    5
  2652 ;; This function calls:
  2653 ;;		Nothing
  2654 ;; This function is called by:
  2655 ;;		_main
  2656 ;; This function uses a non-reentrant model
  2657 ;;
  2658                           
  2659                           	psect	text7
  2660  002780                     __ptext7:
  2661                           	opt callstack 0
  2662  002780                     _pistonInit:
  2663                           	opt callstack 25
  2664  002780  9096               	bcf	150,0,c	;volatile
  2665  002782  0012               	return		;funcret
  2666  002784                     __end_of_pistonInit:
  2667                           	opt callstack 0
  2668                           
  2669 ;; *************** function _moverHaciaXY *****************
  2670 ;; Defined at:
  2671 ;;		line 11 in file "FuncionesMenu.c"
  2672 ;; Parameters:    Size  Location     Type
  2673 ;;		None
  2674 ;; Auto vars:     Size  Location     Type
  2675 ;;  validarCoord    2   89[BANK0 ] unsigned short 
  2676 ;;  validarCoord    2   87[BANK0 ] unsigned short 
  2677 ;; Return value:  Size  Location     Type
  2678 ;;                  1    wreg      void 
  2679 ;; Registers used:
  2680 ;;		wreg, status,2, status,0, tblptrl, tblptrh, tblptru, prodl, prodh, cstack
  2681 ;; Tracked objects:
  2682 ;;		On entry : 0/0
  2683 ;;		On exit  : 0/0
  2684 ;;		Unchanged: 0/0
  2685 ;; Data sizes:     COMRAM   BANK0   BANK1   BANK2   BANK3   BANK4   BANK5   BANK6   BANK7
  2686 ;;      Params:         0       0       0       0       0       0       0       0       0
  2687 ;;      Locals:         0       4       0       0       0       0       0       0       0
  2688 ;;      Temps:          0       2       0       0       0       0       0       0       0
  2689 ;;      Totals:         0       6       0       0       0       0       0       0       0
  2690 ;;Total ram usage:        6 bytes
  2691 ;; Hardware stack levels used:    1
  2692 ;; Hardware stack levels required when called:    9
  2693 ;; This function calls:
  2694 ;;		_moverHaciaX
  2695 ;;		_moverHaciaY
  2696 ;;		_printf
  2697 ;;		_receiveNum
  2698 ;;		_send
  2699 ;; This function is called by:
  2700 ;;		_main
  2701 ;; This function uses a non-reentrant model
  2702 ;;
  2703                           
  2704                           	psect	text8
  2705  00184C                     __ptext8:
  2706                           	opt callstack 0
  2707  00184C                     _moverHaciaXY:
  2708                           	opt callstack 21
  2709  00184C                     
  2710                           ;FuncionesMenu.c: 13:     uint16_t validarCoordY = 0;
  2711  00184C  0E00               	movlw	0
  2712  00184E  0100               	movlb	0	; () banked
  2713  001850  6FBA               	movwf	(moverHaciaXY@validarCoordY+1)& (0+255),b
  2714  001852  0E00               	movlw	0
  2715  001854  6FB9               	movwf	moverHaciaXY@validarCoordY& (0+255),b
  2716  001856                     
  2717                           ; BSR set to: 0
  2718                           ;FuncionesMenu.c: 15:     printf("X:\n");
  2719  001856  0EF2               	movlw	low STR_2
  2720  001858  6F63               	movwf	printf@PointString& (0+255),b
  2721  00185A  0E7F               	movlw	high STR_2
  2722  00185C  6F64               	movwf	(printf@PointString+1)& (0+255),b
  2723  00185E  EC93  F011         	call	_printf	;wreg free
  2724  001862                     
  2725                           ;FuncionesMenu.c: 16:     coordXCentenas = receiveNum();
  2726  001862  EC21  F011         	call	_receiveNum	;wreg free
  2727  001866  0100               	movlb	0	; () banked
  2728  001868  6FDE               	movwf	_coordXCentenas& (0+255),b
  2729  00186A                     
  2730                           ; BSR set to: 0
  2731                           ;FuncionesMenu.c: 17:     coordXDecenas = receiveNum();
  2732  00186A  EC21  F011         	call	_receiveNum	;wreg free
  2733  00186E  0100               	movlb	0	; () banked
  2734  001870  6FDD               	movwf	_coordXDecenas& (0+255),b
  2735  001872                     
  2736                           ; BSR set to: 0
  2737                           ;FuncionesMenu.c: 18:     coordXUnidades = receiveNum();
  2738  001872  EC21  F011         	call	_receiveNum	;wreg free
  2739  001876  0100               	movlb	0	; () banked
  2740  001878  6FDC               	movwf	_coordXUnidades& (0+255),b
  2741  00187A                     
  2742                           ; BSR set to: 0
  2743                           ;FuncionesMenu.c: 19:     printf("Y:\n");
  2744  00187A  0EF6               	movlw	low STR_3
  2745  00187C  6F63               	movwf	printf@PointString& (0+255),b
  2746  00187E  0E7F               	movlw	high STR_3
  2747  001880  6F64               	movwf	(printf@PointString+1)& (0+255),b
  2748  001882  EC93  F011         	call	_printf	;wreg free
  2749  001886                     
  2750                           ;FuncionesMenu.c: 20:     coordYCentenas = receiveNum();
  2751  001886  EC21  F011         	call	_receiveNum	;wreg free
  2752  00188A  0100               	movlb	0	; () banked
  2753  00188C  6FDB               	movwf	_coordYCentenas& (0+255),b
  2754  00188E                     
  2755                           ; BSR set to: 0
  2756                           ;FuncionesMenu.c: 21:     coordYDecenas = receiveNum();
  2757  00188E  EC21  F011         	call	_receiveNum	;wreg free
  2758  001892  0100               	movlb	0	; () banked
  2759  001894  6FDA               	movwf	_coordYDecenas& (0+255),b
  2760  001896                     
  2761                           ; BSR set to: 0
  2762                           ;FuncionesMenu.c: 22:     coordYUnidades = receiveNum();
  2763  001896  EC21  F011         	call	_receiveNum	;wreg free
  2764  00189A  0100               	movlb	0	; () banked
  2765  00189C  6FD9               	movwf	_coordYUnidades& (0+255),b
  2766  00189E                     
  2767                           ; BSR set to: 0
  2768                           ;FuncionesMenu.c: 23:     validarCoordX = ((coordXCentenas - 48)*100)+((coordXDecenas - 
      +                          48)*10)+(coordXUnidades - 48);
  2769  00189E  51DE               	movf	_coordXCentenas& (0+255),w,b
  2770  0018A0  0D64               	mullw	100
  2771  0018A2  CFF3 F0B5          	movff	prodl,??_moverHaciaXY
  2772  0018A6  CFF4 F0B6          	movff	prodh,??_moverHaciaXY+1
  2773  0018AA  51DD               	movf	_coordXDecenas& (0+255),w,b
  2774  0018AC  0D0A               	mullw	10
  2775  0018AE  50F3               	movf	243,w,c
  2776  0018B0  27B5               	addwf	??_moverHaciaXY& (0+255),f,b
  2777  0018B2  50F4               	movf	244,w,c
  2778  0018B4  23B6               	addwfc	(??_moverHaciaXY+1)& (0+255),f,b
  2779  0018B6  51DC               	movf	_coordXUnidades& (0+255),w,b
  2780  0018B8  27B5               	addwf	??_moverHaciaXY& (0+255),f,b
  2781  0018BA  0E00               	movlw	0
  2782  0018BC  23B6               	addwfc	(??_moverHaciaXY+1)& (0+255),f,b
  2783  0018BE  0E30               	movlw	48
  2784  0018C0  25B5               	addwf	??_moverHaciaXY& (0+255),w,b
  2785  0018C2  6FB7               	movwf	moverHaciaXY@validarCoordX& (0+255),b
  2786  0018C4  0EEB               	movlw	235
  2787  0018C6  21B6               	addwfc	(??_moverHaciaXY+1)& (0+255),w,b
  2788  0018C8  6FB8               	movwf	(moverHaciaXY@validarCoordX+1)& (0+255),b
  2789  0018CA                     
  2790                           ; BSR set to: 0
  2791                           ;FuncionesMenu.c: 24:     validarCoordY = ((coordYCentenas - 48)*100)+((coordYDecenas - 
      +                          48)*10)+(coordYUnidades - 48);
  2792  0018CA  51DB               	movf	_coordYCentenas& (0+255),w,b
  2793  0018CC  0D64               	mullw	100
  2794  0018CE  CFF3 F0B5          	movff	prodl,??_moverHaciaXY
  2795  0018D2  CFF4 F0B6          	movff	prodh,??_moverHaciaXY+1
  2796  0018D6  51DA               	movf	_coordYDecenas& (0+255),w,b
  2797  0018D8  0D0A               	mullw	10
  2798  0018DA  50F3               	movf	243,w,c
  2799  0018DC  27B5               	addwf	??_moverHaciaXY& (0+255),f,b
  2800  0018DE  50F4               	movf	244,w,c
  2801  0018E0  23B6               	addwfc	(??_moverHaciaXY+1)& (0+255),f,b
  2802  0018E2  51D9               	movf	_coordYUnidades& (0+255),w,b
  2803  0018E4  27B5               	addwf	??_moverHaciaXY& (0+255),f,b
  2804  0018E6  0E00               	movlw	0
  2805  0018E8  23B6               	addwfc	(??_moverHaciaXY+1)& (0+255),f,b
  2806  0018EA  0E30               	movlw	48
  2807  0018EC  25B5               	addwf	??_moverHaciaXY& (0+255),w,b
  2808  0018EE  6FB9               	movwf	moverHaciaXY@validarCoordY& (0+255),b
  2809  0018F0  0EEB               	movlw	235
  2810  0018F2  21B6               	addwfc	(??_moverHaciaXY+1)& (0+255),w,b
  2811  0018F4  6FBA               	movwf	(moverHaciaXY@validarCoordY+1)& (0+255),b
  2812  0018F6                     
  2813                           ; BSR set to: 0
  2814                           ;FuncionesMenu.c: 25:     if ((validarCoordX > 300) || (validarCoordY > 300)) {
  2815  0018F6  0E2D               	movlw	45
  2816  0018F8  5DB7               	subwf	moverHaciaXY@validarCoordX& (0+255),w,b
  2817  0018FA  0E01               	movlw	1
  2818  0018FC  59B8               	subwfb	(moverHaciaXY@validarCoordX+1)& (0+255),w,b
  2819  0018FE  B0D8               	btfsc	status,0,c
  2820  001900  EF84  F00C         	goto	u3351
  2821  001904  EF86  F00C         	goto	u3350
  2822  001908                     u3351:
  2823  001908  EF91  F00C         	goto	l3569
  2824  00190C                     u3350:
  2825  00190C                     
  2826                           ; BSR set to: 0
  2827  00190C  0E2D               	movlw	45
  2828  00190E  5DB9               	subwf	moverHaciaXY@validarCoordY& (0+255),w,b
  2829  001910  0E01               	movlw	1
  2830  001912  59BA               	subwfb	(moverHaciaXY@validarCoordY+1)& (0+255),w,b
  2831  001914  A0D8               	btfss	status,0,c
  2832  001916  EF8F  F00C         	goto	u3361
  2833  00191A  EF91  F00C         	goto	u3360
  2834  00191E                     u3361:
  2835  00191E  EFA0  F00C         	goto	l3571
  2836  001922                     u3360:
  2837  001922                     l3569:
  2838                           
  2839                           ; BSR set to: 0
  2840                           ;FuncionesMenu.c: 26:         printf("Metiste una coordenada invalida, vuelve a intentar
      +                          \n");
  2841  001922  0E57               	movlw	low STR_4
  2842  001924  6F63               	movwf	printf@PointString& (0+255),b
  2843  001926  0E7D               	movlw	high STR_4
  2844  001928  6F64               	movwf	(printf@PointString+1)& (0+255),b
  2845  00192A  EC93  F011         	call	_printf	;wreg free
  2846                           
  2847                           ;FuncionesMenu.c: 27:         printf("E,cNoV\n");
  2848  00192E  0EDD               	movlw	low STR_5
  2849  001930  0100               	movlb	0	; () banked
  2850  001932  6F63               	movwf	printf@PointString& (0+255),b
  2851  001934  0E7F               	movlw	high STR_5
  2852  001936  6F64               	movwf	(printf@PointString+1)& (0+255),b
  2853  001938  EC93  F011         	call	_printf	;wreg free
  2854                           
  2855                           ;FuncionesMenu.c: 29:     } else {
  2856  00193C  EFD4  F00C         	goto	l317
  2857  001940                     l3571:
  2858                           
  2859                           ; BSR set to: 0
  2860                           ;FuncionesMenu.c: 30:         printf("Coordenada recibida, lo que recibimos fue:");
  2861  001940  0E17               	movlw	low STR_6
  2862  001942  6F63               	movwf	printf@PointString& (0+255),b
  2863  001944  0E7E               	movlw	high STR_6
  2864  001946  6F64               	movwf	(printf@PointString+1)& (0+255),b
  2865  001948  EC93  F011         	call	_printf	;wreg free
  2866  00194C                     
  2867                           ;FuncionesMenu.c: 31:         send(coordXCentenas);
  2868  00194C  0100               	movlb	0	; () banked
  2869  00194E  51DE               	movf	_coordXCentenas& (0+255),w,b
  2870  001950  EC43  F013         	call	_send
  2871  001954                     
  2872                           ;FuncionesMenu.c: 32:         send(coordXDecenas);
  2873  001954  0100               	movlb	0	; () banked
  2874  001956  51DD               	movf	_coordXDecenas& (0+255),w,b
  2875  001958  EC43  F013         	call	_send
  2876  00195C                     
  2877                           ;FuncionesMenu.c: 33:         send(coordXUnidades);
  2878  00195C  0100               	movlb	0	; () banked
  2879  00195E  51DC               	movf	_coordXUnidades& (0+255),w,b
  2880  001960  EC43  F013         	call	_send
  2881  001964                     
  2882                           ;FuncionesMenu.c: 34:         send(',');
  2883  001964  0E2C               	movlw	44
  2884  001966  EC43  F013         	call	_send
  2885  00196A                     
  2886                           ;FuncionesMenu.c: 35:         send(coordYCentenas);
  2887  00196A  0100               	movlb	0	; () banked
  2888  00196C  51DB               	movf	_coordYCentenas& (0+255),w,b
  2889  00196E  EC43  F013         	call	_send
  2890  001972                     
  2891                           ;FuncionesMenu.c: 36:         send(coordYDecenas);
  2892  001972  0100               	movlb	0	; () banked
  2893  001974  51DA               	movf	_coordYDecenas& (0+255),w,b
  2894  001976  EC43  F013         	call	_send
  2895  00197A                     
  2896                           ;FuncionesMenu.c: 37:         send(coordYUnidades);
  2897  00197A  0100               	movlb	0	; () banked
  2898  00197C  51D9               	movf	_coordYUnidades& (0+255),w,b
  2899  00197E  EC43  F013         	call	_send
  2900  001982                     
  2901                           ;FuncionesMenu.c: 38:         send('.');
  2902  001982  0E2E               	movlw	46
  2903  001984  EC43  F013         	call	_send
  2904  001988                     
  2905                           ;FuncionesMenu.c: 40:         moverHaciaY(coordYCentenas, coordYDecenas, coordYUnidades)
      +                          ;
  2906  001988  C0DA  F0B0         	movff	_coordYDecenas,moverHaciaY@coordYDecenas
  2907  00198C  C0D9  F0B1         	movff	_coordYUnidades,moverHaciaY@coordYUnidades
  2908  001990  0100               	movlb	0	; () banked
  2909  001992  51DB               	movf	_coordYCentenas& (0+255),w,b
  2910  001994  ECDC  F00D         	call	_moverHaciaY
  2911  001998                     
  2912                           ;FuncionesMenu.c: 41:         moverHaciaX(coordXCentenas, coordXDecenas, coordXUnidades)
      +                          ;
  2913  001998  C0DD  F0B0         	movff	_coordXDecenas,moverHaciaX@coordXDecenas
  2914  00199C  C0DC  F0B1         	movff	_coordXUnidades,moverHaciaX@coordXUnidades
  2915  0019A0  0100               	movlb	0	; () banked
  2916  0019A2  51DE               	movf	_coordXCentenas& (0+255),w,b
  2917  0019A4  EC5D  F00E         	call	_moverHaciaX
  2918  0019A8                     l317:
  2919  0019A8  0012               	return		;funcret
  2920  0019AA                     __end_of_moverHaciaXY:
  2921                           	opt callstack 0
  2922                           
  2923 ;; *************** function _moverHaciaY *****************
  2924 ;; Defined at:
  2925 ;;		line 13 in file "MotoresXYZ.c"
  2926 ;; Parameters:    Size  Location     Type
  2927 ;;  coordYCenten    1    wreg     unsigned char 
  2928 ;;  coordYDecena    1   80[BANK0 ] unsigned char 
  2929 ;;  coordYUnidad    1   81[BANK0 ] unsigned char 
  2930 ;; Auto vars:     Size  Location     Type
  2931 ;;  coordYCenten    1   84[BANK0 ] unsigned char 
  2932 ;; Return value:  Size  Location     Type
  2933 ;;                  1    wreg      void 
  2934 ;; Registers used:
  2935 ;;		wreg, status,2, status,0, tblptrl, tblptrh, tblptru, prodl, prodh, cstack
  2936 ;; Tracked objects:
  2937 ;;		On entry : 0/0
  2938 ;;		On exit  : 0/0
  2939 ;;		Unchanged: 0/0
  2940 ;; Data sizes:     COMRAM   BANK0   BANK1   BANK2   BANK3   BANK4   BANK5   BANK6   BANK7
  2941 ;;      Params:         0       2       0       0       0       0       0       0       0
  2942 ;;      Locals:         0       1       0       0       0       0       0       0       0
  2943 ;;      Temps:          0       2       0       0       0       0       0       0       0
  2944 ;;      Totals:         0       5       0       0       0       0       0       0       0
  2945 ;;Total ram usage:        5 bytes
  2946 ;; Hardware stack levels used:    1
  2947 ;; Hardware stack levels required when called:    8
  2948 ;; This function calls:
  2949 ;;		_PWM_DutyCycleCCP2
  2950 ;;		___wmul
  2951 ;;		_abs
  2952 ;;		_printf
  2953 ;;		_send
  2954 ;;		_setNumPasosY
  2955 ;; This function is called by:
  2956 ;;		_moverHaciaXY
  2957 ;; This function uses a non-reentrant model
  2958 ;;
  2959                           
  2960                           	psect	text9
  2961  001BB8                     __ptext9:
  2962                           	opt callstack 0
  2963  001BB8                     _moverHaciaY:
  2964                           	opt callstack 21
  2965                           
  2966                           ;incstack = 0
  2967                           ;moverHaciaY@coordYCentenas stored from wreg
  2968  001BB8  0100               	movlb	0	; () banked
  2969  001BBA  6FB4               	movwf	moverHaciaY@coordYCentenas& (0+255),b
  2970  001BBC                     l3157:
  2971                           
  2972                           ;MotoresXYZ.c: 14:     while (sparcEnMovimientoY == 1) {
  2973  001BBC  0100               	movlb	0	; () banked
  2974  001BBE  05D4               	decf	_sparcEnMovimientoY& (0+255),w,b
  2975  001BC0  B4D8               	btfsc	status,2,c
  2976  001BC2  EFE5  F00D         	goto	u2811
  2977  001BC6  EFE7  F00D         	goto	u2810
  2978  001BCA                     u2811:
  2979  001BCA  EFDE  F00D         	goto	l3157
  2980  001BCE                     u2810:
  2981  001BCE                     
  2982                           ; BSR set to: 0
  2983                           ;MotoresXYZ.c: 18:     coordinates.yWanted = ((coordYCentenas - 48)*100)+((coordYDecenas
      +                           - 48)*10)+(coordYUnidades - 48);
  2984  001BCE  51B4               	movf	moverHaciaY@coordYCentenas& (0+255),w,b
  2985  001BD0  0D64               	mullw	100
  2986  001BD2  CFF3 F0B2          	movff	prodl,??_moverHaciaY
  2987  001BD6  CFF4 F0B3          	movff	prodh,??_moverHaciaY+1
  2988  001BDA  51B0               	movf	moverHaciaY@coordYDecenas& (0+255),w,b
  2989  001BDC  0D0A               	mullw	10
  2990  001BDE  50F3               	movf	243,w,c
  2991  001BE0  27B2               	addwf	??_moverHaciaY& (0+255),f,b
  2992  001BE2  50F4               	movf	244,w,c
  2993  001BE4  23B3               	addwfc	(??_moverHaciaY+1)& (0+255),f,b
  2994  001BE6  51B1               	movf	moverHaciaY@coordYUnidades& (0+255),w,b
  2995  001BE8  27B2               	addwf	??_moverHaciaY& (0+255),f,b
  2996  001BEA  0E00               	movlw	0
  2997  001BEC  23B3               	addwfc	(??_moverHaciaY+1)& (0+255),f,b
  2998  001BEE  0E30               	movlw	48
  2999  001BF0  25B2               	addwf	??_moverHaciaY& (0+255),w,b
  3000  001BF2  6FC8               	movwf	(_coordinates+2)& (0+255),b
  3001  001BF4  0EEB               	movlw	235
  3002  001BF6  21B3               	addwfc	(??_moverHaciaY+1)& (0+255),w,b
  3003  001BF8  6FC9               	movwf	(_coordinates+3)& (0+255),b
  3004  001BFA                     
  3005                           ; BSR set to: 0
  3006                           ;MotoresXYZ.c: 19:     yToAdvance = (abs(coordinates.yWanted - CurrentPosY))*5;
  3007  001BFA  51CC               	movf	_CurrentPosY& (0+255),w,b
  3008  001BFC  5DC8               	subwf	(_coordinates+2)& (0+255),w,b
  3009  001BFE  6F61               	movwf	abs@a& (0+255),b
  3010  001C00  51CD               	movf	(_CurrentPosY+1)& (0+255),w,b
  3011  001C02  59C9               	subwfb	(_coordinates+3)& (0+255),w,b
  3012  001C04  6F62               	movwf	(abs@a+1)& (0+255),b
  3013  001C06  EC40  F012         	call	_abs	;wreg free
  3014  001C0A  C061  F065         	movff	?_abs,___wmul@multiplier
  3015  001C0E  C062  F066         	movff	?_abs+1,___wmul@multiplier+1
  3016  001C12  0E00               	movlw	0
  3017  001C14  0100               	movlb	0	; () banked
  3018  001C16  6F68               	movwf	(___wmul@multiplicand+1)& (0+255),b
  3019  001C18  0E05               	movlw	5
  3020  001C1A  6F67               	movwf	___wmul@multiplicand& (0+255),b
  3021  001C1C  ECEC  F012         	call	___wmul	;wreg free
  3022  001C20  C065  F0CE         	movff	?___wmul,_yToAdvance
  3023  001C24  C066  F0CF         	movff	?___wmul+1,_yToAdvance+1
  3024  001C28                     
  3025                           ;MotoresXYZ.c: 20:     printf("yToAdvance is:");
  3026  001C28  0E6F               	movlw	low STR_13
  3027  001C2A  0100               	movlb	0	; () banked
  3028  001C2C  6F63               	movwf	printf@PointString& (0+255),b
  3029  001C2E  0E7F               	movlw	high STR_13
  3030  001C30  6F64               	movwf	(printf@PointString+1)& (0+255),b
  3031  001C32  EC93  F011         	call	_printf	;wreg free
  3032  001C36                     
  3033                           ;MotoresXYZ.c: 21:     send(yToAdvance);
  3034  001C36  0100               	movlb	0	; () banked
  3035  001C38  51CE               	movf	_yToAdvance& (0+255),w,b
  3036  001C3A  EC43  F013         	call	_send
  3037  001C3E                     
  3038                           ;MotoresXYZ.c: 22:     send('\n');
  3039  001C3E  0E0A               	movlw	10
  3040  001C40  EC43  F013         	call	_send
  3041  001C44                     
  3042                           ;MotoresXYZ.c: 23:     if (coordinates.yWanted > CurrentPosY) {
  3043  001C44  0100               	movlb	0	; () banked
  3044  001C46  51C8               	movf	(_coordinates+2)& (0+255),w,b
  3045  001C48  5DCC               	subwf	_CurrentPosY& (0+255),w,b
  3046  001C4A  51C9               	movf	(_coordinates+3)& (0+255),w,b
  3047  001C4C  59CD               	subwfb	(_CurrentPosY+1)& (0+255),w,b
  3048  001C4E  B0D8               	btfsc	status,0,c
  3049  001C50  EF2C  F00E         	goto	u2821
  3050  001C54  EF2E  F00E         	goto	u2820
  3051  001C58                     u2821:
  3052  001C58  EF31  F00E         	goto	l3173
  3053  001C5C                     u2820:
  3054  001C5C                     
  3055                           ; BSR set to: 0
  3056                           ;MotoresXYZ.c: 24:         LATDbits.LATD1 = 0;
  3057  001C5C  928C               	bcf	140,1,c	;volatile
  3058                           
  3059                           ;MotoresXYZ.c: 25:     } else if (coordinates.yWanted < CurrentPosY) {
  3060  001C5E  EF3D  F00E         	goto	l3177
  3061  001C62                     l3173:
  3062                           
  3063                           ; BSR set to: 0
  3064  001C62  51CC               	movf	_CurrentPosY& (0+255),w,b
  3065  001C64  5DC8               	subwf	(_coordinates+2)& (0+255),w,b
  3066  001C66  51CD               	movf	(_CurrentPosY+1)& (0+255),w,b
  3067  001C68  59C9               	subwfb	(_coordinates+3)& (0+255),w,b
  3068  001C6A  B0D8               	btfsc	status,0,c
  3069  001C6C  EF3A  F00E         	goto	u2831
  3070  001C70  EF3C  F00E         	goto	u2830
  3071  001C74                     u2831:
  3072  001C74  EF3D  F00E         	goto	l3177
  3073  001C78                     u2830:
  3074  001C78                     
  3075                           ; BSR set to: 0
  3076                           ;MotoresXYZ.c: 26:         LATDbits.LATD1 = 1;
  3077  001C78  828C               	bsf	140,1,c	;volatile
  3078  001C7A                     l3177:
  3079                           
  3080                           ; BSR set to: 0
  3081                           ;MotoresXYZ.c: 28:     if (coordinates.yWanted != CurrentPosY) {
  3082  001C7A  51CC               	movf	_CurrentPosY& (0+255),w,b
  3083  001C7C  19C8               	xorwf	(_coordinates+2)& (0+255),w,b
  3084  001C7E  E109               	bnz	u2840
  3085  001C80  51CD               	movf	(_CurrentPosY+1)& (0+255),w,b
  3086  001C82  19C9               	xorwf	(_coordinates+3)& (0+255),w,b
  3087  001C84  B4D8               	btfsc	status,2,c
  3088  001C86  EF47  F00E         	goto	u2841
  3089  001C8A  EF49  F00E         	goto	u2840
  3090  001C8E                     u2841:
  3091  001C8E  EF56  F00E         	goto	l3185
  3092  001C92                     u2840:
  3093  001C92                     
  3094                           ; BSR set to: 0
  3095                           ;MotoresXYZ.c: 29:         sparcEnMovimientoY = 1;
  3096  001C92  0E01               	movlw	1
  3097  001C94  6FD4               	movwf	_sparcEnMovimientoY& (0+255),b
  3098  001C96                     
  3099                           ; BSR set to: 0
  3100                           ;MotoresXYZ.c: 31:         setNumPasosY(yToAdvance);
  3101  001C96  C0CE  F061         	movff	_yToAdvance,setNumPasosY@numPasosY
  3102  001C9A  C0CF  F062         	movff	_yToAdvance+1,setNumPasosY@numPasosY+1
  3103  001C9E  EC9B  F012         	call	_setNumPasosY	;wreg free
  3104  001CA2                     
  3105                           ;MotoresXYZ.c: 36:         PWM_DutyCycleCCP2(50);
  3106  001CA2  0E32               	movlw	50
  3107  001CA4  EC5E  F00F         	call	_PWM_DutyCycleCCP2
  3108                           
  3109                           ;MotoresXYZ.c: 38:     }else printf("E,coorAcY\n");
  3110  001CA8  EF5C  F00E         	goto	l417
  3111  001CAC                     l3185:
  3112                           
  3113                           ; BSR set to: 0
  3114  001CAC  0E97               	movlw	low STR_14
  3115  001CAE  6F63               	movwf	printf@PointString& (0+255),b
  3116  001CB0  0E7F               	movlw	high STR_14
  3117  001CB2  6F64               	movwf	(printf@PointString+1)& (0+255),b
  3118  001CB4  EC93  F011         	call	_printf	;wreg free
  3119  001CB8                     l417:
  3120  001CB8  0012               	return		;funcret
  3121  001CBA                     __end_of_moverHaciaY:
  3122                           	opt callstack 0
  3123                           
  3124 ;; *************** function _setNumPasosY *****************
  3125 ;; Defined at:
  3126 ;;		line 46 in file "Timers.c"
  3127 ;; Parameters:    Size  Location     Type
  3128 ;;  numPasosY       2    1[BANK0 ] unsigned short 
  3129 ;; Auto vars:     Size  Location     Type
  3130 ;;  resultado       2    3[BANK0 ] unsigned short 
  3131 ;; Return value:  Size  Location     Type
  3132 ;;                  1    wreg      void 
  3133 ;; Registers used:
  3134 ;;		wreg, status,2, status,0
  3135 ;; Tracked objects:
  3136 ;;		On entry : 0/0
  3137 ;;		On exit  : 0/0
  3138 ;;		Unchanged: 0/0
  3139 ;; Data sizes:     COMRAM   BANK0   BANK1   BANK2   BANK3   BANK4   BANK5   BANK6   BANK7
  3140 ;;      Params:         0       2       0       0       0       0       0       0       0
  3141 ;;      Locals:         0       2       0       0       0       0       0       0       0
  3142 ;;      Temps:          0       0       0       0       0       0       0       0       0
  3143 ;;      Totals:         0       4       0       0       0       0       0       0       0
  3144 ;;Total ram usage:        4 bytes
  3145 ;; Hardware stack levels used:    1
  3146 ;; Hardware stack levels required when called:    5
  3147 ;; This function calls:
  3148 ;;		Nothing
  3149 ;; This function is called by:
  3150 ;;		_moverHaciaY
  3151 ;; This function uses a non-reentrant model
  3152 ;;
  3153                           
  3154                           	psect	text10
  3155  002536                     __ptext10:
  3156                           	opt callstack 0
  3157  002536                     _setNumPasosY:
  3158                           	opt callstack 23
  3159  002536                     
  3160                           ;Timers.c: 49:     if (numPasosY > 0) {
  3161  002536  0100               	movlb	0	; () banked
  3162  002538  5161               	movf	setNumPasosY@numPasosY& (0+255),w,b
  3163  00253A  1162               	iorwf	(setNumPasosY@numPasosY+1)& (0+255),w,b
  3164  00253C  B4D8               	btfsc	status,2,c
  3165  00253E  EFA3  F012         	goto	u2341
  3166  002542  EFA5  F012         	goto	u2340
  3167  002546                     u2341:
  3168  002546  EFB3  F012         	goto	l238
  3169  00254A                     u2340:
  3170  00254A                     
  3171                           ; BSR set to: 0
  3172                           ;Timers.c: 51:         uint16_t resultado = (65536 - numPasosY);
  3173  00254A  5161               	movf	setNumPasosY@numPasosY& (0+255),w,b
  3174  00254C  0800               	sublw	0
  3175  00254E  6F63               	movwf	setNumPasosY@resultado& (0+255),b
  3176  002550  5162               	movf	(setNumPasosY@numPasosY+1)& (0+255),w,b
  3177  002552  A0D8               	btfss	status,0,c
  3178  002554  2AE8               	incf	wreg,f,c
  3179  002556  0800               	sublw	0
  3180  002558  6F64               	movwf	(setNumPasosY@resultado+1)& (0+255),b
  3181  00255A                     
  3182                           ; BSR set to: 0
  3183                           ;Timers.c: 52:         TMR0H = (resultado >> 8);
  3184  00255A  5164               	movf	(setNumPasosY@resultado+1)& (0+255),w,b
  3185  00255C  6ED7               	movwf	215,c	;volatile
  3186  00255E                     
  3187                           ; BSR set to: 0
  3188                           ;Timers.c: 53:         TMR0L = resultado;
  3189  00255E  C063  FFD6         	movff	setNumPasosY@resultado,4054	;volatile
  3190                           
  3191                           ;Timers.c: 54:     } else {
  3192  002562  EFB5  F012         	goto	l240
  3193  002566                     l238:
  3194                           
  3195                           ; BSR set to: 0
  3196                           ;Timers.c: 56:         TMR0H = (65535 >> 8);
  3197  002566  68D7               	setf	215,c	;volatile
  3198                           
  3199                           ;Timers.c: 57:         TMR0L = 65535;
  3200  002568  68D6               	setf	214,c	;volatile
  3201  00256A                     l240:
  3202                           
  3203                           ; BSR set to: 0
  3204  00256A  0012               	return		;funcret
  3205  00256C                     __end_of_setNumPasosY:
  3206                           	opt callstack 0
  3207                           
  3208 ;; *************** function _PWM_DutyCycleCCP2 *****************
  3209 ;; Defined at:
  3210 ;;		line 16 in file "PWMCCP2.c"
  3211 ;; Parameters:    Size  Location     Type
  3212 ;;  WantedDutyCy    1    wreg     unsigned char 
  3213 ;; Auto vars:     Size  Location     Type
  3214 ;;  WantedDutyCy    1   77[BANK0 ] unsigned char 
  3215 ;;  PWMDutyValue    2   78[BANK0 ] unsigned short 
  3216 ;; Return value:  Size  Location     Type
  3217 ;;                  1    wreg      void 
  3218 ;; Registers used:
  3219 ;;		wreg, status,2, status,0, prodl, prodh, cstack
  3220 ;; Tracked objects:
  3221 ;;		On entry : 0/0
  3222 ;;		On exit  : 0/0
  3223 ;;		Unchanged: 0/0
  3224 ;; Data sizes:     COMRAM   BANK0   BANK1   BANK2   BANK3   BANK4   BANK5   BANK6   BANK7
  3225 ;;      Params:         0       0       0       0       0       0       0       0       0
  3226 ;;      Locals:         0       7       0       0       0       0       0       0       0
  3227 ;;      Temps:          0       2       0       0       0       0       0       0       0
  3228 ;;      Totals:         0       9       0       0       0       0       0       0       0
  3229 ;;Total ram usage:        9 bytes
  3230 ;; Hardware stack levels used:    1
  3231 ;; Hardware stack levels required when called:    6
  3232 ;; This function calls:
  3233 ;;		___flmul
  3234 ;;		___fltol
  3235 ;;		___xxtofl
  3236 ;; This function is called by:
  3237 ;;		_moverHaciaY
  3238 ;;		_main
  3239 ;;		_moverYInfinito
  3240 ;; This function uses a non-reentrant model
  3241 ;;
  3242                           
  3243                           	psect	text11
  3244  001EBC                     __ptext11:
  3245                           	opt callstack 0
  3246  001EBC                     _PWM_DutyCycleCCP2:
  3247                           	opt callstack 22
  3248                           
  3249                           ; BSR set to: 0
  3250                           ;incstack = 0
  3251                           ;PWM_DutyCycleCCP2@WantedDutyCycle stored from wreg
  3252  001EBC  0100               	movlb	0	; () banked
  3253  001EBE  6FAD               	movwf	PWM_DutyCycleCCP2@WantedDutyCycle& (0+255),b
  3254  001EC0                     
  3255                           ;PWMCCP2.c: 18:     uint16_t PWMDutyValue;;PWMCCP2.c: 19:     PWMDutyValue = (WantedDuty
      +                          Cycle * 0.01)*1000;
  3256  001EC0  0E0A               	movlw	10
  3257  001EC2  0100               	movlb	0	; () banked
  3258  001EC4  6F78               	movwf	___flmul@a& (0+255),b
  3259  001EC6  0ED7               	movlw	215
  3260  001EC8  6F79               	movwf	(___flmul@a+1)& (0+255),b
  3261  001ECA  0E23               	movlw	35
  3262  001ECC  6F7A               	movwf	(___flmul@a+2)& (0+255),b
  3263  001ECE  0E3C               	movlw	60
  3264  001ED0  6F7B               	movwf	(___flmul@a+3)& (0+255),b
  3265  001ED2  51AD               	movf	PWM_DutyCycleCCP2@WantedDutyCycle& (0+255),w,b
  3266  001ED4  6F66               	movwf	___xxtofl@val& (0+255),b
  3267  001ED6  6B67               	clrf	(___xxtofl@val+1)& (0+255),b
  3268  001ED8  6B68               	clrf	(___xxtofl@val+2)& (0+255),b
  3269  001EDA  6B69               	clrf	(___xxtofl@val+3)& (0+255),b
  3270  001EDC  0E01               	movlw	1
  3271  001EDE  EC9E  F009         	call	___xxtofl
  3272  001EE2  C066  F074         	movff	?___xxtofl,___flmul@b
  3273  001EE6  C067  F075         	movff	?___xxtofl+1,___flmul@b+1
  3274  001EEA  C068  F076         	movff	?___xxtofl+2,___flmul@b+2
  3275  001EEE  C069  F077         	movff	?___xxtofl+3,___flmul@b+3
  3276  001EF2  EC77  F002         	call	___flmul	;wreg free
  3277  001EF6  C074  F0A9         	movff	?___flmul,_PWM_DutyCycleCCP2$2876
  3278  001EFA  C075  F0AA         	movff	?___flmul+1,_PWM_DutyCycleCCP2$2876+1
  3279  001EFE  C076  F0AB         	movff	?___flmul+2,_PWM_DutyCycleCCP2$2876+2
  3280  001F02  C077  F0AC         	movff	?___flmul+3,_PWM_DutyCycleCCP2$2876+3
  3281                           
  3282                           ;PWMCCP2.c: 18:     uint16_t PWMDutyValue;;PWMCCP2.c: 19:     PWMDutyValue = (WantedDuty
      +                          Cycle * 0.01)*1000;
  3283  001F06  0E00               	movlw	0
  3284  001F08  0100               	movlb	0	; () banked
  3285  001F0A  6F78               	movwf	___flmul@a& (0+255),b
  3286  001F0C  0E00               	movlw	0
  3287  001F0E  6F79               	movwf	(___flmul@a+1)& (0+255),b
  3288  001F10  0E7A               	movlw	122
  3289  001F12  6F7A               	movwf	(___flmul@a+2)& (0+255),b
  3290  001F14  0E44               	movlw	68
  3291  001F16  6F7B               	movwf	(___flmul@a+3)& (0+255),b
  3292  001F18  C0A9  F074         	movff	_PWM_DutyCycleCCP2$2876,___flmul@b
  3293  001F1C  C0AA  F075         	movff	_PWM_DutyCycleCCP2$2876+1,___flmul@b+1
  3294  001F20  C0AB  F076         	movff	_PWM_DutyCycleCCP2$2876+2,___flmul@b+2
  3295  001F24  C0AC  F077         	movff	_PWM_DutyCycleCCP2$2876+3,___flmul@b+3
  3296  001F28  EC77  F002         	call	___flmul	;wreg free
  3297  001F2C  C074  F09D         	movff	?___flmul,___fltol@f1
  3298  001F30  C075  F09E         	movff	?___flmul+1,___fltol@f1+1
  3299  001F34  C076  F09F         	movff	?___flmul+2,___fltol@f1+2
  3300  001F38  C077  F0A0         	movff	?___flmul+3,___fltol@f1+3
  3301  001F3C  ECD5  F00C         	call	___fltol	;wreg free
  3302  001F40  C09D  F0AE         	movff	?___fltol,PWM_DutyCycleCCP2@PWMDutyValue
  3303  001F44  C09E  F0AF         	movff	?___fltol+1,PWM_DutyCycleCCP2@PWMDutyValue+1
  3304  001F48                     
  3305                           ;PWMCCP2.c: 21:     CCP2CONbits.DC2B = (PWMDutyValue & 0x03);
  3306  001F48  C0AE  F0A7         	movff	PWM_DutyCycleCCP2@PWMDutyValue,??_PWM_DutyCycleCCP2
  3307  001F4C  0E03               	movlw	3
  3308  001F4E  0100               	movlb	0	; () banked
  3309  001F50  17A7               	andwf	??_PWM_DutyCycleCCP2& (0+255),f,b
  3310  001F52  3BA7               	swapf	??_PWM_DutyCycleCCP2& (0+255),f,b
  3311  001F54  50BA               	movf	186,w,c	;volatile
  3312  001F56  19A7               	xorwf	??_PWM_DutyCycleCCP2& (0+255),w,b
  3313  001F58  0BCF               	andlw	-49
  3314  001F5A  19A7               	xorwf	??_PWM_DutyCycleCCP2& (0+255),w,b
  3315  001F5C  6EBA               	movwf	186,c	;volatile
  3316  001F5E                     
  3317                           ; BSR set to: 0
  3318                           ;PWMCCP2.c: 22:     CCPR2L = ((PWMDutyValue >> 2)&0xFF);
  3319  001F5E  C0AE  F0A7         	movff	PWM_DutyCycleCCP2@PWMDutyValue,??_PWM_DutyCycleCCP2
  3320  001F62  C0AF  F0A8         	movff	PWM_DutyCycleCCP2@PWMDutyValue+1,??_PWM_DutyCycleCCP2+1
  3321  001F66  90D8               	bcf	status,0,c
  3322  001F68  33A8               	rrcf	(??_PWM_DutyCycleCCP2+1)& (0+255),f,b
  3323  001F6A  33A7               	rrcf	??_PWM_DutyCycleCCP2& (0+255),f,b
  3324  001F6C  90D8               	bcf	status,0,c
  3325  001F6E  33A8               	rrcf	(??_PWM_DutyCycleCCP2+1)& (0+255),f,b
  3326  001F70  33A7               	rrcf	??_PWM_DutyCycleCCP2& (0+255),f,b
  3327  001F72  51A7               	movf	??_PWM_DutyCycleCCP2& (0+255),w,b
  3328  001F74  6EBB               	movwf	187,c	;volatile
  3329  001F76                     
  3330                           ; BSR set to: 0
  3331  001F76  0012               	return		;funcret
  3332  001F78                     __end_of_PWM_DutyCycleCCP2:
  3333                           	opt callstack 0
  3334                           
  3335 ;; *************** function _moverHaciaX *****************
  3336 ;; Defined at:
  3337 ;;		line 41 in file "MotoresXYZ.c"
  3338 ;; Parameters:    Size  Location     Type
  3339 ;;  coordXCenten    1    wreg     unsigned char 
  3340 ;;  coordXDecena    1   80[BANK0 ] unsigned char 
  3341 ;;  coordXUnidad    1   81[BANK0 ] unsigned char 
  3342 ;; Auto vars:     Size  Location     Type
  3343 ;;  coordXCenten    1   84[BANK0 ] unsigned char 
  3344 ;; Return value:  Size  Location     Type
  3345 ;;                  1    wreg      void 
  3346 ;; Registers used:
  3347 ;;		wreg, status,2, status,0, tblptrl, tblptrh, tblptru, prodl, prodh, cstack
  3348 ;; Tracked objects:
  3349 ;;		On entry : 0/0
  3350 ;;		On exit  : 0/0
  3351 ;;		Unchanged: 0/0
  3352 ;; Data sizes:     COMRAM   BANK0   BANK1   BANK2   BANK3   BANK4   BANK5   BANK6   BANK7
  3353 ;;      Params:         0       2       0       0       0       0       0       0       0
  3354 ;;      Locals:         0       1       0       0       0       0       0       0       0
  3355 ;;      Temps:          0       2       0       0       0       0       0       0       0
  3356 ;;      Totals:         0       5       0       0       0       0       0       0       0
  3357 ;;Total ram usage:        5 bytes
  3358 ;; Hardware stack levels used:    1
  3359 ;; Hardware stack levels required when called:    8
  3360 ;; This function calls:
  3361 ;;		_PWM_DutyCycleCCP1
  3362 ;;		___wmul
  3363 ;;		_abs
  3364 ;;		_printf
  3365 ;;		_send
  3366 ;;		_setNumPasosX
  3367 ;; This function is called by:
  3368 ;;		_moverHaciaXY
  3369 ;; This function uses a non-reentrant model
  3370 ;;
  3371                           
  3372                           	psect	text12
  3373  001CBA                     __ptext12:
  3374                           	opt callstack 0
  3375  001CBA                     _moverHaciaX:
  3376                           	opt callstack 21
  3377                           
  3378                           ; BSR set to: 0
  3379                           ;incstack = 0
  3380                           ;moverHaciaX@coordXCentenas stored from wreg
  3381  001CBA  0100               	movlb	0	; () banked
  3382  001CBC  6FB4               	movwf	moverHaciaX@coordXCentenas& (0+255),b
  3383  001CBE                     l3189:
  3384                           
  3385                           ;MotoresXYZ.c: 42:     while (sparcEnMovimientoX == 1) {
  3386  001CBE  0100               	movlb	0	; () banked
  3387  001CC0  05D5               	decf	_sparcEnMovimientoX& (0+255),w,b
  3388  001CC2  B4D8               	btfsc	status,2,c
  3389  001CC4  EF66  F00E         	goto	u2851
  3390  001CC8  EF68  F00E         	goto	u2850
  3391  001CCC                     u2851:
  3392  001CCC  EF5F  F00E         	goto	l3189
  3393  001CD0                     u2850:
  3394  001CD0                     
  3395                           ; BSR set to: 0
  3396                           ;MotoresXYZ.c: 46:     coordinates.xWanted = ((coordXCentenas - 48)*100)+((coordXDecenas
      +                           - 48)*10)+(coordXUnidades - 48);
  3397  001CD0  51B4               	movf	moverHaciaX@coordXCentenas& (0+255),w,b
  3398  001CD2  0D64               	mullw	100
  3399  001CD4  CFF3 F0B2          	movff	prodl,??_moverHaciaX
  3400  001CD8  CFF4 F0B3          	movff	prodh,??_moverHaciaX+1
  3401  001CDC  51B0               	movf	moverHaciaX@coordXDecenas& (0+255),w,b
  3402  001CDE  0D0A               	mullw	10
  3403  001CE0  50F3               	movf	243,w,c
  3404  001CE2  27B2               	addwf	??_moverHaciaX& (0+255),f,b
  3405  001CE4  50F4               	movf	244,w,c
  3406  001CE6  23B3               	addwfc	(??_moverHaciaX+1)& (0+255),f,b
  3407  001CE8  51B1               	movf	moverHaciaX@coordXUnidades& (0+255),w,b
  3408  001CEA  27B2               	addwf	??_moverHaciaX& (0+255),f,b
  3409  001CEC  0E00               	movlw	0
  3410  001CEE  23B3               	addwfc	(??_moverHaciaX+1)& (0+255),f,b
  3411  001CF0  0E30               	movlw	48
  3412  001CF2  25B2               	addwf	??_moverHaciaX& (0+255),w,b
  3413  001CF4  6FC6               	movwf	_coordinates& (0+255),b
  3414  001CF6  0EEB               	movlw	235
  3415  001CF8  21B3               	addwfc	(??_moverHaciaX+1)& (0+255),w,b
  3416  001CFA  6FC7               	movwf	(_coordinates+1)& (0+255),b
  3417  001CFC                     
  3418                           ; BSR set to: 0
  3419                           ;MotoresXYZ.c: 47:     xToAdvance = (abs(coordinates.xWanted - CurrentPosX))*5;
  3420  001CFC  51D0               	movf	_CurrentPosX& (0+255),w,b
  3421  001CFE  5DC6               	subwf	_coordinates& (0+255),w,b
  3422  001D00  6F61               	movwf	abs@a& (0+255),b
  3423  001D02  51D1               	movf	(_CurrentPosX+1)& (0+255),w,b
  3424  001D04  59C7               	subwfb	(_coordinates+1)& (0+255),w,b
  3425  001D06  6F62               	movwf	(abs@a+1)& (0+255),b
  3426  001D08  EC40  F012         	call	_abs	;wreg free
  3427  001D0C  C061  F065         	movff	?_abs,___wmul@multiplier
  3428  001D10  C062  F066         	movff	?_abs+1,___wmul@multiplier+1
  3429  001D14  0E00               	movlw	0
  3430  001D16  0100               	movlb	0	; () banked
  3431  001D18  6F68               	movwf	(___wmul@multiplicand+1)& (0+255),b
  3432  001D1A  0E05               	movlw	5
  3433  001D1C  6F67               	movwf	___wmul@multiplicand& (0+255),b
  3434  001D1E  ECEC  F012         	call	___wmul	;wreg free
  3435  001D22  C065  F0D2         	movff	?___wmul,_xToAdvance
  3436  001D26  C066  F0D3         	movff	?___wmul+1,_xToAdvance+1
  3437  001D2A                     
  3438                           ;MotoresXYZ.c: 48:     printf("xToAdvance is:");
  3439  001D2A  0E60               	movlw	low STR_15
  3440  001D2C  0100               	movlb	0	; () banked
  3441  001D2E  6F63               	movwf	printf@PointString& (0+255),b
  3442  001D30  0E7F               	movlw	high STR_15
  3443  001D32  6F64               	movwf	(printf@PointString+1)& (0+255),b
  3444  001D34  EC93  F011         	call	_printf	;wreg free
  3445  001D38                     
  3446                           ;MotoresXYZ.c: 49:     send(xToAdvance);
  3447  001D38  0100               	movlb	0	; () banked
  3448  001D3A  51D2               	movf	_xToAdvance& (0+255),w,b
  3449  001D3C  EC43  F013         	call	_send
  3450  001D40                     
  3451                           ;MotoresXYZ.c: 50:     send('\n');
  3452  001D40  0E0A               	movlw	10
  3453  001D42  EC43  F013         	call	_send
  3454  001D46                     
  3455                           ;MotoresXYZ.c: 51:     if (coordinates.xWanted > CurrentPosX) {
  3456  001D46  0100               	movlb	0	; () banked
  3457  001D48  51C6               	movf	_coordinates& (0+255),w,b
  3458  001D4A  5DD0               	subwf	_CurrentPosX& (0+255),w,b
  3459  001D4C  51C7               	movf	(_coordinates+1)& (0+255),w,b
  3460  001D4E  59D1               	subwfb	(_CurrentPosX+1)& (0+255),w,b
  3461  001D50  B0D8               	btfsc	status,0,c
  3462  001D52  EFAD  F00E         	goto	u2861
  3463  001D56  EFAF  F00E         	goto	u2860
  3464  001D5A                     u2861:
  3465  001D5A  EFB2  F00E         	goto	l3205
  3466  001D5E                     u2860:
  3467  001D5E                     
  3468                           ; BSR set to: 0
  3469                           ;MotoresXYZ.c: 52:         LATDbits.LATD3 = 0;
  3470  001D5E  968C               	bcf	140,3,c	;volatile
  3471                           
  3472                           ;MotoresXYZ.c: 53:     } else if (coordinates.xWanted < CurrentPosX) {
  3473  001D60  EFBE  F00E         	goto	l3209
  3474  001D64                     l3205:
  3475                           
  3476                           ; BSR set to: 0
  3477  001D64  51D0               	movf	_CurrentPosX& (0+255),w,b
  3478  001D66  5DC6               	subwf	_coordinates& (0+255),w,b
  3479  001D68  51D1               	movf	(_CurrentPosX+1)& (0+255),w,b
  3480  001D6A  59C7               	subwfb	(_coordinates+1)& (0+255),w,b
  3481  001D6C  B0D8               	btfsc	status,0,c
  3482  001D6E  EFBB  F00E         	goto	u2871
  3483  001D72  EFBD  F00E         	goto	u2870
  3484  001D76                     u2871:
  3485  001D76  EFBE  F00E         	goto	l3209
  3486  001D7A                     u2870:
  3487  001D7A                     
  3488                           ; BSR set to: 0
  3489                           ;MotoresXYZ.c: 54:         LATDbits.LATD3 = 1;
  3490  001D7A  868C               	bsf	140,3,c	;volatile
  3491  001D7C                     l3209:
  3492                           
  3493                           ; BSR set to: 0
  3494                           ;MotoresXYZ.c: 56:     if (coordinates.xWanted != CurrentPosX) {
  3495  001D7C  51D0               	movf	_CurrentPosX& (0+255),w,b
  3496  001D7E  19C6               	xorwf	_coordinates& (0+255),w,b
  3497  001D80  E109               	bnz	u2880
  3498  001D82  51D1               	movf	(_CurrentPosX+1)& (0+255),w,b
  3499  001D84  19C7               	xorwf	(_coordinates+1)& (0+255),w,b
  3500  001D86  B4D8               	btfsc	status,2,c
  3501  001D88  EFC8  F00E         	goto	u2881
  3502  001D8C  EFCA  F00E         	goto	u2880
  3503  001D90                     u2881:
  3504  001D90  EFD7  F00E         	goto	l3217
  3505  001D94                     u2880:
  3506  001D94                     
  3507                           ; BSR set to: 0
  3508                           ;MotoresXYZ.c: 57:         sparcEnMovimientoX = 1;
  3509  001D94  0E01               	movlw	1
  3510  001D96  6FD5               	movwf	_sparcEnMovimientoX& (0+255),b
  3511  001D98                     
  3512                           ; BSR set to: 0
  3513                           ;MotoresXYZ.c: 59:         setNumPasosX(xToAdvance);
  3514  001D98  C0D2  F061         	movff	_xToAdvance,setNumPasosX@numPasosX
  3515  001D9C  C0D3  F062         	movff	_xToAdvance+1,setNumPasosX@numPasosX+1
  3516  001DA0  ECB6  F012         	call	_setNumPasosX	;wreg free
  3517  001DA4                     
  3518                           ;MotoresXYZ.c: 65:         PWM_DutyCycleCCP1(50);
  3519  001DA4  0E32               	movlw	50
  3520  001DA6  ECBC  F00F         	call	_PWM_DutyCycleCCP1
  3521                           
  3522                           ;MotoresXYZ.c: 66:     }else printf("E,coorAcX\n");
  3523  001DAA  EFDD  F00E         	goto	l428
  3524  001DAE                     l3217:
  3525                           
  3526                           ; BSR set to: 0
  3527  001DAE  0E8C               	movlw	low STR_16
  3528  001DB0  6F63               	movwf	printf@PointString& (0+255),b
  3529  001DB2  0E7F               	movlw	high STR_16
  3530  001DB4  6F64               	movwf	(printf@PointString+1)& (0+255),b
  3531  001DB6  EC93  F011         	call	_printf	;wreg free
  3532  001DBA                     l428:
  3533  001DBA  0012               	return		;funcret
  3534  001DBC                     __end_of_moverHaciaX:
  3535                           	opt callstack 0
  3536                           
  3537 ;; *************** function _setNumPasosX *****************
  3538 ;; Defined at:
  3539 ;;		line 31 in file "Timers.c"
  3540 ;; Parameters:    Size  Location     Type
  3541 ;;  numPasosX       2    1[BANK0 ] unsigned short 
  3542 ;; Auto vars:     Size  Location     Type
  3543 ;;  resultado       2    3[BANK0 ] unsigned short 
  3544 ;; Return value:  Size  Location     Type
  3545 ;;                  1    wreg      void 
  3546 ;; Registers used:
  3547 ;;		wreg, status,2, status,0
  3548 ;; Tracked objects:
  3549 ;;		On entry : 0/0
  3550 ;;		On exit  : 0/0
  3551 ;;		Unchanged: 0/0
  3552 ;; Data sizes:     COMRAM   BANK0   BANK1   BANK2   BANK3   BANK4   BANK5   BANK6   BANK7
  3553 ;;      Params:         0       2       0       0       0       0       0       0       0
  3554 ;;      Locals:         0       2       0       0       0       0       0       0       0
  3555 ;;      Temps:          0       0       0       0       0       0       0       0       0
  3556 ;;      Totals:         0       4       0       0       0       0       0       0       0
  3557 ;;Total ram usage:        4 bytes
  3558 ;; Hardware stack levels used:    1
  3559 ;; Hardware stack levels required when called:    5
  3560 ;; This function calls:
  3561 ;;		Nothing
  3562 ;; This function is called by:
  3563 ;;		_moverHaciaX
  3564 ;; This function uses a non-reentrant model
  3565 ;;
  3566                           
  3567                           	psect	text13
  3568  00256C                     __ptext13:
  3569                           	opt callstack 0
  3570  00256C                     _setNumPasosX:
  3571                           	opt callstack 23
  3572  00256C                     
  3573                           ;Timers.c: 34:     if (numPasosX > 0) {
  3574  00256C  0100               	movlb	0	; () banked
  3575  00256E  5161               	movf	setNumPasosX@numPasosX& (0+255),w,b
  3576  002570  1162               	iorwf	(setNumPasosX@numPasosX+1)& (0+255),w,b
  3577  002572  B4D8               	btfsc	status,2,c
  3578  002574  EFBE  F012         	goto	u2331
  3579  002578  EFC0  F012         	goto	u2330
  3580  00257C                     u2331:
  3581  00257C  EFCE  F012         	goto	l233
  3582  002580                     u2330:
  3583  002580                     
  3584                           ; BSR set to: 0
  3585                           ;Timers.c: 36:         uint16_t resultado = (65537 - numPasosX);
  3586  002580  5161               	movf	setNumPasosX@numPasosX& (0+255),w,b
  3587  002582  0801               	sublw	1
  3588  002584  6F63               	movwf	setNumPasosX@resultado& (0+255),b
  3589  002586  5162               	movf	(setNumPasosX@numPasosX+1)& (0+255),w,b
  3590  002588  A0D8               	btfss	status,0,c
  3591  00258A  2AE8               	incf	wreg,f,c
  3592  00258C  0800               	sublw	0
  3593  00258E  6F64               	movwf	(setNumPasosX@resultado+1)& (0+255),b
  3594  002590                     
  3595                           ; BSR set to: 0
  3596                           ;Timers.c: 37:         TMR1H = (resultado >> 8);
  3597  002590  5164               	movf	(setNumPasosX@resultado+1)& (0+255),w,b
  3598  002592  6ECF               	movwf	207,c	;volatile
  3599  002594                     
  3600                           ; BSR set to: 0
  3601                           ;Timers.c: 38:         TMR1L = resultado;
  3602  002594  C063  FFCE         	movff	setNumPasosX@resultado,4046	;volatile
  3603                           
  3604                           ;Timers.c: 39:     } else {
  3605  002598  EFD0  F012         	goto	l235
  3606  00259C                     l233:
  3607                           
  3608                           ; BSR set to: 0
  3609                           ;Timers.c: 41:         TMR1H = (65535 >> 8);
  3610  00259C  68CF               	setf	207,c	;volatile
  3611                           
  3612                           ;Timers.c: 42:         TMR1L = 65535;
  3613  00259E  68CE               	setf	206,c	;volatile
  3614  0025A0                     l235:
  3615                           
  3616                           ; BSR set to: 0
  3617  0025A0  0012               	return		;funcret
  3618  0025A2                     __end_of_setNumPasosX:
  3619                           	opt callstack 0
  3620                           
  3621 ;; *************** function _abs *****************
  3622 ;; Defined at:
  3623 ;;		line 1 in file "C:\Program Files (x86)\Microchip\xc8\v2.10\pic\sources\c99\common\abs.c"
  3624 ;; Parameters:    Size  Location     Type
  3625 ;;  a               2    1[BANK0 ] int 
  3626 ;; Auto vars:     Size  Location     Type
  3627 ;;		None
  3628 ;; Return value:  Size  Location     Type
  3629 ;;                  2    1[BANK0 ] int 
  3630 ;; Registers used:
  3631 ;;		wreg, status,2, status,0
  3632 ;; Tracked objects:
  3633 ;;		On entry : 0/0
  3634 ;;		On exit  : 0/0
  3635 ;;		Unchanged: 0/0
  3636 ;; Data sizes:     COMRAM   BANK0   BANK1   BANK2   BANK3   BANK4   BANK5   BANK6   BANK7
  3637 ;;      Params:         0       2       0       0       0       0       0       0       0
  3638 ;;      Locals:         0       0       0       0       0       0       0       0       0
  3639 ;;      Temps:          0       2       0       0       0       0       0       0       0
  3640 ;;      Totals:         0       4       0       0       0       0       0       0       0
  3641 ;;Total ram usage:        4 bytes
  3642 ;; Hardware stack levels used:    1
  3643 ;; Hardware stack levels required when called:    5
  3644 ;; This function calls:
  3645 ;;		Nothing
  3646 ;; This function is called by:
  3647 ;;		_moverHaciaY
  3648 ;;		_moverHaciaX
  3649 ;; This function uses a non-reentrant model
  3650 ;;
  3651                           
  3652                           	psect	text14
  3653  002480                     __ptext14:
  3654                           	opt callstack 0
  3655  002480                     _abs:
  3656                           	opt callstack 23
  3657  002480  0100               	movlb	0	; () banked
  3658  002482  BF62               	btfsc	(abs@a+1)& (0+255),7,b
  3659  002484  EF4E  F012         	goto	u2350
  3660  002488  5162               	movf	(abs@a+1)& (0+255),w,b
  3661  00248A  E106               	bnz	u2351
  3662  00248C  0561               	decf	abs@a& (0+255),w,b
  3663  00248E  B0D8               	btfsc	status,0,c
  3664  002490  EF4C  F012         	goto	u2351
  3665  002494  EF4E  F012         	goto	u2350
  3666  002498                     u2351:
  3667  002498  EF5C  F012         	goto	l1302
  3668  00249C                     u2350:
  3669  00249C                     
  3670                           ; BSR set to: 0
  3671  00249C  C061  F063         	movff	abs@a,??_abs
  3672  0024A0  C062  F064         	movff	abs@a+1,??_abs+1
  3673  0024A4  1F63               	comf	??_abs& (0+255),f,b
  3674  0024A6  1F64               	comf	(??_abs+1)& (0+255),f,b
  3675  0024A8  4B63               	infsnz	??_abs& (0+255),f,b
  3676  0024AA  2B64               	incf	(??_abs+1)& (0+255),f,b
  3677  0024AC  C063  F061         	movff	??_abs,?_abs
  3678  0024B0  C064  F062         	movff	??_abs+1,?_abs+1
  3679  0024B4  EF60  F012         	goto	l1305
  3680  0024B8                     l1302:
  3681                           
  3682                           ; BSR set to: 0
  3683  0024B8  C061  F061         	movff	abs@a,?_abs
  3684  0024BC  C062  F062         	movff	abs@a+1,?_abs+1
  3685  0024C0                     l1305:
  3686                           
  3687                           ; BSR set to: 0
  3688  0024C0  0012               	return		;funcret
  3689  0024C2                     __end_of_abs:
  3690                           	opt callstack 0
  3691                           
  3692 ;; *************** function ___wmul *****************
  3693 ;; Defined at:
  3694 ;;		line 15 in file "C:\Program Files (x86)\Microchip\xc8\v2.10\pic\sources\c99\common\Umul16.c"
  3695 ;; Parameters:    Size  Location     Type
  3696 ;;  multiplier      2    5[BANK0 ] unsigned int 
  3697 ;;  multiplicand    2    7[BANK0 ] unsigned int 
  3698 ;; Auto vars:     Size  Location     Type
  3699 ;;  product         2    9[BANK0 ] unsigned int 
  3700 ;; Return value:  Size  Location     Type
  3701 ;;                  2    5[BANK0 ] unsigned int 
  3702 ;; Registers used:
  3703 ;;		wreg, status,2, status,0, prodl, prodh
  3704 ;; Tracked objects:
  3705 ;;		On entry : 0/0
  3706 ;;		On exit  : 0/0
  3707 ;;		Unchanged: 0/0
  3708 ;; Data sizes:     COMRAM   BANK0   BANK1   BANK2   BANK3   BANK4   BANK5   BANK6   BANK7
  3709 ;;      Params:         0       4       0       0       0       0       0       0       0
  3710 ;;      Locals:         0       2       0       0       0       0       0       0       0
  3711 ;;      Temps:          0       0       0       0       0       0       0       0       0
  3712 ;;      Totals:         0       6       0       0       0       0       0       0       0
  3713 ;;Total ram usage:        6 bytes
  3714 ;; Hardware stack levels used:    1
  3715 ;; Hardware stack levels required when called:    5
  3716 ;; This function calls:
  3717 ;;		Nothing
  3718 ;; This function is called by:
  3719 ;;		_moverHaciaY
  3720 ;;		_moverHaciaX
  3721 ;; This function uses a non-reentrant model
  3722 ;;
  3723                           
  3724                           	psect	text15
  3725  0025D8                     __ptext15:
  3726                           	opt callstack 0
  3727  0025D8                     ___wmul:
  3728                           	opt callstack 23
  3729  0025D8  0100               	movlb	0	; () banked
  3730  0025DA  5165               	movf	___wmul@multiplier& (0+255),w,b
  3731  0025DC  0367               	mulwf	___wmul@multiplicand& (0+255),b
  3732  0025DE  CFF3 F069          	movff	prodl,___wmul@product
  3733  0025E2  CFF4 F06A          	movff	prodh,___wmul@product+1
  3734  0025E6  5165               	movf	___wmul@multiplier& (0+255),w,b
  3735  0025E8  0368               	mulwf	(___wmul@multiplicand+1)& (0+255),b
  3736  0025EA  50F3               	movf	243,w,c
  3737  0025EC  276A               	addwf	(___wmul@product+1)& (0+255),f,b
  3738  0025EE  5166               	movf	(___wmul@multiplier+1)& (0+255),w,b
  3739  0025F0  0367               	mulwf	___wmul@multiplicand& (0+255),b
  3740  0025F2  50F3               	movf	243,w,c
  3741  0025F4  276A               	addwf	(___wmul@product+1)& (0+255),f,b
  3742  0025F6                     
  3743                           ; BSR set to: 0
  3744  0025F6  C069  F065         	movff	___wmul@product,?___wmul
  3745  0025FA  C06A  F066         	movff	___wmul@product+1,?___wmul+1
  3746  0025FE                     
  3747                           ; BSR set to: 0
  3748  0025FE  0012               	return		;funcret
  3749  002600                     __end_of___wmul:
  3750                           	opt callstack 0
  3751                           
  3752 ;; *************** function _PWM_DutyCycleCCP1 *****************
  3753 ;; Defined at:
  3754 ;;		line 17 in file "PWMCCP1.c"
  3755 ;; Parameters:    Size  Location     Type
  3756 ;;  WantedDutyCy    1    wreg     unsigned char 
  3757 ;; Auto vars:     Size  Location     Type
  3758 ;;  WantedDutyCy    1   77[BANK0 ] unsigned char 
  3759 ;;  PWMDutyValue    2   78[BANK0 ] unsigned short 
  3760 ;; Return value:  Size  Location     Type
  3761 ;;                  1    wreg      void 
  3762 ;; Registers used:
  3763 ;;		wreg, status,2, status,0, prodl, prodh, cstack
  3764 ;; Tracked objects:
  3765 ;;		On entry : 0/0
  3766 ;;		On exit  : 0/0
  3767 ;;		Unchanged: 0/0
  3768 ;; Data sizes:     COMRAM   BANK0   BANK1   BANK2   BANK3   BANK4   BANK5   BANK6   BANK7
  3769 ;;      Params:         0       0       0       0       0       0       0       0       0
  3770 ;;      Locals:         0       7       0       0       0       0       0       0       0
  3771 ;;      Temps:          0       2       0       0       0       0       0       0       0
  3772 ;;      Totals:         0       9       0       0       0       0       0       0       0
  3773 ;;Total ram usage:        9 bytes
  3774 ;; Hardware stack levels used:    1
  3775 ;; Hardware stack levels required when called:    6
  3776 ;; This function calls:
  3777 ;;		___flmul
  3778 ;;		___fltol
  3779 ;;		___xxtofl
  3780 ;; This function is called by:
  3781 ;;		_moverHaciaX
  3782 ;;		_main
  3783 ;;		_moverXInfinito
  3784 ;; This function uses a non-reentrant model
  3785 ;;
  3786                           
  3787                           	psect	text16
  3788  001F78                     __ptext16:
  3789                           	opt callstack 0
  3790  001F78                     _PWM_DutyCycleCCP1:
  3791                           	opt callstack 22
  3792                           
  3793                           ; BSR set to: 0
  3794                           ;incstack = 0
  3795                           ;PWM_DutyCycleCCP1@WantedDutyCycle stored from wreg
  3796  001F78  0100               	movlb	0	; () banked
  3797  001F7A  6FAD               	movwf	PWM_DutyCycleCCP1@WantedDutyCycle& (0+255),b
  3798  001F7C                     
  3799                           ;PWMCCP1.c: 19:     uint16_t PWMDutyValue;;PWMCCP1.c: 20:     PWMDutyValue = (WantedDuty
      +                          Cycle * 0.01)*1000;
  3800  001F7C  0E0A               	movlw	10
  3801  001F7E  0100               	movlb	0	; () banked
  3802  001F80  6F78               	movwf	___flmul@a& (0+255),b
  3803  001F82  0ED7               	movlw	215
  3804  001F84  6F79               	movwf	(___flmul@a+1)& (0+255),b
  3805  001F86  0E23               	movlw	35
  3806  001F88  6F7A               	movwf	(___flmul@a+2)& (0+255),b
  3807  001F8A  0E3C               	movlw	60
  3808  001F8C  6F7B               	movwf	(___flmul@a+3)& (0+255),b
  3809  001F8E  51AD               	movf	PWM_DutyCycleCCP1@WantedDutyCycle& (0+255),w,b
  3810  001F90  6F66               	movwf	___xxtofl@val& (0+255),b
  3811  001F92  6B67               	clrf	(___xxtofl@val+1)& (0+255),b
  3812  001F94  6B68               	clrf	(___xxtofl@val+2)& (0+255),b
  3813  001F96  6B69               	clrf	(___xxtofl@val+3)& (0+255),b
  3814  001F98  0E01               	movlw	1
  3815  001F9A  EC9E  F009         	call	___xxtofl
  3816  001F9E  C066  F074         	movff	?___xxtofl,___flmul@b
  3817  001FA2  C067  F075         	movff	?___xxtofl+1,___flmul@b+1
  3818  001FA6  C068  F076         	movff	?___xxtofl+2,___flmul@b+2
  3819  001FAA  C069  F077         	movff	?___xxtofl+3,___flmul@b+3
  3820  001FAE  EC77  F002         	call	___flmul	;wreg free
  3821  001FB2  C074  F0A9         	movff	?___flmul,_PWM_DutyCycleCCP1$2877
  3822  001FB6  C075  F0AA         	movff	?___flmul+1,_PWM_DutyCycleCCP1$2877+1
  3823  001FBA  C076  F0AB         	movff	?___flmul+2,_PWM_DutyCycleCCP1$2877+2
  3824  001FBE  C077  F0AC         	movff	?___flmul+3,_PWM_DutyCycleCCP1$2877+3
  3825                           
  3826                           ;PWMCCP1.c: 19:     uint16_t PWMDutyValue;;PWMCCP1.c: 20:     PWMDutyValue = (WantedDuty
      +                          Cycle * 0.01)*1000;
  3827  001FC2  0E00               	movlw	0
  3828  001FC4  0100               	movlb	0	; () banked
  3829  001FC6  6F78               	movwf	___flmul@a& (0+255),b
  3830  001FC8  0E00               	movlw	0
  3831  001FCA  6F79               	movwf	(___flmul@a+1)& (0+255),b
  3832  001FCC  0E7A               	movlw	122
  3833  001FCE  6F7A               	movwf	(___flmul@a+2)& (0+255),b
  3834  001FD0  0E44               	movlw	68
  3835  001FD2  6F7B               	movwf	(___flmul@a+3)& (0+255),b
  3836  001FD4  C0A9  F074         	movff	_PWM_DutyCycleCCP1$2877,___flmul@b
  3837  001FD8  C0AA  F075         	movff	_PWM_DutyCycleCCP1$2877+1,___flmul@b+1
  3838  001FDC  C0AB  F076         	movff	_PWM_DutyCycleCCP1$2877+2,___flmul@b+2
  3839  001FE0  C0AC  F077         	movff	_PWM_DutyCycleCCP1$2877+3,___flmul@b+3
  3840  001FE4  EC77  F002         	call	___flmul	;wreg free
  3841  001FE8  C074  F09D         	movff	?___flmul,___fltol@f1
  3842  001FEC  C075  F09E         	movff	?___flmul+1,___fltol@f1+1
  3843  001FF0  C076  F09F         	movff	?___flmul+2,___fltol@f1+2
  3844  001FF4  C077  F0A0         	movff	?___flmul+3,___fltol@f1+3
  3845  001FF8  ECD5  F00C         	call	___fltol	;wreg free
  3846  001FFC  C09D  F0AE         	movff	?___fltol,PWM_DutyCycleCCP1@PWMDutyValue
  3847  002000  C09E  F0AF         	movff	?___fltol+1,PWM_DutyCycleCCP1@PWMDutyValue+1
  3848  002004                     
  3849                           ;PWMCCP1.c: 22:     CCP1CONbits.DC1B = (PWMDutyValue & 0x03);
  3850  002004  C0AE  F0A7         	movff	PWM_DutyCycleCCP1@PWMDutyValue,??_PWM_DutyCycleCCP1
  3851  002008  0E03               	movlw	3
  3852  00200A  0100               	movlb	0	; () banked
  3853  00200C  17A7               	andwf	??_PWM_DutyCycleCCP1& (0+255),f,b
  3854  00200E  3BA7               	swapf	??_PWM_DutyCycleCCP1& (0+255),f,b
  3855  002010  50BD               	movf	189,w,c	;volatile
  3856  002012  19A7               	xorwf	??_PWM_DutyCycleCCP1& (0+255),w,b
  3857  002014  0BCF               	andlw	-49
  3858  002016  19A7               	xorwf	??_PWM_DutyCycleCCP1& (0+255),w,b
  3859  002018  6EBD               	movwf	189,c	;volatile
  3860  00201A                     
  3861                           ; BSR set to: 0
  3862                           ;PWMCCP1.c: 23:     CCPR1L = ((PWMDutyValue >> 2)&0xFF);
  3863  00201A  C0AE  F0A7         	movff	PWM_DutyCycleCCP1@PWMDutyValue,??_PWM_DutyCycleCCP1
  3864  00201E  C0AF  F0A8         	movff	PWM_DutyCycleCCP1@PWMDutyValue+1,??_PWM_DutyCycleCCP1+1
  3865  002022  90D8               	bcf	status,0,c
  3866  002024  33A8               	rrcf	(??_PWM_DutyCycleCCP1+1)& (0+255),f,b
  3867  002026  33A7               	rrcf	??_PWM_DutyCycleCCP1& (0+255),f,b
  3868  002028  90D8               	bcf	status,0,c
  3869  00202A  33A8               	rrcf	(??_PWM_DutyCycleCCP1+1)& (0+255),f,b
  3870  00202C  33A7               	rrcf	??_PWM_DutyCycleCCP1& (0+255),f,b
  3871  00202E  51A7               	movf	??_PWM_DutyCycleCCP1& (0+255),w,b
  3872  002030  6EBE               	movwf	190,c	;volatile
  3873  002032                     
  3874                           ; BSR set to: 0
  3875  002032  0012               	return		;funcret
  3876  002034                     __end_of_PWM_DutyCycleCCP1:
  3877                           	opt callstack 0
  3878                           
  3879 ;; *************** function _motoresZinit *****************
  3880 ;; Defined at:
  3881 ;;		line 38 in file "Gpio.c"
  3882 ;; Parameters:    Size  Location     Type
  3883 ;;		None
  3884 ;; Auto vars:     Size  Location     Type
  3885 ;;		None
  3886 ;; Return value:  Size  Location     Type
  3887 ;;                  1    wreg      void 
  3888 ;; Registers used:
  3889 ;;		None
  3890 ;; Tracked objects:
  3891 ;;		On entry : 0/0
  3892 ;;		On exit  : 0/0
  3893 ;;		Unchanged: 0/0
  3894 ;; Data sizes:     COMRAM   BANK0   BANK1   BANK2   BANK3   BANK4   BANK5   BANK6   BANK7
  3895 ;;      Params:         0       0       0       0       0       0       0       0       0
  3896 ;;      Locals:         0       0       0       0       0       0       0       0       0
  3897 ;;      Temps:          0       0       0       0       0       0       0       0       0
  3898 ;;      Totals:         0       0       0       0       0       0       0       0       0
  3899 ;;Total ram usage:        0 bytes
  3900 ;; Hardware stack levels used:    1
  3901 ;; Hardware stack levels required when called:    5
  3902 ;; This function calls:
  3903 ;;		Nothing
  3904 ;; This function is called by:
  3905 ;;		_main
  3906 ;; This function uses a non-reentrant model
  3907 ;;
  3908                           
  3909                           	psect	text17
  3910  00273C                     __ptext17:
  3911                           	opt callstack 0
  3912  00273C                     _motoresZinit:
  3913                           	opt callstack 25
  3914  00273C                     
  3915                           ;Gpio.c: 40: 
  3916  00273C  9A95               	bcf	149,5,c	;volatile
  3917                           
  3918                           ;Gpio.c: 41: }
  3919  00273E  9C95               	bcf	149,6,c	;volatile
  3920  002740  8A92               	bsf	146,5,c	;volatile
  3921  002742  9A8C               	bcf	140,5,c	;volatile
  3922  002744  9A8C               	bcf	140,5,c	;volatile
  3923  002746  9A8C               	bcf	140,5,c	;volatile
  3924  002748  0012               	return		;funcret
  3925  00274A                     __end_of_motoresZinit:
  3926                           	opt callstack 0
  3927                           
  3928 ;; *************** function _motorYinit *****************
  3929 ;; Defined at:
  3930 ;;		line 29 in file "Gpio.c"
  3931 ;; Parameters:    Size  Location     Type
  3932 ;;		None
  3933 ;; Auto vars:     Size  Location     Type
  3934 ;;		None
  3935 ;; Return value:  Size  Location     Type
  3936 ;;                  1    wreg      void 
  3937 ;; Registers used:
  3938 ;;		None
  3939 ;; Tracked objects:
  3940 ;;		On entry : 0/0
  3941 ;;		On exit  : 0/0
  3942 ;;		Unchanged: 0/0
  3943 ;; Data sizes:     COMRAM   BANK0   BANK1   BANK2   BANK3   BANK4   BANK5   BANK6   BANK7
  3944 ;;      Params:         0       0       0       0       0       0       0       0       0
  3945 ;;      Locals:         0       0       0       0       0       0       0       0       0
  3946 ;;      Temps:          0       0       0       0       0       0       0       0       0
  3947 ;;      Totals:         0       0       0       0       0       0       0       0       0
  3948 ;;Total ram usage:        0 bytes
  3949 ;; Hardware stack levels used:    1
  3950 ;; Hardware stack levels required when called:    5
  3951 ;; This function calls:
  3952 ;;		Nothing
  3953 ;; This function is called by:
  3954 ;;		_main
  3955 ;; This function uses a non-reentrant model
  3956 ;;
  3957                           
  3958                           	psect	text18
  3959  00274A                     __ptext18:
  3960                           	opt callstack 0
  3961  00274A                     _motorYinit:
  3962                           	opt callstack 25
  3963  00274A                     
  3964                           ;Gpio.c: 31:     TRISDbits.RD6 = 0;
  3965  00274A  9095               	bcf	149,0,c	;volatile
  3966                           
  3967                           ;Gpio.c: 32:     TRISAbits.RA5 = 1;
  3968  00274C  9295               	bcf	149,1,c	;volatile
  3969                           
  3970                           ;Gpio.c: 33:     LATDbits.LATD5 = 0;
  3971  00274E  9294               	bcf	148,1,c	;volatile
  3972                           
  3973                           ;Gpio.c: 34:     LATDbits.LATD5 = 0;
  3974  002750  908C               	bcf	140,0,c	;volatile
  3975                           
  3976                           ;Gpio.c: 35:     LATDbits.LATD5 = 0;
  3977  002752  928C               	bcf	140,1,c	;volatile
  3978                           
  3979                           ;Gpio.c: 36: }
  3980  002754  928B               	bcf	139,1,c	;volatile
  3981  002756  0012               	return		;funcret
  3982  002758                     __end_of_motorYinit:
  3983                           	opt callstack 0
  3984                           
  3985 ;; *************** function _motorXinit *****************
  3986 ;; Defined at:
  3987 ;;		line 19 in file "Gpio.c"
  3988 ;; Parameters:    Size  Location     Type
  3989 ;;		None
  3990 ;; Auto vars:     Size  Location     Type
  3991 ;;		None
  3992 ;; Return value:  Size  Location     Type
  3993 ;;                  1    wreg      void 
  3994 ;; Registers used:
  3995 ;;		None
  3996 ;; Tracked objects:
  3997 ;;		On entry : 0/0
  3998 ;;		On exit  : 0/0
  3999 ;;		Unchanged: 0/0
  4000 ;; Data sizes:     COMRAM   BANK0   BANK1   BANK2   BANK3   BANK4   BANK5   BANK6   BANK7
  4001 ;;      Params:         0       0       0       0       0       0       0       0       0
  4002 ;;      Locals:         0       0       0       0       0       0       0       0       0
  4003 ;;      Temps:          0       0       0       0       0       0       0       0       0
  4004 ;;      Totals:         0       0       0       0       0       0       0       0       0
  4005 ;;Total ram usage:        0 bytes
  4006 ;; Hardware stack levels used:    1
  4007 ;; Hardware stack levels required when called:    5
  4008 ;; This function calls:
  4009 ;;		Nothing
  4010 ;; This function is called by:
  4011 ;;		_main
  4012 ;; This function uses a non-reentrant model
  4013 ;;
  4014                           
  4015                           	psect	text19
  4016  002758                     __ptext19:
  4017                           	opt callstack 0
  4018  002758                     _motorXinit:
  4019                           	opt callstack 25
  4020  002758                     
  4021                           ;Gpio.c: 21:     TRISDbits.RD0 = 0;
  4022  002758  9495               	bcf	149,2,c	;volatile
  4023                           
  4024                           ;Gpio.c: 22:     TRISDbits.RD1 = 0;
  4025  00275A  9695               	bcf	149,3,c	;volatile
  4026                           
  4027                           ;Gpio.c: 23:     TRISCbits.RC1 = 0;
  4028  00275C  9494               	bcf	148,2,c	;volatile
  4029                           
  4030                           ;Gpio.c: 24:     LATDbits.LATD0 = 0;
  4031  00275E  948C               	bcf	140,2,c	;volatile
  4032                           
  4033                           ;Gpio.c: 25:     LATDbits.LATD1 = 0;
  4034  002760  968C               	bcf	140,3,c	;volatile
  4035                           
  4036                           ;Gpio.c: 26:     LATCbits.LC1 = 0;
  4037  002762  948B               	bcf	139,2,c	;volatile
  4038  002764  0012               	return		;funcret
  4039  002766                     __end_of_motorXinit:
  4040                           	opt callstack 0
  4041                           
  4042 ;; *************** function _modificarZ *****************
  4043 ;; Defined at:
  4044 ;;		line 76 in file "FuncionesMenu.c"
  4045 ;; Parameters:    Size  Location     Type
  4046 ;;		None
  4047 ;; Auto vars:     Size  Location     Type
  4048 ;;  OkEncendido     1    9[BANK0 ] unsigned char 
  4049 ;; Return value:  Size  Location     Type
  4050 ;;                  1    wreg      void 
  4051 ;; Registers used:
  4052 ;;		wreg, status,2, status,0, tblptrl, tblptrh, tblptru, cstack
  4053 ;; Tracked objects:
  4054 ;;		On entry : 0/0
  4055 ;;		On exit  : 0/0
  4056 ;;		Unchanged: 0/0
  4057 ;; Data sizes:     COMRAM   BANK0   BANK1   BANK2   BANK3   BANK4   BANK5   BANK6   BANK7
  4058 ;;      Params:         0       0       0       0       0       0       0       0       0
  4059 ;;      Locals:         0       1       0       0       0       0       0       0       0
  4060 ;;      Temps:          0       1       0       0       0       0       0       0       0
  4061 ;;      Totals:         0       2       0       0       0       0       0       0       0
  4062 ;;Total ram usage:        2 bytes
  4063 ;; Hardware stack levels used:    1
  4064 ;; Hardware stack levels required when called:    8
  4065 ;; This function calls:
  4066 ;;		_apagarZ
  4067 ;;		_moverZAbajo
  4068 ;;		_moverZArriba
  4069 ;;		_printf
  4070 ;; This function is called by:
  4071 ;;		_main
  4072 ;; This function uses a non-reentrant model
  4073 ;;
  4074                           
  4075                           	psect	text20
  4076  001DBC                     __ptext20:
  4077                           	opt callstack 0
  4078  001DBC                     _modificarZ:
  4079                           	opt callstack 22
  4080  001DBC                     
  4081                           ;FuncionesMenu.c: 77:     uint8_t OkEncendido = 0;
  4082  001DBC  0E00               	movlw	0
  4083  001DBE  0100               	movlb	0	; () banked
  4084  001DC0  6F69               	movwf	modificarZ@OkEncendido& (0+255),b
  4085                           
  4086                           ;FuncionesMenu.c: 78:     while (OkEncendido == 0) {
  4087  001DC2  EF54  F00F         	goto	l3661
  4088  001DC6                     l334:
  4089                           
  4090                           ; BSR set to: 0
  4091                           ;FuncionesMenu.c: 79:         if (PORTAbits.RA5 == 1) {
  4092  001DC6  AA80               	btfss	128,5,c	;volatile
  4093  001DC8  EFE8  F00E         	goto	u3391
  4094  001DCC  EFEA  F00E         	goto	u3390
  4095  001DD0                     u3391:
  4096  001DD0  EF06  F00F         	goto	l3639
  4097  001DD4                     u3390:
  4098  001DD4                     
  4099                           ; BSR set to: 0
  4100                           ;FuncionesMenu.c: 80:             _delay((unsigned long)((10)*(8000000/4000.0)));
  4101  001DD4  0E1A               	movlw	26
  4102  001DD6  0100               	movlb	0	; () banked
  4103  001DD8  6F68               	movwf	??_modificarZ& (0+255),b
  4104  001DDA  0EF8               	movlw	248
  4105  001DDC                     u3807:
  4106  001DDC  2EE8               	decfsz	wreg,f,c
  4107  001DDE  D7FE               	bra	u3807
  4108  001DE0  2F68               	decfsz	??_modificarZ& (0+255),f,b
  4109  001DE2  D7FC               	bra	u3807
  4110  001DE4  F000               	nop	
  4111  001DE6                     
  4112                           ;FuncionesMenu.c: 81:             if (PORTAbits.RA5 == 1) {
  4113  001DE6  AA80               	btfss	128,5,c	;volatile
  4114  001DE8  EFF8  F00E         	goto	u3401
  4115  001DEC  EFFA  F00E         	goto	u3400
  4116  001DF0                     u3401:
  4117  001DF0  EF06  F00F         	goto	l3639
  4118  001DF4                     u3400:
  4119  001DF4                     
  4120                           ;FuncionesMenu.c: 82:                 printf("\nSaliendo\n");
  4121  001DF4  0EAD               	movlw	low STR_10
  4122  001DF6  0100               	movlb	0	; () banked
  4123  001DF8  6F63               	movwf	printf@PointString& (0+255),b
  4124  001DFA  0E7F               	movlw	high STR_10
  4125  001DFC  6F64               	movwf	(printf@PointString+1)& (0+255),b
  4126  001DFE  EC93  F011         	call	_printf	;wreg free
  4127  001E02                     
  4128                           ;FuncionesMenu.c: 83:                 apagarZ();
  4129  001E02  ECBD  F013         	call	_apagarZ	;wreg free
  4130  001E06                     
  4131                           ;FuncionesMenu.c: 84:                 OkEncendido = 1;
  4132  001E06  0E01               	movlw	1
  4133  001E08  0100               	movlb	0	; () banked
  4134  001E0A  6F69               	movwf	modificarZ@OkEncendido& (0+255),b
  4135  001E0C                     l3639:
  4136                           
  4137                           ;FuncionesMenu.c: 87:         if (PORTCbits.RC4 == 1) {
  4138  001E0C  A882               	btfss	130,4,c	;volatile
  4139  001E0E  EF0B  F00F         	goto	u3411
  4140  001E12  EF0D  F00F         	goto	u3410
  4141  001E16                     u3411:
  4142  001E16  EF2D  F00F         	goto	l337
  4143  001E1A                     u3410:
  4144  001E1A                     
  4145                           ;FuncionesMenu.c: 88:             _delay((unsigned long)((10)*(8000000/4000.0)));
  4146  001E1A  0E1A               	movlw	26
  4147  001E1C  0100               	movlb	0	; () banked
  4148  001E1E  6F68               	movwf	??_modificarZ& (0+255),b
  4149  001E20  0EF8               	movlw	248
  4150  001E22                     u3817:
  4151  001E22  2EE8               	decfsz	wreg,f,c
  4152  001E24  D7FE               	bra	u3817
  4153  001E26  2F68               	decfsz	??_modificarZ& (0+255),f,b
  4154  001E28  D7FC               	bra	u3817
  4155  001E2A  F000               	nop	
  4156  001E2C                     
  4157                           ;FuncionesMenu.c: 89:             if (PORTCbits.RC4 == 1) {
  4158  001E2C  A882               	btfss	130,4,c	;volatile
  4159  001E2E  EF1B  F00F         	goto	u3421
  4160  001E32  EF1D  F00F         	goto	u3420
  4161  001E36                     u3421:
  4162  001E36  EF2D  F00F         	goto	l337
  4163  001E3A                     u3420:
  4164  001E3A                     
  4165                           ;FuncionesMenu.c: 90:                 printf("MovArriba\n");
  4166  001E3A  0EA2               	movlw	low STR_11
  4167  001E3C  0100               	movlb	0	; () banked
  4168  001E3E  6F63               	movwf	printf@PointString& (0+255),b
  4169  001E40  0E7F               	movlw	high STR_11
  4170  001E42  6F64               	movwf	(printf@PointString+1)& (0+255),b
  4171  001E44  EC93  F011         	call	_printf	;wreg free
  4172  001E48                     l3647:
  4173                           
  4174                           ;FuncionesMenu.c: 92:                     moverZArriba();
  4175  001E48  ECB7  F013         	call	_moverZArriba	;wreg free
  4176  001E4C                     
  4177                           ;FuncionesMenu.c: 93:                 } while (PORTCbits.RC4 == 1);
  4178  001E4C  B882               	btfsc	130,4,c	;volatile
  4179  001E4E  EF2B  F00F         	goto	u3431
  4180  001E52  EF2D  F00F         	goto	u3430
  4181  001E56                     u3431:
  4182  001E56  EF24  F00F         	goto	l3647
  4183  001E5A                     u3430:
  4184  001E5A                     l337:
  4185                           
  4186                           ;FuncionesMenu.c: 96:         if (PORTCbits.RC5 == 1) {
  4187  001E5A  AA82               	btfss	130,5,c	;volatile
  4188  001E5C  EF32  F00F         	goto	u3441
  4189  001E60  EF34  F00F         	goto	u3440
  4190  001E64                     u3441:
  4191  001E64  EF54  F00F         	goto	l3661
  4192  001E68                     u3440:
  4193  001E68                     
  4194                           ;FuncionesMenu.c: 97:             _delay((unsigned long)((10)*(8000000/4000.0)));
  4195  001E68  0E1A               	movlw	26
  4196  001E6A  0100               	movlb	0	; () banked
  4197  001E6C  6F68               	movwf	??_modificarZ& (0+255),b
  4198  001E6E  0EF8               	movlw	248
  4199  001E70                     u3827:
  4200  001E70  2EE8               	decfsz	wreg,f,c
  4201  001E72  D7FE               	bra	u3827
  4202  001E74  2F68               	decfsz	??_modificarZ& (0+255),f,b
  4203  001E76  D7FC               	bra	u3827
  4204  001E78  F000               	nop	
  4205  001E7A                     
  4206                           ;FuncionesMenu.c: 98:             if (PORTCbits.RC5 == 1) {
  4207  001E7A  AA82               	btfss	130,5,c	;volatile
  4208  001E7C  EF42  F00F         	goto	u3451
  4209  001E80  EF44  F00F         	goto	u3450
  4210  001E84                     u3451:
  4211  001E84  EF54  F00F         	goto	l3661
  4212  001E88                     u3450:
  4213  001E88                     
  4214                           ;FuncionesMenu.c: 99:                 printf("MovABajo\n");
  4215  001E88  0EB8               	movlw	low STR_12
  4216  001E8A  0100               	movlb	0	; () banked
  4217  001E8C  6F63               	movwf	printf@PointString& (0+255),b
  4218  001E8E  0E7F               	movlw	high STR_12
  4219  001E90  6F64               	movwf	(printf@PointString+1)& (0+255),b
  4220  001E92  EC93  F011         	call	_printf	;wreg free
  4221  001E96                     l3657:
  4222                           
  4223                           ;FuncionesMenu.c: 101:                     moverZAbajo();
  4224  001E96  ECBA  F013         	call	_moverZAbajo	;wreg free
  4225  001E9A                     
  4226                           ;FuncionesMenu.c: 102:                 } while (PORTCbits.RC5 == 1);
  4227  001E9A  BA82               	btfsc	130,5,c	;volatile
  4228  001E9C  EF52  F00F         	goto	u3461
  4229  001EA0  EF54  F00F         	goto	u3460
  4230  001EA4                     u3461:
  4231  001EA4  EF4B  F00F         	goto	l3657
  4232  001EA8                     u3460:
  4233  001EA8                     l3661:
  4234                           
  4235                           ;FuncionesMenu.c: 78:     while (OkEncendido == 0) {
  4236  001EA8  0100               	movlb	0	; () banked
  4237  001EAA  5169               	movf	modificarZ@OkEncendido& (0+255),w,b
  4238  001EAC  B4D8               	btfsc	status,2,c
  4239  001EAE  EF5B  F00F         	goto	u3471
  4240  001EB2  EF5D  F00F         	goto	u3470
  4241  001EB6                     u3471:
  4242  001EB6  EFE3  F00E         	goto	l334
  4243  001EBA                     u3470:
  4244  001EBA                     
  4245                           ; BSR set to: 0
  4246  001EBA  0012               	return		;funcret
  4247  001EBC                     __end_of_modificarZ:
  4248                           	opt callstack 0
  4249                           
  4250 ;; *************** function _moverZArriba *****************
  4251 ;; Defined at:
  4252 ;;		line 124 in file "MotoresXYZ.c"
  4253 ;; Parameters:    Size  Location     Type
  4254 ;;		None
  4255 ;; Auto vars:     Size  Location     Type
  4256 ;;		None
  4257 ;; Return value:  Size  Location     Type
  4258 ;;                  1    wreg      void 
  4259 ;; Registers used:
  4260 ;;		None
  4261 ;; Tracked objects:
  4262 ;;		On entry : 0/0
  4263 ;;		On exit  : 0/0
  4264 ;;		Unchanged: 0/0
  4265 ;; Data sizes:     COMRAM   BANK0   BANK1   BANK2   BANK3   BANK4   BANK5   BANK6   BANK7
  4266 ;;      Params:         0       0       0       0       0       0       0       0       0
  4267 ;;      Locals:         0       0       0       0       0       0       0       0       0
  4268 ;;      Temps:          0       0       0       0       0       0       0       0       0
  4269 ;;      Totals:         0       0       0       0       0       0       0       0       0
  4270 ;;Total ram usage:        0 bytes
  4271 ;; Hardware stack levels used:    1
  4272 ;; Hardware stack levels required when called:    5
  4273 ;; This function calls:
  4274 ;;		Nothing
  4275 ;; This function is called by:
  4276 ;;		_modificarZ
  4277 ;; This function uses a non-reentrant model
  4278 ;;
  4279                           
  4280                           	psect	text21
  4281  00276E                     __ptext21:
  4282                           	opt callstack 0
  4283  00276E                     _moverZArriba:
  4284                           	opt callstack 24
  4285  00276E                     
  4286                           ;MotoresXYZ.c: 125:     LATDbits.LATD5 = 1;
  4287  00276E  8A8C               	bsf	140,5,c	;volatile
  4288                           
  4289                           ;MotoresXYZ.c: 126:     LATDbits.LATD6 = 0;
  4290  002770  9C8C               	bcf	140,6,c	;volatile
  4291  002772  0012               	return		;funcret
  4292  002774                     __end_of_moverZArriba:
  4293                           	opt callstack 0
  4294                           
  4295 ;; *************** function _moverZAbajo *****************
  4296 ;; Defined at:
  4297 ;;		line 129 in file "MotoresXYZ.c"
  4298 ;; Parameters:    Size  Location     Type
  4299 ;;		None
  4300 ;; Auto vars:     Size  Location     Type
  4301 ;;		None
  4302 ;; Return value:  Size  Location     Type
  4303 ;;                  1    wreg      void 
  4304 ;; Registers used:
  4305 ;;		None
  4306 ;; Tracked objects:
  4307 ;;		On entry : 0/0
  4308 ;;		On exit  : 0/0
  4309 ;;		Unchanged: 0/0
  4310 ;; Data sizes:     COMRAM   BANK0   BANK1   BANK2   BANK3   BANK4   BANK5   BANK6   BANK7
  4311 ;;      Params:         0       0       0       0       0       0       0       0       0
  4312 ;;      Locals:         0       0       0       0       0       0       0       0       0
  4313 ;;      Temps:          0       0       0       0       0       0       0       0       0
  4314 ;;      Totals:         0       0       0       0       0       0       0       0       0
  4315 ;;Total ram usage:        0 bytes
  4316 ;; Hardware stack levels used:    1
  4317 ;; Hardware stack levels required when called:    5
  4318 ;; This function calls:
  4319 ;;		Nothing
  4320 ;; This function is called by:
  4321 ;;		_modificarZ
  4322 ;; This function uses a non-reentrant model
  4323 ;;
  4324                           
  4325                           	psect	text22
  4326  002774                     __ptext22:
  4327                           	opt callstack 0
  4328  002774                     _moverZAbajo:
  4329                           	opt callstack 24
  4330  002774                     
  4331                           ;MotoresXYZ.c: 130:     LATDbits.LATD5 = 0;
  4332  002774  9A8C               	bcf	140,5,c	;volatile
  4333                           
  4334                           ;MotoresXYZ.c: 131:     LATDbits.LATD6 = 1;
  4335  002776  8C8C               	bsf	140,6,c	;volatile
  4336  002778  0012               	return		;funcret
  4337  00277A                     __end_of_moverZAbajo:
  4338                           	opt callstack 0
  4339                           
  4340 ;; *************** function _apagarZ *****************
  4341 ;; Defined at:
  4342 ;;		line 134 in file "MotoresXYZ.c"
  4343 ;; Parameters:    Size  Location     Type
  4344 ;;		None
  4345 ;; Auto vars:     Size  Location     Type
  4346 ;;		None
  4347 ;; Return value:  Size  Location     Type
  4348 ;;                  1    wreg      void 
  4349 ;; Registers used:
  4350 ;;		None
  4351 ;; Tracked objects:
  4352 ;;		On entry : 0/0
  4353 ;;		On exit  : 0/0
  4354 ;;		Unchanged: 0/0
  4355 ;; Data sizes:     COMRAM   BANK0   BANK1   BANK2   BANK3   BANK4   BANK5   BANK6   BANK7
  4356 ;;      Params:         0       0       0       0       0       0       0       0       0
  4357 ;;      Locals:         0       0       0       0       0       0       0       0       0
  4358 ;;      Temps:          0       0       0       0       0       0       0       0       0
  4359 ;;      Totals:         0       0       0       0       0       0       0       0       0
  4360 ;;Total ram usage:        0 bytes
  4361 ;; Hardware stack levels used:    1
  4362 ;; Hardware stack levels required when called:    5
  4363 ;; This function calls:
  4364 ;;		Nothing
  4365 ;; This function is called by:
  4366 ;;		_modificarZ
  4367 ;; This function uses a non-reentrant model
  4368 ;;
  4369                           
  4370                           	psect	text23
  4371  00277A                     __ptext23:
  4372                           	opt callstack 0
  4373  00277A                     _apagarZ:
  4374                           	opt callstack 24
  4375  00277A                     
  4376                           ;MotoresXYZ.c: 135:     LATDbits.LATD5 = 0;
  4377  00277A  9A8C               	bcf	140,5,c	;volatile
  4378                           
  4379                           ;MotoresXYZ.c: 136:     LATDbits.LATD6 = 0;
  4380  00277C  9C8C               	bcf	140,6,c	;volatile
  4381  00277E  0012               	return		;funcret
  4382  002780                     __end_of_apagarZ:
  4383                           	opt callstack 0
  4384                           
  4385 ;; *************** function _interruptsEnable *****************
  4386 ;; Defined at:
  4387 ;;		line 5 in file "Interrupciones.c"
  4388 ;; Parameters:    Size  Location     Type
  4389 ;;		None
  4390 ;; Auto vars:     Size  Location     Type
  4391 ;;		None
  4392 ;; Return value:  Size  Location     Type
  4393 ;;                  1    wreg      void 
  4394 ;; Registers used:
  4395 ;;		None
  4396 ;; Tracked objects:
  4397 ;;		On entry : 0/0
  4398 ;;		On exit  : 0/0
  4399 ;;		Unchanged: 0/0
  4400 ;; Data sizes:     COMRAM   BANK0   BANK1   BANK2   BANK3   BANK4   BANK5   BANK6   BANK7
  4401 ;;      Params:         0       0       0       0       0       0       0       0       0
  4402 ;;      Locals:         0       0       0       0       0       0       0       0       0
  4403 ;;      Temps:          0       0       0       0       0       0       0       0       0
  4404 ;;      Totals:         0       0       0       0       0       0       0       0       0
  4405 ;;Total ram usage:        0 bytes
  4406 ;; Hardware stack levels used:    1
  4407 ;; Hardware stack levels required when called:    5
  4408 ;; This function calls:
  4409 ;;		Nothing
  4410 ;; This function is called by:
  4411 ;;		_main
  4412 ;; This function uses a non-reentrant model
  4413 ;;
  4414                           
  4415                           	psect	text24
  4416  002766                     __ptext24:
  4417                           	opt callstack 0
  4418  002766                     _interruptsEnable:
  4419                           	opt callstack 25
  4420  002766                     
  4421                           ;Interrupciones.c: 7:     RCONbits.IPEN = 0;
  4422  002766  9ED0               	bcf	208,7,c	;volatile
  4423                           
  4424                           ;Interrupciones.c: 8:     INTCONbits.PEIE = 1;
  4425  002768  8CF2               	bsf	242,6,c	;volatile
  4426                           
  4427                           ;Interrupciones.c: 9:     INTCONbits.GIE = 1;
  4428  00276A  8EF2               	bsf	242,7,c	;volatile
  4429  00276C  0012               	return		;funcret
  4430  00276E                     __end_of_interruptsEnable:
  4431                           	opt callstack 0
  4432                           
  4433 ;; *************** function _impCoordActual *****************
  4434 ;; Defined at:
  4435 ;;		line 64 in file "FuncionesMenu.c"
  4436 ;; Parameters:    Size  Location     Type
  4437 ;;		None
  4438 ;; Auto vars:     Size  Location     Type
  4439 ;;		None
  4440 ;; Return value:  Size  Location     Type
  4441 ;;                  1    wreg      void 
  4442 ;; Registers used:
  4443 ;;		wreg, status,2, status,0, tblptrl, tblptrh, tblptru, prodl, prodh, cstack
  4444 ;; Tracked objects:
  4445 ;;		On entry : 0/0
  4446 ;;		On exit  : 0/0
  4447 ;;		Unchanged: 0/0
  4448 ;; Data sizes:     COMRAM   BANK0   BANK1   BANK2   BANK3   BANK4   BANK5   BANK6   BANK7
  4449 ;;      Params:         0       0       0       0       0       0       0       0       0
  4450 ;;      Locals:         0       2       0       0       0       0       0       0       0
  4451 ;;      Temps:          0       0       0       0       0       0       0       0       0
  4452 ;;      Totals:         0       2       0       0       0       0       0       0       0
  4453 ;;Total ram usage:        2 bytes
  4454 ;; Hardware stack levels used:    1
  4455 ;; Hardware stack levels required when called:    8
  4456 ;; This function calls:
  4457 ;;		___fladd
  4458 ;;		___flmul
  4459 ;;		___fltol
  4460 ;;		___lwmod
  4461 ;;		___xxtofl
  4462 ;;		_printf
  4463 ;;		_send
  4464 ;; This function is called by:
  4465 ;;		_main
  4466 ;; This function uses a non-reentrant model
  4467 ;;
  4468                           
  4469                           	psect	text25
  4470  001090                     __ptext25:
  4471                           	opt callstack 0
  4472  001090                     _impCoordActual:
  4473                           	opt callstack 22
  4474  001090                     
  4475                           ;FuncionesMenu.c: 65:     printf("X: ");
  4476  001090  0EFA               	movlw	low STR_8
  4477  001092  0100               	movlb	0	; () banked
  4478  001094  6F63               	movwf	printf@PointString& (0+255),b
  4479  001096  0E7F               	movlw	high STR_8
  4480  001098  6F64               	movwf	(printf@PointString+1)& (0+255),b
  4481  00109A  EC93  F011         	call	_printf	;wreg free
  4482  00109E                     
  4483                           ;FuncionesMenu.c: 66:     send((CurrentPosX * 0.01) + 48);
  4484  00109E  0E00               	movlw	0
  4485  0010A0  0100               	movlb	0	; () banked
  4486  0010A2  6F91               	movwf	___fladd@a& (0+255),b
  4487  0010A4  0E00               	movlw	0
  4488  0010A6  6F92               	movwf	(___fladd@a+1)& (0+255),b
  4489  0010A8  0E40               	movlw	64
  4490  0010AA  6F93               	movwf	(___fladd@a+2)& (0+255),b
  4491  0010AC  0E42               	movlw	66
  4492  0010AE  6F94               	movwf	(___fladd@a+3)& (0+255),b
  4493  0010B0  0E0A               	movlw	10
  4494  0010B2  6F78               	movwf	___flmul@a& (0+255),b
  4495  0010B4  0ED7               	movlw	215
  4496  0010B6  6F79               	movwf	(___flmul@a+1)& (0+255),b
  4497  0010B8  0E23               	movlw	35
  4498  0010BA  6F7A               	movwf	(___flmul@a+2)& (0+255),b
  4499  0010BC  0E3C               	movlw	60
  4500  0010BE  6F7B               	movwf	(___flmul@a+3)& (0+255),b
  4501  0010C0  C0D0  F066         	movff	_CurrentPosX,___xxtofl@val
  4502  0010C4  C0D1  F067         	movff	_CurrentPosX+1,___xxtofl@val+1
  4503  0010C8  6B68               	clrf	(___xxtofl@val+2)& (0+255),b
  4504  0010CA  6B69               	clrf	(___xxtofl@val+3)& (0+255),b
  4505  0010CC  0E00               	movlw	0
  4506  0010CE  EC9E  F009         	call	___xxtofl
  4507  0010D2  C066  F074         	movff	?___xxtofl,___flmul@b
  4508  0010D6  C067  F075         	movff	?___xxtofl+1,___flmul@b+1
  4509  0010DA  C068  F076         	movff	?___xxtofl+2,___flmul@b+2
  4510  0010DE  C069  F077         	movff	?___xxtofl+3,___flmul@b+3
  4511  0010E2  EC77  F002         	call	___flmul	;wreg free
  4512  0010E6  C074  F08D         	movff	?___flmul,___fladd@b
  4513  0010EA  C075  F08E         	movff	?___flmul+1,___fladd@b+1
  4514  0010EE  C076  F08F         	movff	?___flmul+2,___fladd@b+2
  4515  0010F2  C077  F090         	movff	?___flmul+3,___fladd@b+3
  4516  0010F6  EC16  F000         	call	___fladd	;wreg free
  4517  0010FA  C08D  F09D         	movff	?___fladd,___fltol@f1
  4518  0010FE  C08E  F09E         	movff	?___fladd+1,___fltol@f1+1
  4519  001102  C08F  F09F         	movff	?___fladd+2,___fltol@f1+2
  4520  001106  C090  F0A0         	movff	?___fladd+3,___fltol@f1+3
  4521  00110A  ECD5  F00C         	call	___fltol	;wreg free
  4522  00110E  0100               	movlb	0	; () banked
  4523  001110  519D               	movf	?___fltol& (0+255),w,b
  4524  001112  EC43  F013         	call	_send
  4525  001116                     
  4526                           ;FuncionesMenu.c: 67:     send(((CurrentPosX % 100)*0.1) + 48);
  4527  001116  0E00               	movlw	0
  4528  001118  0100               	movlb	0	; () banked
  4529  00111A  6F91               	movwf	___fladd@a& (0+255),b
  4530  00111C  0E00               	movlw	0
  4531  00111E  6F92               	movwf	(___fladd@a+1)& (0+255),b
  4532  001120  0E40               	movlw	64
  4533  001122  6F93               	movwf	(___fladd@a+2)& (0+255),b
  4534  001124  0E42               	movlw	66
  4535  001126  6F94               	movwf	(___fladd@a+3)& (0+255),b
  4536  001128  0ECD               	movlw	205
  4537  00112A  6F78               	movwf	___flmul@a& (0+255),b
  4538  00112C  0ECC               	movlw	204
  4539  00112E  6F79               	movwf	(___flmul@a+1)& (0+255),b
  4540  001130  0ECC               	movlw	204
  4541  001132  6F7A               	movwf	(___flmul@a+2)& (0+255),b
  4542  001134  0E3D               	movlw	61
  4543  001136  6F7B               	movwf	(___flmul@a+3)& (0+255),b
  4544  001138  0E00               	movlw	0
  4545  00113A  6F64               	movwf	(___lwmod@divisor+1)& (0+255),b
  4546  00113C  0E64               	movlw	100
  4547  00113E  6F63               	movwf	___lwmod@divisor& (0+255),b
  4548  001140  C0D0  F061         	movff	_CurrentPosX,___lwmod@dividend
  4549  001144  C0D1  F062         	movff	_CurrentPosX+1,___lwmod@dividend+1
  4550  001148  ECC7  F011         	call	___lwmod	;wreg free
  4551  00114C  0100               	movlb	0	; () banked
  4552  00114E  C061  F066         	movff	?___lwmod,___xxtofl@val
  4553  001152  C062  F067         	movff	?___lwmod+1,___xxtofl@val+1
  4554  001156  6B68               	clrf	(___xxtofl@val+2)& (0+255),b
  4555  001158  6B69               	clrf	(___xxtofl@val+3)& (0+255),b
  4556  00115A  0E00               	movlw	0
  4557  00115C  EC9E  F009         	call	___xxtofl
  4558  001160  C066  F074         	movff	?___xxtofl,___flmul@b
  4559  001164  C067  F075         	movff	?___xxtofl+1,___flmul@b+1
  4560  001168  C068  F076         	movff	?___xxtofl+2,___flmul@b+2
  4561  00116C  C069  F077         	movff	?___xxtofl+3,___flmul@b+3
  4562  001170  EC77  F002         	call	___flmul	;wreg free
  4563  001174  C074  F08D         	movff	?___flmul,___fladd@b
  4564  001178  C075  F08E         	movff	?___flmul+1,___fladd@b+1
  4565  00117C  C076  F08F         	movff	?___flmul+2,___fladd@b+2
  4566  001180  C077  F090         	movff	?___flmul+3,___fladd@b+3
  4567  001184  EC16  F000         	call	___fladd	;wreg free
  4568  001188  C08D  F09D         	movff	?___fladd,___fltol@f1
  4569  00118C  C08E  F09E         	movff	?___fladd+1,___fltol@f1+1
  4570  001190  C08F  F09F         	movff	?___fladd+2,___fltol@f1+2
  4571  001194  C090  F0A0         	movff	?___fladd+3,___fltol@f1+3
  4572  001198  ECD5  F00C         	call	___fltol	;wreg free
  4573  00119C  0100               	movlb	0	; () banked
  4574  00119E  519D               	movf	?___fltol& (0+255),w,b
  4575  0011A0  EC43  F013         	call	_send
  4576  0011A4                     
  4577                           ;FuncionesMenu.c: 68:     send(((CurrentPosX % 100) % 10) + 48);
  4578  0011A4  0E00               	movlw	0
  4579  0011A6  0100               	movlb	0	; () banked
  4580  0011A8  6F64               	movwf	(___lwmod@divisor+1)& (0+255),b
  4581  0011AA  0E64               	movlw	100
  4582  0011AC  6F63               	movwf	___lwmod@divisor& (0+255),b
  4583  0011AE  C0D0  F061         	movff	_CurrentPosX,___lwmod@dividend
  4584  0011B2  C0D1  F062         	movff	_CurrentPosX+1,___lwmod@dividend+1
  4585  0011B6  ECC7  F011         	call	___lwmod	;wreg free
  4586  0011BA  C061  F0A7         	movff	?___lwmod,_impCoordActual$2878
  4587  0011BE  C062  F0A8         	movff	?___lwmod+1,_impCoordActual$2878+1
  4588  0011C2                     
  4589                           ;FuncionesMenu.c: 68:     send(((CurrentPosX % 100) % 10) + 48);
  4590  0011C2  C0A7  F061         	movff	_impCoordActual$2878,___lwmod@dividend
  4591  0011C6  C0A8  F062         	movff	_impCoordActual$2878+1,___lwmod@dividend+1
  4592  0011CA  0E00               	movlw	0
  4593  0011CC  0100               	movlb	0	; () banked
  4594  0011CE  6F64               	movwf	(___lwmod@divisor+1)& (0+255),b
  4595  0011D0  0E0A               	movlw	10
  4596  0011D2  6F63               	movwf	___lwmod@divisor& (0+255),b
  4597  0011D4  ECC7  F011         	call	___lwmod	;wreg free
  4598  0011D8  0100               	movlb	0	; () banked
  4599  0011DA  5161               	movf	?___lwmod& (0+255),w,b
  4600  0011DC  0F30               	addlw	48
  4601  0011DE  EC43  F013         	call	_send
  4602                           
  4603                           ;FuncionesMenu.c: 69:       printf(" ,Y: ");
  4604  0011E2  0EEC               	movlw	low STR_9
  4605  0011E4  0100               	movlb	0	; () banked
  4606  0011E6  6F63               	movwf	printf@PointString& (0+255),b
  4607  0011E8  0E7F               	movlw	high STR_9
  4608  0011EA  6F64               	movwf	(printf@PointString+1)& (0+255),b
  4609  0011EC  EC93  F011         	call	_printf	;wreg free
  4610  0011F0                     
  4611                           ;FuncionesMenu.c: 70:     send((CurrentPosY * 0.01) + 48);
  4612  0011F0  0E00               	movlw	0
  4613  0011F2  0100               	movlb	0	; () banked
  4614  0011F4  6F91               	movwf	___fladd@a& (0+255),b
  4615  0011F6  0E00               	movlw	0
  4616  0011F8  6F92               	movwf	(___fladd@a+1)& (0+255),b
  4617  0011FA  0E40               	movlw	64
  4618  0011FC  6F93               	movwf	(___fladd@a+2)& (0+255),b
  4619  0011FE  0E42               	movlw	66
  4620  001200  6F94               	movwf	(___fladd@a+3)& (0+255),b
  4621  001202  0E0A               	movlw	10
  4622  001204  6F78               	movwf	___flmul@a& (0+255),b
  4623  001206  0ED7               	movlw	215
  4624  001208  6F79               	movwf	(___flmul@a+1)& (0+255),b
  4625  00120A  0E23               	movlw	35
  4626  00120C  6F7A               	movwf	(___flmul@a+2)& (0+255),b
  4627  00120E  0E3C               	movlw	60
  4628  001210  6F7B               	movwf	(___flmul@a+3)& (0+255),b
  4629  001212  C0CC  F066         	movff	_CurrentPosY,___xxtofl@val
  4630  001216  C0CD  F067         	movff	_CurrentPosY+1,___xxtofl@val+1
  4631  00121A  6B68               	clrf	(___xxtofl@val+2)& (0+255),b
  4632  00121C  6B69               	clrf	(___xxtofl@val+3)& (0+255),b
  4633  00121E  0E00               	movlw	0
  4634  001220  EC9E  F009         	call	___xxtofl
  4635  001224  C066  F074         	movff	?___xxtofl,___flmul@b
  4636  001228  C067  F075         	movff	?___xxtofl+1,___flmul@b+1
  4637  00122C  C068  F076         	movff	?___xxtofl+2,___flmul@b+2
  4638  001230  C069  F077         	movff	?___xxtofl+3,___flmul@b+3
  4639  001234  EC77  F002         	call	___flmul	;wreg free
  4640  001238  C074  F08D         	movff	?___flmul,___fladd@b
  4641  00123C  C075  F08E         	movff	?___flmul+1,___fladd@b+1
  4642  001240  C076  F08F         	movff	?___flmul+2,___fladd@b+2
  4643  001244  C077  F090         	movff	?___flmul+3,___fladd@b+3
  4644  001248  EC16  F000         	call	___fladd	;wreg free
  4645  00124C  C08D  F09D         	movff	?___fladd,___fltol@f1
  4646  001250  C08E  F09E         	movff	?___fladd+1,___fltol@f1+1
  4647  001254  C08F  F09F         	movff	?___fladd+2,___fltol@f1+2
  4648  001258  C090  F0A0         	movff	?___fladd+3,___fltol@f1+3
  4649  00125C  ECD5  F00C         	call	___fltol	;wreg free
  4650  001260  0100               	movlb	0	; () banked
  4651  001262  519D               	movf	?___fltol& (0+255),w,b
  4652  001264  EC43  F013         	call	_send
  4653  001268                     
  4654                           ;FuncionesMenu.c: 71:     send(((CurrentPosY % 100)*0.1) + 48);
  4655  001268  0E00               	movlw	0
  4656  00126A  0100               	movlb	0	; () banked
  4657  00126C  6F91               	movwf	___fladd@a& (0+255),b
  4658  00126E  0E00               	movlw	0
  4659  001270  6F92               	movwf	(___fladd@a+1)& (0+255),b
  4660  001272  0E40               	movlw	64
  4661  001274  6F93               	movwf	(___fladd@a+2)& (0+255),b
  4662  001276  0E42               	movlw	66
  4663  001278  6F94               	movwf	(___fladd@a+3)& (0+255),b
  4664  00127A  0ECD               	movlw	205
  4665  00127C  6F78               	movwf	___flmul@a& (0+255),b
  4666  00127E  0ECC               	movlw	204
  4667  001280  6F79               	movwf	(___flmul@a+1)& (0+255),b
  4668  001282  0ECC               	movlw	204
  4669  001284  6F7A               	movwf	(___flmul@a+2)& (0+255),b
  4670  001286  0E3D               	movlw	61
  4671  001288  6F7B               	movwf	(___flmul@a+3)& (0+255),b
  4672  00128A  0E00               	movlw	0
  4673  00128C  6F64               	movwf	(___lwmod@divisor+1)& (0+255),b
  4674  00128E  0E64               	movlw	100
  4675  001290  6F63               	movwf	___lwmod@divisor& (0+255),b
  4676  001292  C0CC  F061         	movff	_CurrentPosY,___lwmod@dividend
  4677  001296  C0CD  F062         	movff	_CurrentPosY+1,___lwmod@dividend+1
  4678  00129A  ECC7  F011         	call	___lwmod	;wreg free
  4679  00129E  0100               	movlb	0	; () banked
  4680  0012A0  C061  F066         	movff	?___lwmod,___xxtofl@val
  4681  0012A4  C062  F067         	movff	?___lwmod+1,___xxtofl@val+1
  4682  0012A8  6B68               	clrf	(___xxtofl@val+2)& (0+255),b
  4683  0012AA  6B69               	clrf	(___xxtofl@val+3)& (0+255),b
  4684  0012AC  0E00               	movlw	0
  4685  0012AE  EC9E  F009         	call	___xxtofl
  4686  0012B2  C066  F074         	movff	?___xxtofl,___flmul@b
  4687  0012B6  C067  F075         	movff	?___xxtofl+1,___flmul@b+1
  4688  0012BA  C068  F076         	movff	?___xxtofl+2,___flmul@b+2
  4689  0012BE  C069  F077         	movff	?___xxtofl+3,___flmul@b+3
  4690  0012C2  EC77  F002         	call	___flmul	;wreg free
  4691  0012C6  C074  F08D         	movff	?___flmul,___fladd@b
  4692  0012CA  C075  F08E         	movff	?___flmul+1,___fladd@b+1
  4693  0012CE  C076  F08F         	movff	?___flmul+2,___fladd@b+2
  4694  0012D2  C077  F090         	movff	?___flmul+3,___fladd@b+3
  4695  0012D6  EC16  F000         	call	___fladd	;wreg free
  4696  0012DA  C08D  F09D         	movff	?___fladd,___fltol@f1
  4697  0012DE  C08E  F09E         	movff	?___fladd+1,___fltol@f1+1
  4698  0012E2  C08F  F09F         	movff	?___fladd+2,___fltol@f1+2
  4699  0012E6  C090  F0A0         	movff	?___fladd+3,___fltol@f1+3
  4700  0012EA  ECD5  F00C         	call	___fltol	;wreg free
  4701  0012EE  0100               	movlb	0	; () banked
  4702  0012F0  519D               	movf	?___fltol& (0+255),w,b
  4703  0012F2  EC43  F013         	call	_send
  4704  0012F6                     
  4705                           ;FuncionesMenu.c: 72:     send(((CurrentPosY % 100) % 10) + 48);
  4706  0012F6  0E00               	movlw	0
  4707  0012F8  0100               	movlb	0	; () banked
  4708  0012FA  6F64               	movwf	(___lwmod@divisor+1)& (0+255),b
  4709  0012FC  0E64               	movlw	100
  4710  0012FE  6F63               	movwf	___lwmod@divisor& (0+255),b
  4711  001300  C0CC  F061         	movff	_CurrentPosY,___lwmod@dividend
  4712  001304  C0CD  F062         	movff	_CurrentPosY+1,___lwmod@dividend+1
  4713  001308  ECC7  F011         	call	___lwmod	;wreg free
  4714  00130C  C061  F0A7         	movff	?___lwmod,_impCoordActual$2878
  4715  001310  C062  F0A8         	movff	?___lwmod+1,_impCoordActual$2878+1
  4716  001314                     
  4717                           ;FuncionesMenu.c: 72:     send(((CurrentPosY % 100) % 10) + 48);
  4718  001314  C0A7  F061         	movff	_impCoordActual$2878,___lwmod@dividend
  4719  001318  C0A8  F062         	movff	_impCoordActual$2878+1,___lwmod@dividend+1
  4720  00131C  0E00               	movlw	0
  4721  00131E  0100               	movlb	0	; () banked
  4722  001320  6F64               	movwf	(___lwmod@divisor+1)& (0+255),b
  4723  001322  0E0A               	movlw	10
  4724  001324  6F63               	movwf	___lwmod@divisor& (0+255),b
  4725  001326  ECC7  F011         	call	___lwmod	;wreg free
  4726  00132A  0100               	movlb	0	; () banked
  4727  00132C  5161               	movf	?___lwmod& (0+255),w,b
  4728  00132E  0F30               	addlw	48
  4729  001330  EC43  F013         	call	_send
  4730  001334                     
  4731                           ;FuncionesMenu.c: 73:     send('\n');
  4732  001334  0E0A               	movlw	10
  4733  001336  EC43  F013         	call	_send
  4734  00133A  0012               	return		;funcret
  4735  00133C                     __end_of_impCoordActual:
  4736                           	opt callstack 0
  4737                           
  4738 ;; *************** function ___xxtofl *****************
  4739 ;; Defined at:
  4740 ;;		line 10 in file "C:\Program Files (x86)\Microchip\xc8\v2.10\pic\sources\c99\common\xxtofl.c"
  4741 ;; Parameters:    Size  Location     Type
  4742 ;;  sign            1    wreg     unsigned char 
  4743 ;;  val             4    6[BANK0 ] long 
  4744 ;; Auto vars:     Size  Location     Type
  4745 ;;  sign            1   14[BANK0 ] unsigned char 
  4746 ;;  arg             4   16[BANK0 ] unsigned long 
  4747 ;;  exp             1   15[BANK0 ] unsigned char 
  4748 ;; Return value:  Size  Location     Type
  4749 ;;                  4    6[BANK0 ] unsigned char 
  4750 ;; Registers used:
  4751 ;;		wreg, status,2, status,0
  4752 ;; Tracked objects:
  4753 ;;		On entry : 0/0
  4754 ;;		On exit  : 0/0
  4755 ;;		Unchanged: 0/0
  4756 ;; Data sizes:     COMRAM   BANK0   BANK1   BANK2   BANK3   BANK4   BANK5   BANK6   BANK7
  4757 ;;      Params:         0       4       0       0       0       0       0       0       0
  4758 ;;      Locals:         0       6       0       0       0       0       0       0       0
  4759 ;;      Temps:          0       4       0       0       0       0       0       0       0
  4760 ;;      Totals:         0      14       0       0       0       0       0       0       0
  4761 ;;Total ram usage:       14 bytes
  4762 ;; Hardware stack levels used:    1
  4763 ;; Hardware stack levels required when called:    5
  4764 ;; This function calls:
  4765 ;;		Nothing
  4766 ;; This function is called by:
  4767 ;;		_PWM_DutyCycleCCP2
  4768 ;;		_PWM_DutyCycleCCP1
  4769 ;;		_impCoordActual
  4770 ;; This function uses a non-reentrant model
  4771 ;;
  4772                           
  4773                           	psect	text26
  4774  00133C                     __ptext26:
  4775                           	opt callstack 0
  4776  00133C                     ___xxtofl:
  4777                           	opt callstack 22
  4778                           
  4779                           ;incstack = 0
  4780                           ;___xxtofl@sign stored from wreg
  4781  00133C  0100               	movlb	0	; () banked
  4782  00133E  6F6E               	movwf	___xxtofl@sign& (0+255),b
  4783  001340  0100               	movlb	0	; () banked
  4784  001342  516E               	movf	___xxtofl@sign& (0+255),w,b
  4785  001344  B4D8               	btfsc	status,2,c
  4786  001346  EFA7  F009         	goto	u2211
  4787  00134A  EFA9  F009         	goto	u2210
  4788  00134E                     u2211:
  4789  00134E  EFCB  F009         	goto	l1282
  4790  001352                     u2210:
  4791  001352                     
  4792                           ; BSR set to: 0
  4793  001352  BF69               	btfsc	(___xxtofl@val+3)& (0+255),7,b
  4794  001354  EFB0  F009         	goto	u2220
  4795  001358  EFAE  F009         	goto	u2221
  4796  00135C                     u2221:
  4797  00135C  EFCB  F009         	goto	l1282
  4798  001360                     u2220:
  4799  001360                     
  4800                           ; BSR set to: 0
  4801  001360  C066  F06A         	movff	___xxtofl@val,??___xxtofl
  4802  001364  C067  F06B         	movff	___xxtofl@val+1,??___xxtofl+1
  4803  001368  C068  F06C         	movff	___xxtofl@val+2,??___xxtofl+2
  4804  00136C  C069  F06D         	movff	___xxtofl@val+3,??___xxtofl+3
  4805  001370  1F6A               	comf	??___xxtofl& (0+255),f,b
  4806  001372  1F6B               	comf	(??___xxtofl+1)& (0+255),f,b
  4807  001374  1F6C               	comf	(??___xxtofl+2)& (0+255),f,b
  4808  001376  1F6D               	comf	(??___xxtofl+3)& (0+255),f,b
  4809  001378  2B6A               	incf	??___xxtofl& (0+255),f,b
  4810  00137A  0E00               	movlw	0
  4811  00137C  236B               	addwfc	(??___xxtofl+1)& (0+255),f,b
  4812  00137E  236C               	addwfc	(??___xxtofl+2)& (0+255),f,b
  4813  001380  236D               	addwfc	(??___xxtofl+3)& (0+255),f,b
  4814  001382  C06A  F070         	movff	??___xxtofl,___xxtofl@arg
  4815  001386  C06B  F071         	movff	??___xxtofl+1,___xxtofl@arg+1
  4816  00138A  C06C  F072         	movff	??___xxtofl+2,___xxtofl@arg+2
  4817  00138E  C06D  F073         	movff	??___xxtofl+3,___xxtofl@arg+3
  4818  001392  EFD3  F009         	goto	l2807
  4819  001396                     l1282:
  4820                           
  4821                           ; BSR set to: 0
  4822  001396  C066  F070         	movff	___xxtofl@val,___xxtofl@arg
  4823  00139A  C067  F071         	movff	___xxtofl@val+1,___xxtofl@arg+1
  4824  00139E  C068  F072         	movff	___xxtofl@val+2,___xxtofl@arg+2
  4825  0013A2  C069  F073         	movff	___xxtofl@val+3,___xxtofl@arg+3
  4826  0013A6                     l2807:
  4827                           
  4828                           ; BSR set to: 0
  4829  0013A6  5166               	movf	___xxtofl@val& (0+255),w,b
  4830  0013A8  1167               	iorwf	(___xxtofl@val+1)& (0+255),w,b
  4831  0013AA  1168               	iorwf	(___xxtofl@val+2)& (0+255),w,b
  4832  0013AC  1169               	iorwf	(___xxtofl@val+3)& (0+255),w,b
  4833  0013AE  A4D8               	btfss	status,2,c
  4834  0013B0  EFDC  F009         	goto	u2231
  4835  0013B4  EFDE  F009         	goto	u2230
  4836  0013B8                     u2231:
  4837  0013B8  EFE8  F009         	goto	l2813
  4838  0013BC                     u2230:
  4839  0013BC                     
  4840                           ; BSR set to: 0
  4841  0013BC  0E00               	movlw	0
  4842  0013BE  6F66               	movwf	?___xxtofl& (0+255),b
  4843  0013C0  0E00               	movlw	0
  4844  0013C2  6F67               	movwf	(?___xxtofl+1)& (0+255),b
  4845  0013C4  0E00               	movlw	0
  4846  0013C6  6F68               	movwf	(?___xxtofl+2)& (0+255),b
  4847  0013C8  0E00               	movlw	0
  4848  0013CA  6F69               	movwf	(?___xxtofl+3)& (0+255),b
  4849  0013CC  EF79  F00A         	goto	l1285
  4850  0013D0                     l2813:
  4851                           
  4852                           ; BSR set to: 0
  4853  0013D0  0E96               	movlw	150
  4854  0013D2  6F6F               	movwf	___xxtofl@exp& (0+255),b
  4855  0013D4  EFF2  F009         	goto	l2817
  4856  0013D8                     l2815:
  4857                           
  4858                           ; BSR set to: 0
  4859  0013D8  2B6F               	incf	___xxtofl@exp& (0+255),f,b
  4860  0013DA  90D8               	bcf	status,0,c
  4861  0013DC  3373               	rrcf	(___xxtofl@arg+3)& (0+255),f,b
  4862  0013DE  3372               	rrcf	(___xxtofl@arg+2)& (0+255),f,b
  4863  0013E0  3371               	rrcf	(___xxtofl@arg+1)& (0+255),f,b
  4864  0013E2  3370               	rrcf	___xxtofl@arg& (0+255),f,b
  4865  0013E4                     l2817:
  4866                           
  4867                           ; BSR set to: 0
  4868  0013E4  0E00               	movlw	0
  4869  0013E6  1570               	andwf	___xxtofl@arg& (0+255),w,b
  4870  0013E8  6F6A               	movwf	??___xxtofl& (0+255),b
  4871  0013EA  0E00               	movlw	0
  4872  0013EC  1571               	andwf	(___xxtofl@arg+1)& (0+255),w,b
  4873  0013EE  6F6B               	movwf	(??___xxtofl+1)& (0+255),b
  4874  0013F0  0E00               	movlw	0
  4875  0013F2  1572               	andwf	(___xxtofl@arg+2)& (0+255),w,b
  4876  0013F4  6F6C               	movwf	(??___xxtofl+2)& (0+255),b
  4877  0013F6  0EFE               	movlw	254
  4878  0013F8  1573               	andwf	(___xxtofl@arg+3)& (0+255),w,b
  4879  0013FA  6F6D               	movwf	(??___xxtofl+3)& (0+255),b
  4880  0013FC  516A               	movf	??___xxtofl& (0+255),w,b
  4881  0013FE  116B               	iorwf	(??___xxtofl+1)& (0+255),w,b
  4882  001400  116C               	iorwf	(??___xxtofl+2)& (0+255),w,b
  4883  001402  116D               	iorwf	(??___xxtofl+3)& (0+255),w,b
  4884  001404  A4D8               	btfss	status,2,c
  4885  001406  EF07  F00A         	goto	u2241
  4886  00140A  EF09  F00A         	goto	u2240
  4887  00140E                     u2241:
  4888  00140E  EFEC  F009         	goto	l2815
  4889  001412                     u2240:
  4890  001412  EF17  F00A         	goto	l1289
  4891  001416                     l2819:
  4892                           
  4893                           ; BSR set to: 0
  4894  001416  2B6F               	incf	___xxtofl@exp& (0+255),f,b
  4895  001418                     
  4896                           ; BSR set to: 0
  4897  001418  0E01               	movlw	1
  4898  00141A  2770               	addwf	___xxtofl@arg& (0+255),f,b
  4899  00141C  0E00               	movlw	0
  4900  00141E  2371               	addwfc	(___xxtofl@arg+1)& (0+255),f,b
  4901  001420  2372               	addwfc	(___xxtofl@arg+2)& (0+255),f,b
  4902  001422  2373               	addwfc	(___xxtofl@arg+3)& (0+255),f,b
  4903  001424                     
  4904                           ; BSR set to: 0
  4905  001424  90D8               	bcf	status,0,c
  4906  001426  3373               	rrcf	(___xxtofl@arg+3)& (0+255),f,b
  4907  001428  3372               	rrcf	(___xxtofl@arg+2)& (0+255),f,b
  4908  00142A  3371               	rrcf	(___xxtofl@arg+1)& (0+255),f,b
  4909  00142C  3370               	rrcf	___xxtofl@arg& (0+255),f,b
  4910  00142E                     l1289:
  4911                           
  4912                           ; BSR set to: 0
  4913  00142E  0E00               	movlw	0
  4914  001430  1570               	andwf	___xxtofl@arg& (0+255),w,b
  4915  001432  6F6A               	movwf	??___xxtofl& (0+255),b
  4916  001434  0E00               	movlw	0
  4917  001436  1571               	andwf	(___xxtofl@arg+1)& (0+255),w,b
  4918  001438  6F6B               	movwf	(??___xxtofl+1)& (0+255),b
  4919  00143A  0E00               	movlw	0
  4920  00143C  1572               	andwf	(___xxtofl@arg+2)& (0+255),w,b
  4921  00143E  6F6C               	movwf	(??___xxtofl+2)& (0+255),b
  4922  001440  0EFF               	movlw	255
  4923  001442  1573               	andwf	(___xxtofl@arg+3)& (0+255),w,b
  4924  001444  6F6D               	movwf	(??___xxtofl+3)& (0+255),b
  4925  001446  516A               	movf	??___xxtofl& (0+255),w,b
  4926  001448  116B               	iorwf	(??___xxtofl+1)& (0+255),w,b
  4927  00144A  116C               	iorwf	(??___xxtofl+2)& (0+255),w,b
  4928  00144C  116D               	iorwf	(??___xxtofl+3)& (0+255),w,b
  4929  00144E  A4D8               	btfss	status,2,c
  4930  001450  EF2C  F00A         	goto	u2251
  4931  001454  EF2E  F00A         	goto	u2250
  4932  001458                     u2251:
  4933  001458  EF0B  F00A         	goto	l2819
  4934  00145C                     u2250:
  4935  00145C  EF36  F00A         	goto	l2827
  4936  001460                     l2825:
  4937                           
  4938                           ; BSR set to: 0
  4939  001460  076F               	decf	___xxtofl@exp& (0+255),f,b
  4940  001462  90D8               	bcf	status,0,c
  4941  001464  3770               	rlcf	___xxtofl@arg& (0+255),f,b
  4942  001466  3771               	rlcf	(___xxtofl@arg+1)& (0+255),f,b
  4943  001468  3772               	rlcf	(___xxtofl@arg+2)& (0+255),f,b
  4944  00146A  3773               	rlcf	(___xxtofl@arg+3)& (0+255),f,b
  4945  00146C                     l2827:
  4946                           
  4947                           ; BSR set to: 0
  4948  00146C  BF72               	btfsc	(___xxtofl@arg+2)& (0+255),7,b
  4949  00146E  EF3B  F00A         	goto	u2261
  4950  001472  EF3D  F00A         	goto	u2260
  4951  001476                     u2261:
  4952  001476  EF45  F00A         	goto	l1296
  4953  00147A                     u2260:
  4954  00147A                     
  4955                           ; BSR set to: 0
  4956  00147A  0E02               	movlw	2
  4957  00147C  616F               	cpfslt	___xxtofl@exp& (0+255),b
  4958  00147E  EF43  F00A         	goto	u2271
  4959  001482  EF45  F00A         	goto	u2270
  4960  001486                     u2271:
  4961  001486  EF30  F00A         	goto	l2825
  4962  00148A                     u2270:
  4963  00148A                     l1296:
  4964                           
  4965                           ; BSR set to: 0
  4966  00148A  B16F               	btfsc	___xxtofl@exp& (0+255),0,b
  4967  00148C  EF4A  F00A         	goto	u2281
  4968  001490  EF4C  F00A         	goto	u2280
  4969  001494                     u2281:
  4970  001494  EF4D  F00A         	goto	l2833
  4971  001498                     u2280:
  4972  001498                     
  4973                           ; BSR set to: 0
  4974  001498  9F72               	bcf	(___xxtofl@arg+2)& (0+255),7,b
  4975  00149A                     l2833:
  4976                           
  4977                           ; BSR set to: 0
  4978  00149A  90D8               	bcf	status,0,c
  4979  00149C  336F               	rrcf	___xxtofl@exp& (0+255),f,b
  4980  00149E                     
  4981                           ; BSR set to: 0
  4982  00149E  C06F  F06A         	movff	___xxtofl@exp,??___xxtofl
  4983  0014A2  6B6B               	clrf	(??___xxtofl+1)& (0+255),b
  4984  0014A4  6B6C               	clrf	(??___xxtofl+2)& (0+255),b
  4985  0014A6  6B6D               	clrf	(??___xxtofl+3)& (0+255),b
  4986  0014A8  C06A  F06D         	movff	??___xxtofl,??___xxtofl+3
  4987  0014AC  6B6C               	clrf	(??___xxtofl+2)& (0+255),b
  4988  0014AE  6B6B               	clrf	(??___xxtofl+1)& (0+255),b
  4989  0014B0  6B6A               	clrf	??___xxtofl& (0+255),b
  4990  0014B2  516A               	movf	??___xxtofl& (0+255),w,b
  4991  0014B4  1370               	iorwf	___xxtofl@arg& (0+255),f,b
  4992  0014B6  516B               	movf	(??___xxtofl+1)& (0+255),w,b
  4993  0014B8  1371               	iorwf	(___xxtofl@arg+1)& (0+255),f,b
  4994  0014BA  516C               	movf	(??___xxtofl+2)& (0+255),w,b
  4995  0014BC  1372               	iorwf	(___xxtofl@arg+2)& (0+255),f,b
  4996  0014BE  516D               	movf	(??___xxtofl+3)& (0+255),w,b
  4997  0014C0  1373               	iorwf	(___xxtofl@arg+3)& (0+255),f,b
  4998  0014C2                     
  4999                           ; BSR set to: 0
  5000  0014C2  516E               	movf	___xxtofl@sign& (0+255),w,b
  5001  0014C4  B4D8               	btfsc	status,2,c
  5002  0014C6  EF67  F00A         	goto	u2291
  5003  0014CA  EF69  F00A         	goto	u2290
  5004  0014CE                     u2291:
  5005  0014CE  EF71  F00A         	goto	l2843
  5006  0014D2                     u2290:
  5007  0014D2                     
  5008                           ; BSR set to: 0
  5009  0014D2  BF69               	btfsc	(___xxtofl@val+3)& (0+255),7,b
  5010  0014D4  EF70  F00A         	goto	u2300
  5011  0014D8  EF6E  F00A         	goto	u2301
  5012  0014DC                     u2301:
  5013  0014DC  EF71  F00A         	goto	l2843
  5014  0014E0                     u2300:
  5015  0014E0                     
  5016                           ; BSR set to: 0
  5017  0014E0  8F73               	bsf	(___xxtofl@arg+3)& (0+255),7,b
  5018  0014E2                     l2843:
  5019                           
  5020                           ; BSR set to: 0
  5021  0014E2  C070  F066         	movff	___xxtofl@arg,?___xxtofl
  5022  0014E6  C071  F067         	movff	___xxtofl@arg+1,?___xxtofl+1
  5023  0014EA  C072  F068         	movff	___xxtofl@arg+2,?___xxtofl+2
  5024  0014EE  C073  F069         	movff	___xxtofl@arg+3,?___xxtofl+3
  5025  0014F2                     l1285:
  5026                           
  5027                           ; BSR set to: 0
  5028  0014F2  0012               	return		;funcret
  5029  0014F4                     __end_of___xxtofl:
  5030                           	opt callstack 0
  5031                           
  5032 ;; *************** function ___lwmod *****************
  5033 ;; Defined at:
  5034 ;;		line 7 in file "C:\Program Files (x86)\Microchip\xc8\v2.10\pic\sources\c99\common\lwmod.c"
  5035 ;; Parameters:    Size  Location     Type
  5036 ;;  dividend        2    1[BANK0 ] unsigned int 
  5037 ;;  divisor         2    3[BANK0 ] unsigned int 
  5038 ;; Auto vars:     Size  Location     Type
  5039 ;;  counter         1    5[BANK0 ] unsigned char 
  5040 ;; Return value:  Size  Location     Type
  5041 ;;                  2    1[BANK0 ] unsigned int 
  5042 ;; Registers used:
  5043 ;;		wreg, status,2, status,0
  5044 ;; Tracked objects:
  5045 ;;		On entry : 0/0
  5046 ;;		On exit  : 0/0
  5047 ;;		Unchanged: 0/0
  5048 ;; Data sizes:     COMRAM   BANK0   BANK1   BANK2   BANK3   BANK4   BANK5   BANK6   BANK7
  5049 ;;      Params:         0       4       0       0       0       0       0       0       0
  5050 ;;      Locals:         0       1       0       0       0       0       0       0       0
  5051 ;;      Temps:          0       0       0       0       0       0       0       0       0
  5052 ;;      Totals:         0       5       0       0       0       0       0       0       0
  5053 ;;Total ram usage:        5 bytes
  5054 ;; Hardware stack levels used:    1
  5055 ;; Hardware stack levels required when called:    5
  5056 ;; This function calls:
  5057 ;;		Nothing
  5058 ;; This function is called by:
  5059 ;;		_impCoordActual
  5060 ;; This function uses a non-reentrant model
  5061 ;;
  5062                           
  5063                           	psect	text27
  5064  00238E                     __ptext27:
  5065                           	opt callstack 0
  5066  00238E                     ___lwmod:
  5067                           	opt callstack 24
  5068  00238E  0100               	movlb	0	; () banked
  5069  002390  5163               	movf	___lwmod@divisor& (0+255),w,b
  5070  002392  1164               	iorwf	(___lwmod@divisor+1)& (0+255),w,b
  5071  002394  B4D8               	btfsc	status,2,c
  5072  002396  EFCF  F011         	goto	u3301
  5073  00239A  EFD1  F011         	goto	u3300
  5074  00239E                     u3301:
  5075  00239E  EFF5  F011         	goto	l1128
  5076  0023A2                     u3300:
  5077  0023A2                     
  5078                           ; BSR set to: 0
  5079  0023A2  0E01               	movlw	1
  5080  0023A4  6F65               	movwf	___lwmod@counter& (0+255),b
  5081  0023A6  EFD9  F011         	goto	l3445
  5082  0023AA                     l3443:
  5083                           
  5084                           ; BSR set to: 0
  5085  0023AA  90D8               	bcf	status,0,c
  5086  0023AC  3763               	rlcf	___lwmod@divisor& (0+255),f,b
  5087  0023AE  3764               	rlcf	(___lwmod@divisor+1)& (0+255),f,b
  5088  0023B0  2B65               	incf	___lwmod@counter& (0+255),f,b
  5089  0023B2                     l3445:
  5090                           
  5091                           ; BSR set to: 0
  5092  0023B2  AF64               	btfss	(___lwmod@divisor+1)& (0+255),7,b
  5093  0023B4  EFDE  F011         	goto	u3311
  5094  0023B8  EFE0  F011         	goto	u3310
  5095  0023BC                     u3311:
  5096  0023BC  EFD5  F011         	goto	l3443
  5097  0023C0                     u3310:
  5098  0023C0                     l3447:
  5099                           
  5100                           ; BSR set to: 0
  5101  0023C0  5163               	movf	___lwmod@divisor& (0+255),w,b
  5102  0023C2  5D61               	subwf	___lwmod@dividend& (0+255),w,b
  5103  0023C4  5164               	movf	(___lwmod@divisor+1)& (0+255),w,b
  5104  0023C6  5962               	subwfb	(___lwmod@dividend+1)& (0+255),w,b
  5105  0023C8  A0D8               	btfss	status,0,c
  5106  0023CA  EFE9  F011         	goto	u3321
  5107  0023CE  EFEB  F011         	goto	u3320
  5108  0023D2                     u3321:
  5109  0023D2  EFEF  F011         	goto	l3451
  5110  0023D6                     u3320:
  5111  0023D6                     
  5112                           ; BSR set to: 0
  5113  0023D6  5163               	movf	___lwmod@divisor& (0+255),w,b
  5114  0023D8  5F61               	subwf	___lwmod@dividend& (0+255),f,b
  5115  0023DA  5164               	movf	(___lwmod@divisor+1)& (0+255),w,b
  5116  0023DC  5B62               	subwfb	(___lwmod@dividend+1)& (0+255),f,b
  5117  0023DE                     l3451:
  5118                           
  5119                           ; BSR set to: 0
  5120  0023DE  90D8               	bcf	status,0,c
  5121  0023E0  3364               	rrcf	(___lwmod@divisor+1)& (0+255),f,b
  5122  0023E2  3363               	rrcf	___lwmod@divisor& (0+255),f,b
  5123  0023E4                     
  5124                           ; BSR set to: 0
  5125  0023E4  2F65               	decfsz	___lwmod@counter& (0+255),f,b
  5126  0023E6  EFE0  F011         	goto	l3447
  5127  0023EA                     l1128:
  5128                           
  5129                           ; BSR set to: 0
  5130  0023EA  C061  F061         	movff	___lwmod@dividend,?___lwmod
  5131  0023EE  C062  F062         	movff	___lwmod@dividend+1,?___lwmod+1
  5132  0023F2                     
  5133                           ; BSR set to: 0
  5134  0023F2  0012               	return		;funcret
  5135  0023F4                     __end_of___lwmod:
  5136                           	opt callstack 0
  5137                           
  5138 ;; *************** function ___fltol *****************
  5139 ;; Defined at:
  5140 ;;		line 43 in file "C:\Program Files (x86)\Microchip\xc8\v2.10\pic\sources\c99\common\fltol.c"
  5141 ;; Parameters:    Size  Location     Type
  5142 ;;  f1              4   61[BANK0 ] unsigned int 
  5143 ;; Auto vars:     Size  Location     Type
  5144 ;;  exp1            1   70[BANK0 ] unsigned char 
  5145 ;;  sign1           1   69[BANK0 ] unsigned char 
  5146 ;; Return value:  Size  Location     Type
  5147 ;;                  4   61[BANK0 ] long 
  5148 ;; Registers used:
  5149 ;;		wreg, status,2, status,0
  5150 ;; Tracked objects:
  5151 ;;		On entry : 0/0
  5152 ;;		On exit  : 0/0
  5153 ;;		Unchanged: 0/0
  5154 ;; Data sizes:     COMRAM   BANK0   BANK1   BANK2   BANK3   BANK4   BANK5   BANK6   BANK7
  5155 ;;      Params:         0       4       0       0       0       0       0       0       0
  5156 ;;      Locals:         0       2       0       0       0       0       0       0       0
  5157 ;;      Temps:          0       4       0       0       0       0       0       0       0
  5158 ;;      Totals:         0      10       0       0       0       0       0       0       0
  5159 ;;Total ram usage:       10 bytes
  5160 ;; Hardware stack levels used:    1
  5161 ;; Hardware stack levels required when called:    5
  5162 ;; This function calls:
  5163 ;;		Nothing
  5164 ;; This function is called by:
  5165 ;;		_PWM_DutyCycleCCP2
  5166 ;;		_PWM_DutyCycleCCP1
  5167 ;;		_impCoordActual
  5168 ;; This function uses a non-reentrant model
  5169 ;;
  5170                           
  5171                           	psect	text28
  5172  0019AA                     __ptext28:
  5173                           	opt callstack 0
  5174  0019AA                     ___fltol:
  5175                           	opt callstack 22
  5176  0019AA  0100               	movlb	0	; () banked
  5177  0019AC  359F               	rlcf	(___fltol@f1+2)& (0+255),w,b
  5178  0019AE  35A0               	rlcf	(___fltol@f1+3)& (0+255),w,b
  5179  0019B0  6FA6               	movwf	___fltol@exp1& (0+255),b
  5180  0019B2  51A6               	movf	___fltol@exp1& (0+255),w,b
  5181  0019B4  A4D8               	btfss	status,2,c
  5182  0019B6  EFDF  F00C         	goto	u2141
  5183  0019BA  EFE1  F00C         	goto	u2140
  5184  0019BE                     u2141:
  5185  0019BE  EFEB  F00C         	goto	l2763
  5186  0019C2                     u2140:
  5187  0019C2                     l2759:
  5188                           
  5189                           ; BSR set to: 0
  5190  0019C2  0E00               	movlw	0
  5191  0019C4  6F9D               	movwf	?___fltol& (0+255),b
  5192  0019C6  0E00               	movlw	0
  5193  0019C8  6F9E               	movwf	(?___fltol+1)& (0+255),b
  5194  0019CA  0E00               	movlw	0
  5195  0019CC  6F9F               	movwf	(?___fltol+2)& (0+255),b
  5196  0019CE  0E00               	movlw	0
  5197  0019D0  6FA0               	movwf	(?___fltol+3)& (0+255),b
  5198  0019D2  EF58  F00D         	goto	l924
  5199  0019D6                     l2763:
  5200                           
  5201                           ; BSR set to: 0
  5202  0019D6  C09D  F0A1         	movff	___fltol@f1,??___fltol
  5203  0019DA  C09E  F0A2         	movff	___fltol@f1+1,??___fltol+1
  5204  0019DE  C09F  F0A3         	movff	___fltol@f1+2,??___fltol+2
  5205  0019E2  C0A0  F0A4         	movff	___fltol@f1+3,??___fltol+3
  5206  0019E6  0E20               	movlw	32
  5207  0019E8  EFFB  F00C         	goto	u2150
  5208  0019EC                     u2155:
  5209  0019EC  90D8               	bcf	status,0,c
  5210  0019EE  33A4               	rrcf	(??___fltol+3)& (0+255),f,b
  5211  0019F0  33A3               	rrcf	(??___fltol+2)& (0+255),f,b
  5212  0019F2  33A2               	rrcf	(??___fltol+1)& (0+255),f,b
  5213  0019F4  33A1               	rrcf	??___fltol& (0+255),f,b
  5214  0019F6                     u2150:
  5215  0019F6  2EE8               	decfsz	wreg,f,c
  5216  0019F8  EFF6  F00C         	goto	u2155
  5217  0019FC  51A1               	movf	??___fltol& (0+255),w,b
  5218  0019FE  6FA5               	movwf	___fltol@sign1& (0+255),b
  5219  001A00                     
  5220                           ; BSR set to: 0
  5221  001A00  8F9F               	bsf	(___fltol@f1+2)& (0+255),7,b
  5222  001A02                     
  5223                           ; BSR set to: 0
  5224  001A02  0EFF               	movlw	255
  5225  001A04  179D               	andwf	___fltol@f1& (0+255),f,b
  5226  001A06  0EFF               	movlw	255
  5227  001A08  179E               	andwf	(___fltol@f1+1)& (0+255),f,b
  5228  001A0A  0EFF               	movlw	255
  5229  001A0C  179F               	andwf	(___fltol@f1+2)& (0+255),f,b
  5230  001A0E  0E00               	movlw	0
  5231  001A10  17A0               	andwf	(___fltol@f1+3)& (0+255),f,b
  5232  001A12                     
  5233                           ; BSR set to: 0
  5234  001A12  0E96               	movlw	150
  5235  001A14  5FA6               	subwf	___fltol@exp1& (0+255),f,b
  5236  001A16                     
  5237                           ; BSR set to: 0
  5238  001A16  BFA6               	btfsc	___fltol@exp1& (0+255),7,b
  5239  001A18  EF12  F00D         	goto	u2160
  5240  001A1C  EF10  F00D         	goto	u2161
  5241  001A20                     u2161:
  5242  001A20  EF28  F00D         	goto	l2783
  5243  001A24                     u2160:
  5244  001A24                     
  5245                           ; BSR set to: 0
  5246  001A24  51A6               	movf	___fltol@exp1& (0+255),w,b
  5247  001A26  0A80               	xorlw	128
  5248  001A28  0F97               	addlw	151
  5249  001A2A  B0D8               	btfsc	status,0,c
  5250  001A2C  EF1A  F00D         	goto	u2171
  5251  001A30  EF1C  F00D         	goto	u2170
  5252  001A34                     u2171:
  5253  001A34  EF1E  F00D         	goto	l2779
  5254  001A38                     u2170:
  5255  001A38  EFE1  F00C         	goto	l2759
  5256  001A3C                     l2779:
  5257                           
  5258                           ; BSR set to: 0
  5259  001A3C  90D8               	bcf	status,0,c
  5260  001A3E  33A0               	rrcf	(___fltol@f1+3)& (0+255),f,b
  5261  001A40  339F               	rrcf	(___fltol@f1+2)& (0+255),f,b
  5262  001A42  339E               	rrcf	(___fltol@f1+1)& (0+255),f,b
  5263  001A44  339D               	rrcf	___fltol@f1& (0+255),f,b
  5264  001A46                     
  5265                           ; BSR set to: 0
  5266  001A46  3FA6               	incfsz	___fltol@exp1& (0+255),f,b
  5267  001A48  EF1E  F00D         	goto	l2779
  5268  001A4C  EF40  F00D         	goto	l2793
  5269  001A50                     l2783:
  5270                           
  5271                           ; BSR set to: 0
  5272  001A50  0E1F               	movlw	31
  5273  001A52  65A6               	cpfsgt	___fltol@exp1& (0+255),b
  5274  001A54  EF2E  F00D         	goto	u2181
  5275  001A58  EF30  F00D         	goto	u2180
  5276  001A5C                     u2181:
  5277  001A5C  EF38  F00D         	goto	l2791
  5278  001A60                     u2180:
  5279  001A60  EFE1  F00C         	goto	l2759
  5280  001A64                     l2789:
  5281                           
  5282                           ; BSR set to: 0
  5283  001A64  90D8               	bcf	status,0,c
  5284  001A66  379D               	rlcf	___fltol@f1& (0+255),f,b
  5285  001A68  379E               	rlcf	(___fltol@f1+1)& (0+255),f,b
  5286  001A6A  379F               	rlcf	(___fltol@f1+2)& (0+255),f,b
  5287  001A6C  37A0               	rlcf	(___fltol@f1+3)& (0+255),f,b
  5288  001A6E  07A6               	decf	___fltol@exp1& (0+255),f,b
  5289  001A70                     l2791:
  5290                           
  5291                           ; BSR set to: 0
  5292  001A70  51A6               	movf	___fltol@exp1& (0+255),w,b
  5293  001A72  A4D8               	btfss	status,2,c
  5294  001A74  EF3E  F00D         	goto	u2191
  5295  001A78  EF40  F00D         	goto	u2190
  5296  001A7C                     u2191:
  5297  001A7C  EF32  F00D         	goto	l2789
  5298  001A80                     u2190:
  5299  001A80                     l2793:
  5300                           
  5301                           ; BSR set to: 0
  5302  001A80  51A5               	movf	___fltol@sign1& (0+255),w,b
  5303  001A82  B4D8               	btfsc	status,2,c
  5304  001A84  EF46  F00D         	goto	u2201
  5305  001A88  EF48  F00D         	goto	u2200
  5306  001A8C                     u2201:
  5307  001A8C  EF50  F00D         	goto	l2797
  5308  001A90                     u2200:
  5309  001A90                     
  5310                           ; BSR set to: 0
  5311  001A90  1FA0               	comf	(___fltol@f1+3)& (0+255),f,b
  5312  001A92  1F9F               	comf	(___fltol@f1+2)& (0+255),f,b
  5313  001A94  1F9E               	comf	(___fltol@f1+1)& (0+255),f,b
  5314  001A96  6D9D               	negf	___fltol@f1& (0+255),b
  5315  001A98  0E00               	movlw	0
  5316  001A9A  239E               	addwfc	(___fltol@f1+1)& (0+255),f,b
  5317  001A9C  239F               	addwfc	(___fltol@f1+2)& (0+255),f,b
  5318  001A9E  23A0               	addwfc	(___fltol@f1+3)& (0+255),f,b
  5319  001AA0                     l2797:
  5320                           
  5321                           ; BSR set to: 0
  5322  001AA0  C09D  F09D         	movff	___fltol@f1,?___fltol
  5323  001AA4  C09E  F09E         	movff	___fltol@f1+1,?___fltol+1
  5324  001AA8  C09F  F09F         	movff	___fltol@f1+2,?___fltol+2
  5325  001AAC  C0A0  F0A0         	movff	___fltol@f1+3,?___fltol+3
  5326  001AB0                     l924:
  5327                           
  5328                           ; BSR set to: 0
  5329  001AB0  0012               	return		;funcret
  5330  001AB2                     __end_of___fltol:
  5331                           	opt callstack 0
  5332                           
  5333 ;; *************** function ___flmul *****************
  5334 ;; Defined at:
  5335 ;;		line 8 in file "C:\Program Files (x86)\Microchip\xc8\v2.10\pic\sources\c99\common\sprcmul.c"
  5336 ;; Parameters:    Size  Location     Type
  5337 ;;  b               4   20[BANK0 ] long 
  5338 ;;  a               4   24[BANK0 ] long 
  5339 ;; Auto vars:     Size  Location     Type
  5340 ;;  prod            4   39[BANK0 ] struct .
  5341 ;;  grs             4   33[BANK0 ] unsigned long 
  5342 ;;  temp            2   43[BANK0 ] struct .
  5343 ;;  bexp            1   38[BANK0 ] unsigned char 
  5344 ;;  aexp            1   37[BANK0 ] unsigned char 
  5345 ;;  sign            1   32[BANK0 ] unsigned char 
  5346 ;; Return value:  Size  Location     Type
  5347 ;;                  4   20[BANK0 ] unsigned char 
  5348 ;; Registers used:
  5349 ;;		wreg, status,2, status,0, prodl, prodh
  5350 ;; Tracked objects:
  5351 ;;		On entry : 0/0
  5352 ;;		On exit  : 0/0
  5353 ;;		Unchanged: 0/0
  5354 ;; Data sizes:     COMRAM   BANK0   BANK1   BANK2   BANK3   BANK4   BANK5   BANK6   BANK7
  5355 ;;      Params:         0       8       0       0       0       0       0       0       0
  5356 ;;      Locals:         0      13       0       0       0       0       0       0       0
  5357 ;;      Temps:          0       4       0       0       0       0       0       0       0
  5358 ;;      Totals:         0      25       0       0       0       0       0       0       0
  5359 ;;Total ram usage:       25 bytes
  5360 ;; Hardware stack levels used:    1
  5361 ;; Hardware stack levels required when called:    5
  5362 ;; This function calls:
  5363 ;;		Nothing
  5364 ;; This function is called by:
  5365 ;;		_PWM_DutyCycleCCP2
  5366 ;;		_PWM_DutyCycleCCP1
  5367 ;;		_impCoordActual
  5368 ;; This function uses a non-reentrant model
  5369 ;;
  5370                           
  5371                           	psect	text29
  5372  0004EE                     __ptext29:
  5373                           	opt callstack 0
  5374  0004EE                     ___flmul:
  5375                           	opt callstack 22
  5376  0004EE  0100               	movlb	0	; () banked
  5377  0004F0  5177               	movf	(___flmul@b+3)& (0+255),w,b
  5378  0004F2  0B80               	andlw	128
  5379  0004F4  6F80               	movwf	___flmul@sign& (0+255),b
  5380  0004F6  5177               	movf	(___flmul@b+3)& (0+255),w,b
  5381  0004F8  2577               	addwf	(___flmul@b+3)& (0+255),w,b
  5382  0004FA  6F86               	movwf	___flmul@bexp& (0+255),b
  5383  0004FC                     
  5384                           ; BSR set to: 0
  5385  0004FC  AF76               	btfss	(___flmul@b+2)& (0+255),7,b
  5386  0004FE  EF83  F002         	goto	u1951
  5387  000502  EF85  F002         	goto	u1950
  5388  000506                     u1951:
  5389  000506  EF86  F002         	goto	l2633
  5390  00050A                     u1950:
  5391  00050A                     
  5392                           ; BSR set to: 0
  5393  00050A  8186               	bsf	___flmul@bexp& (0+255),0,b
  5394  00050C                     l2633:
  5395                           
  5396                           ; BSR set to: 0
  5397  00050C  5186               	movf	___flmul@bexp& (0+255),w,b
  5398  00050E  B4D8               	btfsc	status,2,c
  5399  000510  EF8C  F002         	goto	u1961
  5400  000514  EF8E  F002         	goto	u1960
  5401  000518                     u1961:
  5402  000518  EFA1  F002         	goto	l2641
  5403  00051C                     u1960:
  5404  00051C                     
  5405                           ; BSR set to: 0
  5406  00051C  2986               	incf	___flmul@bexp& (0+255),w,b
  5407  00051E  A4D8               	btfss	status,2,c
  5408  000520  EF94  F002         	goto	u1971
  5409  000524  EF96  F002         	goto	u1970
  5410  000528                     u1971:
  5411  000528  EF9E  F002         	goto	l2639
  5412  00052C                     u1970:
  5413  00052C                     
  5414                           ; BSR set to: 0
  5415  00052C  0E00               	movlw	0
  5416  00052E  6F74               	movwf	___flmul@b& (0+255),b
  5417  000530  0E00               	movlw	0
  5418  000532  6F75               	movwf	(___flmul@b+1)& (0+255),b
  5419  000534  0E00               	movlw	0
  5420  000536  6F76               	movwf	(___flmul@b+2)& (0+255),b
  5421  000538  0E00               	movlw	0
  5422  00053A  6F77               	movwf	(___flmul@b+3)& (0+255),b
  5423  00053C                     l2639:
  5424                           
  5425                           ; BSR set to: 0
  5426  00053C  8F76               	bsf	(___flmul@b+2)& (0+255),7,b
  5427  00053E  EFA9  F002         	goto	l2643
  5428  000542                     l2641:
  5429                           
  5430                           ; BSR set to: 0
  5431  000542  0E00               	movlw	0
  5432  000544  6F74               	movwf	___flmul@b& (0+255),b
  5433  000546  0E00               	movlw	0
  5434  000548  6F75               	movwf	(___flmul@b+1)& (0+255),b
  5435  00054A  0E00               	movlw	0
  5436  00054C  6F76               	movwf	(___flmul@b+2)& (0+255),b
  5437  00054E  0E00               	movlw	0
  5438  000550  6F77               	movwf	(___flmul@b+3)& (0+255),b
  5439  000552                     l2643:
  5440                           
  5441                           ; BSR set to: 0
  5442  000552  517B               	movf	(___flmul@a+3)& (0+255),w,b
  5443  000554  0B80               	andlw	128
  5444  000556  1B80               	xorwf	___flmul@sign& (0+255),f,b
  5445  000558                     
  5446                           ; BSR set to: 0
  5447  000558  517B               	movf	(___flmul@a+3)& (0+255),w,b
  5448  00055A  257B               	addwf	(___flmul@a+3)& (0+255),w,b
  5449  00055C  6F85               	movwf	___flmul@aexp& (0+255),b
  5450  00055E                     
  5451                           ; BSR set to: 0
  5452  00055E  AF7A               	btfss	(___flmul@a+2)& (0+255),7,b
  5453  000560  EFB4  F002         	goto	u1981
  5454  000564  EFB6  F002         	goto	u1980
  5455  000568                     u1981:
  5456  000568  EFB7  F002         	goto	l2651
  5457  00056C                     u1980:
  5458  00056C                     
  5459                           ; BSR set to: 0
  5460  00056C  8185               	bsf	___flmul@aexp& (0+255),0,b
  5461  00056E                     l2651:
  5462                           
  5463                           ; BSR set to: 0
  5464  00056E  5185               	movf	___flmul@aexp& (0+255),w,b
  5465  000570  B4D8               	btfsc	status,2,c
  5466  000572  EFBD  F002         	goto	u1991
  5467  000576  EFBF  F002         	goto	u1990
  5468  00057A                     u1991:
  5469  00057A  EFD2  F002         	goto	l2659
  5470  00057E                     u1990:
  5471  00057E                     
  5472                           ; BSR set to: 0
  5473  00057E  2985               	incf	___flmul@aexp& (0+255),w,b
  5474  000580  A4D8               	btfss	status,2,c
  5475  000582  EFC5  F002         	goto	u2001
  5476  000586  EFC7  F002         	goto	u2000
  5477  00058A                     u2001:
  5478  00058A  EFCF  F002         	goto	l2657
  5479  00058E                     u2000:
  5480  00058E                     
  5481                           ; BSR set to: 0
  5482  00058E  0E00               	movlw	0
  5483  000590  6F78               	movwf	___flmul@a& (0+255),b
  5484  000592  0E00               	movlw	0
  5485  000594  6F79               	movwf	(___flmul@a+1)& (0+255),b
  5486  000596  0E00               	movlw	0
  5487  000598  6F7A               	movwf	(___flmul@a+2)& (0+255),b
  5488  00059A  0E00               	movlw	0
  5489  00059C  6F7B               	movwf	(___flmul@a+3)& (0+255),b
  5490  00059E                     l2657:
  5491                           
  5492                           ; BSR set to: 0
  5493  00059E  8F7A               	bsf	(___flmul@a+2)& (0+255),7,b
  5494  0005A0  EFDA  F002         	goto	l1241
  5495  0005A4                     l2659:
  5496                           
  5497                           ; BSR set to: 0
  5498  0005A4  0E00               	movlw	0
  5499  0005A6  6F78               	movwf	___flmul@a& (0+255),b
  5500  0005A8  0E00               	movlw	0
  5501  0005AA  6F79               	movwf	(___flmul@a+1)& (0+255),b
  5502  0005AC  0E00               	movlw	0
  5503  0005AE  6F7A               	movwf	(___flmul@a+2)& (0+255),b
  5504  0005B0  0E00               	movlw	0
  5505  0005B2  6F7B               	movwf	(___flmul@a+3)& (0+255),b
  5506  0005B4                     l1241:
  5507                           
  5508                           ; BSR set to: 0
  5509  0005B4  5185               	movf	___flmul@aexp& (0+255),w,b
  5510  0005B6  B4D8               	btfsc	status,2,c
  5511  0005B8  EFE0  F002         	goto	u2011
  5512  0005BC  EFE2  F002         	goto	u2010
  5513  0005C0                     u2011:
  5514  0005C0  EFEA  F002         	goto	l2663
  5515  0005C4                     u2010:
  5516  0005C4                     
  5517                           ; BSR set to: 0
  5518  0005C4  5186               	movf	___flmul@bexp& (0+255),w,b
  5519  0005C6  A4D8               	btfss	status,2,c
  5520  0005C8  EFE8  F002         	goto	u2021
  5521  0005CC  EFEA  F002         	goto	u2020
  5522  0005D0                     u2021:
  5523  0005D0  EFF4  F002         	goto	l2667
  5524  0005D4                     u2020:
  5525  0005D4                     l2663:
  5526                           
  5527                           ; BSR set to: 0
  5528  0005D4  0E00               	movlw	0
  5529  0005D6  6F74               	movwf	?___flmul& (0+255),b
  5530  0005D8  0E00               	movlw	0
  5531  0005DA  6F75               	movwf	(?___flmul+1)& (0+255),b
  5532  0005DC  0E00               	movlw	0
  5533  0005DE  6F76               	movwf	(?___flmul+2)& (0+255),b
  5534  0005E0  0E00               	movlw	0
  5535  0005E2  6F77               	movwf	(?___flmul+3)& (0+255),b
  5536  0005E4  EF8C  F004         	goto	l1245
  5537  0005E8                     l2667:
  5538                           
  5539                           ; BSR set to: 0
  5540  0005E8  517A               	movf	(___flmul@a+2)& (0+255),w,b
  5541  0005EA  0374               	mulwf	___flmul@b& (0+255),b
  5542  0005EC  CFF3 F08B          	movff	prodl,___flmul@temp
  5543  0005F0  CFF4 F08C          	movff	prodh,___flmul@temp+1
  5544  0005F4                     
  5545                           ; BSR set to: 0
  5546  0005F4  518B               	movf	___flmul@temp& (0+255),w,b
  5547  0005F6  6F81               	movwf	___flmul@grs& (0+255),b
  5548  0005F8  6B82               	clrf	(___flmul@grs+1)& (0+255),b
  5549  0005FA  6B83               	clrf	(___flmul@grs+2)& (0+255),b
  5550  0005FC  6B84               	clrf	(___flmul@grs+3)& (0+255),b
  5551  0005FE                     
  5552                           ; BSR set to: 0
  5553  0005FE  518C               	movf	(___flmul@temp+1)& (0+255),w,b
  5554  000600  6F87               	movwf	___flmul@prod& (0+255),b
  5555  000602  6B88               	clrf	(___flmul@prod+1)& (0+255),b
  5556  000604  6B89               	clrf	(___flmul@prod+2)& (0+255),b
  5557  000606  6B8A               	clrf	(___flmul@prod+3)& (0+255),b
  5558  000608  5179               	movf	(___flmul@a+1)& (0+255),w,b
  5559  00060A  0375               	mulwf	(___flmul@b+1)& (0+255),b
  5560  00060C  CFF3 F08B          	movff	prodl,___flmul@temp
  5561  000610  CFF4 F08C          	movff	prodh,___flmul@temp+1
  5562  000614                     
  5563                           ; BSR set to: 0
  5564  000614  518B               	movf	___flmul@temp& (0+255),w,b
  5565  000616  2781               	addwf	___flmul@grs& (0+255),f,b
  5566  000618  0E00               	movlw	0
  5567  00061A  2382               	addwfc	(___flmul@grs+1)& (0+255),f,b
  5568  00061C  2383               	addwfc	(___flmul@grs+2)& (0+255),f,b
  5569  00061E  2384               	addwfc	(___flmul@grs+3)& (0+255),f,b
  5570  000620                     
  5571                           ; BSR set to: 0
  5572  000620  518C               	movf	(___flmul@temp+1)& (0+255),w,b
  5573  000622  2787               	addwf	___flmul@prod& (0+255),f,b
  5574  000624  0E00               	movlw	0
  5575  000626  2388               	addwfc	(___flmul@prod+1)& (0+255),f,b
  5576  000628  2389               	addwfc	(___flmul@prod+2)& (0+255),f,b
  5577  00062A  238A               	addwfc	(___flmul@prod+3)& (0+255),f,b
  5578  00062C  5178               	movf	___flmul@a& (0+255),w,b
  5579  00062E  0376               	mulwf	(___flmul@b+2)& (0+255),b
  5580  000630  CFF3 F08B          	movff	prodl,___flmul@temp
  5581  000634  CFF4 F08C          	movff	prodh,___flmul@temp+1
  5582  000638                     
  5583                           ; BSR set to: 0
  5584  000638  518B               	movf	___flmul@temp& (0+255),w,b
  5585  00063A  2781               	addwf	___flmul@grs& (0+255),f,b
  5586  00063C  0E00               	movlw	0
  5587  00063E  2382               	addwfc	(___flmul@grs+1)& (0+255),f,b
  5588  000640  2383               	addwfc	(___flmul@grs+2)& (0+255),f,b
  5589  000642  2384               	addwfc	(___flmul@grs+3)& (0+255),f,b
  5590  000644                     
  5591                           ; BSR set to: 0
  5592  000644  518C               	movf	(___flmul@temp+1)& (0+255),w,b
  5593  000646  2787               	addwf	___flmul@prod& (0+255),f,b
  5594  000648  0E00               	movlw	0
  5595  00064A  2388               	addwfc	(___flmul@prod+1)& (0+255),f,b
  5596  00064C  2389               	addwfc	(___flmul@prod+2)& (0+255),f,b
  5597  00064E  238A               	addwfc	(___flmul@prod+3)& (0+255),f,b
  5598  000650                     
  5599                           ; BSR set to: 0
  5600  000650  C083  F084         	movff	___flmul@grs+2,___flmul@grs+3
  5601  000654  C082  F083         	movff	___flmul@grs+1,___flmul@grs+2
  5602  000658  C081  F082         	movff	___flmul@grs,___flmul@grs+1
  5603  00065C  6B81               	clrf	___flmul@grs& (0+255),b
  5604  00065E                     
  5605                           ; BSR set to: 0
  5606  00065E  5178               	movf	___flmul@a& (0+255),w,b
  5607  000660  0375               	mulwf	(___flmul@b+1)& (0+255),b
  5608  000662  CFF3 F08B          	movff	prodl,___flmul@temp
  5609  000666  CFF4 F08C          	movff	prodh,___flmul@temp+1
  5610  00066A                     
  5611                           ; BSR set to: 0
  5612  00066A  518B               	movf	___flmul@temp& (0+255),w,b
  5613  00066C  2781               	addwf	___flmul@grs& (0+255),f,b
  5614  00066E  518C               	movf	(___flmul@temp+1)& (0+255),w,b
  5615  000670  2382               	addwfc	(___flmul@grs+1)& (0+255),f,b
  5616  000672  0E00               	movlw	0
  5617  000674  2383               	addwfc	(___flmul@grs+2)& (0+255),f,b
  5618  000676  0E00               	movlw	0
  5619  000678  2384               	addwfc	(___flmul@grs+3)& (0+255),f,b
  5620  00067A                     
  5621                           ; BSR set to: 0
  5622  00067A  5179               	movf	(___flmul@a+1)& (0+255),w,b
  5623  00067C  0374               	mulwf	___flmul@b& (0+255),b
  5624  00067E  CFF3 F08B          	movff	prodl,___flmul@temp
  5625  000682  CFF4 F08C          	movff	prodh,___flmul@temp+1
  5626  000686                     
  5627                           ; BSR set to: 0
  5628  000686  518B               	movf	___flmul@temp& (0+255),w,b
  5629  000688  2781               	addwf	___flmul@grs& (0+255),f,b
  5630  00068A  518C               	movf	(___flmul@temp+1)& (0+255),w,b
  5631  00068C  2382               	addwfc	(___flmul@grs+1)& (0+255),f,b
  5632  00068E  0E00               	movlw	0
  5633  000690  2383               	addwfc	(___flmul@grs+2)& (0+255),f,b
  5634  000692  0E00               	movlw	0
  5635  000694  2384               	addwfc	(___flmul@grs+3)& (0+255),f,b
  5636  000696                     
  5637                           ; BSR set to: 0
  5638  000696  C083  F084         	movff	___flmul@grs+2,___flmul@grs+3
  5639  00069A  C082  F083         	movff	___flmul@grs+1,___flmul@grs+2
  5640  00069E  C081  F082         	movff	___flmul@grs,___flmul@grs+1
  5641  0006A2  6B81               	clrf	___flmul@grs& (0+255),b
  5642  0006A4  5178               	movf	___flmul@a& (0+255),w,b
  5643  0006A6  0374               	mulwf	___flmul@b& (0+255),b
  5644  0006A8  CFF3 F08B          	movff	prodl,___flmul@temp
  5645  0006AC  CFF4 F08C          	movff	prodh,___flmul@temp+1
  5646  0006B0                     
  5647                           ; BSR set to: 0
  5648  0006B0  518B               	movf	___flmul@temp& (0+255),w,b
  5649  0006B2  2781               	addwf	___flmul@grs& (0+255),f,b
  5650  0006B4  518C               	movf	(___flmul@temp+1)& (0+255),w,b
  5651  0006B6  2382               	addwfc	(___flmul@grs+1)& (0+255),f,b
  5652  0006B8  0E00               	movlw	0
  5653  0006BA  2383               	addwfc	(___flmul@grs+2)& (0+255),f,b
  5654  0006BC  0E00               	movlw	0
  5655  0006BE  2384               	addwfc	(___flmul@grs+3)& (0+255),f,b
  5656  0006C0                     
  5657                           ; BSR set to: 0
  5658  0006C0  517A               	movf	(___flmul@a+2)& (0+255),w,b
  5659  0006C2  0375               	mulwf	(___flmul@b+1)& (0+255),b
  5660  0006C4  CFF3 F08B          	movff	prodl,___flmul@temp
  5661  0006C8  CFF4 F08C          	movff	prodh,___flmul@temp+1
  5662  0006CC  518B               	movf	___flmul@temp& (0+255),w,b
  5663  0006CE  2787               	addwf	___flmul@prod& (0+255),f,b
  5664  0006D0  518C               	movf	(___flmul@temp+1)& (0+255),w,b
  5665  0006D2  2388               	addwfc	(___flmul@prod+1)& (0+255),f,b
  5666  0006D4  0E00               	movlw	0
  5667  0006D6  2389               	addwfc	(___flmul@prod+2)& (0+255),f,b
  5668  0006D8  0E00               	movlw	0
  5669  0006DA  238A               	addwfc	(___flmul@prod+3)& (0+255),f,b
  5670  0006DC                     
  5671                           ; BSR set to: 0
  5672  0006DC  5179               	movf	(___flmul@a+1)& (0+255),w,b
  5673  0006DE  0376               	mulwf	(___flmul@b+2)& (0+255),b
  5674  0006E0  CFF3 F08B          	movff	prodl,___flmul@temp
  5675  0006E4  CFF4 F08C          	movff	prodh,___flmul@temp+1
  5676  0006E8                     
  5677                           ; BSR set to: 0
  5678  0006E8  518B               	movf	___flmul@temp& (0+255),w,b
  5679  0006EA  2787               	addwf	___flmul@prod& (0+255),f,b
  5680  0006EC  518C               	movf	(___flmul@temp+1)& (0+255),w,b
  5681  0006EE  2388               	addwfc	(___flmul@prod+1)& (0+255),f,b
  5682  0006F0  0E00               	movlw	0
  5683  0006F2  2389               	addwfc	(___flmul@prod+2)& (0+255),f,b
  5684  0006F4  0E00               	movlw	0
  5685  0006F6  238A               	addwfc	(___flmul@prod+3)& (0+255),f,b
  5686  0006F8  517A               	movf	(___flmul@a+2)& (0+255),w,b
  5687  0006FA  0376               	mulwf	(___flmul@b+2)& (0+255),b
  5688  0006FC  CFF3 F08B          	movff	prodl,___flmul@temp
  5689  000700  CFF4 F08C          	movff	prodh,___flmul@temp+1
  5690  000704                     
  5691                           ; BSR set to: 0
  5692  000704  518B               	movf	___flmul@temp& (0+255),w,b
  5693  000706  6F7C               	movwf	??___flmul& (0+255),b
  5694  000708  518C               	movf	(___flmul@temp+1)& (0+255),w,b
  5695  00070A  6F7D               	movwf	(??___flmul+1)& (0+255),b
  5696  00070C  6B7E               	clrf	(??___flmul+2)& (0+255),b
  5697  00070E  6B7F               	clrf	(??___flmul+3)& (0+255),b
  5698  000710  C07E  F07F         	movff	??___flmul+2,??___flmul+3
  5699  000714  C07D  F07E         	movff	??___flmul+1,??___flmul+2
  5700  000718  C07C  F07D         	movff	??___flmul,??___flmul+1
  5701  00071C  6B7C               	clrf	??___flmul& (0+255),b
  5702  00071E  517C               	movf	??___flmul& (0+255),w,b
  5703  000720  2787               	addwf	___flmul@prod& (0+255),f,b
  5704  000722  517D               	movf	(??___flmul+1)& (0+255),w,b
  5705  000724  2388               	addwfc	(___flmul@prod+1)& (0+255),f,b
  5706  000726  517E               	movf	(??___flmul+2)& (0+255),w,b
  5707  000728  2389               	addwfc	(___flmul@prod+2)& (0+255),f,b
  5708  00072A  517F               	movf	(??___flmul+3)& (0+255),w,b
  5709  00072C  238A               	addwfc	(___flmul@prod+3)& (0+255),f,b
  5710  00072E                     
  5711                           ; BSR set to: 0
  5712  00072E  C081  F07C         	movff	___flmul@grs,??___flmul
  5713  000732  C082  F07D         	movff	___flmul@grs+1,??___flmul+1
  5714  000736  C083  F07E         	movff	___flmul@grs+2,??___flmul+2
  5715  00073A  C084  F07F         	movff	___flmul@grs+3,??___flmul+3
  5716  00073E  0E19               	movlw	25
  5717  000740  EFA7  F003         	goto	u2030
  5718  000744                     u2035:
  5719  000744  90D8               	bcf	status,0,c
  5720  000746  337F               	rrcf	(??___flmul+3)& (0+255),f,b
  5721  000748  337E               	rrcf	(??___flmul+2)& (0+255),f,b
  5722  00074A  337D               	rrcf	(??___flmul+1)& (0+255),f,b
  5723  00074C  337C               	rrcf	??___flmul& (0+255),f,b
  5724  00074E                     u2030:
  5725  00074E  2EE8               	decfsz	wreg,f,c
  5726  000750  EFA2  F003         	goto	u2035
  5727  000754  517C               	movf	??___flmul& (0+255),w,b
  5728  000756  2787               	addwf	___flmul@prod& (0+255),f,b
  5729  000758  517D               	movf	(??___flmul+1)& (0+255),w,b
  5730  00075A  2388               	addwfc	(___flmul@prod+1)& (0+255),f,b
  5731  00075C  517E               	movf	(??___flmul+2)& (0+255),w,b
  5732  00075E  2389               	addwfc	(___flmul@prod+2)& (0+255),f,b
  5733  000760  517F               	movf	(??___flmul+3)& (0+255),w,b
  5734  000762  238A               	addwfc	(___flmul@prod+3)& (0+255),f,b
  5735  000764                     
  5736                           ; BSR set to: 0
  5737  000764  C083  F084         	movff	___flmul@grs+2,___flmul@grs+3
  5738  000768  C082  F083         	movff	___flmul@grs+1,___flmul@grs+2
  5739  00076C  C081  F082         	movff	___flmul@grs,___flmul@grs+1
  5740  000770  6B81               	clrf	___flmul@grs& (0+255),b
  5741  000772                     
  5742                           ; BSR set to: 0
  5743  000772  5185               	movf	___flmul@aexp& (0+255),w,b
  5744  000774  C086  F07C         	movff	___flmul@bexp,??___flmul
  5745  000778  6B7D               	clrf	(??___flmul+1)& (0+255),b
  5746  00077A  277C               	addwf	??___flmul& (0+255),f,b
  5747  00077C  0E00               	movlw	0
  5748  00077E  237D               	addwfc	(??___flmul+1)& (0+255),f,b
  5749  000780  0E82               	movlw	130
  5750  000782  257C               	addwf	??___flmul& (0+255),w,b
  5751  000784  6F8B               	movwf	___flmul@temp& (0+255),b
  5752  000786  0EFF               	movlw	255
  5753  000788  217D               	addwfc	(??___flmul+1)& (0+255),w,b
  5754  00078A  6F8C               	movwf	(___flmul@temp+1)& (0+255),b
  5755  00078C  EFDD  F003         	goto	l2715
  5756  000790                     l2709:
  5757                           
  5758                           ; BSR set to: 0
  5759  000790  90D8               	bcf	status,0,c
  5760  000792  3787               	rlcf	___flmul@prod& (0+255),f,b
  5761  000794  3788               	rlcf	(___flmul@prod+1)& (0+255),f,b
  5762  000796  3789               	rlcf	(___flmul@prod+2)& (0+255),f,b
  5763  000798  378A               	rlcf	(___flmul@prod+3)& (0+255),f,b
  5764  00079A                     
  5765                           ; BSR set to: 0
  5766  00079A  AF84               	btfss	(___flmul@grs+3)& (0+255),7,b
  5767  00079C  EFD2  F003         	goto	u2041
  5768  0007A0  EFD4  F003         	goto	u2040
  5769  0007A4                     u2041:
  5770  0007A4  EFD5  F003         	goto	l1248
  5771  0007A8                     u2040:
  5772  0007A8                     
  5773                           ; BSR set to: 0
  5774  0007A8  8187               	bsf	___flmul@prod& (0+255),0,b
  5775  0007AA                     l1248:
  5776                           
  5777                           ; BSR set to: 0
  5778  0007AA  90D8               	bcf	status,0,c
  5779  0007AC  3781               	rlcf	___flmul@grs& (0+255),f,b
  5780  0007AE  3782               	rlcf	(___flmul@grs+1)& (0+255),f,b
  5781  0007B0  3783               	rlcf	(___flmul@grs+2)& (0+255),f,b
  5782  0007B2  3784               	rlcf	(___flmul@grs+3)& (0+255),f,b
  5783  0007B4  078B               	decf	___flmul@temp& (0+255),f,b
  5784  0007B6  A0D8               	btfss	status,0,c
  5785  0007B8  078C               	decf	(___flmul@temp+1)& (0+255),f,b
  5786  0007BA                     l2715:
  5787                           
  5788                           ; BSR set to: 0
  5789  0007BA  AF89               	btfss	(___flmul@prod+2)& (0+255),7,b
  5790  0007BC  EFE2  F003         	goto	u2051
  5791  0007C0  EFE4  F003         	goto	u2050
  5792  0007C4                     u2051:
  5793  0007C4  EFC8  F003         	goto	l2709
  5794  0007C8                     u2050:
  5795  0007C8                     
  5796                           ; BSR set to: 0
  5797  0007C8  0E00               	movlw	0
  5798  0007CA  6F85               	movwf	___flmul@aexp& (0+255),b
  5799  0007CC                     
  5800                           ; BSR set to: 0
  5801  0007CC  AF84               	btfss	(___flmul@grs+3)& (0+255),7,b
  5802  0007CE  EFEB  F003         	goto	u2061
  5803  0007D2  EFED  F003         	goto	u2060
  5804  0007D6                     u2061:
  5805  0007D6  EF11  F004         	goto	l1250
  5806  0007DA                     u2060:
  5807  0007DA                     
  5808                           ; BSR set to: 0
  5809  0007DA  0EFF               	movlw	255
  5810  0007DC  1581               	andwf	___flmul@grs& (0+255),w,b
  5811  0007DE  6F7C               	movwf	??___flmul& (0+255),b
  5812  0007E0  0EFF               	movlw	255
  5813  0007E2  1582               	andwf	(___flmul@grs+1)& (0+255),w,b
  5814  0007E4  6F7D               	movwf	(??___flmul+1)& (0+255),b
  5815  0007E6  0EFF               	movlw	255
  5816  0007E8  1583               	andwf	(___flmul@grs+2)& (0+255),w,b
  5817  0007EA  6F7E               	movwf	(??___flmul+2)& (0+255),b
  5818  0007EC  0E7F               	movlw	127
  5819  0007EE  1584               	andwf	(___flmul@grs+3)& (0+255),w,b
  5820  0007F0  6F7F               	movwf	(??___flmul+3)& (0+255),b
  5821  0007F2  517C               	movf	??___flmul& (0+255),w,b
  5822  0007F4  117D               	iorwf	(??___flmul+1)& (0+255),w,b
  5823  0007F6  117E               	iorwf	(??___flmul+2)& (0+255),w,b
  5824  0007F8  117F               	iorwf	(??___flmul+3)& (0+255),w,b
  5825  0007FA  B4D8               	btfsc	status,2,c
  5826  0007FC  EF02  F004         	goto	u2071
  5827  000800  EF04  F004         	goto	u2070
  5828  000804                     u2071:
  5829  000804  EF08  F004         	goto	l1251
  5830  000808                     u2070:
  5831  000808                     l2723:
  5832                           
  5833                           ; BSR set to: 0
  5834  000808  0E01               	movlw	1
  5835  00080A  6F85               	movwf	___flmul@aexp& (0+255),b
  5836  00080C  EF11  F004         	goto	l1250
  5837  000810                     l1251:
  5838                           
  5839                           ; BSR set to: 0
  5840  000810  A187               	btfss	___flmul@prod& (0+255),0,b
  5841  000812  EF0D  F004         	goto	u2081
  5842  000816  EF0F  F004         	goto	u2080
  5843  00081A                     u2081:
  5844  00081A  EF11  F004         	goto	l1250
  5845  00081E                     u2080:
  5846  00081E  EF04  F004         	goto	l2723
  5847  000822                     l1250:
  5848                           
  5849                           ; BSR set to: 0
  5850  000822  5185               	movf	___flmul@aexp& (0+255),w,b
  5851  000824  B4D8               	btfsc	status,2,c
  5852  000826  EF17  F004         	goto	u2091
  5853  00082A  EF19  F004         	goto	u2090
  5854  00082E                     u2091:
  5855  00082E  EF3D  F004         	goto	l2735
  5856  000832                     u2090:
  5857  000832                     
  5858                           ; BSR set to: 0
  5859  000832  0E01               	movlw	1
  5860  000834  2787               	addwf	___flmul@prod& (0+255),f,b
  5861  000836  0E00               	movlw	0
  5862  000838  2388               	addwfc	(___flmul@prod+1)& (0+255),f,b
  5863  00083A  2389               	addwfc	(___flmul@prod+2)& (0+255),f,b
  5864  00083C  238A               	addwfc	(___flmul@prod+3)& (0+255),f,b
  5865  00083E                     
  5866                           ; BSR set to: 0
  5867  00083E  A18A               	btfss	(___flmul@prod+3)& (0+255),0,b
  5868  000840  EF24  F004         	goto	u2101
  5869  000844  EF26  F004         	goto	u2100
  5870  000848                     u2101:
  5871  000848  EF3D  F004         	goto	l2735
  5872  00084C                     u2100:
  5873  00084C                     
  5874                           ; BSR set to: 0
  5875  00084C  C087  F07C         	movff	___flmul@prod,??___flmul
  5876  000850  C088  F07D         	movff	___flmul@prod+1,??___flmul+1
  5877  000854  C089  F07E         	movff	___flmul@prod+2,??___flmul+2
  5878  000858  C08A  F07F         	movff	___flmul@prod+3,??___flmul+3
  5879  00085C  357F               	rlcf	(??___flmul+3)& (0+255),w,b
  5880  00085E  337F               	rrcf	(??___flmul+3)& (0+255),f,b
  5881  000860  337E               	rrcf	(??___flmul+2)& (0+255),f,b
  5882  000862  337D               	rrcf	(??___flmul+1)& (0+255),f,b
  5883  000864  337C               	rrcf	??___flmul& (0+255),f,b
  5884  000866  C07C  F087         	movff	??___flmul,___flmul@prod
  5885  00086A  C07D  F088         	movff	??___flmul+1,___flmul@prod+1
  5886  00086E  C07E  F089         	movff	??___flmul+2,___flmul@prod+2
  5887  000872  C07F  F08A         	movff	??___flmul+3,___flmul@prod+3
  5888  000876                     
  5889                           ; BSR set to: 0
  5890  000876  4B8B               	infsnz	___flmul@temp& (0+255),f,b
  5891  000878  2B8C               	incf	(___flmul@temp+1)& (0+255),f,b
  5892  00087A                     l2735:
  5893                           
  5894                           ; BSR set to: 0
  5895  00087A  BF8C               	btfsc	(___flmul@temp+1)& (0+255),7,b
  5896  00087C  EF48  F004         	goto	u2111
  5897  000880  518C               	movf	(___flmul@temp+1)& (0+255),w,b
  5898  000882  E108               	bnz	u2110
  5899  000884  298B               	incf	___flmul@temp& (0+255),w,b
  5900  000886  A0D8               	btfss	status,0,c
  5901  000888  EF48  F004         	goto	u2111
  5902  00088C  EF4A  F004         	goto	u2110
  5903  000890                     u2111:
  5904  000890  EF54  F004         	goto	l2739
  5905  000894                     u2110:
  5906  000894                     
  5907                           ; BSR set to: 0
  5908  000894  0E00               	movlw	0
  5909  000896  6F87               	movwf	___flmul@prod& (0+255),b
  5910  000898  0E00               	movlw	0
  5911  00089A  6F88               	movwf	(___flmul@prod+1)& (0+255),b
  5912  00089C  0E80               	movlw	128
  5913  00089E  6F89               	movwf	(___flmul@prod+2)& (0+255),b
  5914  0008A0  0E7F               	movlw	127
  5915  0008A2  6F8A               	movwf	(___flmul@prod+3)& (0+255),b
  5916  0008A4  EF82  F004         	goto	l2751
  5917  0008A8                     l2739:
  5918                           
  5919                           ; BSR set to: 0
  5920  0008A8  BF8C               	btfsc	(___flmul@temp+1)& (0+255),7,b
  5921  0008AA  EF61  F004         	goto	u2120
  5922  0008AE  518C               	movf	(___flmul@temp+1)& (0+255),w,b
  5923  0008B0  E106               	bnz	u2121
  5924  0008B2  058B               	decf	___flmul@temp& (0+255),w,b
  5925  0008B4  B0D8               	btfsc	status,0,c
  5926  0008B6  EF5F  F004         	goto	u2121
  5927  0008BA  EF61  F004         	goto	u2120
  5928  0008BE                     u2121:
  5929  0008BE  EF6D  F004         	goto	l1258
  5930  0008C2                     u2120:
  5931  0008C2                     
  5932                           ; BSR set to: 0
  5933  0008C2  0E00               	movlw	0
  5934  0008C4  6F87               	movwf	___flmul@prod& (0+255),b
  5935  0008C6  0E00               	movlw	0
  5936  0008C8  6F88               	movwf	(___flmul@prod+1)& (0+255),b
  5937  0008CA  0E00               	movlw	0
  5938  0008CC  6F89               	movwf	(___flmul@prod+2)& (0+255),b
  5939  0008CE  0E00               	movlw	0
  5940  0008D0  6F8A               	movwf	(___flmul@prod+3)& (0+255),b
  5941  0008D2  0E00               	movlw	0
  5942  0008D4  6F80               	movwf	___flmul@sign& (0+255),b
  5943  0008D6  EF82  F004         	goto	l2751
  5944  0008DA                     l1258:
  5945                           
  5946                           ; BSR set to: 0
  5947  0008DA  C08B  F086         	movff	___flmul@temp,___flmul@bexp
  5948  0008DE                     
  5949                           ; BSR set to: 0
  5950  0008DE  0EFF               	movlw	255
  5951  0008E0  1787               	andwf	___flmul@prod& (0+255),f,b
  5952  0008E2  0EFF               	movlw	255
  5953  0008E4  1788               	andwf	(___flmul@prod+1)& (0+255),f,b
  5954  0008E6  0E7F               	movlw	127
  5955  0008E8  1789               	andwf	(___flmul@prod+2)& (0+255),f,b
  5956  0008EA  0E00               	movlw	0
  5957  0008EC  178A               	andwf	(___flmul@prod+3)& (0+255),f,b
  5958  0008EE                     
  5959                           ; BSR set to: 0
  5960  0008EE  A186               	btfss	___flmul@bexp& (0+255),0,b
  5961  0008F0  EF7C  F004         	goto	u2131
  5962  0008F4  EF7E  F004         	goto	u2130
  5963  0008F8                     u2131:
  5964  0008F8  EF7F  F004         	goto	l2749
  5965  0008FC                     u2130:
  5966  0008FC                     
  5967                           ; BSR set to: 0
  5968  0008FC  8F89               	bsf	(___flmul@prod+2)& (0+255),7,b
  5969  0008FE                     l2749:
  5970                           
  5971                           ; BSR set to: 0
  5972  0008FE  90D8               	bcf	status,0,c
  5973  000900  3186               	rrcf	___flmul@bexp& (0+255),w,b
  5974  000902  6F8A               	movwf	(___flmul@prod+3)& (0+255),b
  5975  000904                     l2751:
  5976                           
  5977                           ; BSR set to: 0
  5978  000904  5180               	movf	___flmul@sign& (0+255),w,b
  5979  000906  138A               	iorwf	(___flmul@prod+3)& (0+255),f,b
  5980  000908                     
  5981                           ; BSR set to: 0
  5982  000908  C087  F074         	movff	___flmul@prod,?___flmul
  5983  00090C  C088  F075         	movff	___flmul@prod+1,?___flmul+1
  5984  000910  C089  F076         	movff	___flmul@prod+2,?___flmul+2
  5985  000914  C08A  F077         	movff	___flmul@prod+3,?___flmul+3
  5986  000918                     l1245:
  5987                           
  5988                           ; BSR set to: 0
  5989  000918  0012               	return		;funcret
  5990  00091A                     __end_of___flmul:
  5991                           	opt callstack 0
  5992                           
  5993 ;; *************** function ___fladd *****************
  5994 ;; Defined at:
  5995 ;;		line 10 in file "C:\Program Files (x86)\Microchip\xc8\v2.10\pic\sources\c99\common\sprcadd.c"
  5996 ;; Parameters:    Size  Location     Type
  5997 ;;  b               4   45[BANK0 ] unsigned char 
  5998 ;;  a               4   49[BANK0 ] unsigned char 
  5999 ;; Auto vars:     Size  Location     Type
  6000 ;;  grs             1   60[BANK0 ] unsigned char 
  6001 ;;  bexp            1   59[BANK0 ] unsigned char 
  6002 ;;  aexp            1   58[BANK0 ] unsigned char 
  6003 ;;  signs           1   57[BANK0 ] unsigned char 
  6004 ;; Return value:  Size  Location     Type
  6005 ;;                  4   45[BANK0 ] unsigned char 
  6006 ;; Registers used:
  6007 ;;		wreg, status,2, status,0
  6008 ;; Tracked objects:
  6009 ;;		On entry : 0/0
  6010 ;;		On exit  : 0/0
  6011 ;;		Unchanged: 0/0
  6012 ;; Data sizes:     COMRAM   BANK0   BANK1   BANK2   BANK3   BANK4   BANK5   BANK6   BANK7
  6013 ;;      Params:         0       8       0       0       0       0       0       0       0
  6014 ;;      Locals:         0       4       0       0       0       0       0       0       0
  6015 ;;      Temps:          0       4       0       0       0       0       0       0       0
  6016 ;;      Totals:         0      16       0       0       0       0       0       0       0
  6017 ;;Total ram usage:       16 bytes
  6018 ;; Hardware stack levels used:    1
  6019 ;; Hardware stack levels required when called:    5
  6020 ;; This function calls:
  6021 ;;		Nothing
  6022 ;; This function is called by:
  6023 ;;		_impCoordActual
  6024 ;; This function uses a non-reentrant model
  6025 ;;
  6026                           
  6027                           	psect	text30
  6028  00002C                     __ptext30:
  6029                           	opt callstack 0
  6030  00002C                     ___fladd:
  6031                           	opt callstack 24
  6032  00002C  0100               	movlb	0	; () banked
  6033  00002E  5190               	movf	(___fladd@b+3)& (0+255),w,b
  6034  000030  0B80               	andlw	128
  6035  000032  6F99               	movwf	___fladd@signs& (0+255),b
  6036  000034  5190               	movf	(___fladd@b+3)& (0+255),w,b
  6037  000036  2590               	addwf	(___fladd@b+3)& (0+255),w,b
  6038  000038  6F9B               	movwf	___fladd@bexp& (0+255),b
  6039  00003A                     
  6040                           ; BSR set to: 0
  6041  00003A  AF8F               	btfss	(___fladd@b+2)& (0+255),7,b
  6042  00003C  EF22  F000         	goto	u2911
  6043  000040  EF24  F000         	goto	u2910
  6044  000044                     u2911:
  6045  000044  EF25  F000         	goto	l3243
  6046  000048                     u2910:
  6047  000048                     
  6048                           ; BSR set to: 0
  6049  000048  819B               	bsf	___fladd@bexp& (0+255),0,b
  6050  00004A                     l3243:
  6051                           
  6052                           ; BSR set to: 0
  6053  00004A  519B               	movf	___fladd@bexp& (0+255),w,b
  6054  00004C  B4D8               	btfsc	status,2,c
  6055  00004E  EF2B  F000         	goto	u2921
  6056  000052  EF2D  F000         	goto	u2920
  6057  000056                     u2921:
  6058  000056  EF42  F000         	goto	l3253
  6059  00005A                     u2920:
  6060  00005A                     
  6061                           ; BSR set to: 0
  6062  00005A  299B               	incf	___fladd@bexp& (0+255),w,b
  6063  00005C  A4D8               	btfss	status,2,c
  6064  00005E  EF33  F000         	goto	u2931
  6065  000062  EF35  F000         	goto	u2930
  6066  000066                     u2931:
  6067  000066  EF3D  F000         	goto	l3249
  6068  00006A                     u2930:
  6069  00006A                     
  6070                           ; BSR set to: 0
  6071  00006A  0E00               	movlw	0
  6072  00006C  6F8D               	movwf	___fladd@b& (0+255),b
  6073  00006E  0E00               	movlw	0
  6074  000070  6F8E               	movwf	(___fladd@b+1)& (0+255),b
  6075  000072  0E00               	movlw	0
  6076  000074  6F8F               	movwf	(___fladd@b+2)& (0+255),b
  6077  000076  0E00               	movlw	0
  6078  000078  6F90               	movwf	(___fladd@b+3)& (0+255),b
  6079  00007A                     l3249:
  6080                           
  6081                           ; BSR set to: 0
  6082  00007A  8F8F               	bsf	(___fladd@b+2)& (0+255),7,b
  6083  00007C                     
  6084                           ; BSR set to: 0
  6085  00007C  0E00               	movlw	0
  6086  00007E  6F90               	movwf	(___fladd@b+3)& (0+255),b
  6087  000080  EF4A  F000         	goto	l3255
  6088  000084                     l3253:
  6089                           
  6090                           ; BSR set to: 0
  6091  000084  0E00               	movlw	0
  6092  000086  6F8D               	movwf	___fladd@b& (0+255),b
  6093  000088  0E00               	movlw	0
  6094  00008A  6F8E               	movwf	(___fladd@b+1)& (0+255),b
  6095  00008C  0E00               	movlw	0
  6096  00008E  6F8F               	movwf	(___fladd@b+2)& (0+255),b
  6097  000090  0E00               	movlw	0
  6098  000092  6F90               	movwf	(___fladd@b+3)& (0+255),b
  6099  000094                     l3255:
  6100                           
  6101                           ; BSR set to: 0
  6102  000094  5194               	movf	(___fladd@a+3)& (0+255),w,b
  6103  000096  0B80               	andlw	128
  6104  000098  6F9A               	movwf	___fladd@aexp& (0+255),b
  6105  00009A                     
  6106                           ; BSR set to: 0
  6107  00009A  5199               	movf	___fladd@signs& (0+255),w,b
  6108  00009C  199A               	xorwf	___fladd@aexp& (0+255),w,b
  6109  00009E  B4D8               	btfsc	status,2,c
  6110  0000A0  EF54  F000         	goto	u2941
  6111  0000A4  EF56  F000         	goto	u2940
  6112  0000A8                     u2941:
  6113  0000A8  EF57  F000         	goto	l3261
  6114  0000AC                     u2940:
  6115  0000AC                     
  6116                           ; BSR set to: 0
  6117  0000AC  8D99               	bsf	___fladd@signs& (0+255),6,b
  6118  0000AE                     l3261:
  6119                           
  6120                           ; BSR set to: 0
  6121  0000AE  5194               	movf	(___fladd@a+3)& (0+255),w,b
  6122  0000B0  2594               	addwf	(___fladd@a+3)& (0+255),w,b
  6123  0000B2  6F9A               	movwf	___fladd@aexp& (0+255),b
  6124  0000B4                     
  6125                           ; BSR set to: 0
  6126  0000B4  AF93               	btfss	(___fladd@a+2)& (0+255),7,b
  6127  0000B6  EF5F  F000         	goto	u2951
  6128  0000BA  EF61  F000         	goto	u2950
  6129  0000BE                     u2951:
  6130  0000BE  EF62  F000         	goto	l3267
  6131  0000C2                     u2950:
  6132  0000C2                     
  6133                           ; BSR set to: 0
  6134  0000C2  819A               	bsf	___fladd@aexp& (0+255),0,b
  6135  0000C4                     l3267:
  6136                           
  6137                           ; BSR set to: 0
  6138  0000C4  519A               	movf	___fladd@aexp& (0+255),w,b
  6139  0000C6  B4D8               	btfsc	status,2,c
  6140  0000C8  EF68  F000         	goto	u2961
  6141  0000CC  EF6A  F000         	goto	u2960
  6142  0000D0                     u2961:
  6143  0000D0  EF7F  F000         	goto	l3277
  6144  0000D4                     u2960:
  6145  0000D4                     
  6146                           ; BSR set to: 0
  6147  0000D4  299A               	incf	___fladd@aexp& (0+255),w,b
  6148  0000D6  A4D8               	btfss	status,2,c
  6149  0000D8  EF70  F000         	goto	u2971
  6150  0000DC  EF72  F000         	goto	u2970
  6151  0000E0                     u2971:
  6152  0000E0  EF7A  F000         	goto	l3273
  6153  0000E4                     u2970:
  6154  0000E4                     
  6155                           ; BSR set to: 0
  6156  0000E4  0E00               	movlw	0
  6157  0000E6  6F91               	movwf	___fladd@a& (0+255),b
  6158  0000E8  0E00               	movlw	0
  6159  0000EA  6F92               	movwf	(___fladd@a+1)& (0+255),b
  6160  0000EC  0E00               	movlw	0
  6161  0000EE  6F93               	movwf	(___fladd@a+2)& (0+255),b
  6162  0000F0  0E00               	movlw	0
  6163  0000F2  6F94               	movwf	(___fladd@a+3)& (0+255),b
  6164  0000F4                     l3273:
  6165                           
  6166                           ; BSR set to: 0
  6167  0000F4  8F93               	bsf	(___fladd@a+2)& (0+255),7,b
  6168  0000F6                     
  6169                           ; BSR set to: 0
  6170  0000F6  0E00               	movlw	0
  6171  0000F8  6F94               	movwf	(___fladd@a+3)& (0+255),b
  6172  0000FA  EF87  F000         	goto	l3279
  6173  0000FE                     l3277:
  6174                           
  6175                           ; BSR set to: 0
  6176  0000FE  0E00               	movlw	0
  6177  000100  6F91               	movwf	___fladd@a& (0+255),b
  6178  000102  0E00               	movlw	0
  6179  000104  6F92               	movwf	(___fladd@a+1)& (0+255),b
  6180  000106  0E00               	movlw	0
  6181  000108  6F93               	movwf	(___fladd@a+2)& (0+255),b
  6182  00010A  0E00               	movlw	0
  6183  00010C  6F94               	movwf	(___fladd@a+3)& (0+255),b
  6184  00010E                     l3279:
  6185                           
  6186                           ; BSR set to: 0
  6187  00010E  519B               	movf	___fladd@bexp& (0+255),w,b
  6188  000110  5D9A               	subwf	___fladd@aexp& (0+255),w,b
  6189  000112  B0D8               	btfsc	status,0,c
  6190  000114  EF8E  F000         	goto	u2981
  6191  000118  EF90  F000         	goto	u2980
  6192  00011C                     u2981:
  6193  00011C  EFB7  F000         	goto	l3315
  6194  000120                     u2980:
  6195  000120                     
  6196                           ; BSR set to: 0
  6197  000120  AD99               	btfss	___fladd@signs& (0+255),6,b
  6198  000122  EF95  F000         	goto	u2991
  6199  000126  EF97  F000         	goto	u2990
  6200  00012A                     u2991:
  6201  00012A  EF99  F000         	goto	l3285
  6202  00012E                     u2990:
  6203  00012E                     
  6204                           ; BSR set to: 0
  6205  00012E  0E80               	movlw	128
  6206  000130  1B99               	xorwf	___fladd@signs& (0+255),f,b
  6207  000132                     l3285:
  6208                           
  6209                           ; BSR set to: 0
  6210  000132  C09B  F09C         	movff	___fladd@bexp,___fladd@grs
  6211  000136                     
  6212                           ; BSR set to: 0
  6213  000136  C09A  F09B         	movff	___fladd@aexp,___fladd@bexp
  6214  00013A                     
  6215                           ; BSR set to: 0
  6216  00013A  C09C  F09A         	movff	___fladd@grs,___fladd@aexp
  6217  00013E                     
  6218                           ; BSR set to: 0
  6219  00013E  C08D  F09C         	movff	___fladd@b,___fladd@grs
  6220  000142                     
  6221                           ; BSR set to: 0
  6222  000142  C091  F08D         	movff	___fladd@a,___fladd@b
  6223  000146                     
  6224                           ; BSR set to: 0
  6225  000146  C09C  F091         	movff	___fladd@grs,___fladd@a
  6226  00014A                     
  6227                           ; BSR set to: 0
  6228  00014A  C08E  F09C         	movff	___fladd@b+1,___fladd@grs
  6229  00014E                     
  6230                           ; BSR set to: 0
  6231  00014E  C092  F08E         	movff	___fladd@a+1,___fladd@b+1
  6232  000152                     
  6233                           ; BSR set to: 0
  6234  000152  C09C  F092         	movff	___fladd@grs,___fladd@a+1
  6235  000156                     
  6236                           ; BSR set to: 0
  6237  000156  C08F  F09C         	movff	___fladd@b+2,___fladd@grs
  6238  00015A                     
  6239                           ; BSR set to: 0
  6240  00015A  C093  F08F         	movff	___fladd@a+2,___fladd@b+2
  6241  00015E                     
  6242                           ; BSR set to: 0
  6243  00015E  C09C  F093         	movff	___fladd@grs,___fladd@a+2
  6244  000162                     
  6245                           ; BSR set to: 0
  6246  000162  C090  F09C         	movff	___fladd@b+3,___fladd@grs
  6247  000166                     
  6248                           ; BSR set to: 0
  6249  000166  C094  F090         	movff	___fladd@a+3,___fladd@b+3
  6250  00016A                     
  6251                           ; BSR set to: 0
  6252  00016A  C09C  F094         	movff	___fladd@grs,___fladd@a+3
  6253  00016E                     l3315:
  6254                           
  6255                           ; BSR set to: 0
  6256  00016E  0E00               	movlw	0
  6257  000170  6F9C               	movwf	___fladd@grs& (0+255),b
  6258  000172                     
  6259                           ; BSR set to: 0
  6260  000172  519B               	movf	___fladd@bexp& (0+255),w,b
  6261  000174  C09A  F095         	movff	___fladd@aexp,??___fladd
  6262  000178  6B96               	clrf	(??___fladd+1)& (0+255),b
  6263  00017A  5F95               	subwf	??___fladd& (0+255),f,b
  6264  00017C  0E00               	movlw	0
  6265  00017E  5B96               	subwfb	(??___fladd+1)& (0+255),f,b
  6266  000180  BF96               	btfsc	(??___fladd+1)& (0+255),7,b
  6267  000182  EFCC  F000         	goto	u3001
  6268  000186  5196               	movf	(??___fladd+1)& (0+255),w,b
  6269  000188  E109               	bnz	u3000
  6270  00018A  0E1A               	movlw	26
  6271  00018C  5D95               	subwf	??___fladd& (0+255),w,b
  6272  00018E  A0D8               	btfss	status,0,c
  6273  000190  EFCC  F000         	goto	u3001
  6274  000194  EFCE  F000         	goto	u3000
  6275  000198                     u3001:
  6276  000198  EF05  F001         	goto	l1156
  6277  00019C                     u3000:
  6278  00019C                     
  6279                           ; BSR set to: 0
  6280  00019C  518D               	movf	___fladd@b& (0+255),w,b
  6281  00019E  118E               	iorwf	(___fladd@b+1)& (0+255),w,b
  6282  0001A0  118F               	iorwf	(___fladd@b+2)& (0+255),w,b
  6283  0001A2  1190               	iorwf	(___fladd@b+3)& (0+255),w,b
  6284  0001A4  A4D8               	btfss	status,2,c
  6285  0001A6  EFD7  F000         	goto	u3011
  6286  0001AA  EFDA  F000         	goto	u3010
  6287  0001AE                     u3011:
  6288  0001AE  0E01               	movlw	1
  6289  0001B0  EFDB  F000         	goto	u3020
  6290  0001B4                     u3010:
  6291  0001B4  0E00               	movlw	0
  6292  0001B6                     u3020:
  6293  0001B6  6F9C               	movwf	___fladd@grs& (0+255),b
  6294  0001B8                     
  6295                           ; BSR set to: 0
  6296  0001B8  0E00               	movlw	0
  6297  0001BA  6F8D               	movwf	___fladd@b& (0+255),b
  6298  0001BC  0E00               	movlw	0
  6299  0001BE  6F8E               	movwf	(___fladd@b+1)& (0+255),b
  6300  0001C0  0E00               	movlw	0
  6301  0001C2  6F8F               	movwf	(___fladd@b+2)& (0+255),b
  6302  0001C4  0E00               	movlw	0
  6303  0001C6  6F90               	movwf	(___fladd@b+3)& (0+255),b
  6304  0001C8                     
  6305                           ; BSR set to: 0
  6306  0001C8  C09A  F09B         	movff	___fladd@aexp,___fladd@bexp
  6307  0001CC  EF0E  F001         	goto	l1155
  6308  0001D0                     l1157:
  6309                           
  6310                           ; BSR set to: 0
  6311  0001D0  A19C               	btfss	___fladd@grs& (0+255),0,b
  6312  0001D2  EFED  F000         	goto	u3031
  6313  0001D6  EFEF  F000         	goto	u3030
  6314  0001DA                     u3031:
  6315  0001DA  EFF5  F000         	goto	l3327
  6316  0001DE                     u3030:
  6317  0001DE                     
  6318                           ; BSR set to: 0
  6319  0001DE  90D8               	bcf	status,0,c
  6320  0001E0  319C               	rrcf	___fladd@grs& (0+255),w,b
  6321  0001E2  0901               	iorlw	1
  6322  0001E4  6F9C               	movwf	___fladd@grs& (0+255),b
  6323  0001E6  EFF7  F000         	goto	l3329
  6324  0001EA                     l3327:
  6325                           
  6326                           ; BSR set to: 0
  6327  0001EA  90D8               	bcf	status,0,c
  6328  0001EC  339C               	rrcf	___fladd@grs& (0+255),f,b
  6329  0001EE                     l3329:
  6330                           
  6331                           ; BSR set to: 0
  6332  0001EE  A18D               	btfss	___fladd@b& (0+255),0,b
  6333  0001F0  EFFC  F000         	goto	u3041
  6334  0001F4  EFFE  F000         	goto	u3040
  6335  0001F8                     u3041:
  6336  0001F8  EFFF  F000         	goto	l3333
  6337  0001FC                     u3040:
  6338  0001FC                     
  6339                           ; BSR set to: 0
  6340  0001FC  8F9C               	bsf	___fladd@grs& (0+255),7,b
  6341  0001FE                     l3333:
  6342                           
  6343                           ; BSR set to: 0
  6344  0001FE  3590               	rlcf	(___fladd@b+3)& (0+255),w,b
  6345  000200  3390               	rrcf	(___fladd@b+3)& (0+255),f,b
  6346  000202  338F               	rrcf	(___fladd@b+2)& (0+255),f,b
  6347  000204  338E               	rrcf	(___fladd@b+1)& (0+255),f,b
  6348  000206  338D               	rrcf	___fladd@b& (0+255),f,b
  6349  000208                     
  6350                           ; BSR set to: 0
  6351  000208  2B9B               	incf	___fladd@bexp& (0+255),f,b
  6352  00020A                     l1156:
  6353                           
  6354                           ; BSR set to: 0
  6355  00020A  519A               	movf	___fladd@aexp& (0+255),w,b
  6356  00020C  5D9B               	subwf	___fladd@bexp& (0+255),w,b
  6357  00020E  A0D8               	btfss	status,0,c
  6358  000210  EF0C  F001         	goto	u3051
  6359  000214  EF0E  F001         	goto	u3050
  6360  000218                     u3051:
  6361  000218  EFE8  F000         	goto	l1157
  6362  00021C                     u3050:
  6363  00021C                     l1155:
  6364                           
  6365                           ; BSR set to: 0
  6366  00021C  BD99               	btfsc	___fladd@signs& (0+255),6,b
  6367  00021E  EF13  F001         	goto	u3061
  6368  000222  EF15  F001         	goto	u3060
  6369  000226                     u3061:
  6370  000226  EF55  F001         	goto	l3361
  6371  00022A                     u3060:
  6372  00022A                     
  6373                           ; BSR set to: 0
  6374  00022A  519B               	movf	___fladd@bexp& (0+255),w,b
  6375  00022C  A4D8               	btfss	status,2,c
  6376  00022E  EF1B  F001         	goto	u3071
  6377  000232  EF1D  F001         	goto	u3070
  6378  000236                     u3071:
  6379  000236  EF27  F001         	goto	l3343
  6380  00023A                     u3070:
  6381  00023A                     
  6382                           ; BSR set to: 0
  6383  00023A  0E00               	movlw	0
  6384  00023C  6F8D               	movwf	?___fladd& (0+255),b
  6385  00023E  0E00               	movlw	0
  6386  000240  6F8E               	movwf	(?___fladd+1)& (0+255),b
  6387  000242  0E00               	movlw	0
  6388  000244  6F8F               	movwf	(?___fladd+2)& (0+255),b
  6389  000246  0E00               	movlw	0
  6390  000248  6F90               	movwf	(?___fladd+3)& (0+255),b
  6391  00024A  EF76  F002         	goto	l1164
  6392  00024E                     l3343:
  6393                           
  6394                           ; BSR set to: 0
  6395  00024E  5191               	movf	___fladd@a& (0+255),w,b
  6396  000250  278D               	addwf	___fladd@b& (0+255),f,b
  6397  000252  5192               	movf	(___fladd@a+1)& (0+255),w,b
  6398  000254  238E               	addwfc	(___fladd@b+1)& (0+255),f,b
  6399  000256  5193               	movf	(___fladd@a+2)& (0+255),w,b
  6400  000258  238F               	addwfc	(___fladd@b+2)& (0+255),f,b
  6401  00025A  5194               	movf	(___fladd@a+3)& (0+255),w,b
  6402  00025C  2390               	addwfc	(___fladd@b+3)& (0+255),f,b
  6403  00025E                     
  6404                           ; BSR set to: 0
  6405  00025E  A190               	btfss	(___fladd@b+3)& (0+255),0,b
  6406  000260  EF34  F001         	goto	u3081
  6407  000264  EF36  F001         	goto	u3080
  6408  000268                     u3081:
  6409  000268  EFE2  F001         	goto	l3397
  6410  00026C                     u3080:
  6411  00026C                     
  6412                           ; BSR set to: 0
  6413  00026C  A19C               	btfss	___fladd@grs& (0+255),0,b
  6414  00026E  EF3B  F001         	goto	u3091
  6415  000272  EF3D  F001         	goto	u3090
  6416  000276                     u3091:
  6417  000276  EF43  F001         	goto	l3351
  6418  00027A                     u3090:
  6419  00027A                     
  6420                           ; BSR set to: 0
  6421  00027A  90D8               	bcf	status,0,c
  6422  00027C  319C               	rrcf	___fladd@grs& (0+255),w,b
  6423  00027E  0901               	iorlw	1
  6424  000280  6F9C               	movwf	___fladd@grs& (0+255),b
  6425  000282  EF45  F001         	goto	l3353
  6426  000286                     l3351:
  6427                           
  6428                           ; BSR set to: 0
  6429  000286  90D8               	bcf	status,0,c
  6430  000288  339C               	rrcf	___fladd@grs& (0+255),f,b
  6431  00028A                     l3353:
  6432                           
  6433                           ; BSR set to: 0
  6434  00028A  A18D               	btfss	___fladd@b& (0+255),0,b
  6435  00028C  EF4A  F001         	goto	u3101
  6436  000290  EF4C  F001         	goto	u3100
  6437  000294                     u3101:
  6438  000294  EF4D  F001         	goto	l3357
  6439  000298                     u3100:
  6440  000298                     
  6441                           ; BSR set to: 0
  6442  000298  8F9C               	bsf	___fladd@grs& (0+255),7,b
  6443  00029A                     l3357:
  6444                           
  6445                           ; BSR set to: 0
  6446  00029A  3590               	rlcf	(___fladd@b+3)& (0+255),w,b
  6447  00029C  3390               	rrcf	(___fladd@b+3)& (0+255),f,b
  6448  00029E  338F               	rrcf	(___fladd@b+2)& (0+255),f,b
  6449  0002A0  338E               	rrcf	(___fladd@b+1)& (0+255),f,b
  6450  0002A2  338D               	rrcf	___fladd@b& (0+255),f,b
  6451  0002A4                     
  6452                           ; BSR set to: 0
  6453  0002A4  2B9B               	incf	___fladd@bexp& (0+255),f,b
  6454  0002A6  EFE2  F001         	goto	l3397
  6455  0002AA                     l3361:
  6456                           
  6457                           ; BSR set to: 0
  6458  0002AA  5191               	movf	___fladd@a& (0+255),w,b
  6459  0002AC  5D8D               	subwf	___fladd@b& (0+255),w,b
  6460  0002AE  5192               	movf	(___fladd@a+1)& (0+255),w,b
  6461  0002B0  598E               	subwfb	(___fladd@b+1)& (0+255),w,b
  6462  0002B2  5193               	movf	(___fladd@a+2)& (0+255),w,b
  6463  0002B4  598F               	subwfb	(___fladd@b+2)& (0+255),w,b
  6464  0002B6  5190               	movf	(___fladd@b+3)& (0+255),w,b
  6465  0002B8  0A80               	xorlw	128
  6466  0002BA  6F95               	movwf	??___fladd& (0+255),b
  6467  0002BC  5194               	movf	(___fladd@a+3)& (0+255),w,b
  6468  0002BE  0A80               	xorlw	128
  6469  0002C0  5995               	subwfb	??___fladd& (0+255),w,b
  6470  0002C2  B0D8               	btfsc	status,0,c
  6471  0002C4  EF66  F001         	goto	u3111
  6472  0002C8  EF68  F001         	goto	u3110
  6473  0002CC                     u3111:
  6474  0002CC  EF93  F001         	goto	l3371
  6475  0002D0                     u3110:
  6476  0002D0                     
  6477                           ; BSR set to: 0
  6478  0002D0  518D               	movf	___fladd@b& (0+255),w,b
  6479  0002D2  5D91               	subwf	___fladd@a& (0+255),w,b
  6480  0002D4  6F95               	movwf	??___fladd& (0+255),b
  6481  0002D6  518E               	movf	(___fladd@b+1)& (0+255),w,b
  6482  0002D8  5992               	subwfb	(___fladd@a+1)& (0+255),w,b
  6483  0002DA  6F96               	movwf	(??___fladd+1)& (0+255),b
  6484  0002DC  518F               	movf	(___fladd@b+2)& (0+255),w,b
  6485  0002DE  5993               	subwfb	(___fladd@a+2)& (0+255),w,b
  6486  0002E0  6F97               	movwf	(??___fladd+2)& (0+255),b
  6487  0002E2  5190               	movf	(___fladd@b+3)& (0+255),w,b
  6488  0002E4  5994               	subwfb	(___fladd@a+3)& (0+255),w,b
  6489  0002E6  6F98               	movwf	(??___fladd+3)& (0+255),b
  6490  0002E8  0EFF               	movlw	255
  6491  0002EA  2595               	addwf	??___fladd& (0+255),w,b
  6492  0002EC  6F8D               	movwf	___fladd@b& (0+255),b
  6493  0002EE  0EFF               	movlw	255
  6494  0002F0  2196               	addwfc	(??___fladd+1)& (0+255),w,b
  6495  0002F2  6F8E               	movwf	(___fladd@b+1)& (0+255),b
  6496  0002F4  0EFF               	movlw	255
  6497  0002F6  2197               	addwfc	(??___fladd+2)& (0+255),w,b
  6498  0002F8  6F8F               	movwf	(___fladd@b+2)& (0+255),b
  6499  0002FA  0EFF               	movlw	255
  6500  0002FC  2198               	addwfc	(??___fladd+3)& (0+255),w,b
  6501  0002FE  6F90               	movwf	(___fladd@b+3)& (0+255),b
  6502  000300  0E80               	movlw	128
  6503  000302  1B99               	xorwf	___fladd@signs& (0+255),f,b
  6504  000304                     
  6505                           ; BSR set to: 0
  6506  000304  6D9C               	negf	___fladd@grs& (0+255),b
  6507  000306                     
  6508                           ; BSR set to: 0
  6509  000306  519C               	movf	___fladd@grs& (0+255),w,b
  6510  000308  A4D8               	btfss	status,2,c
  6511  00030A  EF89  F001         	goto	u3121
  6512  00030E  EF8B  F001         	goto	u3120
  6513  000312                     u3121:
  6514  000312  EF9B  F001         	goto	l1172
  6515  000316                     u3120:
  6516  000316                     
  6517                           ; BSR set to: 0
  6518  000316  0E01               	movlw	1
  6519  000318  278D               	addwf	___fladd@b& (0+255),f,b
  6520  00031A  0E00               	movlw	0
  6521  00031C  238E               	addwfc	(___fladd@b+1)& (0+255),f,b
  6522  00031E  238F               	addwfc	(___fladd@b+2)& (0+255),f,b
  6523  000320  2390               	addwfc	(___fladd@b+3)& (0+255),f,b
  6524  000322  EF9B  F001         	goto	l1172
  6525  000326                     l3371:
  6526                           
  6527                           ; BSR set to: 0
  6528  000326  5191               	movf	___fladd@a& (0+255),w,b
  6529  000328  5F8D               	subwf	___fladd@b& (0+255),f,b
  6530  00032A  5192               	movf	(___fladd@a+1)& (0+255),w,b
  6531  00032C  5B8E               	subwfb	(___fladd@b+1)& (0+255),f,b
  6532  00032E  5193               	movf	(___fladd@a+2)& (0+255),w,b
  6533  000330  5B8F               	subwfb	(___fladd@b+2)& (0+255),f,b
  6534  000332  5194               	movf	(___fladd@a+3)& (0+255),w,b
  6535  000334  5B90               	subwfb	(___fladd@b+3)& (0+255),f,b
  6536  000336                     l1172:
  6537                           
  6538                           ; BSR set to: 0
  6539  000336  518D               	movf	___fladd@b& (0+255),w,b
  6540  000338  118E               	iorwf	(___fladd@b+1)& (0+255),w,b
  6541  00033A  118F               	iorwf	(___fladd@b+2)& (0+255),w,b
  6542  00033C  1190               	iorwf	(___fladd@b+3)& (0+255),w,b
  6543  00033E  A4D8               	btfss	status,2,c
  6544  000340  EFA4  F001         	goto	u3131
  6545  000344  EFA6  F001         	goto	u3130
  6546  000348                     u3131:
  6547  000348  EFDB  F001         	goto	l3395
  6548  00034C                     u3130:
  6549  00034C                     
  6550                           ; BSR set to: 0
  6551  00034C  519C               	movf	___fladd@grs& (0+255),w,b
  6552  00034E  A4D8               	btfss	status,2,c
  6553  000350  EFAC  F001         	goto	u3141
  6554  000354  EFAE  F001         	goto	u3140
  6555  000358                     u3141:
  6556  000358  EFDB  F001         	goto	l3395
  6557  00035C                     u3140:
  6558  00035C                     
  6559                           ; BSR set to: 0
  6560  00035C  0E00               	movlw	0
  6561  00035E  6F8D               	movwf	?___fladd& (0+255),b
  6562  000360  0E00               	movlw	0
  6563  000362  6F8E               	movwf	(?___fladd+1)& (0+255),b
  6564  000364  0E00               	movlw	0
  6565  000366  6F8F               	movwf	(?___fladd+2)& (0+255),b
  6566  000368  0E00               	movlw	0
  6567  00036A  6F90               	movwf	(?___fladd+3)& (0+255),b
  6568  00036C  EF76  F002         	goto	l1164
  6569  000370                     l3379:
  6570                           
  6571                           ; BSR set to: 0
  6572  000370  90D8               	bcf	status,0,c
  6573  000372  378D               	rlcf	___fladd@b& (0+255),f,b
  6574  000374  378E               	rlcf	(___fladd@b+1)& (0+255),f,b
  6575  000376  378F               	rlcf	(___fladd@b+2)& (0+255),f,b
  6576  000378  3790               	rlcf	(___fladd@b+3)& (0+255),f,b
  6577  00037A                     
  6578                           ; BSR set to: 0
  6579  00037A  AF9C               	btfss	___fladd@grs& (0+255),7,b
  6580  00037C  EFC2  F001         	goto	u3151
  6581  000380  EFC4  F001         	goto	u3150
  6582  000384                     u3151:
  6583  000384  EFC5  F001         	goto	l3385
  6584  000388                     u3150:
  6585  000388                     
  6586                           ; BSR set to: 0
  6587  000388  818D               	bsf	___fladd@b& (0+255),0,b
  6588  00038A                     l3385:
  6589                           
  6590                           ; BSR set to: 0
  6591  00038A  A19C               	btfss	___fladd@grs& (0+255),0,b
  6592  00038C  EFCA  F001         	goto	u3161
  6593  000390  EFCC  F001         	goto	u3160
  6594  000394                     u3161:
  6595  000394  EFD0  F001         	goto	l3389
  6596  000398                     u3160:
  6597  000398                     
  6598                           ; BSR set to: 0
  6599  000398  80D8               	bsf	status,0,c
  6600  00039A  379C               	rlcf	___fladd@grs& (0+255),f,b
  6601  00039C  EFD2  F001         	goto	l3391
  6602  0003A0                     l3389:
  6603                           
  6604                           ; BSR set to: 0
  6605  0003A0  90D8               	bcf	status,0,c
  6606  0003A2  379C               	rlcf	___fladd@grs& (0+255),f,b
  6607  0003A4                     l3391:
  6608                           
  6609                           ; BSR set to: 0
  6610  0003A4  519B               	movf	___fladd@bexp& (0+255),w,b
  6611  0003A6  B4D8               	btfsc	status,2,c
  6612  0003A8  EFD8  F001         	goto	u3171
  6613  0003AC  EFDA  F001         	goto	u3170
  6614  0003B0                     u3171:
  6615  0003B0  EFDB  F001         	goto	l3395
  6616  0003B4                     u3170:
  6617  0003B4                     
  6618                           ; BSR set to: 0
  6619  0003B4  079B               	decf	___fladd@bexp& (0+255),f,b
  6620  0003B6                     l3395:
  6621                           
  6622                           ; BSR set to: 0
  6623  0003B6  AF8F               	btfss	(___fladd@b+2)& (0+255),7,b
  6624  0003B8  EFE0  F001         	goto	u3181
  6625  0003BC  EFE2  F001         	goto	u3180
  6626  0003C0                     u3181:
  6627  0003C0  EFB8  F001         	goto	l3379
  6628  0003C4                     u3180:
  6629  0003C4                     l3397:
  6630                           
  6631                           ; BSR set to: 0
  6632  0003C4  0E00               	movlw	0
  6633  0003C6  6F9A               	movwf	___fladd@aexp& (0+255),b
  6634  0003C8                     
  6635                           ; BSR set to: 0
  6636  0003C8  AF9C               	btfss	___fladd@grs& (0+255),7,b
  6637  0003CA  EFE9  F001         	goto	u3191
  6638  0003CE  EFEB  F001         	goto	u3190
  6639  0003D2                     u3191:
  6640  0003D2  EF03  F002         	goto	l1181
  6641  0003D6                     u3190:
  6642  0003D6                     
  6643                           ; BSR set to: 0
  6644  0003D6  C09C  F095         	movff	___fladd@grs,??___fladd
  6645  0003DA  0E7F               	movlw	127
  6646  0003DC  1795               	andwf	??___fladd& (0+255),f,b
  6647  0003DE  B4D8               	btfsc	status,2,c
  6648  0003E0  EFF4  F001         	goto	u3201
  6649  0003E4  EFF6  F001         	goto	u3200
  6650  0003E8                     u3201:
  6651  0003E8  EFFA  F001         	goto	l1182
  6652  0003EC                     u3200:
  6653  0003EC                     l3403:
  6654                           
  6655                           ; BSR set to: 0
  6656  0003EC  0E01               	movlw	1
  6657  0003EE  6F9A               	movwf	___fladd@aexp& (0+255),b
  6658  0003F0  EF03  F002         	goto	l1181
  6659  0003F4                     l1182:
  6660                           
  6661                           ; BSR set to: 0
  6662  0003F4  A18D               	btfss	___fladd@b& (0+255),0,b
  6663  0003F6  EFFF  F001         	goto	u3211
  6664  0003FA  EF01  F002         	goto	u3210
  6665  0003FE                     u3211:
  6666  0003FE  EF03  F002         	goto	l1181
  6667  000402                     u3210:
  6668  000402  EFF6  F001         	goto	l3403
  6669  000406                     l1181:
  6670                           
  6671                           ; BSR set to: 0
  6672  000406  519A               	movf	___fladd@aexp& (0+255),w,b
  6673  000408  B4D8               	btfsc	status,2,c
  6674  00040A  EF09  F002         	goto	u3221
  6675  00040E  EF0B  F002         	goto	u3220
  6676  000412                     u3221:
  6677  000412  EF36  F002         	goto	l3415
  6678  000416                     u3220:
  6679  000416                     
  6680                           ; BSR set to: 0
  6681  000416  0E01               	movlw	1
  6682  000418  278D               	addwf	___fladd@b& (0+255),f,b
  6683  00041A  0E00               	movlw	0
  6684  00041C  238E               	addwfc	(___fladd@b+1)& (0+255),f,b
  6685  00041E  238F               	addwfc	(___fladd@b+2)& (0+255),f,b
  6686  000420  2390               	addwfc	(___fladd@b+3)& (0+255),f,b
  6687  000422                     
  6688                           ; BSR set to: 0
  6689  000422  A190               	btfss	(___fladd@b+3)& (0+255),0,b
  6690  000424  EF16  F002         	goto	u3231
  6691  000428  EF18  F002         	goto	u3230
  6692  00042C                     u3231:
  6693  00042C  EF36  F002         	goto	l3415
  6694  000430                     u3230:
  6695  000430                     
  6696                           ; BSR set to: 0
  6697  000430  C08D  F095         	movff	___fladd@b,??___fladd
  6698  000434  C08E  F096         	movff	___fladd@b+1,??___fladd+1
  6699  000438  C08F  F097         	movff	___fladd@b+2,??___fladd+2
  6700  00043C  C090  F098         	movff	___fladd@b+3,??___fladd+3
  6701  000440  3598               	rlcf	(??___fladd+3)& (0+255),w,b
  6702  000442  3398               	rrcf	(??___fladd+3)& (0+255),f,b
  6703  000444  3397               	rrcf	(??___fladd+2)& (0+255),f,b
  6704  000446  3396               	rrcf	(??___fladd+1)& (0+255),f,b
  6705  000448  3395               	rrcf	??___fladd& (0+255),f,b
  6706  00044A  C095  F08D         	movff	??___fladd,___fladd@b
  6707  00044E  C096  F08E         	movff	??___fladd+1,___fladd@b+1
  6708  000452  C097  F08F         	movff	??___fladd+2,___fladd@b+2
  6709  000456  C098  F090         	movff	??___fladd+3,___fladd@b+3
  6710  00045A  299B               	incf	___fladd@bexp& (0+255),w,b
  6711  00045C  B4D8               	btfsc	status,2,c
  6712  00045E  EF33  F002         	goto	u3241
  6713  000462  EF35  F002         	goto	u3240
  6714  000466                     u3241:
  6715  000466  EF36  F002         	goto	l3415
  6716  00046A                     u3240:
  6717  00046A                     
  6718                           ; BSR set to: 0
  6719  00046A  2B9B               	incf	___fladd@bexp& (0+255),f,b
  6720  00046C                     l3415:
  6721                           
  6722                           ; BSR set to: 0
  6723  00046C  299B               	incf	___fladd@bexp& (0+255),w,b
  6724  00046E  B4D8               	btfsc	status,2,c
  6725  000470  EF3C  F002         	goto	u3251
  6726  000474  EF3E  F002         	goto	u3250
  6727  000478                     u3251:
  6728  000478  EF46  F002         	goto	l3419
  6729  00047C                     u3250:
  6730  00047C                     
  6731                           ; BSR set to: 0
  6732  00047C  519B               	movf	___fladd@bexp& (0+255),w,b
  6733  00047E  A4D8               	btfss	status,2,c
  6734  000480  EF44  F002         	goto	u3261
  6735  000484  EF46  F002         	goto	u3260
  6736  000488                     u3261:
  6737  000488  EF58  F002         	goto	l3423
  6738  00048C                     u3260:
  6739  00048C                     l3419:
  6740                           
  6741                           ; BSR set to: 0
  6742  00048C  0E00               	movlw	0
  6743  00048E  6F8D               	movwf	___fladd@b& (0+255),b
  6744  000490  0E00               	movlw	0
  6745  000492  6F8E               	movwf	(___fladd@b+1)& (0+255),b
  6746  000494  0E00               	movlw	0
  6747  000496  6F8F               	movwf	(___fladd@b+2)& (0+255),b
  6748  000498  0E00               	movlw	0
  6749  00049A  6F90               	movwf	(___fladd@b+3)& (0+255),b
  6750  00049C  519B               	movf	___fladd@bexp& (0+255),w,b
  6751  00049E  A4D8               	btfss	status,2,c
  6752  0004A0  EF54  F002         	goto	u3271
  6753  0004A4  EF56  F002         	goto	u3270
  6754  0004A8                     u3271:
  6755  0004A8  EF58  F002         	goto	l3423
  6756  0004AC                     u3270:
  6757  0004AC                     
  6758                           ; BSR set to: 0
  6759  0004AC  0E00               	movlw	0
  6760  0004AE  6F99               	movwf	___fladd@signs& (0+255),b
  6761  0004B0                     l3423:
  6762                           
  6763                           ; BSR set to: 0
  6764  0004B0  A19B               	btfss	___fladd@bexp& (0+255),0,b
  6765  0004B2  EF5D  F002         	goto	u3281
  6766  0004B6  EF5F  F002         	goto	u3280
  6767  0004BA                     u3281:
  6768  0004BA  EF62  F002         	goto	l3427
  6769  0004BE                     u3280:
  6770  0004BE                     
  6771                           ; BSR set to: 0
  6772  0004BE  8F8F               	bsf	(___fladd@b+2)& (0+255),7,b
  6773  0004C0  EF63  F002         	goto	l3429
  6774  0004C4                     l3427:
  6775                           
  6776                           ; BSR set to: 0
  6777  0004C4  9F8F               	bcf	(___fladd@b+2)& (0+255),7,b
  6778  0004C6                     l3429:
  6779                           
  6780                           ; BSR set to: 0
  6781  0004C6  90D8               	bcf	status,0,c
  6782  0004C8  319B               	rrcf	___fladd@bexp& (0+255),w,b
  6783  0004CA  6F90               	movwf	(___fladd@b+3)& (0+255),b
  6784  0004CC                     
  6785                           ; BSR set to: 0
  6786  0004CC  AF99               	btfss	___fladd@signs& (0+255),7,b
  6787  0004CE  EF6B  F002         	goto	u3291
  6788  0004D2  EF6D  F002         	goto	u3290
  6789  0004D6                     u3291:
  6790  0004D6  EF6E  F002         	goto	l3435
  6791  0004DA                     u3290:
  6792  0004DA                     
  6793                           ; BSR set to: 0
  6794  0004DA  8F90               	bsf	(___fladd@b+3)& (0+255),7,b
  6795  0004DC                     l3435:
  6796                           
  6797                           ; BSR set to: 0
  6798  0004DC  C08D  F08D         	movff	___fladd@b,?___fladd
  6799  0004E0  C08E  F08E         	movff	___fladd@b+1,?___fladd+1
  6800  0004E4  C08F  F08F         	movff	___fladd@b+2,?___fladd+2
  6801  0004E8  C090  F090         	movff	___fladd@b+3,?___fladd+3
  6802  0004EC                     l1164:
  6803                           
  6804                           ; BSR set to: 0
  6805  0004EC  0012               	return		;funcret
  6806  0004EE                     __end_of___fladd:
  6807                           	opt callstack 0
  6808                           
  6809 ;; *************** function _habilitarIntTMR1 *****************
  6810 ;; Defined at:
  6811 ;;		line 42 in file "Interrupciones.c"
  6812 ;; Parameters:    Size  Location     Type
  6813 ;;		None
  6814 ;; Auto vars:     Size  Location     Type
  6815 ;;		None
  6816 ;; Return value:  Size  Location     Type
  6817 ;;                  1    wreg      void 
  6818 ;; Registers used:
  6819 ;;		None
  6820 ;; Tracked objects:
  6821 ;;		On entry : 0/0
  6822 ;;		On exit  : 0/0
  6823 ;;		Unchanged: 0/0
  6824 ;; Data sizes:     COMRAM   BANK0   BANK1   BANK2   BANK3   BANK4   BANK5   BANK6   BANK7
  6825 ;;      Params:         0       0       0       0       0       0       0       0       0
  6826 ;;      Locals:         0       0       0       0       0       0       0       0       0
  6827 ;;      Temps:          0       0       0       0       0       0       0       0       0
  6828 ;;      Totals:         0       0       0       0       0       0       0       0       0
  6829 ;;Total ram usage:        0 bytes
  6830 ;; Hardware stack levels used:    1
  6831 ;; Hardware stack levels required when called:    5
  6832 ;; This function calls:
  6833 ;;		Nothing
  6834 ;; This function is called by:
  6835 ;;		_main
  6836 ;; This function uses a non-reentrant model
  6837 ;;
  6838                           
  6839                           	psect	text31
  6840  002784                     __ptext31:
  6841                           	opt callstack 0
  6842  002784                     _habilitarIntTMR1:
  6843                           	opt callstack 25
  6844  002784                     
  6845                           ;Interrupciones.c: 43:     PIE1bits.TMR1IE = 1;
  6846  002784  809D               	bsf	157,0,c	;volatile
  6847  002786  0012               	return		;funcret
  6848  002788                     __end_of_habilitarIntTMR1:
  6849                           	opt callstack 0
  6850                           
  6851 ;; *************** function _habilitarIntTMR0 *****************
  6852 ;; Defined at:
  6853 ;;		line 38 in file "Interrupciones.c"
  6854 ;; Parameters:    Size  Location     Type
  6855 ;;		None
  6856 ;; Auto vars:     Size  Location     Type
  6857 ;;		None
  6858 ;; Return value:  Size  Location     Type
  6859 ;;                  1    wreg      void 
  6860 ;; Registers used:
  6861 ;;		None
  6862 ;; Tracked objects:
  6863 ;;		On entry : 0/0
  6864 ;;		On exit  : 0/0
  6865 ;;		Unchanged: 0/0
  6866 ;; Data sizes:     COMRAM   BANK0   BANK1   BANK2   BANK3   BANK4   BANK5   BANK6   BANK7
  6867 ;;      Params:         0       0       0       0       0       0       0       0       0
  6868 ;;      Locals:         0       0       0       0       0       0       0       0       0
  6869 ;;      Temps:          0       0       0       0       0       0       0       0       0
  6870 ;;      Totals:         0       0       0       0       0       0       0       0       0
  6871 ;;Total ram usage:        0 bytes
  6872 ;; Hardware stack levels used:    1
  6873 ;; Hardware stack levels required when called:    5
  6874 ;; This function calls:
  6875 ;;		Nothing
  6876 ;; This function is called by:
  6877 ;;		_main
  6878 ;; This function uses a non-reentrant model
  6879 ;;
  6880                           
  6881                           	psect	text32
  6882  002788                     __ptext32:
  6883                           	opt callstack 0
  6884  002788                     _habilitarIntTMR0:
  6885                           	opt callstack 25
  6886  002788                     
  6887                           ;Interrupciones.c: 39:     INTCONbits.TMR0IE = 1;
  6888  002788  8AF2               	bsf	242,5,c	;volatile
  6889  00278A  0012               	return		;funcret
  6890  00278C                     __end_of_habilitarIntTMR0:
  6891                           	opt callstack 0
  6892                           
  6893 ;; *************** function _funcionToques *****************
  6894 ;; Defined at:
  6895 ;;		line 45 in file "FuncionesMenu.c"
  6896 ;; Parameters:    Size  Location     Type
  6897 ;;		None
  6898 ;; Auto vars:     Size  Location     Type
  6899 ;;		None
  6900 ;; Return value:  Size  Location     Type
  6901 ;;                  1    wreg      void 
  6902 ;; Registers used:
  6903 ;;		wreg, status,2, status,0, tblptrl, tblptrh, tblptru, prodl, prodh, cstack
  6904 ;; Tracked objects:
  6905 ;;		On entry : 0/0
  6906 ;;		On exit  : 0/0
  6907 ;;		Unchanged: 0/0
  6908 ;; Data sizes:     COMRAM   BANK0   BANK1   BANK2   BANK3   BANK4   BANK5   BANK6   BANK7
  6909 ;;      Params:         0       0       0       0       0       0       0       0       0
  6910 ;;      Locals:         0       0       0       0       0       0       0       0       0
  6911 ;;      Temps:          0       0       0       0       0       0       0       0       0
  6912 ;;      Totals:         0       0       0       0       0       0       0       0       0
  6913 ;;Total ram usage:        0 bytes
  6914 ;; Hardware stack levels used:    1
  6915 ;; Hardware stack levels required when called:    9
  6916 ;; This function calls:
  6917 ;;		_presionarPantalla
  6918 ;;		_printf
  6919 ;;		_receiveNum
  6920 ;; This function is called by:
  6921 ;;		_main
  6922 ;; This function uses a non-reentrant model
  6923 ;;
  6924                           
  6925                           	psect	text33
  6926  0025A2                     __ptext33:
  6927                           	opt callstack 0
  6928  0025A2                     _funcionToques:
  6929                           	opt callstack 21
  6930  0025A2                     
  6931                           ;FuncionesMenu.c: 46:     printf("TocarPantalla:\n");
  6932  0025A2  0E50               	movlw	low STR_7
  6933  0025A4  0100               	movlb	0	; () banked
  6934  0025A6  6F63               	movwf	printf@PointString& (0+255),b
  6935  0025A8  0E7F               	movlw	high STR_7
  6936  0025AA  6F64               	movwf	(printf@PointString+1)& (0+255),b
  6937  0025AC  EC93  F011         	call	_printf	;wreg free
  6938                           
  6939                           ;FuncionesMenu.c: 47:     presionarZCentenas = receiveNum();
  6940  0025B0  EC21  F011         	call	_receiveNum	;wreg free
  6941  0025B4  0100               	movlb	0	; () banked
  6942  0025B6  6FD8               	movwf	_presionarZCentenas& (0+255),b
  6943                           
  6944                           ;FuncionesMenu.c: 48:     presionarZDecenas = receiveNum();
  6945  0025B8  EC21  F011         	call	_receiveNum	;wreg free
  6946  0025BC  0100               	movlb	0	; () banked
  6947  0025BE  6FD7               	movwf	_presionarZDecenas& (0+255),b
  6948                           
  6949                           ;FuncionesMenu.c: 49:     presionarZUnidades = receiveNum();
  6950  0025C0  EC21  F011         	call	_receiveNum	;wreg free
  6951  0025C4  0100               	movlb	0	; () banked
  6952  0025C6  6FD6               	movwf	_presionarZUnidades& (0+255),b
  6953  0025C8                     
  6954                           ; BSR set to: 0
  6955                           ;FuncionesMenu.c: 50:     presionarPantalla(presionarZCentenas, presionarZDecenas, presi
      +                          onarZUnidades);
  6956  0025C8  C0D7  F061         	movff	_presionarZDecenas,presionarPantalla@presionarZDecenas
  6957  0025CC  C0D6  F062         	movff	_presionarZUnidades,presionarPantalla@presionarZUnidades
  6958  0025D0  51D8               	movf	_presionarZCentenas& (0+255),w,b
  6959  0025D2  ECCE  F010         	call	_presionarPantalla
  6960  0025D6  0012               	return		;funcret
  6961  0025D8                     __end_of_funcionToques:
  6962                           	opt callstack 0
  6963                           
  6964 ;; *************** function _receiveNum *****************
  6965 ;; Defined at:
  6966 ;;		line 25 in file "Comunicacion.c"
  6967 ;; Parameters:    Size  Location     Type
  6968 ;;		None
  6969 ;; Auto vars:     Size  Location     Type
  6970 ;;  recibido        1    8[BANK0 ] unsigned char 
  6971 ;; Return value:  Size  Location     Type
  6972 ;;                  1    wreg      unsigned char 
  6973 ;; Registers used:
  6974 ;;		wreg, status,2, status,0, tblptrl, tblptrh, tblptru, cstack
  6975 ;; Tracked objects:
  6976 ;;		On entry : 0/0
  6977 ;;		On exit  : 0/0
  6978 ;;		Unchanged: 0/0
  6979 ;; Data sizes:     COMRAM   BANK0   BANK1   BANK2   BANK3   BANK4   BANK5   BANK6   BANK7
  6980 ;;      Params:         0       0       0       0       0       0       0       0       0
  6981 ;;      Locals:         0       1       0       0       0       0       0       0       0
  6982 ;;      Temps:          0       0       0       0       0       0       0       0       0
  6983 ;;      Totals:         0       1       0       0       0       0       0       0       0
  6984 ;;Total ram usage:        1 bytes
  6985 ;; Hardware stack levels used:    1
  6986 ;; Hardware stack levels required when called:    8
  6987 ;; This function calls:
  6988 ;;		_errorUART
  6989 ;;		_printf
  6990 ;; This function is called by:
  6991 ;;		_moverHaciaXY
  6992 ;;		_funcionToques
  6993 ;;		_slidePiston
  6994 ;; This function uses a non-reentrant model
  6995 ;;
  6996                           
  6997                           	psect	text34
  6998  002242                     __ptext34:
  6999                           	opt callstack 0
  7000  002242                     _receiveNum:
  7001                           	opt callstack 21
  7002  002242                     
  7003                           ;Comunicacion.c: 26:     errorUART();
  7004  002242  ECFA  F011         	call	_errorUART	;wreg free
  7005  002246                     
  7006                           ;Comunicacion.c: 27:     uint8_t recibido = 0;
  7007  002246  0E00               	movlw	0
  7008  002248  0100               	movlb	0	; () banked
  7009  00224A  6F68               	movwf	receiveNum@recibido& (0+255),b
  7010                           
  7011                           ;Comunicacion.c: 28:     while (recibido > 57 || recibido < 48) {
  7012  00224C  EF4A  F011         	goto	l3147
  7013  002250                     l197:
  7014                           
  7015                           ;Comunicacion.c: 30:         while (PIR1bits.RCIF == 0) {
  7016  002250  AA9E               	btfss	158,5,c	;volatile
  7017  002252  EF2D  F011         	goto	u2761
  7018  002256  EF2F  F011         	goto	u2760
  7019  00225A                     u2761:
  7020  00225A  EF28  F011         	goto	l197
  7021  00225E                     u2760:
  7022  00225E                     
  7023                           ;Comunicacion.c: 33:         recibido = RCREG1;
  7024  00225E  CFAE F068          	movff	4014,receiveNum@recibido	;volatile
  7025  002262                     
  7026                           ;Comunicacion.c: 34:         RCREG1 = 0;
  7027  002262  0E00               	movlw	0
  7028  002264  6EAE               	movwf	174,c	;volatile
  7029  002266                     
  7030                           ;Comunicacion.c: 35:         if (recibido > 57 || recibido < 48) {
  7031  002266  0E3A               	movlw	58
  7032  002268  0100               	movlb	0	; () banked
  7033  00226A  6168               	cpfslt	receiveNum@recibido& (0+255),b
  7034  00226C  EF3A  F011         	goto	u2771
  7035  002270  EF3C  F011         	goto	u2770
  7036  002274                     u2771:
  7037  002274  EF44  F011         	goto	l3145
  7038  002278                     u2770:
  7039  002278                     
  7040                           ; BSR set to: 0
  7041  002278  0E30               	movlw	48
  7042  00227A  6168               	cpfslt	receiveNum@recibido& (0+255),b
  7043  00227C  EF42  F011         	goto	u2781
  7044  002280  EF44  F011         	goto	u2780
  7045  002284                     u2781:
  7046  002284  EF4A  F011         	goto	l3147
  7047  002288                     u2780:
  7048  002288                     l3145:
  7049                           
  7050                           ; BSR set to: 0
  7051                           ;Comunicacion.c: 37:             printf("Solo puedes introducir numeros, prueba de nuevo
      +                          ");
  7052  002288  0E8B               	movlw	low STR_1
  7053  00228A  6F63               	movwf	printf@PointString& (0+255),b
  7054  00228C  0E7D               	movlw	high STR_1
  7055  00228E  6F64               	movwf	(printf@PointString+1)& (0+255),b
  7056  002290  EC93  F011         	call	_printf	;wreg free
  7057  002294                     l3147:
  7058                           
  7059                           ;Comunicacion.c: 28:     while (recibido > 57 || recibido < 48) {
  7060  002294  0E3A               	movlw	58
  7061  002296  0100               	movlb	0	; () banked
  7062  002298  6168               	cpfslt	receiveNum@recibido& (0+255),b
  7063  00229A  EF51  F011         	goto	u2791
  7064  00229E  EF53  F011         	goto	u2790
  7065  0022A2                     u2791:
  7066  0022A2  EF28  F011         	goto	l197
  7067  0022A6                     u2790:
  7068  0022A6                     
  7069                           ; BSR set to: 0
  7070  0022A6  0E2F               	movlw	47
  7071  0022A8  6568               	cpfsgt	receiveNum@recibido& (0+255),b
  7072  0022AA  EF59  F011         	goto	u2801
  7073  0022AE  EF5B  F011         	goto	u2800
  7074  0022B2                     u2801:
  7075  0022B2  EF28  F011         	goto	l197
  7076  0022B6                     u2800:
  7077  0022B6                     
  7078                           ; BSR set to: 0
  7079                           ;Comunicacion.c: 40:     return recibido;
  7080  0022B6  5168               	movf	receiveNum@recibido& (0+255),w,b
  7081  0022B8                     
  7082                           ; BSR set to: 0
  7083  0022B8  0012               	return		;funcret
  7084  0022BA                     __end_of_receiveNum:
  7085                           	opt callstack 0
  7086                           
  7087 ;; *************** function _printf *****************
  7088 ;; Defined at:
  7089 ;;		line 6 in file "Comunicacion.c"
  7090 ;; Parameters:    Size  Location     Type
  7091 ;;  PointString     2    3[BANK0 ] PTR unsigned char 
  7092 ;;		 -> STR_44(7), STR_43(9), STR_42(9), STR_41(26), 
  7093 ;;		 -> STR_40(9), STR_39(9), STR_38(28), STR_37(9), 
  7094 ;;		 -> STR_36(34), STR_35(9), STR_34(27), STR_33(9), 
  7095 ;;		 -> STR_32(9), STR_31(40), STR_30(9), STR_29(9), 
  7096 ;;		 -> STR_28(46), STR_27(9), STR_26(9), STR_25(31), 
  7097 ;;		 -> STR_24(9), STR_23(14), STR_22(64), STR_21(42), 
  7098 ;;		 -> STR_20(42), STR_19(46), STR_18(52), STR_17(52), 
  7099 ;;		 -> STR_16(11), STR_15(15), STR_14(11), STR_13(15), 
  7100 ;;		 -> STR_12(10), STR_11(11), STR_10(11), STR_9(6), 
  7101 ;;		 -> STR_8(4), STR_7(16), STR_6(43), STR_5(8), 
  7102 ;;		 -> STR_4(52), STR_3(4), STR_2(4), STR_1(48), 
  7103 ;; Auto vars:     Size  Location     Type
  7104 ;;  i               1    7[BANK0 ] unsigned char 
  7105 ;; Return value:  Size  Location     Type
  7106 ;;                  1    wreg      void 
  7107 ;; Registers used:
  7108 ;;		wreg, status,2, status,0, tblptrl, tblptrh, tblptru, cstack
  7109 ;; Tracked objects:
  7110 ;;		On entry : 0/0
  7111 ;;		On exit  : 0/0
  7112 ;;		Unchanged: 0/0
  7113 ;; Data sizes:     COMRAM   BANK0   BANK1   BANK2   BANK3   BANK4   BANK5   BANK6   BANK7
  7114 ;;      Params:         0       2       0       0       0       0       0       0       0
  7115 ;;      Locals:         0       1       0       0       0       0       0       0       0
  7116 ;;      Temps:          0       2       0       0       0       0       0       0       0
  7117 ;;      Totals:         0       5       0       0       0       0       0       0       0
  7118 ;;Total ram usage:        5 bytes
  7119 ;; Hardware stack levels used:    1
  7120 ;; Hardware stack levels required when called:    7
  7121 ;; This function calls:
  7122 ;;		_errorUART
  7123 ;;		_send
  7124 ;; This function is called by:
  7125 ;;		_receiveNum
  7126 ;;		_moverHaciaXY
  7127 ;;		_funcionToques
  7128 ;;		_impCoordActual
  7129 ;;		_modificarZ
  7130 ;;		_moverHaciaY
  7131 ;;		_moverHaciaX
  7132 ;;		_main
  7133 ;; This function uses a non-reentrant model
  7134 ;;
  7135                           
  7136                           	psect	text35
  7137  002326                     __ptext35:
  7138                           	opt callstack 0
  7139  002326                     _printf:
  7140                           	opt callstack 21
  7141  002326                     
  7142                           ;Comunicacion.c: 7:     errorUART();
  7143  002326  ECFA  F011         	call	_errorUART	;wreg free
  7144  00232A                     
  7145                           ;Comunicacion.c: 8:     for (unsigned char i = 0; i < 255; i++) {
  7146  00232A  0E00               	movlw	0
  7147  00232C  0100               	movlb	0	; () banked
  7148  00232E  6F67               	movwf	printf@i& (0+255),b
  7149  002330                     l2867:
  7150                           
  7151                           ; BSR set to: 0
  7152                           ;Comunicacion.c: 10:         if (PointString[i] == ((void*)0)) {
  7153  002330  5167               	movf	printf@i& (0+255),w,b
  7154  002332  2563               	addwf	printf@PointString& (0+255),w,b
  7155  002334  6F65               	movwf	??_printf& (0+255),b
  7156  002336  0E00               	movlw	0
  7157  002338  2164               	addwfc	(printf@PointString+1)& (0+255),w,b
  7158  00233A  6F66               	movwf	(??_printf+1)& (0+255),b
  7159  00233C  C065  FFF6         	movff	??_printf,tblptrl
  7160  002340  C066  FFF7         	movff	??_printf+1,tblptrh
  7161  002344                     	if	0	;tblptru may be non-zero
  7162  002344                     	endif
  7163  002344                     	if	0	;tblptru may be non-zero
  7164  002344                     	endif
  7165  002344  0008               	tblrd		*
  7166  002346  50F5               	movf	tablat,w,c
  7167  002348  0900               	iorlw	0
  7168  00234A  A4D8               	btfss	status,2,c
  7169  00234C  EFAA  F011         	goto	u2311
  7170  002350  EFAC  F011         	goto	u2310
  7171  002354                     u2311:
  7172  002354  EFAE  F011         	goto	l2873
  7173  002358                     u2310:
  7174  002358  EFC6  F011         	goto	l186
  7175  00235C                     l2873:
  7176                           
  7177                           ; BSR set to: 0
  7178                           ;Comunicacion.c: 13:             send(PointString[i]);
  7179  00235C  5167               	movf	printf@i& (0+255),w,b
  7180  00235E  2563               	addwf	printf@PointString& (0+255),w,b
  7181  002360  6F65               	movwf	??_printf& (0+255),b
  7182  002362  0E00               	movlw	0
  7183  002364  2164               	addwfc	(printf@PointString+1)& (0+255),w,b
  7184  002366  6F66               	movwf	(??_printf+1)& (0+255),b
  7185  002368  C065  FFF6         	movff	??_printf,tblptrl
  7186  00236C  C066  FFF7         	movff	??_printf+1,tblptrh
  7187  002370                     	if	0	;tblptru may be non-zero
  7188  002370                     	endif
  7189  002370                     	if	0	;tblptru may be non-zero
  7190  002370                     	endif
  7191  002370  0008               	tblrd		*
  7192  002372  50F5               	movf	tablat,w,c
  7193  002374  EC43  F013         	call	_send
  7194  002378                     
  7195                           ;Comunicacion.c: 14:     }
  7196  002378  0100               	movlb	0	; () banked
  7197  00237A  2B67               	incf	printf@i& (0+255),f,b
  7198  00237C                     
  7199                           ; BSR set to: 0
  7200  00237C  2967               	incf	printf@i& (0+255),w,b
  7201  00237E  A4D8               	btfss	status,2,c
  7202  002380  EFC4  F011         	goto	u2321
  7203  002384  EFC6  F011         	goto	u2320
  7204  002388                     u2321:
  7205  002388  EF98  F011         	goto	l2867
  7206  00238C                     u2320:
  7207  00238C                     l186:
  7208                           
  7209                           ; BSR set to: 0
  7210  00238C  0012               	return		;funcret
  7211  00238E                     __end_of_printf:
  7212                           	opt callstack 0
  7213                           
  7214 ;; *************** function _send *****************
  7215 ;; Defined at:
  7216 ;;		line 34 in file "UART.c"
  7217 ;; Parameters:    Size  Location     Type
  7218 ;;  enviarpc        1    wreg     unsigned char 
  7219 ;; Auto vars:     Size  Location     Type
  7220 ;;  enviarpc        1    2[BANK0 ] unsigned char 
  7221 ;; Return value:  Size  Location     Type
  7222 ;;                  1    wreg      void 
  7223 ;; Registers used:
  7224 ;;		wreg, cstack
  7225 ;; Tracked objects:
  7226 ;;		On entry : 0/0
  7227 ;;		On exit  : 0/0
  7228 ;;		Unchanged: 0/0
  7229 ;; Data sizes:     COMRAM   BANK0   BANK1   BANK2   BANK3   BANK4   BANK5   BANK6   BANK7
  7230 ;;      Params:         0       0       0       0       0       0       0       0       0
  7231 ;;      Locals:         0       1       0       0       0       0       0       0       0
  7232 ;;      Temps:          0       0       0       0       0       0       0       0       0
  7233 ;;      Totals:         0       1       0       0       0       0       0       0       0
  7234 ;;Total ram usage:        1 bytes
  7235 ;; Hardware stack levels used:    1
  7236 ;; Hardware stack levels required when called:    6
  7237 ;; This function calls:
  7238 ;;		_errorUART
  7239 ;; This function is called by:
  7240 ;;		_printf
  7241 ;;		_moverHaciaXY
  7242 ;;		_impCoordActual
  7243 ;;		_moverHaciaY
  7244 ;;		_moverHaciaX
  7245 ;; This function uses a non-reentrant model
  7246 ;;
  7247                           
  7248                           	psect	text36
  7249  002686                     __ptext36:
  7250                           	opt callstack 0
  7251  002686                     _send:
  7252                           	opt callstack 21
  7253                           
  7254                           ; BSR set to: 0
  7255                           ;incstack = 0
  7256                           ;send@enviarpc stored from wreg
  7257  002686  0100               	movlb	0	; () banked
  7258  002688  6F62               	movwf	send@enviarpc& (0+255),b
  7259  00268A                     
  7260                           ;UART.c: 35:     errorUART();
  7261  00268A  ECFA  F011         	call	_errorUART	;wreg free
  7262  00268E                     l75:
  7263                           
  7264                           ;UART.c: 36:     while (TXSTA1bits.TRMT == 0) {
  7265  00268E  A2AC               	btfss	172,1,c	;volatile
  7266  002690  EF4C  F013         	goto	u1941
  7267  002694  EF4E  F013         	goto	u1940
  7268  002698                     u1941:
  7269  002698  EF47  F013         	goto	l75
  7270  00269C                     u1940:
  7271  00269C                     
  7272                           ;UART.c: 39:     TXREG1 = enviarpc;
  7273  00269C  C062  FFAD         	movff	send@enviarpc,4013	;volatile
  7274  0026A0  0012               	return		;funcret
  7275  0026A2                     __end_of_send:
  7276                           	opt callstack 0
  7277                           
  7278 ;; *************** function _errorUART *****************
  7279 ;; Defined at:
  7280 ;;		line 42 in file "UART.c"
  7281 ;; Parameters:    Size  Location     Type
  7282 ;;		None
  7283 ;; Auto vars:     Size  Location     Type
  7284 ;;  temp            1    1[BANK0 ] unsigned char 
  7285 ;; Return value:  Size  Location     Type
  7286 ;;                  1    wreg      void 
  7287 ;; Registers used:
  7288 ;;		wreg
  7289 ;; Tracked objects:
  7290 ;;		On entry : 0/0
  7291 ;;		On exit  : 0/0
  7292 ;;		Unchanged: 0/0
  7293 ;; Data sizes:     COMRAM   BANK0   BANK1   BANK2   BANK3   BANK4   BANK5   BANK6   BANK7
  7294 ;;      Params:         0       0       0       0       0       0       0       0       0
  7295 ;;      Locals:         0       1       0       0       0       0       0       0       0
  7296 ;;      Temps:          0       0       0       0       0       0       0       0       0
  7297 ;;      Totals:         0       1       0       0       0       0       0       0       0
  7298 ;;Total ram usage:        1 bytes
  7299 ;; Hardware stack levels used:    1
  7300 ;; Hardware stack levels required when called:    5
  7301 ;; This function calls:
  7302 ;;		Nothing
  7303 ;; This function is called by:
  7304 ;;		_receive
  7305 ;;		_send
  7306 ;;		_printf
  7307 ;;		_scanf
  7308 ;;		_receiveNum
  7309 ;; This function uses a non-reentrant model
  7310 ;;
  7311                           
  7312                           	psect	text37
  7313  0023F4                     __ptext37:
  7314                           	opt callstack 0
  7315  0023F4                     _errorUART:
  7316                           	opt callstack 21
  7317  0023F4                     
  7318                           ;UART.c: 45:     uint8_t temp;;UART.c: 46:     if (OERR) {
  7319  0023F4  A2AB               	btfss	4011,1,c	;volatile
  7320  0023F6  EFFF  F011         	goto	u1911
  7321  0023FA  EF01  F012         	goto	u1910
  7322  0023FE                     u1911:
  7323  0023FE  EF12  F012         	goto	l81
  7324  002402                     u1910:
  7325  002402                     l82:
  7326                           
  7327                           ;UART.c: 48:             temp = RCREG;
  7328  002402  CFAE F061          	movff	4014,errorUART@temp	;volatile
  7329                           
  7330                           ;UART.c: 49:             temp = RCREG;
  7331  002406  CFAE F061          	movff	4014,errorUART@temp	;volatile
  7332                           
  7333                           ;UART.c: 50:             temp = RCREG;
  7334  00240A  CFAE F061          	movff	4014,errorUART@temp	;volatile
  7335                           
  7336                           ;UART.c: 51:             temp = RCREG;
  7337  00240E  CFAE F061          	movff	4014,errorUART@temp	;volatile
  7338                           
  7339                           ;UART.c: 52:             CREN = 0;
  7340  002412  98AB               	bcf	4011,4,c	;volatile
  7341                           
  7342                           ;UART.c: 53:             CREN = 1;
  7343  002414  88AB               	bsf	4011,4,c	;volatile
  7344                           
  7345                           ;UART.c: 55:         } while (OERR);
  7346  002416  B2AB               	btfsc	4011,1,c	;volatile
  7347  002418  EF10  F012         	goto	u1921
  7348  00241C  EF12  F012         	goto	u1920
  7349  002420                     u1921:
  7350  002420  EF01  F012         	goto	l82
  7351  002424                     u1920:
  7352  002424                     l81:
  7353                           
  7354                           ;UART.c: 58:     if (FERR) {
  7355  002424  A4AB               	btfss	4011,2,c	;volatile
  7356  002426  EF17  F012         	goto	u1931
  7357  00242A  EF19  F012         	goto	u1930
  7358  00242E                     u1931:
  7359  00242E  EF1C  F012         	goto	l85
  7360  002432                     u1930:
  7361  002432  50AE               	movf	174,w,c	;volatile
  7362                           
  7363                           ;UART.c: 60:         TXEN = 0;
  7364  002434  9AAC               	bcf	4012,5,c	;volatile
  7365                           
  7366                           ;UART.c: 61:         TXEN = 1;
  7367  002436  8AAC               	bsf	4012,5,c	;volatile
  7368  002438                     l85:
  7369  002438  0012               	return		;funcret
  7370  00243A                     __end_of_errorUART:
  7371                           	opt callstack 0
  7372                           
  7373 ;; *************** function _presionarPantalla *****************
  7374 ;; Defined at:
  7375 ;;		line 69 in file "MotoresXYZ.c"
  7376 ;; Parameters:    Size  Location     Type
  7377 ;;  presionarZCe    1    wreg     unsigned char 
  7378 ;;  presionarZDe    1    1[BANK0 ] unsigned char 
  7379 ;;  presionarZUn    1    2[BANK0 ] unsigned char 
  7380 ;; Auto vars:     Size  Location     Type
  7381 ;;  presionarZCe    1    5[BANK0 ] unsigned char 
  7382 ;;  toques          1    6[BANK0 ] unsigned char 
  7383 ;; Return value:  Size  Location     Type
  7384 ;;                  1    wreg      void 
  7385 ;; Registers used:
  7386 ;;		wreg, status,2, status,0, prodl, prodh
  7387 ;; Tracked objects:
  7388 ;;		On entry : 0/0
  7389 ;;		On exit  : 0/0
  7390 ;;		Unchanged: 0/0
  7391 ;; Data sizes:     COMRAM   BANK0   BANK1   BANK2   BANK3   BANK4   BANK5   BANK6   BANK7
  7392 ;;      Params:         0       2       0       0       0       0       0       0       0
  7393 ;;      Locals:         0       2       0       0       0       0       0       0       0
  7394 ;;      Temps:          0       2       0       0       0       0       0       0       0
  7395 ;;      Totals:         0       6       0       0       0       0       0       0       0
  7396 ;;Total ram usage:        6 bytes
  7397 ;; Hardware stack levels used:    1
  7398 ;; Hardware stack levels required when called:    5
  7399 ;; This function calls:
  7400 ;;		Nothing
  7401 ;; This function is called by:
  7402 ;;		_funcionToques
  7403 ;; This function uses a non-reentrant model
  7404 ;;
  7405                           
  7406                           	psect	text38
  7407  00219C                     __ptext38:
  7408                           	opt callstack 0
  7409  00219C                     _presionarPantalla:
  7410                           	opt callstack 24
  7411                           
  7412                           ;incstack = 0
  7413                           ;presionarPantalla@presionarZCentenas stored from wreg
  7414  00219C  0100               	movlb	0	; () banked
  7415  00219E  6F65               	movwf	presionarPantalla@presionarZCentenas& (0+255),b
  7416  0021A0                     
  7417                           ;MotoresXYZ.c: 70:     coordinates.timesToPress = ((presionarZCentenas - 48)*100)+((pres
      +                          ionarZDecenas - 48)*10)+(presionarZUnidades - 48);
  7418  0021A0  0100               	movlb	0	; () banked
  7419  0021A2  5165               	movf	presionarPantalla@presionarZCentenas& (0+255),w,b
  7420  0021A4  0D64               	mullw	100
  7421  0021A6  CFF3 F063          	movff	prodl,??_presionarPantalla
  7422  0021AA  CFF4 F064          	movff	prodh,??_presionarPantalla+1
  7423  0021AE  5161               	movf	presionarPantalla@presionarZDecenas& (0+255),w,b
  7424  0021B0  0D0A               	mullw	10
  7425  0021B2  50F3               	movf	243,w,c
  7426  0021B4  2763               	addwf	??_presionarPantalla& (0+255),f,b
  7427  0021B6  50F4               	movf	244,w,c
  7428  0021B8  2364               	addwfc	(??_presionarPantalla+1)& (0+255),f,b
  7429  0021BA  5162               	movf	presionarPantalla@presionarZUnidades& (0+255),w,b
  7430  0021BC  2763               	addwf	??_presionarPantalla& (0+255),f,b
  7431  0021BE  0E00               	movlw	0
  7432  0021C0  2364               	addwfc	(??_presionarPantalla+1)& (0+255),f,b
  7433  0021C2  0E30               	movlw	48
  7434  0021C4  2563               	addwf	??_presionarPantalla& (0+255),w,b
  7435  0021C6  6FCA               	movwf	(_coordinates+4)& (0+255),b
  7436  0021C8  0EEB               	movlw	235
  7437  0021CA  2164               	addwfc	(??_presionarPantalla+1)& (0+255),w,b
  7438  0021CC  6FCB               	movwf	(_coordinates+5)& (0+255),b
  7439  0021CE                     
  7440                           ; BSR set to: 0
  7441                           ;MotoresXYZ.c: 72:     if (coordinates.timesToPress != 0) {
  7442  0021CE  51CA               	movf	(_coordinates+4)& (0+255),w,b
  7443  0021D0  11CB               	iorwf	(_coordinates+5)& (0+255),w,b
  7444  0021D2  B4D8               	btfsc	status,2,c
  7445  0021D4  EFEE  F010         	goto	u2891
  7446  0021D8  EFF0  F010         	goto	u2890
  7447  0021DC                     u2891:
  7448  0021DC  EF20  F011         	goto	l435
  7449  0021E0                     u2890:
  7450  0021E0                     
  7451                           ; BSR set to: 0
  7452                           ;MotoresXYZ.c: 74:         for (uint8_t toques = 0; toques < coordinates.timesToPress; t
      +                          oques++) {
  7453  0021E0  0E00               	movlw	0
  7454  0021E2  6F66               	movwf	presionarPantalla@toques& (0+255),b
  7455  0021E4  EF12  F011         	goto	l432
  7456  0021E8                     l433:
  7457                           
  7458                           ; BSR set to: 0
  7459                           ;MotoresXYZ.c: 75:             LATEbits.LATE0 = 1;
  7460  0021E8  808D               	bsf	141,0,c	;volatile
  7461  0021EA                     
  7462                           ; BSR set to: 0
  7463                           ;MotoresXYZ.c: 76:             _delay((unsigned long)((100)*(8000000/4000.0)));
  7464  0021EA  0E02               	movlw	2
  7465  0021EC  0100               	movlb	0	; () banked
  7466  0021EE  6F64               	movwf	(??_presionarPantalla+1)& (0+255),b
  7467  0021F0  0E04               	movlw	4
  7468  0021F2  6F63               	movwf	??_presionarPantalla& (0+255),b
  7469  0021F4  0EBA               	movlw	186
  7470  0021F6                     u3837:
  7471  0021F6  2EE8               	decfsz	wreg,f,c
  7472  0021F8  D7FE               	bra	u3837
  7473  0021FA  2F63               	decfsz	??_presionarPantalla& (0+255),f,b
  7474  0021FC  D7FC               	bra	u3837
  7475  0021FE  2F64               	decfsz	(??_presionarPantalla+1)& (0+255),f,b
  7476  002200  D7FA               	bra	u3837
  7477  002202  F000               	nop	
  7478  002204                     
  7479                           ;MotoresXYZ.c: 77:             LATEbits.LATE0 = 0;
  7480  002204  908D               	bcf	141,0,c	;volatile
  7481                           
  7482                           ;MotoresXYZ.c: 78:             _delay((unsigned long)((100)*(8000000/4000.0)));
  7483  002206  0E02               	movlw	2
  7484  002208  0100               	movlb	0	; () banked
  7485  00220A  6F64               	movwf	(??_presionarPantalla+1)& (0+255),b
  7486  00220C  0E04               	movlw	4
  7487  00220E  6F63               	movwf	??_presionarPantalla& (0+255),b
  7488  002210  0EBA               	movlw	186
  7489  002212                     u3847:
  7490  002212  2EE8               	decfsz	wreg,f,c
  7491  002214  D7FE               	bra	u3847
  7492  002216  2F63               	decfsz	??_presionarPantalla& (0+255),f,b
  7493  002218  D7FC               	bra	u3847
  7494  00221A  2F64               	decfsz	(??_presionarPantalla+1)& (0+255),f,b
  7495  00221C  D7FA               	bra	u3847
  7496  00221E  F000               	nop	
  7497  002220                     
  7498                           ;MotoresXYZ.c: 79:         }
  7499  002220  0100               	movlb	0	; () banked
  7500  002222  2B66               	incf	presionarPantalla@toques& (0+255),f,b
  7501  002224                     l432:
  7502                           
  7503                           ; BSR set to: 0
  7504  002224  5166               	movf	presionarPantalla@toques& (0+255),w,b
  7505  002226  6F63               	movwf	??_presionarPantalla& (0+255),b
  7506  002228  6B64               	clrf	(??_presionarPantalla+1)& (0+255),b
  7507  00222A  51CA               	movf	(_coordinates+4)& (0+255),w,b
  7508  00222C  5D63               	subwf	??_presionarPantalla& (0+255),w,b
  7509  00222E  51CB               	movf	(_coordinates+5)& (0+255),w,b
  7510  002230  5964               	subwfb	(??_presionarPantalla+1)& (0+255),w,b
  7511  002232  A0D8               	btfss	status,0,c
  7512  002234  EF1E  F011         	goto	u2901
  7513  002238  EF20  F011         	goto	u2900
  7514  00223C                     u2901:
  7515  00223C  EFF4  F010         	goto	l433
  7516  002240                     u2900:
  7517  002240                     l435:
  7518                           
  7519                           ; BSR set to: 0
  7520  002240  0012               	return		;funcret
  7521  002242                     __end_of_presionarPantalla:
  7522                           	opt callstack 0
  7523                           
  7524 ;; *************** function _UARTinit *****************
  7525 ;; Defined at:
  7526 ;;		line 6 in file "UART.c"
  7527 ;; Parameters:    Size  Location     Type
  7528 ;;		None
  7529 ;; Auto vars:     Size  Location     Type
  7530 ;;		None
  7531 ;; Return value:  Size  Location     Type
  7532 ;;                  1    wreg      void 
  7533 ;; Registers used:
  7534 ;;		wreg, status,2
  7535 ;; Tracked objects:
  7536 ;;		On entry : 0/0
  7537 ;;		On exit  : 0/0
  7538 ;;		Unchanged: 0/0
  7539 ;; Data sizes:     COMRAM   BANK0   BANK1   BANK2   BANK3   BANK4   BANK5   BANK6   BANK7
  7540 ;;      Params:         0       0       0       0       0       0       0       0       0
  7541 ;;      Locals:         0       0       0       0       0       0       0       0       0
  7542 ;;      Temps:          0       0       0       0       0       0       0       0       0
  7543 ;;      Totals:         0       0       0       0       0       0       0       0       0
  7544 ;;Total ram usage:        0 bytes
  7545 ;; Hardware stack levels used:    1
  7546 ;; Hardware stack levels required when called:    5
  7547 ;; This function calls:
  7548 ;;		Nothing
  7549 ;; This function is called by:
  7550 ;;		_main
  7551 ;; This function uses a non-reentrant model
  7552 ;;
  7553                           
  7554                           	psect	text39
  7555  0026BC                     __ptext39:
  7556                           	opt callstack 0
  7557  0026BC                     _UARTinit:
  7558                           	opt callstack 25
  7559  0026BC                     
  7560                           ;UART.c: 7:     TRISCbits.RC6 = 1;
  7561  0026BC  8C94               	bsf	148,6,c	;volatile
  7562                           
  7563                           ;UART.c: 8:     TRISCbits.RC7 = 1;
  7564  0026BE  8E94               	bsf	148,7,c	;volatile
  7565  0026C0                     
  7566                           ;UART.c: 10:     SPBRG = 16;
  7567  0026C0  0E10               	movlw	16
  7568  0026C2  6EAF               	movwf	175,c	;volatile
  7569  0026C4                     
  7570                           ;UART.c: 11:     TXSTA1bits.BRGH = 1;
  7571  0026C4  84AC               	bsf	172,2,c	;volatile
  7572  0026C6                     
  7573                           ;UART.c: 12:     BAUDCONbits.BRG16 = 1;
  7574  0026C6  86B8               	bsf	184,3,c	;volatile
  7575  0026C8                     
  7576                           ;UART.c: 14:     TXSTA1bits.TX9 = 0;
  7577  0026C8  9CAC               	bcf	172,6,c	;volatile
  7578  0026CA                     
  7579                           ;UART.c: 15:     TXSTA1bits.TXEN = 1;
  7580  0026CA  8AAC               	bsf	172,5,c	;volatile
  7581  0026CC                     
  7582                           ;UART.c: 16:     TXSTA1bits.SYNC = 0;
  7583  0026CC  98AC               	bcf	172,4,c	;volatile
  7584  0026CE                     
  7585                           ;UART.c: 17:     RCSTA1bits.SPEN = 1;
  7586  0026CE  8EAB               	bsf	171,7,c	;volatile
  7587  0026D0                     
  7588                           ;UART.c: 18:     RCSTA1bits.RX9 = 0;
  7589  0026D0  9CAB               	bcf	171,6,c	;volatile
  7590  0026D2                     
  7591                           ;UART.c: 19:     RCSTA1bits.CREN = 1;
  7592  0026D2  88AB               	bsf	171,4,c	;volatile
  7593  0026D4  0012               	return		;funcret
  7594  0026D6                     __end_of_UARTinit:
  7595                           	opt callstack 0
  7596                           
  7597 ;; *************** function _PWM_CCP2_init *****************
  7598 ;; Defined at:
  7599 ;;		line 4 in file "PWMCCP2.c"
  7600 ;; Parameters:    Size  Location     Type
  7601 ;;		None
  7602 ;; Auto vars:     Size  Location     Type
  7603 ;;		None
  7604 ;; Return value:  Size  Location     Type
  7605 ;;                  1    wreg      void 
  7606 ;; Registers used:
  7607 ;;		wreg, status,2
  7608 ;; Tracked objects:
  7609 ;;		On entry : 0/0
  7610 ;;		On exit  : 0/0
  7611 ;;		Unchanged: 0/0
  7612 ;; Data sizes:     COMRAM   BANK0   BANK1   BANK2   BANK3   BANK4   BANK5   BANK6   BANK7
  7613 ;;      Params:         0       0       0       0       0       0       0       0       0
  7614 ;;      Locals:         0       0       0       0       0       0       0       0       0
  7615 ;;      Temps:          0       0       0       0       0       0       0       0       0
  7616 ;;      Totals:         0       0       0       0       0       0       0       0       0
  7617 ;;Total ram usage:        0 bytes
  7618 ;; Hardware stack levels used:    1
  7619 ;; Hardware stack levels required when called:    5
  7620 ;; This function calls:
  7621 ;;		Nothing
  7622 ;; This function is called by:
  7623 ;;		_main
  7624 ;; This function uses a non-reentrant model
  7625 ;;
  7626                           
  7627                           	psect	text40
  7628  002668                     __ptext40:
  7629                           	opt callstack 0
  7630  002668                     _PWM_CCP2_init:
  7631                           	opt callstack 25
  7632  002668                     
  7633                           ;PWMCCP2.c: 5:     TRISCbits.RC1 = 0;
  7634  002668  9294               	bcf	148,1,c	;volatile
  7635  00266A                     
  7636                           ;PWMCCP2.c: 6:     CCP2CONbits.CCP2M = 0b1111;
  7637  00266A  0E0F               	movlw	15
  7638  00266C  12BA               	iorwf	186,f,c	;volatile
  7639                           
  7640                           ;PWMCCP2.c: 8:     PR2 = 249;
  7641  00266E  0EF9               	movlw	249
  7642  002670  6ECB               	movwf	203,c	;volatile
  7643                           
  7644                           ;PWMCCP2.c: 9:     T2CONbits.T2CKPS = 0b11;
  7645  002672  0E03               	movlw	3
  7646  002674  12CA               	iorwf	202,f,c	;volatile
  7647                           
  7648                           ;PWMCCP2.c: 11:     CCP2CONbits.DC2B = 0;
  7649  002676  0ECF               	movlw	-49
  7650  002678  16BA               	andwf	186,f,c	;volatile
  7651                           
  7652                           ;PWMCCP2.c: 12:     CCPR2L = 0;
  7653  00267A  0E00               	movlw	0
  7654  00267C  6EBB               	movwf	187,c	;volatile
  7655                           
  7656                           ;PWMCCP2.c: 13:     TMR2 = 0;
  7657  00267E  0E00               	movlw	0
  7658  002680  6ECC               	movwf	204,c	;volatile
  7659  002682                     
  7660                           ;PWMCCP2.c: 14:     T2CONbits.TMR2ON = 1;
  7661  002682  84CA               	bsf	202,2,c	;volatile
  7662  002684  0012               	return		;funcret
  7663  002686                     __end_of_PWM_CCP2_init:
  7664                           	opt callstack 0
  7665                           
  7666 ;; *************** function _PWM_CCP1_init *****************
  7667 ;; Defined at:
  7668 ;;		line 5 in file "PWMCCP1.c"
  7669 ;; Parameters:    Size  Location     Type
  7670 ;;		None
  7671 ;; Auto vars:     Size  Location     Type
  7672 ;;		None
  7673 ;; Return value:  Size  Location     Type
  7674 ;;                  1    wreg      void 
  7675 ;; Registers used:
  7676 ;;		wreg, status,2
  7677 ;; Tracked objects:
  7678 ;;		On entry : 0/0
  7679 ;;		On exit  : 0/0
  7680 ;;		Unchanged: 0/0
  7681 ;; Data sizes:     COMRAM   BANK0   BANK1   BANK2   BANK3   BANK4   BANK5   BANK6   BANK7
  7682 ;;      Params:         0       0       0       0       0       0       0       0       0
  7683 ;;      Locals:         0       0       0       0       0       0       0       0       0
  7684 ;;      Temps:          0       0       0       0       0       0       0       0       0
  7685 ;;      Totals:         0       0       0       0       0       0       0       0       0
  7686 ;;Total ram usage:        0 bytes
  7687 ;; Hardware stack levels used:    1
  7688 ;; Hardware stack levels required when called:    5
  7689 ;; This function calls:
  7690 ;;		Nothing
  7691 ;; This function is called by:
  7692 ;;		_main
  7693 ;; This function uses a non-reentrant model
  7694 ;;
  7695                           
  7696                           	psect	text41
  7697  002626                     __ptext41:
  7698                           	opt callstack 0
  7699  002626                     _PWM_CCP1_init:
  7700                           	opt callstack 25
  7701  002626                     
  7702                           ;PWMCCP1.c: 6:     TRISCbits.RC2 = 0;
  7703  002626  9494               	bcf	148,2,c	;volatile
  7704  002628                     
  7705                           ;PWMCCP1.c: 7:     CCP1CONbits.CCP1M = 0b1100;
  7706  002628  50BD               	movf	189,w,c	;volatile
  7707  00262A  0BF0               	andlw	-16
  7708  00262C  090C               	iorlw	12
  7709  00262E  6EBD               	movwf	189,c	;volatile
  7710                           
  7711                           ;PWMCCP1.c: 9:     PR2 = 249;
  7712  002630  0EF9               	movlw	249
  7713  002632  6ECB               	movwf	203,c	;volatile
  7714                           
  7715                           ;PWMCCP1.c: 10:     T2CONbits.T2CKPS = 0b11;
  7716  002634  0E03               	movlw	3
  7717  002636  12CA               	iorwf	202,f,c	;volatile
  7718                           
  7719                           ;PWMCCP1.c: 12:     CCP1CONbits.DC1B = 0;
  7720  002638  0ECF               	movlw	-49
  7721  00263A  16BD               	andwf	189,f,c	;volatile
  7722                           
  7723                           ;PWMCCP1.c: 13:     CCPR1L = 0;
  7724  00263C  0E00               	movlw	0
  7725  00263E  6EBE               	movwf	190,c	;volatile
  7726                           
  7727                           ;PWMCCP1.c: 14:     TMR2 = 0;
  7728  002640  0E00               	movlw	0
  7729  002642  6ECC               	movwf	204,c	;volatile
  7730  002644                     
  7731                           ;PWMCCP1.c: 15:     T2CONbits.TMR2ON = 1;
  7732  002644  84CA               	bsf	202,2,c	;volatile
  7733  002646  0012               	return		;funcret
  7734  002648                     __end_of_PWM_CCP1_init:
  7735                           	opt callstack 0
  7736                           
  7737 ;; *************** function _low_isr *****************
  7738 ;; Defined at:
  7739 ;;		line 73 in file "main.c"
  7740 ;; Parameters:    Size  Location     Type
  7741 ;;		None
  7742 ;; Auto vars:     Size  Location     Type
  7743 ;;		None
  7744 ;; Return value:  Size  Location     Type
  7745 ;;                  1    wreg      void 
  7746 ;; Registers used:
  7747 ;;		None
  7748 ;; Tracked objects:
  7749 ;;		On entry : 0/0
  7750 ;;		On exit  : 0/0
  7751 ;;		Unchanged: 0/0
  7752 ;; Data sizes:     COMRAM   BANK0   BANK1   BANK2   BANK3   BANK4   BANK5   BANK6   BANK7
  7753 ;;      Params:         0       0       0       0       0       0       0       0       0
  7754 ;;      Locals:         0       0       0       0       0       0       0       0       0
  7755 ;;      Temps:          0       1       0       0       0       0       0       0       0
  7756 ;;      Totals:         0       1       0       0       0       0       0       0       0
  7757 ;;Total ram usage:        1 bytes
  7758 ;; Hardware stack levels used:    1
  7759 ;; Hardware stack levels required when called:    4
  7760 ;; This function calls:
  7761 ;;		Nothing
  7762 ;; This function is called by:
  7763 ;;		Interrupt level 1
  7764 ;; This function uses a non-reentrant model
  7765 ;;
  7766                           
  7767                           	psect	intcodelo
  7768  000018                     __pintcodelo:
  7769                           	opt callstack 0
  7770  000018                     _low_isr:
  7771                           	opt callstack 21
  7772                           
  7773                           ;incstack = 0
  7774  000018  8048               	bsf	int$flags,0,c	;set compiler interrupt flag (level 1)
  7775  00001A  CFE0 F060          	movff	bsr,??_low_isr
  7776  00001E                     
  7777                           ;main.c: 74:     __nop();
  7778  00001E  F000               	nop	
  7779  000020  C060  FFE0         	movff	??_low_isr,bsr
  7780  000024  9048               	bcf	int$flags,0,c	;clear compiler interrupt flag (level 1)
  7781  000026  0010               	retfie	
  7782  000028                     __end_of_low_isr:
  7783                           	opt callstack 0
  7784                           
  7785 ;; *************** function _high_isr *****************
  7786 ;; Defined at:
  7787 ;;		line 18 in file "main.c"
  7788 ;; Parameters:    Size  Location     Type
  7789 ;;		None
  7790 ;; Auto vars:     Size  Location     Type
  7791 ;;		None
  7792 ;; Return value:  Size  Location     Type
  7793 ;;                  1    wreg      void 
  7794 ;; Registers used:
  7795 ;;		wreg, status,2, status,0, tblptrl, tblptrh, tblptru, prodl, prodh, cstack
  7796 ;; Tracked objects:
  7797 ;;		On entry : 0/0
  7798 ;;		On exit  : 0/0
  7799 ;;		Unchanged: 0/0
  7800 ;; Data sizes:     COMRAM   BANK0   BANK1   BANK2   BANK3   BANK4   BANK5   BANK6   BANK7
  7801 ;;      Params:         0       0       0       0       0       0       0       0       0
  7802 ;;      Locals:         0       0       0       0       0       0       0       0       0
  7803 ;;      Temps:          7       0       0       0       0       0       0       0       0
  7804 ;;      Totals:         7       0       0       0       0       0       0       0       0
  7805 ;;Total ram usage:        7 bytes
  7806 ;; Hardware stack levels used:    1
  7807 ;; Hardware stack levels required when called:    3
  7808 ;; This function calls:
  7809 ;;		_moverHomeX
  7810 ;;		_moverHomeY
  7811 ;;		i2_PWM_DutyCycleCCP1
  7812 ;;		i2_PWM_DutyCycleCCP2
  7813 ;;		i2_printf
  7814 ;; This function is called by:
  7815 ;;		Interrupt level 2
  7816 ;; This function uses a non-reentrant model
  7817 ;;
  7818                           
  7819                           	psect	intcode
  7820  000008                     __pintcode:
  7821                           	opt callstack 0
  7822  000008                     _high_isr:
  7823                           	opt callstack 21
  7824                           
  7825                           ;incstack = 0
  7826  000008  8248               	bsf	int$flags,1,c	;set compiler interrupt flag (level 2)
  7827  00000A  ED54  F00B         	call	int_func,f	;refresh shadow registers
  7828                           
  7829                           	psect	intcode_body
  7830  0016A8                     __pintcode_body:
  7831                           	opt callstack 21
  7832  0016A8                     int_func:
  7833                           	opt callstack 21
  7834  0016A8  0006               	pop		; remove dummy address from shadow register refresh
  7835  0016AA  CFF3 F03C          	movff	prodl,??_high_isr+1
  7836  0016AE  CFF4 F03D          	movff	prodh,??_high_isr+2
  7837  0016B2  CFF6 F03E          	movff	tblptrl,??_high_isr+3
  7838  0016B6  CFF7 F03F          	movff	tblptrh,??_high_isr+4
  7839  0016BA  CFF8 F040          	movff	tblptru,??_high_isr+5
  7840  0016BE  CFF5 F041          	movff	tablat,??_high_isr+6
  7841  0016C2                     
  7842                           ;main.c: 19:     if (INTCONbits.TMR0IF == 1) {
  7843  0016C2  A4F2               	btfss	242,2,c	;volatile
  7844  0016C4  EF66  F00B         	goto	i2u350_41
  7845  0016C8  EF68  F00B         	goto	i2u350_40
  7846  0016CC                     i2u350_41:
  7847  0016CC  EF81  F00B         	goto	i2l3721
  7848  0016D0                     i2u350_40:
  7849  0016D0                     
  7850                           ;main.c: 20:         if (destinoHomeY == 0) {
  7851  0016D0  5044               	movf	_destinoHomeY^0,w,c
  7852  0016D2  A4D8               	btfss	status,2,c
  7853  0016D4  EF6E  F00B         	goto	i2u351_41
  7854  0016D8  EF70  F00B         	goto	i2u351_40
  7855  0016DC                     i2u351_41:
  7856  0016DC  EF73  F00B         	goto	i2l3713
  7857  0016E0                     i2u351_40:
  7858  0016E0                     
  7859                           ;main.c: 21:             PWM_DutyCycleCCP2(0);
  7860  0016E0  0E00               	movlw	0
  7861  0016E2  EC1A  F010         	call	i2_PWM_DutyCycleCCP2
  7862  0016E6                     i2l3713:
  7863                           
  7864                           ;main.c: 23:         CurrentPosY = coordinates.yWanted;
  7865  0016E6  C0C8  F0CC         	movff	_coordinates+2,_CurrentPosY
  7866  0016EA  C0C9  F0CD         	movff	_coordinates+3,_CurrentPosY+1
  7867  0016EE                     
  7868                           ;main.c: 24:         printf("Interrupcion TMR0, llegaste a coordenada deseada Y\n");
  7869  0016EE  0E23               	movlw	low STR_17
  7870  0016F0  6E03               	movwf	i2printf@PointString^0,c
  7871  0016F2  0E7D               	movlw	high STR_17
  7872  0016F4  6E04               	movwf	(i2printf@PointString+1)^0,c
  7873  0016F6  EC5D  F011         	call	i2_printf	;wreg free
  7874  0016FA                     
  7875                           ;main.c: 25:         sparcEnMovimientoY = 0;
  7876  0016FA  0E00               	movlw	0
  7877  0016FC  0100               	movlb	0	; () banked
  7878  0016FE  6FD4               	movwf	_sparcEnMovimientoY& (0+255),b
  7879  001700                     
  7880                           ; BSR set to: 0
  7881                           ;main.c: 26:         INTCONbits.TMR0IF = 0;
  7882  001700  94F2               	bcf	242,2,c	;volatile
  7883  001702                     i2l3721:
  7884                           
  7885                           ;main.c: 28:     if (PIR1bits.TMR1IF == 1) {
  7886  001702  A09E               	btfss	158,0,c	;volatile
  7887  001704  EF86  F00B         	goto	i2u352_41
  7888  001708  EF88  F00B         	goto	i2u352_40
  7889  00170C                     i2u352_41:
  7890  00170C  EFA1  F00B         	goto	i2l3735
  7891  001710                     i2u352_40:
  7892  001710                     
  7893                           ;main.c: 29:         if (destinoHomeX == 0) {
  7894  001710  5045               	movf	_destinoHomeX^0,w,c
  7895  001712  A4D8               	btfss	status,2,c
  7896  001714  EF8E  F00B         	goto	i2u353_41
  7897  001718  EF90  F00B         	goto	i2u353_40
  7898  00171C                     i2u353_41:
  7899  00171C  EF93  F00B         	goto	i2l3727
  7900  001720                     i2u353_40:
  7901  001720                     
  7902                           ;main.c: 30:             PWM_DutyCycleCCP1(0);
  7903  001720  0E00               	movlw	0
  7904  001722  EC74  F010         	call	i2_PWM_DutyCycleCCP1
  7905  001726                     i2l3727:
  7906                           
  7907                           ;main.c: 32:         CurrentPosX = coordinates.xWanted;
  7908  001726  C0C6  F0D0         	movff	_coordinates,_CurrentPosX
  7909  00172A  C0C7  F0D1         	movff	_coordinates+1,_CurrentPosX+1
  7910  00172E                     
  7911                           ;main.c: 33:         printf("Interrupcion TMR1, llegaste a coordenada deseada X\n");
  7912  00172E  0EEF               	movlw	low STR_18
  7913  001730  6E03               	movwf	i2printf@PointString^0,c
  7914  001732  0E7C               	movlw	high STR_18
  7915  001734  6E04               	movwf	(i2printf@PointString+1)^0,c
  7916  001736  EC5D  F011         	call	i2_printf	;wreg free
  7917  00173A                     
  7918                           ;main.c: 34:         sparcEnMovimientoX = 0;
  7919  00173A  0E00               	movlw	0
  7920  00173C  0100               	movlb	0	; () banked
  7921  00173E  6FD5               	movwf	_sparcEnMovimientoX& (0+255),b
  7922  001740                     
  7923                           ; BSR set to: 0
  7924                           ;main.c: 35:         PIR1bits.TMR1IF = 0;
  7925  001740  909E               	bcf	158,0,c	;volatile
  7926  001742                     i2l3735:
  7927                           
  7928                           ;main.c: 37:     if (INTCONbits.INT0IF) {
  7929  001742  A2F2               	btfss	242,1,c	;volatile
  7930  001744  EFA6  F00B         	goto	i2u354_41
  7931  001748  EFA8  F00B         	goto	i2u354_40
  7932  00174C                     i2u354_41:
  7933  00174C  EFC2  F00B         	goto	i2l3749
  7934  001750                     i2u354_40:
  7935  001750                     
  7936                           ;main.c: 38:         _delay((unsigned long)((10)*(8000000/4000.0)));
  7937  001750  0E1A               	movlw	26
  7938  001752  6E3B               	movwf	??_high_isr^0,c
  7939  001754  0EF8               	movlw	248
  7940  001756                     i2u385_47:
  7941  001756  2EE8               	decfsz	wreg,f,c
  7942  001758  D7FE               	bra	i2u385_47
  7943  00175A  2E3B               	decfsz	??_high_isr^0,f,c
  7944  00175C  D7FC               	bra	i2u385_47
  7945  00175E  D000               	nop2	
  7946  001760                     
  7947                           ;main.c: 39:         if (PORTBbits.RB0 == 1) {
  7948  001760  A081               	btfss	129,0,c	;volatile
  7949  001762  EFB5  F00B         	goto	i2u355_41
  7950  001766  EFB7  F00B         	goto	i2u355_40
  7951  00176A                     i2u355_41:
  7952  00176A  EFBD  F00B         	goto	i2l3743
  7953  00176E                     i2u355_40:
  7954  00176E                     
  7955                           ;main.c: 40:             printf("Ocurrio la interrupcion limitSwitch3Esquinas\n");
  7956  00176E  0EE9               	movlw	low STR_19
  7957  001770  6E03               	movwf	i2printf@PointString^0,c
  7958  001772  0E7D               	movlw	high STR_19
  7959  001774  6E04               	movwf	(i2printf@PointString+1)^0,c
  7960  001776  EC5D  F011         	call	i2_printf	;wreg free
  7961  00177A                     i2l3743:
  7962                           
  7963                           ;main.c: 42:         moverHomeX();
  7964  00177A  EC8D  F013         	call	_moverHomeX	;wreg free
  7965  00177E                     
  7966                           ;main.c: 43:         moverHomeY();
  7967  00177E  EC83  F013         	call	_moverHomeY	;wreg free
  7968  001782                     
  7969                           ;main.c: 44:         INTCONbits.INT0IF = 0;
  7970  001782  92F2               	bcf	242,1,c	;volatile
  7971  001784                     i2l3749:
  7972                           
  7973                           ;main.c: 46:     if (INTCON3bits.INT1IF == 1) {
  7974  001784  A0F0               	btfss	240,0,c	;volatile
  7975  001786  EFC7  F00B         	goto	i2u356_41
  7976  00178A  EFC9  F00B         	goto	i2u356_40
  7977  00178E                     i2u356_41:
  7978  00178E  EFED  F00B         	goto	i2l3769
  7979  001792                     i2u356_40:
  7980  001792                     
  7981                           ;main.c: 47:         _delay((unsigned long)((10)*(8000000/4000.0)));
  7982  001792  0E1A               	movlw	26
  7983  001794  6E3B               	movwf	??_high_isr^0,c
  7984  001796  0EF8               	movlw	248
  7985  001798                     i2u386_47:
  7986  001798  2EE8               	decfsz	wreg,f,c
  7987  00179A  D7FE               	bra	i2u386_47
  7988  00179C  2E3B               	decfsz	??_high_isr^0,f,c
  7989  00179E  D7FC               	bra	i2u386_47
  7990  0017A0  D000               	nop2	
  7991  0017A2                     
  7992                           ;main.c: 48:         if (PORTBbits.RB1 == 1) {
  7993  0017A2  A281               	btfss	129,1,c	;volatile
  7994  0017A4  EFD6  F00B         	goto	i2u357_41
  7995  0017A8  EFD8  F00B         	goto	i2u357_40
  7996  0017AC                     i2u357_41:
  7997  0017AC  EFDE  F00B         	goto	i2l3757
  7998  0017B0                     i2u357_40:
  7999  0017B0                     
  8000                           ;main.c: 49:             printf("Ocurrio la interrupcion limitSwitchHomeX\n");
  8001  0017B0  0E42               	movlw	low STR_20
  8002  0017B2  6E03               	movwf	i2printf@PointString^0,c
  8003  0017B4  0E7E               	movlw	high STR_20
  8004  0017B6  6E04               	movwf	(i2printf@PointString+1)^0,c
  8005  0017B8  EC5D  F011         	call	i2_printf	;wreg free
  8006  0017BC                     i2l3757:
  8007                           
  8008                           ;main.c: 51:         PWM_DutyCycleCCP1(0);
  8009  0017BC  0E00               	movlw	0
  8010  0017BE  EC74  F010         	call	i2_PWM_DutyCycleCCP1
  8011  0017C2                     
  8012                           ;main.c: 52:         CurrentPosX = 0;
  8013  0017C2  0E00               	movlw	0
  8014  0017C4  0100               	movlb	0	; () banked
  8015  0017C6  6FD1               	movwf	(_CurrentPosX+1)& (0+255),b
  8016  0017C8  0E00               	movlw	0
  8017  0017CA  6FD0               	movwf	_CurrentPosX& (0+255),b
  8018  0017CC                     
  8019                           ; BSR set to: 0
  8020                           ;main.c: 53:         destinoHomeX = 0;
  8021  0017CC  0E00               	movlw	0
  8022  0017CE  6E45               	movwf	_destinoHomeX^0,c
  8023  0017D0                     
  8024                           ; BSR set to: 0
  8025                           ;main.c: 54:         llegoHomeX = 1;
  8026  0017D0  0E01               	movlw	1
  8027  0017D2  6E43               	movwf	_llegoHomeX^0,c
  8028  0017D4                     
  8029                           ; BSR set to: 0
  8030                           ;main.c: 55:         sparcEnMovimientoX = 0;
  8031  0017D4  0E00               	movlw	0
  8032  0017D6  6FD5               	movwf	_sparcEnMovimientoX& (0+255),b
  8033  0017D8                     
  8034                           ; BSR set to: 0
  8035                           ;main.c: 56:         INTCON3bits.INT1IF = 0;
  8036  0017D8  90F0               	bcf	240,0,c	;volatile
  8037  0017DA                     i2l3769:
  8038                           
  8039                           ;main.c: 58:     if (INTCON3bits.INT2IF == 1) {
  8040  0017DA  A2F0               	btfss	240,1,c	;volatile
  8041  0017DC  EFF2  F00B         	goto	i2u358_41
  8042  0017E0  EFF4  F00B         	goto	i2u358_40
  8043  0017E4                     i2u358_41:
  8044  0017E4  EF18  F00C         	goto	i2l577
  8045  0017E8                     i2u358_40:
  8046  0017E8                     
  8047                           ;main.c: 59:         _delay((unsigned long)((10)*(8000000/4000.0)));
  8048  0017E8  0E1A               	movlw	26
  8049  0017EA  6E3B               	movwf	??_high_isr^0,c
  8050  0017EC  0EF8               	movlw	248
  8051  0017EE                     i2u387_47:
  8052  0017EE  2EE8               	decfsz	wreg,f,c
  8053  0017F0  D7FE               	bra	i2u387_47
  8054  0017F2  2E3B               	decfsz	??_high_isr^0,f,c
  8055  0017F4  D7FC               	bra	i2u387_47
  8056  0017F6  D000               	nop2	
  8057  0017F8                     
  8058                           ;main.c: 60:         if (PORTBbits.RB2 == 1) {
  8059  0017F8  A481               	btfss	129,2,c	;volatile
  8060  0017FA  EF01  F00C         	goto	i2u359_41
  8061  0017FE  EF03  F00C         	goto	i2u359_40
  8062  001802                     i2u359_41:
  8063  001802  EF09  F00C         	goto	i2l3777
  8064  001806                     i2u359_40:
  8065  001806                     
  8066                           ;main.c: 61:             printf("Ocurrio la interrupcion limitSwitchHomeY\n");
  8067  001806  0E6C               	movlw	low STR_21
  8068  001808  6E03               	movwf	i2printf@PointString^0,c
  8069  00180A  0E7E               	movlw	high STR_21
  8070  00180C  6E04               	movwf	(i2printf@PointString+1)^0,c
  8071  00180E  EC5D  F011         	call	i2_printf	;wreg free
  8072  001812                     i2l3777:
  8073                           
  8074                           ;main.c: 63:         PWM_DutyCycleCCP2(0);
  8075  001812  0E00               	movlw	0
  8076  001814  EC1A  F010         	call	i2_PWM_DutyCycleCCP2
  8077  001818                     
  8078                           ;main.c: 64:         CurrentPosY = 0;
  8079  001818  0E00               	movlw	0
  8080  00181A  0100               	movlb	0	; () banked
  8081  00181C  6FCD               	movwf	(_CurrentPosY+1)& (0+255),b
  8082  00181E  0E00               	movlw	0
  8083  001820  6FCC               	movwf	_CurrentPosY& (0+255),b
  8084  001822                     
  8085                           ; BSR set to: 0
  8086                           ;main.c: 65:         destinoHomeY = 0;
  8087  001822  0E00               	movlw	0
  8088  001824  6E44               	movwf	_destinoHomeY^0,c
  8089  001826                     
  8090                           ; BSR set to: 0
  8091                           ;main.c: 66:         llegoHomeY = 1;
  8092  001826  0E01               	movlw	1
  8093  001828  6E42               	movwf	_llegoHomeY^0,c
  8094  00182A                     
  8095                           ; BSR set to: 0
  8096                           ;main.c: 67:         sparcEnMovimientoY = 0;
  8097  00182A  0E00               	movlw	0
  8098  00182C  6FD4               	movwf	_sparcEnMovimientoY& (0+255),b
  8099  00182E                     
  8100                           ; BSR set to: 0
  8101                           ;main.c: 68:         INTCON3bits.INT2IF = 0;
  8102  00182E  92F0               	bcf	240,1,c	;volatile
  8103  001830                     i2l577:
  8104  001830  C041  FFF5         	movff	??_high_isr+6,tablat
  8105  001834  C040  FFF8         	movff	??_high_isr+5,tblptru
  8106  001838  C03F  FFF7         	movff	??_high_isr+4,tblptrh
  8107  00183C  C03E  FFF6         	movff	??_high_isr+3,tblptrl
  8108  001840  C03D  FFF4         	movff	??_high_isr+2,prodh
  8109  001844  C03C  FFF3         	movff	??_high_isr+1,prodl
  8110  001848  9248               	bcf	int$flags,1,c	;clear compiler interrupt flag (level 2)
  8111  00184A  0011               	retfie		f
  8112  00184C                     __end_of_high_isr:
  8113                           	opt callstack 0
  8114                           
  8115 ;; *************** function i2_printf *****************
  8116 ;; Defined at:
  8117 ;;		line 6 in file "Comunicacion.c"
  8118 ;; Parameters:    Size  Location     Type
  8119 ;;  PointString     2    2[COMRAM] PTR unsigned char 
  8120 ;;		 -> STR_44(7), STR_43(9), STR_42(9), STR_41(26), 
  8121 ;;		 -> STR_40(9), STR_39(9), STR_38(28), STR_37(9), 
  8122 ;;		 -> STR_36(34), STR_35(9), STR_34(27), STR_33(9), 
  8123 ;;		 -> STR_32(9), STR_31(40), STR_30(9), STR_29(9), 
  8124 ;;		 -> STR_28(46), STR_27(9), STR_26(9), STR_25(31), 
  8125 ;;		 -> STR_24(9), STR_23(14), STR_22(64), STR_21(42), 
  8126 ;;		 -> STR_20(42), STR_19(46), STR_18(52), STR_17(52), 
  8127 ;;		 -> STR_16(11), STR_15(15), STR_14(11), STR_13(15), 
  8128 ;;		 -> STR_12(10), STR_11(11), STR_10(11), STR_9(6), 
  8129 ;;		 -> STR_8(4), STR_7(16), STR_6(43), STR_5(8), 
  8130 ;;		 -> STR_4(52), STR_3(4), STR_2(4), STR_1(48), 
  8131 ;; Auto vars:     Size  Location     Type
  8132 ;;  printf          1    6[COMRAM] unsigned char 
  8133 ;; Return value:  Size  Location     Type
  8134 ;;                  1    wreg      void 
  8135 ;; Registers used:
  8136 ;;		wreg, status,2, status,0, tblptrl, tblptrh, tblptru, cstack
  8137 ;; Tracked objects:
  8138 ;;		On entry : 0/0
  8139 ;;		On exit  : 0/0
  8140 ;;		Unchanged: 0/0
  8141 ;; Data sizes:     COMRAM   BANK0   BANK1   BANK2   BANK3   BANK4   BANK5   BANK6   BANK7
  8142 ;;      Params:         2       0       0       0       0       0       0       0       0
  8143 ;;      Locals:         1       0       0       0       0       0       0       0       0
  8144 ;;      Temps:          2       0       0       0       0       0       0       0       0
  8145 ;;      Totals:         5       0       0       0       0       0       0       0       0
  8146 ;;Total ram usage:        5 bytes
  8147 ;; Hardware stack levels used:    1
  8148 ;; Hardware stack levels required when called:    2
  8149 ;; This function calls:
  8150 ;;		i2_errorUART
  8151 ;;		i2_send
  8152 ;; This function is called by:
  8153 ;;		_high_isr
  8154 ;; This function uses a non-reentrant model
  8155 ;;
  8156                           
  8157                           	psect	text44
  8158  0022BA                     __ptext44:
  8159                           	opt callstack 0
  8160  0022BA                     i2_printf:
  8161                           	opt callstack 21
  8162  0022BA                     
  8163                           ;Comunicacion.c: 7:     errorUART();
  8164  0022BA  EC1D  F012         	call	i2_errorUART	;wreg free
  8165  0022BE                     
  8166                           ;Comunicacion.c: 8:     for (unsigned char i = 0; i < 255; i++) {
  8167  0022BE  0E00               	movlw	0
  8168  0022C0  6E07               	movwf	i2printf@i^0,c
  8169  0022C2                     i2l3679:
  8170  0022C2  2807               	incf	i2printf@i^0,w,c
  8171  0022C4  A4D8               	btfss	status,2,c
  8172  0022C6  EF67  F011         	goto	i2u348_41
  8173  0022CA  EF69  F011         	goto	i2u348_40
  8174  0022CE                     i2u348_41:
  8175  0022CE  EF6B  F011         	goto	i2l3683
  8176  0022D2                     i2u348_40:
  8177  0022D2  EF92  F011         	goto	i2l186
  8178  0022D6                     i2l3683:
  8179                           
  8180                           ;Comunicacion.c: 10:         if (PointString[i] == ((void*)0)) {
  8181  0022D6  5007               	movf	i2printf@i^0,w,c
  8182  0022D8  2403               	addwf	i2printf@PointString^0,w,c
  8183  0022DA  6E05               	movwf	??i2_printf^0,c
  8184  0022DC  0E00               	movlw	0
  8185  0022DE  2004               	addwfc	(i2printf@PointString+1)^0,w,c
  8186  0022E0  6E06               	movwf	(??i2_printf+1)^0,c
  8187  0022E2  C005  FFF6         	movff	??i2_printf,tblptrl
  8188  0022E6  C006  FFF7         	movff	??i2_printf+1,tblptrh
  8189  0022EA                     	if	0	;tblptru may be non-zero
  8190  0022EA                     	endif
  8191  0022EA                     	if	0	;tblptru may be non-zero
  8192  0022EA                     	endif
  8193  0022EA  0008               	tblrd		*
  8194  0022EC  50F5               	movf	tablat,w,c
  8195  0022EE  0900               	iorlw	0
  8196  0022F0  A4D8               	btfss	status,2,c
  8197  0022F2  EF7D  F011         	goto	i2u349_41
  8198  0022F6  EF7F  F011         	goto	i2u349_40
  8199  0022FA                     i2u349_41:
  8200  0022FA  EF81  F011         	goto	i2l3689
  8201  0022FE                     i2u349_40:
  8202  0022FE  EF92  F011         	goto	i2l186
  8203  002302                     i2l3689:
  8204                           
  8205                           ;Comunicacion.c: 13:             send(PointString[i]);
  8206  002302  5007               	movf	i2printf@i^0,w,c
  8207  002304  2403               	addwf	i2printf@PointString^0,w,c
  8208  002306  6E05               	movwf	??i2_printf^0,c
  8209  002308  0E00               	movlw	0
  8210  00230A  2004               	addwfc	(i2printf@PointString+1)^0,w,c
  8211  00230C  6E06               	movwf	(??i2_printf+1)^0,c
  8212  00230E  C005  FFF6         	movff	??i2_printf,tblptrl
  8213  002312  C006  FFF7         	movff	??i2_printf+1,tblptrh
  8214  002316                     	if	0	;tblptru may be non-zero
  8215  002316                     	endif
  8216  002316                     	if	0	;tblptru may be non-zero
  8217  002316                     	endif
  8218  002316  0008               	tblrd		*
  8219  002318  50F5               	movf	tablat,w,c
  8220  00231A  EC6B  F013         	call	i2_send
  8221  00231E                     
  8222                           ;Comunicacion.c: 14:     }
  8223  00231E  2A07               	incf	i2printf@i^0,f,c
  8224  002320  EF61  F011         	goto	i2l3679
  8225  002324                     i2l186:
  8226  002324  0012               	return		;funcret
  8227  002326                     __end_ofi2_printf:
  8228                           	opt callstack 0
  8229                           
  8230 ;; *************** function i2_send *****************
  8231 ;; Defined at:
  8232 ;;		line 34 in file "UART.c"
  8233 ;; Parameters:    Size  Location     Type
  8234 ;;  enviarpc        1    wreg     unsigned char 
  8235 ;; Auto vars:     Size  Location     Type
  8236 ;;  enviarpc        1    1[COMRAM] unsigned char 
  8237 ;; Return value:  Size  Location     Type
  8238 ;;                  1    wreg      void 
  8239 ;; Registers used:
  8240 ;;		wreg, cstack
  8241 ;; Tracked objects:
  8242 ;;		On entry : 0/0
  8243 ;;		On exit  : 0/0
  8244 ;;		Unchanged: 0/0
  8245 ;; Data sizes:     COMRAM   BANK0   BANK1   BANK2   BANK3   BANK4   BANK5   BANK6   BANK7
  8246 ;;      Params:         0       0       0       0       0       0       0       0       0
  8247 ;;      Locals:         1       0       0       0       0       0       0       0       0
  8248 ;;      Temps:          0       0       0       0       0       0       0       0       0
  8249 ;;      Totals:         1       0       0       0       0       0       0       0       0
  8250 ;;Total ram usage:        1 bytes
  8251 ;; Hardware stack levels used:    1
  8252 ;; Hardware stack levels required when called:    1
  8253 ;; This function calls:
  8254 ;;		i2_errorUART
  8255 ;; This function is called by:
  8256 ;;		i2_printf
  8257 ;; This function uses a non-reentrant model
  8258 ;;
  8259                           
  8260                           	psect	text45
  8261  0026D6                     __ptext45:
  8262                           	opt callstack 0
  8263  0026D6                     i2_send:
  8264                           	opt callstack 21
  8265                           
  8266                           ;incstack = 0
  8267                           ;i2send@enviarpc stored from wreg
  8268  0026D6  6E02               	movwf	i2send@enviarpc^0,c
  8269  0026D8                     
  8270                           ;UART.c: 35:     errorUART();
  8271  0026D8  EC1D  F012         	call	i2_errorUART	;wreg free
  8272  0026DC                     i2l75:
  8273                           
  8274                           ;UART.c: 36:     while (TXSTA1bits.TRMT == 0) {
  8275  0026DC  A2AC               	btfss	172,1,c	;volatile
  8276  0026DE  EF73  F013         	goto	i2u333_41
  8277  0026E2  EF75  F013         	goto	i2u333_40
  8278  0026E6                     i2u333_41:
  8279  0026E6  EF6E  F013         	goto	i2l75
  8280  0026EA                     i2u333_40:
  8281  0026EA                     
  8282                           ;UART.c: 39:     TXREG1 = enviarpc;
  8283  0026EA  C002  FFAD         	movff	i2send@enviarpc,4013	;volatile
  8284  0026EE  0012               	return		;funcret
  8285  0026F0                     __end_ofi2_send:
  8286                           	opt callstack 0
  8287                           
  8288 ;; *************** function i2_errorUART *****************
  8289 ;; Defined at:
  8290 ;;		line 42 in file "UART.c"
  8291 ;; Parameters:    Size  Location     Type
  8292 ;;		None
  8293 ;; Auto vars:     Size  Location     Type
  8294 ;;  errorUART       1    0[COMRAM] unsigned char 
  8295 ;; Return value:  Size  Location     Type
  8296 ;;                  1    wreg      void 
  8297 ;; Registers used:
  8298 ;;		wreg
  8299 ;; Tracked objects:
  8300 ;;		On entry : 0/0
  8301 ;;		On exit  : 0/0
  8302 ;;		Unchanged: 0/0
  8303 ;; Data sizes:     COMRAM   BANK0   BANK1   BANK2   BANK3   BANK4   BANK5   BANK6   BANK7
  8304 ;;      Params:         0       0       0       0       0       0       0       0       0
  8305 ;;      Locals:         1       0       0       0       0       0       0       0       0
  8306 ;;      Temps:          0       0       0       0       0       0       0       0       0
  8307 ;;      Totals:         1       0       0       0       0       0       0       0       0
  8308 ;;Total ram usage:        1 bytes
  8309 ;; Hardware stack levels used:    1
  8310 ;; This function calls:
  8311 ;;		Nothing
  8312 ;; This function is called by:
  8313 ;;		i2_send
  8314 ;;		i2_printf
  8315 ;; This function uses a non-reentrant model
  8316 ;;
  8317                           
  8318                           	psect	text46
  8319  00243A                     __ptext46:
  8320                           	opt callstack 0
  8321  00243A                     i2_errorUART:
  8322                           	opt callstack 21
  8323  00243A                     
  8324                           ;UART.c: 45:     uint8_t temp;;UART.c: 46:     if (OERR) {
  8325  00243A  A2AB               	btfss	4011,1,c	;volatile
  8326  00243C  EF22  F012         	goto	i2u236_41
  8327  002440  EF24  F012         	goto	i2u236_40
  8328  002444                     i2u236_41:
  8329  002444  EF35  F012         	goto	i2l81
  8330  002448                     i2u236_40:
  8331  002448                     i2l82:
  8332                           
  8333                           ;UART.c: 48:             temp = RCREG;
  8334  002448  CFAE F001          	movff	4014,i2errorUART@temp	;volatile
  8335                           
  8336                           ;UART.c: 49:             temp = RCREG;
  8337  00244C  CFAE F001          	movff	4014,i2errorUART@temp	;volatile
  8338                           
  8339                           ;UART.c: 50:             temp = RCREG;
  8340  002450  CFAE F001          	movff	4014,i2errorUART@temp	;volatile
  8341                           
  8342                           ;UART.c: 51:             temp = RCREG;
  8343  002454  CFAE F001          	movff	4014,i2errorUART@temp	;volatile
  8344                           
  8345                           ;UART.c: 52:             CREN = 0;
  8346  002458  98AB               	bcf	4011,4,c	;volatile
  8347                           
  8348                           ;UART.c: 53:             CREN = 1;
  8349  00245A  88AB               	bsf	4011,4,c	;volatile
  8350                           
  8351                           ;UART.c: 55:         } while (OERR);
  8352  00245C  B2AB               	btfsc	4011,1,c	;volatile
  8353  00245E  EF33  F012         	goto	i2u237_41
  8354  002462  EF35  F012         	goto	i2u237_40
  8355  002466                     i2u237_41:
  8356  002466  EF24  F012         	goto	i2l82
  8357  00246A                     i2u237_40:
  8358  00246A                     i2l81:
  8359                           
  8360                           ;UART.c: 58:     if (FERR) {
  8361  00246A  A4AB               	btfss	4011,2,c	;volatile
  8362  00246C  EF3A  F012         	goto	i2u238_41
  8363  002470  EF3C  F012         	goto	i2u238_40
  8364  002474                     i2u238_41:
  8365  002474  EF3F  F012         	goto	i2l85
  8366  002478                     i2u238_40:
  8367  002478  50AE               	movf	174,w,c	;volatile
  8368                           
  8369                           ;UART.c: 60:         TXEN = 0;
  8370  00247A  9AAC               	bcf	4012,5,c	;volatile
  8371                           
  8372                           ;UART.c: 61:         TXEN = 1;
  8373  00247C  8AAC               	bsf	4012,5,c	;volatile
  8374  00247E                     i2l85:
  8375  00247E  0012               	return		;funcret
  8376  002480                     __end_ofi2_errorUART:
  8377                           	opt callstack 0
  8378                           
  8379 ;; *************** function _moverHomeY *****************
  8380 ;; Defined at:
  8381 ;;		line 93 in file "MotoresXYZ.c"
  8382 ;; Parameters:    Size  Location     Type
  8383 ;;		None
  8384 ;; Auto vars:     Size  Location     Type
  8385 ;;		None
  8386 ;; Return value:  Size  Location     Type
  8387 ;;                  1    wreg      void 
  8388 ;; Registers used:
  8389 ;;		wreg, status,2, status,0, prodl, prodh, cstack
  8390 ;; Tracked objects:
  8391 ;;		On entry : 0/0
  8392 ;;		On exit  : 0/0
  8393 ;;		Unchanged: 0/0
  8394 ;; Data sizes:     COMRAM   BANK0   BANK1   BANK2   BANK3   BANK4   BANK5   BANK6   BANK7
  8395 ;;      Params:         0       0       0       0       0       0       0       0       0
  8396 ;;      Locals:         0       0       0       0       0       0       0       0       0
  8397 ;;      Temps:          0       0       0       0       0       0       0       0       0
  8398 ;;      Totals:         0       0       0       0       0       0       0       0       0
  8399 ;;Total ram usage:        0 bytes
  8400 ;; Hardware stack levels used:    1
  8401 ;; Hardware stack levels required when called:    2
  8402 ;; This function calls:
  8403 ;;		i2_PWM_DutyCycleCCP2
  8404 ;; This function is called by:
  8405 ;;		_high_isr
  8406 ;; This function uses a non-reentrant model
  8407 ;;
  8408                           
  8409                           	psect	text47
  8410  002706                     __ptext47:
  8411                           	opt callstack 0
  8412  002706                     _moverHomeY:
  8413                           	opt callstack 21
  8414  002706                     
  8415                           ;MotoresXYZ.c: 94:     destinoHomeY = 1;
  8416  002706  0E01               	movlw	1
  8417  002708  6E44               	movwf	_destinoHomeY^0,c
  8418  00270A                     
  8419                           ;MotoresXYZ.c: 96:     LATDbits.LATD1 = 0;
  8420  00270A  928C               	bcf	140,1,c	;volatile
  8421                           
  8422                           ;MotoresXYZ.c: 97:     sparcEnMovimientoY = 1;
  8423  00270C  0E01               	movlw	1
  8424  00270E  0100               	movlb	0	; () banked
  8425  002710  6FD4               	movwf	_sparcEnMovimientoY& (0+255),b
  8426  002712                     
  8427                           ; BSR set to: 0
  8428                           ;MotoresXYZ.c: 100:     PWM_DutyCycleCCP2(50);
  8429  002712  0E32               	movlw	50
  8430  002714  EC1A  F010         	call	i2_PWM_DutyCycleCCP2
  8431  002718  0012               	return		;funcret
  8432  00271A                     __end_of_moverHomeY:
  8433                           	opt callstack 0
  8434                           
  8435 ;; *************** function i2_PWM_DutyCycleCCP2 *****************
  8436 ;; Defined at:
  8437 ;;		line 16 in file "PWMCCP2.c"
  8438 ;; Parameters:    Size  Location     Type
  8439 ;;  WantedDutyCy    1    wreg     unsigned char 
  8440 ;; Auto vars:     Size  Location     Type
  8441 ;;  WantedDutyCy    1   55[COMRAM] unsigned char 
  8442 ;;  PWM_DutyCycl    2   56[COMRAM] unsigned short 
  8443 ;; Return value:  Size  Location     Type
  8444 ;;                  1    wreg      void 
  8445 ;; Registers used:
  8446 ;;		wreg, status,2, status,0, prodl, prodh, cstack
  8447 ;; Tracked objects:
  8448 ;;		On entry : 0/0
  8449 ;;		On exit  : 0/0
  8450 ;;		Unchanged: 0/0
  8451 ;; Data sizes:     COMRAM   BANK0   BANK1   BANK2   BANK3   BANK4   BANK5   BANK6   BANK7
  8452 ;;      Params:         0       0       0       0       0       0       0       0       0
  8453 ;;      Locals:         7       0       0       0       0       0       0       0       0
  8454 ;;      Temps:          2       0       0       0       0       0       0       0       0
  8455 ;;      Totals:         9       0       0       0       0       0       0       0       0
  8456 ;;Total ram usage:        9 bytes
  8457 ;; Hardware stack levels used:    1
  8458 ;; Hardware stack levels required when called:    1
  8459 ;; This function calls:
  8460 ;;		i2___flmul
  8461 ;;		i2___fltol
  8462 ;;		i2___xxtofl
  8463 ;; This function is called by:
  8464 ;;		_moverHomeY
  8465 ;;		_high_isr
  8466 ;; This function uses a non-reentrant model
  8467 ;;
  8468                           
  8469                           	psect	text48
  8470  002034                     __ptext48:
  8471                           	opt callstack 0
  8472  002034                     i2_PWM_DutyCycleCCP2:
  8473                           	opt callstack 22
  8474                           
  8475                           ;incstack = 0
  8476                           ;i2PWM_DutyCycleCCP2@WantedDutyCycle stored from wreg
  8477  002034  6E38               	movwf	i2PWM_DutyCycleCCP2@WantedDutyCycle^0,c
  8478  002036                     
  8479                           ;PWMCCP2.c: 18:     uint16_t PWMDutyValue;;PWMCCP2.c: 19:     PWMDutyValue = (WantedDuty
      +                          Cycle * 0.01)*1000;
  8480  002036  0E0A               	movlw	10
  8481  002038  6E13               	movwf	i2___flmul@a^0,c
  8482  00203A  0ED7               	movlw	215
  8483  00203C  6E14               	movwf	(i2___flmul@a+1)^0,c
  8484  00203E  0E23               	movlw	35
  8485  002040  6E15               	movwf	(i2___flmul@a+2)^0,c
  8486  002042  0E3C               	movlw	60
  8487  002044  6E16               	movwf	(i2___flmul@a+3)^0,c
  8488  002046  5038               	movf	i2PWM_DutyCycleCCP2@WantedDutyCycle^0,w,c
  8489  002048  6E01               	movwf	i2___xxtofl@val^0,c
  8490  00204A  6A02               	clrf	(i2___xxtofl@val+1)^0,c
  8491  00204C  6A03               	clrf	(i2___xxtofl@val+2)^0,c
  8492  00204E  6A04               	clrf	(i2___xxtofl@val+3)^0,c
  8493  002050  0E01               	movlw	1
  8494  002052  EC7A  F00A         	call	i2___xxtofl
  8495  002056  C001  F00F         	movff	?i2___xxtofl,i2___flmul@b
  8496  00205A  C002  F010         	movff	?i2___xxtofl+1,i2___flmul@b+1
  8497  00205E  C003  F011         	movff	?i2___xxtofl+2,i2___flmul@b+2
  8498  002062  C004  F012         	movff	?i2___xxtofl+3,i2___flmul@b+3
  8499  002066  EC8D  F004         	call	i2___flmul	;wreg free
  8500  00206A  C00F  F034         	movff	?i2___flmul,i2_PWM_DutyCycleCCP2$2960
  8501  00206E  C010  F035         	movff	?i2___flmul+1,i2_PWM_DutyCycleCCP2$2960+1
  8502  002072  C011  F036         	movff	?i2___flmul+2,i2_PWM_DutyCycleCCP2$2960+2
  8503  002076  C012  F037         	movff	?i2___flmul+3,i2_PWM_DutyCycleCCP2$2960+3
  8504                           
  8505                           ;PWMCCP2.c: 18:     uint16_t PWMDutyValue;;PWMCCP2.c: 19:     PWMDutyValue = (WantedDuty
      +                          Cycle * 0.01)*1000;
  8506  00207A  0E00               	movlw	0
  8507  00207C  6E13               	movwf	i2___flmul@a^0,c
  8508  00207E  0E00               	movlw	0
  8509  002080  6E14               	movwf	(i2___flmul@a+1)^0,c
  8510  002082  0E7A               	movlw	122
  8511  002084  6E15               	movwf	(i2___flmul@a+2)^0,c
  8512  002086  0E44               	movlw	68
  8513  002088  6E16               	movwf	(i2___flmul@a+3)^0,c
  8514  00208A  C034  F00F         	movff	i2_PWM_DutyCycleCCP2$2960,i2___flmul@b
  8515  00208E  C035  F010         	movff	i2_PWM_DutyCycleCCP2$2960+1,i2___flmul@b+1
  8516  002092  C036  F011         	movff	i2_PWM_DutyCycleCCP2$2960+2,i2___flmul@b+2
  8517  002096  C037  F012         	movff	i2_PWM_DutyCycleCCP2$2960+3,i2___flmul@b+3
  8518  00209A  EC8D  F004         	call	i2___flmul	;wreg free
  8519  00209E  C00F  F028         	movff	?i2___flmul,i2___fltol@f1
  8520  0020A2  C010  F029         	movff	?i2___flmul+1,i2___fltol@f1+1
  8521  0020A6  C011  F02A         	movff	?i2___flmul+2,i2___fltol@f1+2
  8522  0020AA  C012  F02B         	movff	?i2___flmul+3,i2___fltol@f1+3
  8523  0020AE  EC59  F00D         	call	i2___fltol	;wreg free
  8524  0020B2  C028  F039         	movff	?i2___fltol,i2PWM_DutyCycleCCP2@PWMDutyValue
  8525  0020B6  C029  F03A         	movff	?i2___fltol+1,i2PWM_DutyCycleCCP2@PWMDutyValue+1
  8526  0020BA                     
  8527                           ;PWMCCP2.c: 21:     CCP2CONbits.DC2B = (PWMDutyValue & 0x03);
  8528  0020BA  C039  F032         	movff	i2PWM_DutyCycleCCP2@PWMDutyValue,??i2_PWM_DutyCycleCCP2
  8529  0020BE  0E03               	movlw	3
  8530  0020C0  1632               	andwf	??i2_PWM_DutyCycleCCP2^0,f,c
  8531  0020C2  3A32               	swapf	??i2_PWM_DutyCycleCCP2^0,f,c
  8532  0020C4  50BA               	movf	186,w,c	;volatile
  8533  0020C6  1832               	xorwf	??i2_PWM_DutyCycleCCP2^0,w,c
  8534  0020C8  0BCF               	andlw	-49
  8535  0020CA  1832               	xorwf	??i2_PWM_DutyCycleCCP2^0,w,c
  8536  0020CC  6EBA               	movwf	186,c	;volatile
  8537  0020CE                     
  8538                           ;PWMCCP2.c: 22:     CCPR2L = ((PWMDutyValue >> 2)&0xFF);
  8539  0020CE  C039  F032         	movff	i2PWM_DutyCycleCCP2@PWMDutyValue,??i2_PWM_DutyCycleCCP2
  8540  0020D2  C03A  F033         	movff	i2PWM_DutyCycleCCP2@PWMDutyValue+1,??i2_PWM_DutyCycleCCP2+1
  8541  0020D6  90D8               	bcf	status,0,c
  8542  0020D8  3233               	rrcf	(??i2_PWM_DutyCycleCCP2+1)^0,f,c
  8543  0020DA  3232               	rrcf	??i2_PWM_DutyCycleCCP2^0,f,c
  8544  0020DC  90D8               	bcf	status,0,c
  8545  0020DE  3233               	rrcf	(??i2_PWM_DutyCycleCCP2+1)^0,f,c
  8546  0020E0  3232               	rrcf	??i2_PWM_DutyCycleCCP2^0,f,c
  8547  0020E2  5032               	movf	??i2_PWM_DutyCycleCCP2^0,w,c
  8548  0020E4  6EBB               	movwf	187,c	;volatile
  8549  0020E6  0012               	return		;funcret
  8550  0020E8                     __end_ofi2_PWM_DutyCycleCCP2:
  8551                           	opt callstack 0
  8552                           
  8553 ;; *************** function _moverHomeX *****************
  8554 ;; Defined at:
  8555 ;;		line 83 in file "MotoresXYZ.c"
  8556 ;; Parameters:    Size  Location     Type
  8557 ;;		None
  8558 ;; Auto vars:     Size  Location     Type
  8559 ;;		None
  8560 ;; Return value:  Size  Location     Type
  8561 ;;                  1    wreg      void 
  8562 ;; Registers used:
  8563 ;;		wreg, status,2, status,0, prodl, prodh, cstack
  8564 ;; Tracked objects:
  8565 ;;		On entry : 0/0
  8566 ;;		On exit  : 0/0
  8567 ;;		Unchanged: 0/0
  8568 ;; Data sizes:     COMRAM   BANK0   BANK1   BANK2   BANK3   BANK4   BANK5   BANK6   BANK7
  8569 ;;      Params:         0       0       0       0       0       0       0       0       0
  8570 ;;      Locals:         0       0       0       0       0       0       0       0       0
  8571 ;;      Temps:          0       0       0       0       0       0       0       0       0
  8572 ;;      Totals:         0       0       0       0       0       0       0       0       0
  8573 ;;Total ram usage:        0 bytes
  8574 ;; Hardware stack levels used:    1
  8575 ;; Hardware stack levels required when called:    2
  8576 ;; This function calls:
  8577 ;;		i2_PWM_DutyCycleCCP1
  8578 ;; This function is called by:
  8579 ;;		_high_isr
  8580 ;; This function uses a non-reentrant model
  8581 ;;
  8582                           
  8583                           	psect	text49
  8584  00271A                     __ptext49:
  8585                           	opt callstack 0
  8586  00271A                     _moverHomeX:
  8587                           	opt callstack 21
  8588  00271A                     
  8589                           ;MotoresXYZ.c: 84:     destinoHomeX = 1;
  8590  00271A  0E01               	movlw	1
  8591  00271C  6E45               	movwf	_destinoHomeX^0,c
  8592  00271E                     
  8593                           ;MotoresXYZ.c: 86:     LATDbits.LATD3 = 0;
  8594  00271E  968C               	bcf	140,3,c	;volatile
  8595                           
  8596                           ;MotoresXYZ.c: 87:     sparcEnMovimientoX = 1;
  8597  002720  0E01               	movlw	1
  8598  002722  0100               	movlb	0	; () banked
  8599  002724  6FD5               	movwf	_sparcEnMovimientoX& (0+255),b
  8600  002726                     
  8601                           ; BSR set to: 0
  8602                           ;MotoresXYZ.c: 89:     PWM_DutyCycleCCP1(50);
  8603  002726  0E32               	movlw	50
  8604  002728  EC74  F010         	call	i2_PWM_DutyCycleCCP1
  8605  00272C  0012               	return		;funcret
  8606  00272E                     __end_of_moverHomeX:
  8607                           	opt callstack 0
  8608                           
  8609 ;; *************** function i2_PWM_DutyCycleCCP1 *****************
  8610 ;; Defined at:
  8611 ;;		line 17 in file "PWMCCP1.c"
  8612 ;; Parameters:    Size  Location     Type
  8613 ;;  WantedDutyCy    1    wreg     unsigned char 
  8614 ;; Auto vars:     Size  Location     Type
  8615 ;;  WantedDutyCy    1   55[COMRAM] unsigned char 
  8616 ;;  PWM_DutyCycl    2   56[COMRAM] unsigned short 
  8617 ;; Return value:  Size  Location     Type
  8618 ;;                  1    wreg      void 
  8619 ;; Registers used:
  8620 ;;		wreg, status,2, status,0, prodl, prodh, cstack
  8621 ;; Tracked objects:
  8622 ;;		On entry : 0/0
  8623 ;;		On exit  : 0/0
  8624 ;;		Unchanged: 0/0
  8625 ;; Data sizes:     COMRAM   BANK0   BANK1   BANK2   BANK3   BANK4   BANK5   BANK6   BANK7
  8626 ;;      Params:         0       0       0       0       0       0       0       0       0
  8627 ;;      Locals:         7       0       0       0       0       0       0       0       0
  8628 ;;      Temps:          2       0       0       0       0       0       0       0       0
  8629 ;;      Totals:         9       0       0       0       0       0       0       0       0
  8630 ;;Total ram usage:        9 bytes
  8631 ;; Hardware stack levels used:    1
  8632 ;; Hardware stack levels required when called:    1
  8633 ;; This function calls:
  8634 ;;		i2___flmul
  8635 ;;		i2___fltol
  8636 ;;		i2___xxtofl
  8637 ;; This function is called by:
  8638 ;;		_moverHomeX
  8639 ;;		_high_isr
  8640 ;; This function uses a non-reentrant model
  8641 ;;
  8642                           
  8643                           	psect	text50
  8644  0020E8                     __ptext50:
  8645                           	opt callstack 0
  8646  0020E8                     i2_PWM_DutyCycleCCP1:
  8647                           	opt callstack 22
  8648                           
  8649                           ;incstack = 0
  8650                           ;i2PWM_DutyCycleCCP1@WantedDutyCycle stored from wreg
  8651  0020E8  6E38               	movwf	i2PWM_DutyCycleCCP1@WantedDutyCycle^0,c
  8652  0020EA                     
  8653                           ;PWMCCP1.c: 19:     uint16_t PWMDutyValue;;PWMCCP1.c: 20:     PWMDutyValue = (WantedDuty
      +                          Cycle * 0.01)*1000;
  8654  0020EA  0E0A               	movlw	10
  8655  0020EC  6E13               	movwf	i2___flmul@a^0,c
  8656  0020EE  0ED7               	movlw	215
  8657  0020F0  6E14               	movwf	(i2___flmul@a+1)^0,c
  8658  0020F2  0E23               	movlw	35
  8659  0020F4  6E15               	movwf	(i2___flmul@a+2)^0,c
  8660  0020F6  0E3C               	movlw	60
  8661  0020F8  6E16               	movwf	(i2___flmul@a+3)^0,c
  8662  0020FA  5038               	movf	i2PWM_DutyCycleCCP1@WantedDutyCycle^0,w,c
  8663  0020FC  6E01               	movwf	i2___xxtofl@val^0,c
  8664  0020FE  6A02               	clrf	(i2___xxtofl@val+1)^0,c
  8665  002100  6A03               	clrf	(i2___xxtofl@val+2)^0,c
  8666  002102  6A04               	clrf	(i2___xxtofl@val+3)^0,c
  8667  002104  0E01               	movlw	1
  8668  002106  EC7A  F00A         	call	i2___xxtofl
  8669  00210A  C001  F00F         	movff	?i2___xxtofl,i2___flmul@b
  8670  00210E  C002  F010         	movff	?i2___xxtofl+1,i2___flmul@b+1
  8671  002112  C003  F011         	movff	?i2___xxtofl+2,i2___flmul@b+2
  8672  002116  C004  F012         	movff	?i2___xxtofl+3,i2___flmul@b+3
  8673  00211A  EC8D  F004         	call	i2___flmul	;wreg free
  8674  00211E  C00F  F034         	movff	?i2___flmul,i2_PWM_DutyCycleCCP1$2961
  8675  002122  C010  F035         	movff	?i2___flmul+1,i2_PWM_DutyCycleCCP1$2961+1
  8676  002126  C011  F036         	movff	?i2___flmul+2,i2_PWM_DutyCycleCCP1$2961+2
  8677  00212A  C012  F037         	movff	?i2___flmul+3,i2_PWM_DutyCycleCCP1$2961+3
  8678                           
  8679                           ;PWMCCP1.c: 19:     uint16_t PWMDutyValue;;PWMCCP1.c: 20:     PWMDutyValue = (WantedDuty
      +                          Cycle * 0.01)*1000;
  8680  00212E  0E00               	movlw	0
  8681  002130  6E13               	movwf	i2___flmul@a^0,c
  8682  002132  0E00               	movlw	0
  8683  002134  6E14               	movwf	(i2___flmul@a+1)^0,c
  8684  002136  0E7A               	movlw	122
  8685  002138  6E15               	movwf	(i2___flmul@a+2)^0,c
  8686  00213A  0E44               	movlw	68
  8687  00213C  6E16               	movwf	(i2___flmul@a+3)^0,c
  8688  00213E  C034  F00F         	movff	i2_PWM_DutyCycleCCP1$2961,i2___flmul@b
  8689  002142  C035  F010         	movff	i2_PWM_DutyCycleCCP1$2961+1,i2___flmul@b+1
  8690  002146  C036  F011         	movff	i2_PWM_DutyCycleCCP1$2961+2,i2___flmul@b+2
  8691  00214A  C037  F012         	movff	i2_PWM_DutyCycleCCP1$2961+3,i2___flmul@b+3
  8692  00214E  EC8D  F004         	call	i2___flmul	;wreg free
  8693  002152  C00F  F028         	movff	?i2___flmul,i2___fltol@f1
  8694  002156  C010  F029         	movff	?i2___flmul+1,i2___fltol@f1+1
  8695  00215A  C011  F02A         	movff	?i2___flmul+2,i2___fltol@f1+2
  8696  00215E  C012  F02B         	movff	?i2___flmul+3,i2___fltol@f1+3
  8697  002162  EC59  F00D         	call	i2___fltol	;wreg free
  8698  002166  C028  F039         	movff	?i2___fltol,i2PWM_DutyCycleCCP1@PWMDutyValue
  8699  00216A  C029  F03A         	movff	?i2___fltol+1,i2PWM_DutyCycleCCP1@PWMDutyValue+1
  8700  00216E                     
  8701                           ;PWMCCP1.c: 22:     CCP1CONbits.DC1B = (PWMDutyValue & 0x03);
  8702  00216E  C039  F032         	movff	i2PWM_DutyCycleCCP1@PWMDutyValue,??i2_PWM_DutyCycleCCP1
  8703  002172  0E03               	movlw	3
  8704  002174  1632               	andwf	??i2_PWM_DutyCycleCCP1^0,f,c
  8705  002176  3A32               	swapf	??i2_PWM_DutyCycleCCP1^0,f,c
  8706  002178  50BD               	movf	189,w,c	;volatile
  8707  00217A  1832               	xorwf	??i2_PWM_DutyCycleCCP1^0,w,c
  8708  00217C  0BCF               	andlw	-49
  8709  00217E  1832               	xorwf	??i2_PWM_DutyCycleCCP1^0,w,c
  8710  002180  6EBD               	movwf	189,c	;volatile
  8711  002182                     
  8712                           ;PWMCCP1.c: 23:     CCPR1L = ((PWMDutyValue >> 2)&0xFF);
  8713  002182  C039  F032         	movff	i2PWM_DutyCycleCCP1@PWMDutyValue,??i2_PWM_DutyCycleCCP1
  8714  002186  C03A  F033         	movff	i2PWM_DutyCycleCCP1@PWMDutyValue+1,??i2_PWM_DutyCycleCCP1+1
  8715  00218A  90D8               	bcf	status,0,c
  8716  00218C  3233               	rrcf	(??i2_PWM_DutyCycleCCP1+1)^0,f,c
  8717  00218E  3232               	rrcf	??i2_PWM_DutyCycleCCP1^0,f,c
  8718  002190  90D8               	bcf	status,0,c
  8719  002192  3233               	rrcf	(??i2_PWM_DutyCycleCCP1+1)^0,f,c
  8720  002194  3232               	rrcf	??i2_PWM_DutyCycleCCP1^0,f,c
  8721  002196  5032               	movf	??i2_PWM_DutyCycleCCP1^0,w,c
  8722  002198  6EBE               	movwf	190,c	;volatile
  8723  00219A  0012               	return		;funcret
  8724  00219C                     __end_ofi2_PWM_DutyCycleCCP1:
  8725                           	opt callstack 0
  8726                           
  8727 ;; *************** function i2___xxtofl *****************
  8728 ;; Defined at:
  8729 ;;		line 10 in file "C:\Program Files (x86)\Microchip\xc8\v2.10\pic\sources\c99\common\xxtofl.c"
  8730 ;; Parameters:    Size  Location     Type
  8731 ;;  sign            1    wreg     unsigned char 
  8732 ;;  val             4    0[COMRAM] long 
  8733 ;; Auto vars:     Size  Location     Type
  8734 ;;  sign            1    8[COMRAM] unsigned char 
  8735 ;;  __xxtofl        4   10[COMRAM] unsigned long 
  8736 ;;  __xxtofl        1    9[COMRAM] unsigned char 
  8737 ;; Return value:  Size  Location     Type
  8738 ;;                  4    0[COMRAM] unsigned char 
  8739 ;; Registers used:
  8740 ;;		wreg, status,2, status,0
  8741 ;; Tracked objects:
  8742 ;;		On entry : 0/0
  8743 ;;		On exit  : 0/0
  8744 ;;		Unchanged: 0/0
  8745 ;; Data sizes:     COMRAM   BANK0   BANK1   BANK2   BANK3   BANK4   BANK5   BANK6   BANK7
  8746 ;;      Params:         4       0       0       0       0       0       0       0       0
  8747 ;;      Locals:         6       0       0       0       0       0       0       0       0
  8748 ;;      Temps:          4       0       0       0       0       0       0       0       0
  8749 ;;      Totals:        14       0       0       0       0       0       0       0       0
  8750 ;;Total ram usage:       14 bytes
  8751 ;; Hardware stack levels used:    1
  8752 ;; This function calls:
  8753 ;;		Nothing
  8754 ;; This function is called by:
  8755 ;;		i2_PWM_DutyCycleCCP2
  8756 ;;		i2_PWM_DutyCycleCCP1
  8757 ;; This function uses a non-reentrant model
  8758 ;;
  8759                           
  8760                           	psect	text51
  8761  0014F4                     __ptext51:
  8762                           	opt callstack 0
  8763  0014F4                     i2___xxtofl:
  8764                           	opt callstack 22
  8765                           
  8766                           ;incstack = 0
  8767                           ;i2___xxtofl@sign stored from wreg
  8768  0014F4  6E09               	movwf	i2___xxtofl@sign^0,c
  8769  0014F6  5009               	movf	i2___xxtofl@sign^0,w,c
  8770  0014F8  B4D8               	btfsc	status,2,c
  8771  0014FA  EF81  F00A         	goto	i2u265_41
  8772  0014FE  EF83  F00A         	goto	i2u265_40
  8773  001502                     i2u265_41:
  8774  001502  EFA5  F00A         	goto	i2l1282
  8775  001506                     i2u265_40:
  8776  001506  BE04               	btfsc	(i2___xxtofl@val+3)^0,7,c
  8777  001508  EF8A  F00A         	goto	i2u266_40
  8778  00150C  EF88  F00A         	goto	i2u266_41
  8779  001510                     i2u266_41:
  8780  001510  EFA5  F00A         	goto	i2l1282
  8781  001514                     i2u266_40:
  8782  001514  C001  F005         	movff	i2___xxtofl@val,??i2___xxtofl
  8783  001518  C002  F006         	movff	i2___xxtofl@val+1,??i2___xxtofl+1
  8784  00151C  C003  F007         	movff	i2___xxtofl@val+2,??i2___xxtofl+2
  8785  001520  C004  F008         	movff	i2___xxtofl@val+3,??i2___xxtofl+3
  8786  001524  1E05               	comf	??i2___xxtofl^0,f,c
  8787  001526  1E06               	comf	(??i2___xxtofl+1)^0,f,c
  8788  001528  1E07               	comf	(??i2___xxtofl+2)^0,f,c
  8789  00152A  1E08               	comf	(??i2___xxtofl+3)^0,f,c
  8790  00152C  2A05               	incf	??i2___xxtofl^0,f,c
  8791  00152E  0E00               	movlw	0
  8792  001530  2206               	addwfc	(??i2___xxtofl+1)^0,f,c
  8793  001532  2207               	addwfc	(??i2___xxtofl+2)^0,f,c
  8794  001534  2208               	addwfc	(??i2___xxtofl+3)^0,f,c
  8795  001536  C005  F00B         	movff	??i2___xxtofl,i2___xxtofl@arg
  8796  00153A  C006  F00C         	movff	??i2___xxtofl+1,i2___xxtofl@arg+1
  8797  00153E  C007  F00D         	movff	??i2___xxtofl+2,i2___xxtofl@arg+2
  8798  001542  C008  F00E         	movff	??i2___xxtofl+3,i2___xxtofl@arg+3
  8799  001546  EFAD  F00A         	goto	i2l3089
  8800  00154A                     i2l1282:
  8801  00154A  C001  F00B         	movff	i2___xxtofl@val,i2___xxtofl@arg
  8802  00154E  C002  F00C         	movff	i2___xxtofl@val+1,i2___xxtofl@arg+1
  8803  001552  C003  F00D         	movff	i2___xxtofl@val+2,i2___xxtofl@arg+2
  8804  001556  C004  F00E         	movff	i2___xxtofl@val+3,i2___xxtofl@arg+3
  8805  00155A                     i2l3089:
  8806  00155A  5001               	movf	i2___xxtofl@val^0,w,c
  8807  00155C  1002               	iorwf	(i2___xxtofl@val+1)^0,w,c
  8808  00155E  1003               	iorwf	(i2___xxtofl@val+2)^0,w,c
  8809  001560  1004               	iorwf	(i2___xxtofl@val+3)^0,w,c
  8810  001562  A4D8               	btfss	status,2,c
  8811  001564  EFB6  F00A         	goto	i2u267_41
  8812  001568  EFB8  F00A         	goto	i2u267_40
  8813  00156C                     i2u267_41:
  8814  00156C  EFC2  F00A         	goto	i2l3095
  8815  001570                     i2u267_40:
  8816  001570  0E00               	movlw	0
  8817  001572  6E01               	movwf	?i2___xxtofl^0,c
  8818  001574  0E00               	movlw	0
  8819  001576  6E02               	movwf	(?i2___xxtofl+1)^0,c
  8820  001578  0E00               	movlw	0
  8821  00157A  6E03               	movwf	(?i2___xxtofl+2)^0,c
  8822  00157C  0E00               	movlw	0
  8823  00157E  6E04               	movwf	(?i2___xxtofl+3)^0,c
  8824  001580  EF53  F00B         	goto	i2l1285
  8825  001584                     i2l3095:
  8826  001584  0E96               	movlw	150
  8827  001586  6E0A               	movwf	i2___xxtofl@exp^0,c
  8828  001588  EFCC  F00A         	goto	i2l3099
  8829  00158C                     i2l3097:
  8830  00158C  2A0A               	incf	i2___xxtofl@exp^0,f,c
  8831  00158E  90D8               	bcf	status,0,c
  8832  001590  320E               	rrcf	(i2___xxtofl@arg+3)^0,f,c
  8833  001592  320D               	rrcf	(i2___xxtofl@arg+2)^0,f,c
  8834  001594  320C               	rrcf	(i2___xxtofl@arg+1)^0,f,c
  8835  001596  320B               	rrcf	i2___xxtofl@arg^0,f,c
  8836  001598                     i2l3099:
  8837  001598  0E00               	movlw	0
  8838  00159A  140B               	andwf	i2___xxtofl@arg^0,w,c
  8839  00159C  6E05               	movwf	??i2___xxtofl^0,c
  8840  00159E  0E00               	movlw	0
  8841  0015A0  140C               	andwf	(i2___xxtofl@arg+1)^0,w,c
  8842  0015A2  6E06               	movwf	(??i2___xxtofl+1)^0,c
  8843  0015A4  0E00               	movlw	0
  8844  0015A6  140D               	andwf	(i2___xxtofl@arg+2)^0,w,c
  8845  0015A8  6E07               	movwf	(??i2___xxtofl+2)^0,c
  8846  0015AA  0EFE               	movlw	254
  8847  0015AC  140E               	andwf	(i2___xxtofl@arg+3)^0,w,c
  8848  0015AE  6E08               	movwf	(??i2___xxtofl+3)^0,c
  8849  0015B0  5005               	movf	??i2___xxtofl^0,w,c
  8850  0015B2  1006               	iorwf	(??i2___xxtofl+1)^0,w,c
  8851  0015B4  1007               	iorwf	(??i2___xxtofl+2)^0,w,c
  8852  0015B6  1008               	iorwf	(??i2___xxtofl+3)^0,w,c
  8853  0015B8  A4D8               	btfss	status,2,c
  8854  0015BA  EFE1  F00A         	goto	i2u268_41
  8855  0015BE  EFE3  F00A         	goto	i2u268_40
  8856  0015C2                     i2u268_41:
  8857  0015C2  EFC6  F00A         	goto	i2l3097
  8858  0015C6                     i2u268_40:
  8859  0015C6  EFF1  F00A         	goto	i2l1289
  8860  0015CA                     i2l3101:
  8861  0015CA  2A0A               	incf	i2___xxtofl@exp^0,f,c
  8862  0015CC  0E01               	movlw	1
  8863  0015CE  260B               	addwf	i2___xxtofl@arg^0,f,c
  8864  0015D0  0E00               	movlw	0
  8865  0015D2  220C               	addwfc	(i2___xxtofl@arg+1)^0,f,c
  8866  0015D4  220D               	addwfc	(i2___xxtofl@arg+2)^0,f,c
  8867  0015D6  220E               	addwfc	(i2___xxtofl@arg+3)^0,f,c
  8868  0015D8  90D8               	bcf	status,0,c
  8869  0015DA  320E               	rrcf	(i2___xxtofl@arg+3)^0,f,c
  8870  0015DC  320D               	rrcf	(i2___xxtofl@arg+2)^0,f,c
  8871  0015DE  320C               	rrcf	(i2___xxtofl@arg+1)^0,f,c
  8872  0015E0  320B               	rrcf	i2___xxtofl@arg^0,f,c
  8873  0015E2                     i2l1289:
  8874  0015E2  0E00               	movlw	0
  8875  0015E4  140B               	andwf	i2___xxtofl@arg^0,w,c
  8876  0015E6  6E05               	movwf	??i2___xxtofl^0,c
  8877  0015E8  0E00               	movlw	0
  8878  0015EA  140C               	andwf	(i2___xxtofl@arg+1)^0,w,c
  8879  0015EC  6E06               	movwf	(??i2___xxtofl+1)^0,c
  8880  0015EE  0E00               	movlw	0
  8881  0015F0  140D               	andwf	(i2___xxtofl@arg+2)^0,w,c
  8882  0015F2  6E07               	movwf	(??i2___xxtofl+2)^0,c
  8883  0015F4  0EFF               	movlw	255
  8884  0015F6  140E               	andwf	(i2___xxtofl@arg+3)^0,w,c
  8885  0015F8  6E08               	movwf	(??i2___xxtofl+3)^0,c
  8886  0015FA  5005               	movf	??i2___xxtofl^0,w,c
  8887  0015FC  1006               	iorwf	(??i2___xxtofl+1)^0,w,c
  8888  0015FE  1007               	iorwf	(??i2___xxtofl+2)^0,w,c
  8889  001600  1008               	iorwf	(??i2___xxtofl+3)^0,w,c
  8890  001602  A4D8               	btfss	status,2,c
  8891  001604  EF06  F00B         	goto	i2u269_41
  8892  001608  EF08  F00B         	goto	i2u269_40
  8893  00160C                     i2u269_41:
  8894  00160C  EFE5  F00A         	goto	i2l3101
  8895  001610                     i2u269_40:
  8896  001610  EF10  F00B         	goto	i2l3109
  8897  001614                     i2l3107:
  8898  001614  060A               	decf	i2___xxtofl@exp^0,f,c
  8899  001616  90D8               	bcf	status,0,c
  8900  001618  360B               	rlcf	i2___xxtofl@arg^0,f,c
  8901  00161A  360C               	rlcf	(i2___xxtofl@arg+1)^0,f,c
  8902  00161C  360D               	rlcf	(i2___xxtofl@arg+2)^0,f,c
  8903  00161E  360E               	rlcf	(i2___xxtofl@arg+3)^0,f,c
  8904  001620                     i2l3109:
  8905  001620  BE0D               	btfsc	(i2___xxtofl@arg+2)^0,7,c
  8906  001622  EF15  F00B         	goto	i2u270_41
  8907  001626  EF17  F00B         	goto	i2u270_40
  8908  00162A                     i2u270_41:
  8909  00162A  EF1F  F00B         	goto	i2l1296
  8910  00162E                     i2u270_40:
  8911  00162E  0E02               	movlw	2
  8912  001630  600A               	cpfslt	i2___xxtofl@exp^0,c
  8913  001632  EF1D  F00B         	goto	i2u271_41
  8914  001636  EF1F  F00B         	goto	i2u271_40
  8915  00163A                     i2u271_41:
  8916  00163A  EF0A  F00B         	goto	i2l3107
  8917  00163E                     i2u271_40:
  8918  00163E                     i2l1296:
  8919  00163E  B00A               	btfsc	i2___xxtofl@exp^0,0,c
  8920  001640  EF24  F00B         	goto	i2u272_41
  8921  001644  EF26  F00B         	goto	i2u272_40
  8922  001648                     i2u272_41:
  8923  001648  EF27  F00B         	goto	i2l3115
  8924  00164C                     i2u272_40:
  8925  00164C  9E0D               	bcf	(i2___xxtofl@arg+2)^0,7,c
  8926  00164E                     i2l3115:
  8927  00164E  90D8               	bcf	status,0,c
  8928  001650  320A               	rrcf	i2___xxtofl@exp^0,f,c
  8929  001652  C00A  F005         	movff	i2___xxtofl@exp,??i2___xxtofl
  8930  001656  6A06               	clrf	(??i2___xxtofl+1)^0,c
  8931  001658  6A07               	clrf	(??i2___xxtofl+2)^0,c
  8932  00165A  6A08               	clrf	(??i2___xxtofl+3)^0,c
  8933  00165C  C005  F008         	movff	??i2___xxtofl,??i2___xxtofl+3
  8934  001660  6A07               	clrf	(??i2___xxtofl+2)^0,c
  8935  001662  6A06               	clrf	(??i2___xxtofl+1)^0,c
  8936  001664  6A05               	clrf	??i2___xxtofl^0,c
  8937  001666  5005               	movf	??i2___xxtofl^0,w,c
  8938  001668  120B               	iorwf	i2___xxtofl@arg^0,f,c
  8939  00166A  5006               	movf	(??i2___xxtofl+1)^0,w,c
  8940  00166C  120C               	iorwf	(i2___xxtofl@arg+1)^0,f,c
  8941  00166E  5007               	movf	(??i2___xxtofl+2)^0,w,c
  8942  001670  120D               	iorwf	(i2___xxtofl@arg+2)^0,f,c
  8943  001672  5008               	movf	(??i2___xxtofl+3)^0,w,c
  8944  001674  120E               	iorwf	(i2___xxtofl@arg+3)^0,f,c
  8945  001676  5009               	movf	i2___xxtofl@sign^0,w,c
  8946  001678  B4D8               	btfsc	status,2,c
  8947  00167A  EF41  F00B         	goto	i2u273_41
  8948  00167E  EF43  F00B         	goto	i2u273_40
  8949  001682                     i2u273_41:
  8950  001682  EF4B  F00B         	goto	i2l3125
  8951  001686                     i2u273_40:
  8952  001686  BE04               	btfsc	(i2___xxtofl@val+3)^0,7,c
  8953  001688  EF4A  F00B         	goto	i2u274_40
  8954  00168C  EF48  F00B         	goto	i2u274_41
  8955  001690                     i2u274_41:
  8956  001690  EF4B  F00B         	goto	i2l3125
  8957  001694                     i2u274_40:
  8958  001694  8E0E               	bsf	(i2___xxtofl@arg+3)^0,7,c
  8959  001696                     i2l3125:
  8960  001696  C00B  F001         	movff	i2___xxtofl@arg,?i2___xxtofl
  8961  00169A  C00C  F002         	movff	i2___xxtofl@arg+1,?i2___xxtofl+1
  8962  00169E  C00D  F003         	movff	i2___xxtofl@arg+2,?i2___xxtofl+2
  8963  0016A2  C00E  F004         	movff	i2___xxtofl@arg+3,?i2___xxtofl+3
  8964  0016A6                     i2l1285:
  8965  0016A6  0012               	return		;funcret
  8966  0016A8                     __end_ofi2___xxtofl:
  8967                           	opt callstack 0
  8968                           
  8969 ;; *************** function i2___fltol *****************
  8970 ;; Defined at:
  8971 ;;		line 43 in file "C:\Program Files (x86)\Microchip\xc8\v2.10\pic\sources\c99\common\fltol.c"
  8972 ;; Parameters:    Size  Location     Type
  8973 ;;  f1              4   39[COMRAM] unsigned char 
  8974 ;; Auto vars:     Size  Location     Type
  8975 ;;  __fltol         1   48[COMRAM] unsigned char 
  8976 ;;  __fltol         1   47[COMRAM] unsigned char 
  8977 ;; Return value:  Size  Location     Type
  8978 ;;                  4   39[COMRAM] long 
  8979 ;; Registers used:
  8980 ;;		wreg, status,2, status,0
  8981 ;; Tracked objects:
  8982 ;;		On entry : 0/0
  8983 ;;		On exit  : 0/0
  8984 ;;		Unchanged: 0/0
  8985 ;; Data sizes:     COMRAM   BANK0   BANK1   BANK2   BANK3   BANK4   BANK5   BANK6   BANK7
  8986 ;;      Params:         4       0       0       0       0       0       0       0       0
  8987 ;;      Locals:         2       0       0       0       0       0       0       0       0
  8988 ;;      Temps:          4       0       0       0       0       0       0       0       0
  8989 ;;      Totals:        10       0       0       0       0       0       0       0       0
  8990 ;;Total ram usage:       10 bytes
  8991 ;; Hardware stack levels used:    1
  8992 ;; This function calls:
  8993 ;;		Nothing
  8994 ;; This function is called by:
  8995 ;;		i2_PWM_DutyCycleCCP2
  8996 ;;		i2_PWM_DutyCycleCCP1
  8997 ;; This function uses a non-reentrant model
  8998 ;;
  8999                           
  9000                           	psect	text52
  9001  001AB2                     __ptext52:
  9002                           	opt callstack 0
  9003  001AB2                     i2___fltol:
  9004                           	opt callstack 22
  9005  001AB2  342A               	rlcf	(i2___fltol@f1+2)^0,w,c
  9006  001AB4  342B               	rlcf	(i2___fltol@f1+3)^0,w,c
  9007  001AB6  6E31               	movwf	i2___fltol@exp1^0,c
  9008  001AB8  5031               	movf	i2___fltol@exp1^0,w,c
  9009  001ABA  A4D8               	btfss	status,2,c
  9010  001ABC  EF62  F00D         	goto	i2u239_41
  9011  001AC0  EF64  F00D         	goto	i2u239_40
  9012  001AC4                     i2u239_41:
  9013  001AC4  EF6E  F00D         	goto	i2l2915
  9014  001AC8                     i2u239_40:
  9015  001AC8                     i2l2911:
  9016  001AC8  0E00               	movlw	0
  9017  001ACA  6E28               	movwf	?i2___fltol^0,c
  9018  001ACC  0E00               	movlw	0
  9019  001ACE  6E29               	movwf	(?i2___fltol+1)^0,c
  9020  001AD0  0E00               	movlw	0
  9021  001AD2  6E2A               	movwf	(?i2___fltol+2)^0,c
  9022  001AD4  0E00               	movlw	0
  9023  001AD6  6E2B               	movwf	(?i2___fltol+3)^0,c
  9024  001AD8  EFDB  F00D         	goto	i2l924
  9025  001ADC                     i2l2915:
  9026  001ADC  C028  F02C         	movff	i2___fltol@f1,??i2___fltol
  9027  001AE0  C029  F02D         	movff	i2___fltol@f1+1,??i2___fltol+1
  9028  001AE4  C02A  F02E         	movff	i2___fltol@f1+2,??i2___fltol+2
  9029  001AE8  C02B  F02F         	movff	i2___fltol@f1+3,??i2___fltol+3
  9030  001AEC  0E20               	movlw	32
  9031  001AEE  EF7E  F00D         	goto	i2u240_40
  9032  001AF2                     i2u240_45:
  9033  001AF2  90D8               	bcf	status,0,c
  9034  001AF4  322F               	rrcf	(??i2___fltol+3)^0,f,c
  9035  001AF6  322E               	rrcf	(??i2___fltol+2)^0,f,c
  9036  001AF8  322D               	rrcf	(??i2___fltol+1)^0,f,c
  9037  001AFA  322C               	rrcf	??i2___fltol^0,f,c
  9038  001AFC                     i2u240_40:
  9039  001AFC  2EE8               	decfsz	wreg,f,c
  9040  001AFE  EF79  F00D         	goto	i2u240_45
  9041  001B02  502C               	movf	??i2___fltol^0,w,c
  9042  001B04  6E30               	movwf	i2___fltol@sign1^0,c
  9043  001B06  8E2A               	bsf	(i2___fltol@f1+2)^0,7,c
  9044  001B08  0EFF               	movlw	255
  9045  001B0A  1628               	andwf	i2___fltol@f1^0,f,c
  9046  001B0C  0EFF               	movlw	255
  9047  001B0E  1629               	andwf	(i2___fltol@f1+1)^0,f,c
  9048  001B10  0EFF               	movlw	255
  9049  001B12  162A               	andwf	(i2___fltol@f1+2)^0,f,c
  9050  001B14  0E00               	movlw	0
  9051  001B16  162B               	andwf	(i2___fltol@f1+3)^0,f,c
  9052  001B18  0E96               	movlw	150
  9053  001B1A  5E31               	subwf	i2___fltol@exp1^0,f,c
  9054  001B1C  BE31               	btfsc	i2___fltol@exp1^0,7,c
  9055  001B1E  EF95  F00D         	goto	i2u241_40
  9056  001B22  EF93  F00D         	goto	i2u241_41
  9057  001B26                     i2u241_41:
  9058  001B26  EFAB  F00D         	goto	i2l2935
  9059  001B2A                     i2u241_40:
  9060  001B2A  5031               	movf	i2___fltol@exp1^0,w,c
  9061  001B2C  0A80               	xorlw	128
  9062  001B2E  0F97               	addlw	151
  9063  001B30  B0D8               	btfsc	status,0,c
  9064  001B32  EF9D  F00D         	goto	i2u242_41
  9065  001B36  EF9F  F00D         	goto	i2u242_40
  9066  001B3A                     i2u242_41:
  9067  001B3A  EFA1  F00D         	goto	i2l2931
  9068  001B3E                     i2u242_40:
  9069  001B3E  EF64  F00D         	goto	i2l2911
  9070  001B42                     i2l2931:
  9071  001B42  90D8               	bcf	status,0,c
  9072  001B44  322B               	rrcf	(i2___fltol@f1+3)^0,f,c
  9073  001B46  322A               	rrcf	(i2___fltol@f1+2)^0,f,c
  9074  001B48  3229               	rrcf	(i2___fltol@f1+1)^0,f,c
  9075  001B4A  3228               	rrcf	i2___fltol@f1^0,f,c
  9076  001B4C  3E31               	incfsz	i2___fltol@exp1^0,f,c
  9077  001B4E  EFA1  F00D         	goto	i2l2931
  9078  001B52  EFC3  F00D         	goto	i2l2945
  9079  001B56                     i2l2935:
  9080  001B56  0E1F               	movlw	31
  9081  001B58  6431               	cpfsgt	i2___fltol@exp1^0,c
  9082  001B5A  EFB1  F00D         	goto	i2u243_41
  9083  001B5E  EFB3  F00D         	goto	i2u243_40
  9084  001B62                     i2u243_41:
  9085  001B62  EFBB  F00D         	goto	i2l2943
  9086  001B66                     i2u243_40:
  9087  001B66  EF64  F00D         	goto	i2l2911
  9088  001B6A                     i2l2941:
  9089  001B6A  90D8               	bcf	status,0,c
  9090  001B6C  3628               	rlcf	i2___fltol@f1^0,f,c
  9091  001B6E  3629               	rlcf	(i2___fltol@f1+1)^0,f,c
  9092  001B70  362A               	rlcf	(i2___fltol@f1+2)^0,f,c
  9093  001B72  362B               	rlcf	(i2___fltol@f1+3)^0,f,c
  9094  001B74  0631               	decf	i2___fltol@exp1^0,f,c
  9095  001B76                     i2l2943:
  9096  001B76  5031               	movf	i2___fltol@exp1^0,w,c
  9097  001B78  A4D8               	btfss	status,2,c
  9098  001B7A  EFC1  F00D         	goto	i2u244_41
  9099  001B7E  EFC3  F00D         	goto	i2u244_40
  9100  001B82                     i2u244_41:
  9101  001B82  EFB5  F00D         	goto	i2l2941
  9102  001B86                     i2u244_40:
  9103  001B86                     i2l2945:
  9104  001B86  5030               	movf	i2___fltol@sign1^0,w,c
  9105  001B88  B4D8               	btfsc	status,2,c
  9106  001B8A  EFC9  F00D         	goto	i2u245_41
  9107  001B8E  EFCB  F00D         	goto	i2u245_40
  9108  001B92                     i2u245_41:
  9109  001B92  EFD3  F00D         	goto	i2l2949
  9110  001B96                     i2u245_40:
  9111  001B96  1E2B               	comf	(i2___fltol@f1+3)^0,f,c
  9112  001B98  1E2A               	comf	(i2___fltol@f1+2)^0,f,c
  9113  001B9A  1E29               	comf	(i2___fltol@f1+1)^0,f,c
  9114  001B9C  6C28               	negf	i2___fltol@f1^0,c
  9115  001B9E  0E00               	movlw	0
  9116  001BA0  2229               	addwfc	(i2___fltol@f1+1)^0,f,c
  9117  001BA2  222A               	addwfc	(i2___fltol@f1+2)^0,f,c
  9118  001BA4  222B               	addwfc	(i2___fltol@f1+3)^0,f,c
  9119  001BA6                     i2l2949:
  9120  001BA6  C028  F028         	movff	i2___fltol@f1,?i2___fltol
  9121  001BAA  C029  F029         	movff	i2___fltol@f1+1,?i2___fltol+1
  9122  001BAE  C02A  F02A         	movff	i2___fltol@f1+2,?i2___fltol+2
  9123  001BB2  C02B  F02B         	movff	i2___fltol@f1+3,?i2___fltol+3
  9124  001BB6                     i2l924:
  9125  001BB6  0012               	return		;funcret
  9126  001BB8                     __end_ofi2___fltol:
  9127                           	opt callstack 0
  9128                           
  9129 ;; *************** function i2___flmul *****************
  9130 ;; Defined at:
  9131 ;;		line 8 in file "C:\Program Files (x86)\Microchip\xc8\v2.10\pic\sources\c99\common\sprcmul.c"
  9132 ;; Parameters:    Size  Location     Type
  9133 ;;  b               4   14[COMRAM] long 
  9134 ;;  a               4   18[COMRAM] long 
  9135 ;; Auto vars:     Size  Location     Type
  9136 ;;  __flmul         4   33[COMRAM] struct .
  9137 ;;  __flmul         4   27[COMRAM] unsigned long 
  9138 ;;  __flmul         2   37[COMRAM] struct .
  9139 ;;  __flmul         1   32[COMRAM] unsigned char 
  9140 ;;  __flmul         1   31[COMRAM] unsigned char 
  9141 ;;  __flmul         1   26[COMRAM] unsigned char 
  9142 ;; Return value:  Size  Location     Type
  9143 ;;                  4   14[COMRAM] unsigned char 
  9144 ;; Registers used:
  9145 ;;		wreg, status,2, status,0, prodl, prodh
  9146 ;; Tracked objects:
  9147 ;;		On entry : 0/0
  9148 ;;		On exit  : 0/0
  9149 ;;		Unchanged: 0/0
  9150 ;; Data sizes:     COMRAM   BANK0   BANK1   BANK2   BANK3   BANK4   BANK5   BANK6   BANK7
  9151 ;;      Params:         8       0       0       0       0       0       0       0       0
  9152 ;;      Locals:        13       0       0       0       0       0       0       0       0
  9153 ;;      Temps:          4       0       0       0       0       0       0       0       0
  9154 ;;      Totals:        25       0       0       0       0       0       0       0       0
  9155 ;;Total ram usage:       25 bytes
  9156 ;; Hardware stack levels used:    1
  9157 ;; This function calls:
  9158 ;;		Nothing
  9159 ;; This function is called by:
  9160 ;;		i2_PWM_DutyCycleCCP2
  9161 ;;		i2_PWM_DutyCycleCCP1
  9162 ;; This function uses a non-reentrant model
  9163 ;;
  9164                           
  9165                           	psect	text53
  9166  00091A                     __ptext53:
  9167                           	opt callstack 0
  9168  00091A                     i2___flmul:
  9169                           	opt callstack 22
  9170  00091A  5012               	movf	(i2___flmul@b+3)^0,w,c
  9171  00091C  0B80               	andlw	128
  9172  00091E  6E1B               	movwf	i2___flmul@sign^0,c
  9173  000920  5012               	movf	(i2___flmul@b+3)^0,w,c
  9174  000922  2412               	addwf	(i2___flmul@b+3)^0,w,c
  9175  000924  6E21               	movwf	i2___flmul@bexp^0,c
  9176  000926  AE11               	btfss	(i2___flmul@b+2)^0,7,c
  9177  000928  EF98  F004         	goto	i2u246_41
  9178  00092C  EF9A  F004         	goto	i2u246_40
  9179  000930                     i2u246_41:
  9180  000930  EF9B  F004         	goto	i2l2959
  9181  000934                     i2u246_40:
  9182  000934  8021               	bsf	i2___flmul@bexp^0,0,c
  9183  000936                     i2l2959:
  9184  000936  5021               	movf	i2___flmul@bexp^0,w,c
  9185  000938  B4D8               	btfsc	status,2,c
  9186  00093A  EFA1  F004         	goto	i2u247_41
  9187  00093E  EFA3  F004         	goto	i2u247_40
  9188  000942                     i2u247_41:
  9189  000942  EFB6  F004         	goto	i2l2967
  9190  000946                     i2u247_40:
  9191  000946  2821               	incf	i2___flmul@bexp^0,w,c
  9192  000948  A4D8               	btfss	status,2,c
  9193  00094A  EFA9  F004         	goto	i2u248_41
  9194  00094E  EFAB  F004         	goto	i2u248_40
  9195  000952                     i2u248_41:
  9196  000952  EFB3  F004         	goto	i2l2965
  9197  000956                     i2u248_40:
  9198  000956  0E00               	movlw	0
  9199  000958  6E0F               	movwf	i2___flmul@b^0,c
  9200  00095A  0E00               	movlw	0
  9201  00095C  6E10               	movwf	(i2___flmul@b+1)^0,c
  9202  00095E  0E00               	movlw	0
  9203  000960  6E11               	movwf	(i2___flmul@b+2)^0,c
  9204  000962  0E00               	movlw	0
  9205  000964  6E12               	movwf	(i2___flmul@b+3)^0,c
  9206  000966                     i2l2965:
  9207  000966  8E11               	bsf	(i2___flmul@b+2)^0,7,c
  9208  000968  EFBE  F004         	goto	i2l2969
  9209  00096C                     i2l2967:
  9210  00096C  0E00               	movlw	0
  9211  00096E  6E0F               	movwf	i2___flmul@b^0,c
  9212  000970  0E00               	movlw	0
  9213  000972  6E10               	movwf	(i2___flmul@b+1)^0,c
  9214  000974  0E00               	movlw	0
  9215  000976  6E11               	movwf	(i2___flmul@b+2)^0,c
  9216  000978  0E00               	movlw	0
  9217  00097A  6E12               	movwf	(i2___flmul@b+3)^0,c
  9218  00097C                     i2l2969:
  9219  00097C  5016               	movf	(i2___flmul@a+3)^0,w,c
  9220  00097E  0B80               	andlw	128
  9221  000980  1A1B               	xorwf	i2___flmul@sign^0,f,c
  9222  000982  5016               	movf	(i2___flmul@a+3)^0,w,c
  9223  000984  2416               	addwf	(i2___flmul@a+3)^0,w,c
  9224  000986  6E20               	movwf	i2___flmul@aexp^0,c
  9225  000988  AE15               	btfss	(i2___flmul@a+2)^0,7,c
  9226  00098A  EFC9  F004         	goto	i2u249_41
  9227  00098E  EFCB  F004         	goto	i2u249_40
  9228  000992                     i2u249_41:
  9229  000992  EFCC  F004         	goto	i2l2977
  9230  000996                     i2u249_40:
  9231  000996  8020               	bsf	i2___flmul@aexp^0,0,c
  9232  000998                     i2l2977:
  9233  000998  5020               	movf	i2___flmul@aexp^0,w,c
  9234  00099A  B4D8               	btfsc	status,2,c
  9235  00099C  EFD2  F004         	goto	i2u250_41
  9236  0009A0  EFD4  F004         	goto	i2u250_40
  9237  0009A4                     i2u250_41:
  9238  0009A4  EFE7  F004         	goto	i2l2985
  9239  0009A8                     i2u250_40:
  9240  0009A8  2820               	incf	i2___flmul@aexp^0,w,c
  9241  0009AA  A4D8               	btfss	status,2,c
  9242  0009AC  EFDA  F004         	goto	i2u251_41
  9243  0009B0  EFDC  F004         	goto	i2u251_40
  9244  0009B4                     i2u251_41:
  9245  0009B4  EFE4  F004         	goto	i2l2983
  9246  0009B8                     i2u251_40:
  9247  0009B8  0E00               	movlw	0
  9248  0009BA  6E13               	movwf	i2___flmul@a^0,c
  9249  0009BC  0E00               	movlw	0
  9250  0009BE  6E14               	movwf	(i2___flmul@a+1)^0,c
  9251  0009C0  0E00               	movlw	0
  9252  0009C2  6E15               	movwf	(i2___flmul@a+2)^0,c
  9253  0009C4  0E00               	movlw	0
  9254  0009C6  6E16               	movwf	(i2___flmul@a+3)^0,c
  9255  0009C8                     i2l2983:
  9256  0009C8  8E15               	bsf	(i2___flmul@a+2)^0,7,c
  9257  0009CA  EFEF  F004         	goto	i2l1241
  9258  0009CE                     i2l2985:
  9259  0009CE  0E00               	movlw	0
  9260  0009D0  6E13               	movwf	i2___flmul@a^0,c
  9261  0009D2  0E00               	movlw	0
  9262  0009D4  6E14               	movwf	(i2___flmul@a+1)^0,c
  9263  0009D6  0E00               	movlw	0
  9264  0009D8  6E15               	movwf	(i2___flmul@a+2)^0,c
  9265  0009DA  0E00               	movlw	0
  9266  0009DC  6E16               	movwf	(i2___flmul@a+3)^0,c
  9267  0009DE                     i2l1241:
  9268  0009DE  5020               	movf	i2___flmul@aexp^0,w,c
  9269  0009E0  B4D8               	btfsc	status,2,c
  9270  0009E2  EFF5  F004         	goto	i2u252_41
  9271  0009E6  EFF7  F004         	goto	i2u252_40
  9272  0009EA                     i2u252_41:
  9273  0009EA  EFFF  F004         	goto	i2l2989
  9274  0009EE                     i2u252_40:
  9275  0009EE  5021               	movf	i2___flmul@bexp^0,w,c
  9276  0009F0  A4D8               	btfss	status,2,c
  9277  0009F2  EFFD  F004         	goto	i2u253_41
  9278  0009F6  EFFF  F004         	goto	i2u253_40
  9279  0009FA                     i2u253_41:
  9280  0009FA  EF09  F005         	goto	i2l2993
  9281  0009FE                     i2u253_40:
  9282  0009FE                     i2l2989:
  9283  0009FE  0E00               	movlw	0
  9284  000A00  6E0F               	movwf	?i2___flmul^0,c
  9285  000A02  0E00               	movlw	0
  9286  000A04  6E10               	movwf	(?i2___flmul+1)^0,c
  9287  000A06  0E00               	movlw	0
  9288  000A08  6E11               	movwf	(?i2___flmul+2)^0,c
  9289  000A0A  0E00               	movlw	0
  9290  000A0C  6E12               	movwf	(?i2___flmul+3)^0,c
  9291  000A0E  EFA1  F006         	goto	i2l1245
  9292  000A12                     i2l2993:
  9293  000A12  5015               	movf	(i2___flmul@a+2)^0,w,c
  9294  000A14  020F               	mulwf	i2___flmul@b^0,c
  9295  000A16  CFF3 F026          	movff	prodl,i2___flmul@temp
  9296  000A1A  CFF4 F027          	movff	prodh,i2___flmul@temp+1
  9297  000A1E  5026               	movf	i2___flmul@temp^0,w,c
  9298  000A20  6E1C               	movwf	i2___flmul@grs^0,c
  9299  000A22  6A1D               	clrf	(i2___flmul@grs+1)^0,c
  9300  000A24  6A1E               	clrf	(i2___flmul@grs+2)^0,c
  9301  000A26  6A1F               	clrf	(i2___flmul@grs+3)^0,c
  9302  000A28  5027               	movf	(i2___flmul@temp+1)^0,w,c
  9303  000A2A  6E22               	movwf	i2___flmul@prod^0,c
  9304  000A2C  6A23               	clrf	(i2___flmul@prod+1)^0,c
  9305  000A2E  6A24               	clrf	(i2___flmul@prod+2)^0,c
  9306  000A30  6A25               	clrf	(i2___flmul@prod+3)^0,c
  9307  000A32  5014               	movf	(i2___flmul@a+1)^0,w,c
  9308  000A34  0210               	mulwf	(i2___flmul@b+1)^0,c
  9309  000A36  CFF3 F026          	movff	prodl,i2___flmul@temp
  9310  000A3A  CFF4 F027          	movff	prodh,i2___flmul@temp+1
  9311  000A3E  5026               	movf	i2___flmul@temp^0,w,c
  9312  000A40  261C               	addwf	i2___flmul@grs^0,f,c
  9313  000A42  0E00               	movlw	0
  9314  000A44  221D               	addwfc	(i2___flmul@grs+1)^0,f,c
  9315  000A46  221E               	addwfc	(i2___flmul@grs+2)^0,f,c
  9316  000A48  221F               	addwfc	(i2___flmul@grs+3)^0,f,c
  9317  000A4A  5027               	movf	(i2___flmul@temp+1)^0,w,c
  9318  000A4C  2622               	addwf	i2___flmul@prod^0,f,c
  9319  000A4E  0E00               	movlw	0
  9320  000A50  2223               	addwfc	(i2___flmul@prod+1)^0,f,c
  9321  000A52  2224               	addwfc	(i2___flmul@prod+2)^0,f,c
  9322  000A54  2225               	addwfc	(i2___flmul@prod+3)^0,f,c
  9323  000A56  5013               	movf	i2___flmul@a^0,w,c
  9324  000A58  0211               	mulwf	(i2___flmul@b+2)^0,c
  9325  000A5A  CFF3 F026          	movff	prodl,i2___flmul@temp
  9326  000A5E  CFF4 F027          	movff	prodh,i2___flmul@temp+1
  9327  000A62  5026               	movf	i2___flmul@temp^0,w,c
  9328  000A64  261C               	addwf	i2___flmul@grs^0,f,c
  9329  000A66  0E00               	movlw	0
  9330  000A68  221D               	addwfc	(i2___flmul@grs+1)^0,f,c
  9331  000A6A  221E               	addwfc	(i2___flmul@grs+2)^0,f,c
  9332  000A6C  221F               	addwfc	(i2___flmul@grs+3)^0,f,c
  9333  000A6E  5027               	movf	(i2___flmul@temp+1)^0,w,c
  9334  000A70  2622               	addwf	i2___flmul@prod^0,f,c
  9335  000A72  0E00               	movlw	0
  9336  000A74  2223               	addwfc	(i2___flmul@prod+1)^0,f,c
  9337  000A76  2224               	addwfc	(i2___flmul@prod+2)^0,f,c
  9338  000A78  2225               	addwfc	(i2___flmul@prod+3)^0,f,c
  9339  000A7A  C01E  F01F         	movff	i2___flmul@grs+2,i2___flmul@grs+3
  9340  000A7E  C01D  F01E         	movff	i2___flmul@grs+1,i2___flmul@grs+2
  9341  000A82  C01C  F01D         	movff	i2___flmul@grs,i2___flmul@grs+1
  9342  000A86  6A1C               	clrf	i2___flmul@grs^0,c
  9343  000A88  5013               	movf	i2___flmul@a^0,w,c
  9344  000A8A  0210               	mulwf	(i2___flmul@b+1)^0,c
  9345  000A8C  CFF3 F026          	movff	prodl,i2___flmul@temp
  9346  000A90  CFF4 F027          	movff	prodh,i2___flmul@temp+1
  9347  000A94  5026               	movf	i2___flmul@temp^0,w,c
  9348  000A96  261C               	addwf	i2___flmul@grs^0,f,c
  9349  000A98  5027               	movf	(i2___flmul@temp+1)^0,w,c
  9350  000A9A  221D               	addwfc	(i2___flmul@grs+1)^0,f,c
  9351  000A9C  0E00               	movlw	0
  9352  000A9E  221E               	addwfc	(i2___flmul@grs+2)^0,f,c
  9353  000AA0  0E00               	movlw	0
  9354  000AA2  221F               	addwfc	(i2___flmul@grs+3)^0,f,c
  9355  000AA4  5014               	movf	(i2___flmul@a+1)^0,w,c
  9356  000AA6  020F               	mulwf	i2___flmul@b^0,c
  9357  000AA8  CFF3 F026          	movff	prodl,i2___flmul@temp
  9358  000AAC  CFF4 F027          	movff	prodh,i2___flmul@temp+1
  9359  000AB0  5026               	movf	i2___flmul@temp^0,w,c
  9360  000AB2  261C               	addwf	i2___flmul@grs^0,f,c
  9361  000AB4  5027               	movf	(i2___flmul@temp+1)^0,w,c
  9362  000AB6  221D               	addwfc	(i2___flmul@grs+1)^0,f,c
  9363  000AB8  0E00               	movlw	0
  9364  000ABA  221E               	addwfc	(i2___flmul@grs+2)^0,f,c
  9365  000ABC  0E00               	movlw	0
  9366  000ABE  221F               	addwfc	(i2___flmul@grs+3)^0,f,c
  9367  000AC0  C01E  F01F         	movff	i2___flmul@grs+2,i2___flmul@grs+3
  9368  000AC4  C01D  F01E         	movff	i2___flmul@grs+1,i2___flmul@grs+2
  9369  000AC8  C01C  F01D         	movff	i2___flmul@grs,i2___flmul@grs+1
  9370  000ACC  6A1C               	clrf	i2___flmul@grs^0,c
  9371  000ACE  5013               	movf	i2___flmul@a^0,w,c
  9372  000AD0  020F               	mulwf	i2___flmul@b^0,c
  9373  000AD2  CFF3 F026          	movff	prodl,i2___flmul@temp
  9374  000AD6  CFF4 F027          	movff	prodh,i2___flmul@temp+1
  9375  000ADA  5026               	movf	i2___flmul@temp^0,w,c
  9376  000ADC  261C               	addwf	i2___flmul@grs^0,f,c
  9377  000ADE  5027               	movf	(i2___flmul@temp+1)^0,w,c
  9378  000AE0  221D               	addwfc	(i2___flmul@grs+1)^0,f,c
  9379  000AE2  0E00               	movlw	0
  9380  000AE4  221E               	addwfc	(i2___flmul@grs+2)^0,f,c
  9381  000AE6  0E00               	movlw	0
  9382  000AE8  221F               	addwfc	(i2___flmul@grs+3)^0,f,c
  9383  000AEA  5015               	movf	(i2___flmul@a+2)^0,w,c
  9384  000AEC  0210               	mulwf	(i2___flmul@b+1)^0,c
  9385  000AEE  CFF3 F026          	movff	prodl,i2___flmul@temp
  9386  000AF2  CFF4 F027          	movff	prodh,i2___flmul@temp+1
  9387  000AF6  5026               	movf	i2___flmul@temp^0,w,c
  9388  000AF8  2622               	addwf	i2___flmul@prod^0,f,c
  9389  000AFA  5027               	movf	(i2___flmul@temp+1)^0,w,c
  9390  000AFC  2223               	addwfc	(i2___flmul@prod+1)^0,f,c
  9391  000AFE  0E00               	movlw	0
  9392  000B00  2224               	addwfc	(i2___flmul@prod+2)^0,f,c
  9393  000B02  0E00               	movlw	0
  9394  000B04  2225               	addwfc	(i2___flmul@prod+3)^0,f,c
  9395  000B06  5014               	movf	(i2___flmul@a+1)^0,w,c
  9396  000B08  0211               	mulwf	(i2___flmul@b+2)^0,c
  9397  000B0A  CFF3 F026          	movff	prodl,i2___flmul@temp
  9398  000B0E  CFF4 F027          	movff	prodh,i2___flmul@temp+1
  9399  000B12  5026               	movf	i2___flmul@temp^0,w,c
  9400  000B14  2622               	addwf	i2___flmul@prod^0,f,c
  9401  000B16  5027               	movf	(i2___flmul@temp+1)^0,w,c
  9402  000B18  2223               	addwfc	(i2___flmul@prod+1)^0,f,c
  9403  000B1A  0E00               	movlw	0
  9404  000B1C  2224               	addwfc	(i2___flmul@prod+2)^0,f,c
  9405  000B1E  0E00               	movlw	0
  9406  000B20  2225               	addwfc	(i2___flmul@prod+3)^0,f,c
  9407  000B22  5015               	movf	(i2___flmul@a+2)^0,w,c
  9408  000B24  0211               	mulwf	(i2___flmul@b+2)^0,c
  9409  000B26  CFF3 F026          	movff	prodl,i2___flmul@temp
  9410  000B2A  CFF4 F027          	movff	prodh,i2___flmul@temp+1
  9411  000B2E  5026               	movf	i2___flmul@temp^0,w,c
  9412  000B30  6E17               	movwf	??i2___flmul^0,c
  9413  000B32  5027               	movf	(i2___flmul@temp+1)^0,w,c
  9414  000B34  6E18               	movwf	(??i2___flmul+1)^0,c
  9415  000B36  6A19               	clrf	(??i2___flmul+2)^0,c
  9416  000B38  6A1A               	clrf	(??i2___flmul+3)^0,c
  9417  000B3A  C019  F01A         	movff	??i2___flmul+2,??i2___flmul+3
  9418  000B3E  C018  F019         	movff	??i2___flmul+1,??i2___flmul+2
  9419  000B42  C017  F018         	movff	??i2___flmul,??i2___flmul+1
  9420  000B46  6A17               	clrf	??i2___flmul^0,c
  9421  000B48  5017               	movf	??i2___flmul^0,w,c
  9422  000B4A  2622               	addwf	i2___flmul@prod^0,f,c
  9423  000B4C  5018               	movf	(??i2___flmul+1)^0,w,c
  9424  000B4E  2223               	addwfc	(i2___flmul@prod+1)^0,f,c
  9425  000B50  5019               	movf	(??i2___flmul+2)^0,w,c
  9426  000B52  2224               	addwfc	(i2___flmul@prod+2)^0,f,c
  9427  000B54  501A               	movf	(??i2___flmul+3)^0,w,c
  9428  000B56  2225               	addwfc	(i2___flmul@prod+3)^0,f,c
  9429  000B58  C01C  F017         	movff	i2___flmul@grs,??i2___flmul
  9430  000B5C  C01D  F018         	movff	i2___flmul@grs+1,??i2___flmul+1
  9431  000B60  C01E  F019         	movff	i2___flmul@grs+2,??i2___flmul+2
  9432  000B64  C01F  F01A         	movff	i2___flmul@grs+3,??i2___flmul+3
  9433  000B68  0E19               	movlw	25
  9434  000B6A  EFBC  F005         	goto	i2u254_40
  9435  000B6E                     i2u254_45:
  9436  000B6E  90D8               	bcf	status,0,c
  9437  000B70  321A               	rrcf	(??i2___flmul+3)^0,f,c
  9438  000B72  3219               	rrcf	(??i2___flmul+2)^0,f,c
  9439  000B74  3218               	rrcf	(??i2___flmul+1)^0,f,c
  9440  000B76  3217               	rrcf	??i2___flmul^0,f,c
  9441  000B78                     i2u254_40:
  9442  000B78  2EE8               	decfsz	wreg,f,c
  9443  000B7A  EFB7  F005         	goto	i2u254_45
  9444  000B7E  5017               	movf	??i2___flmul^0,w,c
  9445  000B80  2622               	addwf	i2___flmul@prod^0,f,c
  9446  000B82  5018               	movf	(??i2___flmul+1)^0,w,c
  9447  000B84  2223               	addwfc	(i2___flmul@prod+1)^0,f,c
  9448  000B86  5019               	movf	(??i2___flmul+2)^0,w,c
  9449  000B88  2224               	addwfc	(i2___flmul@prod+2)^0,f,c
  9450  000B8A  501A               	movf	(??i2___flmul+3)^0,w,c
  9451  000B8C  2225               	addwfc	(i2___flmul@prod+3)^0,f,c
  9452  000B8E  C01E  F01F         	movff	i2___flmul@grs+2,i2___flmul@grs+3
  9453  000B92  C01D  F01E         	movff	i2___flmul@grs+1,i2___flmul@grs+2
  9454  000B96  C01C  F01D         	movff	i2___flmul@grs,i2___flmul@grs+1
  9455  000B9A  6A1C               	clrf	i2___flmul@grs^0,c
  9456  000B9C  5020               	movf	i2___flmul@aexp^0,w,c
  9457  000B9E  C021  F017         	movff	i2___flmul@bexp,??i2___flmul
  9458  000BA2  6A18               	clrf	(??i2___flmul+1)^0,c
  9459  000BA4  2617               	addwf	??i2___flmul^0,f,c
  9460  000BA6  0E00               	movlw	0
  9461  000BA8  2218               	addwfc	(??i2___flmul+1)^0,f,c
  9462  000BAA  0E82               	movlw	130
  9463  000BAC  2417               	addwf	??i2___flmul^0,w,c
  9464  000BAE  6E26               	movwf	i2___flmul@temp^0,c
  9465  000BB0  0EFF               	movlw	255
  9466  000BB2  2018               	addwfc	(??i2___flmul+1)^0,w,c
  9467  000BB4  6E27               	movwf	(i2___flmul@temp+1)^0,c
  9468  000BB6  EFF2  F005         	goto	i2l3041
  9469  000BBA                     i2l3035:
  9470  000BBA  90D8               	bcf	status,0,c
  9471  000BBC  3622               	rlcf	i2___flmul@prod^0,f,c
  9472  000BBE  3623               	rlcf	(i2___flmul@prod+1)^0,f,c
  9473  000BC0  3624               	rlcf	(i2___flmul@prod+2)^0,f,c
  9474  000BC2  3625               	rlcf	(i2___flmul@prod+3)^0,f,c
  9475  000BC4  AE1F               	btfss	(i2___flmul@grs+3)^0,7,c
  9476  000BC6  EFE7  F005         	goto	i2u255_41
  9477  000BCA  EFE9  F005         	goto	i2u255_40
  9478  000BCE                     i2u255_41:
  9479  000BCE  EFEA  F005         	goto	i2l1248
  9480  000BD2                     i2u255_40:
  9481  000BD2  8022               	bsf	i2___flmul@prod^0,0,c
  9482  000BD4                     i2l1248:
  9483  000BD4  90D8               	bcf	status,0,c
  9484  000BD6  361C               	rlcf	i2___flmul@grs^0,f,c
  9485  000BD8  361D               	rlcf	(i2___flmul@grs+1)^0,f,c
  9486  000BDA  361E               	rlcf	(i2___flmul@grs+2)^0,f,c
  9487  000BDC  361F               	rlcf	(i2___flmul@grs+3)^0,f,c
  9488  000BDE  0626               	decf	i2___flmul@temp^0,f,c
  9489  000BE0  A0D8               	btfss	status,0,c
  9490  000BE2  0627               	decf	(i2___flmul@temp+1)^0,f,c
  9491  000BE4                     i2l3041:
  9492  000BE4  AE24               	btfss	(i2___flmul@prod+2)^0,7,c
  9493  000BE6  EFF7  F005         	goto	i2u256_41
  9494  000BEA  EFF9  F005         	goto	i2u256_40
  9495  000BEE                     i2u256_41:
  9496  000BEE  EFDD  F005         	goto	i2l3035
  9497  000BF2                     i2u256_40:
  9498  000BF2  0E00               	movlw	0
  9499  000BF4  6E20               	movwf	i2___flmul@aexp^0,c
  9500  000BF6  AE1F               	btfss	(i2___flmul@grs+3)^0,7,c
  9501  000BF8  EF00  F006         	goto	i2u257_41
  9502  000BFC  EF02  F006         	goto	i2u257_40
  9503  000C00                     i2u257_41:
  9504  000C00  EF26  F006         	goto	i2l1250
  9505  000C04                     i2u257_40:
  9506  000C04  0EFF               	movlw	255
  9507  000C06  141C               	andwf	i2___flmul@grs^0,w,c
  9508  000C08  6E17               	movwf	??i2___flmul^0,c
  9509  000C0A  0EFF               	movlw	255
  9510  000C0C  141D               	andwf	(i2___flmul@grs+1)^0,w,c
  9511  000C0E  6E18               	movwf	(??i2___flmul+1)^0,c
  9512  000C10  0EFF               	movlw	255
  9513  000C12  141E               	andwf	(i2___flmul@grs+2)^0,w,c
  9514  000C14  6E19               	movwf	(??i2___flmul+2)^0,c
  9515  000C16  0E7F               	movlw	127
  9516  000C18  141F               	andwf	(i2___flmul@grs+3)^0,w,c
  9517  000C1A  6E1A               	movwf	(??i2___flmul+3)^0,c
  9518  000C1C  5017               	movf	??i2___flmul^0,w,c
  9519  000C1E  1018               	iorwf	(??i2___flmul+1)^0,w,c
  9520  000C20  1019               	iorwf	(??i2___flmul+2)^0,w,c
  9521  000C22  101A               	iorwf	(??i2___flmul+3)^0,w,c
  9522  000C24  B4D8               	btfsc	status,2,c
  9523  000C26  EF17  F006         	goto	i2u258_41
  9524  000C2A  EF19  F006         	goto	i2u258_40
  9525  000C2E                     i2u258_41:
  9526  000C2E  EF1D  F006         	goto	i2l1251
  9527  000C32                     i2u258_40:
  9528  000C32                     i2l3049:
  9529  000C32  0E01               	movlw	1
  9530  000C34  6E20               	movwf	i2___flmul@aexp^0,c
  9531  000C36  EF26  F006         	goto	i2l1250
  9532  000C3A                     i2l1251:
  9533  000C3A  A022               	btfss	i2___flmul@prod^0,0,c
  9534  000C3C  EF22  F006         	goto	i2u259_41
  9535  000C40  EF24  F006         	goto	i2u259_40
  9536  000C44                     i2u259_41:
  9537  000C44  EF26  F006         	goto	i2l1250
  9538  000C48                     i2u259_40:
  9539  000C48  EF19  F006         	goto	i2l3049
  9540  000C4C                     i2l1250:
  9541  000C4C  5020               	movf	i2___flmul@aexp^0,w,c
  9542  000C4E  B4D8               	btfsc	status,2,c
  9543  000C50  EF2C  F006         	goto	i2u260_41
  9544  000C54  EF2E  F006         	goto	i2u260_40
  9545  000C58                     i2u260_41:
  9546  000C58  EF52  F006         	goto	i2l3061
  9547  000C5C                     i2u260_40:
  9548  000C5C  0E01               	movlw	1
  9549  000C5E  2622               	addwf	i2___flmul@prod^0,f,c
  9550  000C60  0E00               	movlw	0
  9551  000C62  2223               	addwfc	(i2___flmul@prod+1)^0,f,c
  9552  000C64  2224               	addwfc	(i2___flmul@prod+2)^0,f,c
  9553  000C66  2225               	addwfc	(i2___flmul@prod+3)^0,f,c
  9554  000C68  A025               	btfss	(i2___flmul@prod+3)^0,0,c
  9555  000C6A  EF39  F006         	goto	i2u261_41
  9556  000C6E  EF3B  F006         	goto	i2u261_40
  9557  000C72                     i2u261_41:
  9558  000C72  EF52  F006         	goto	i2l3061
  9559  000C76                     i2u261_40:
  9560  000C76  C022  F017         	movff	i2___flmul@prod,??i2___flmul
  9561  000C7A  C023  F018         	movff	i2___flmul@prod+1,??i2___flmul+1
  9562  000C7E  C024  F019         	movff	i2___flmul@prod+2,??i2___flmul+2
  9563  000C82  C025  F01A         	movff	i2___flmul@prod+3,??i2___flmul+3
  9564  000C86  341A               	rlcf	(??i2___flmul+3)^0,w,c
  9565  000C88  321A               	rrcf	(??i2___flmul+3)^0,f,c
  9566  000C8A  3219               	rrcf	(??i2___flmul+2)^0,f,c
  9567  000C8C  3218               	rrcf	(??i2___flmul+1)^0,f,c
  9568  000C8E  3217               	rrcf	??i2___flmul^0,f,c
  9569  000C90  C017  F022         	movff	??i2___flmul,i2___flmul@prod
  9570  000C94  C018  F023         	movff	??i2___flmul+1,i2___flmul@prod+1
  9571  000C98  C019  F024         	movff	??i2___flmul+2,i2___flmul@prod+2
  9572  000C9C  C01A  F025         	movff	??i2___flmul+3,i2___flmul@prod+3
  9573  000CA0  4A26               	infsnz	i2___flmul@temp^0,f,c
  9574  000CA2  2A27               	incf	(i2___flmul@temp+1)^0,f,c
  9575  000CA4                     i2l3061:
  9576  000CA4  BE27               	btfsc	(i2___flmul@temp+1)^0,7,c
  9577  000CA6  EF5D  F006         	goto	i2u262_41
  9578  000CAA  5027               	movf	(i2___flmul@temp+1)^0,w,c
  9579  000CAC  E108               	bnz	i2u262_40
  9580  000CAE  2826               	incf	i2___flmul@temp^0,w,c
  9581  000CB0  A0D8               	btfss	status,0,c
  9582  000CB2  EF5D  F006         	goto	i2u262_41
  9583  000CB6  EF5F  F006         	goto	i2u262_40
  9584  000CBA                     i2u262_41:
  9585  000CBA  EF69  F006         	goto	i2l3065
  9586  000CBE                     i2u262_40:
  9587  000CBE  0E00               	movlw	0
  9588  000CC0  6E22               	movwf	i2___flmul@prod^0,c
  9589  000CC2  0E00               	movlw	0
  9590  000CC4  6E23               	movwf	(i2___flmul@prod+1)^0,c
  9591  000CC6  0E80               	movlw	128
  9592  000CC8  6E24               	movwf	(i2___flmul@prod+2)^0,c
  9593  000CCA  0E7F               	movlw	127
  9594  000CCC  6E25               	movwf	(i2___flmul@prod+3)^0,c
  9595  000CCE  EF97  F006         	goto	i2l3077
  9596  000CD2                     i2l3065:
  9597  000CD2  BE27               	btfsc	(i2___flmul@temp+1)^0,7,c
  9598  000CD4  EF76  F006         	goto	i2u263_40
  9599  000CD8  5027               	movf	(i2___flmul@temp+1)^0,w,c
  9600  000CDA  E106               	bnz	i2u263_41
  9601  000CDC  0426               	decf	i2___flmul@temp^0,w,c
  9602  000CDE  B0D8               	btfsc	status,0,c
  9603  000CE0  EF74  F006         	goto	i2u263_41
  9604  000CE4  EF76  F006         	goto	i2u263_40
  9605  000CE8                     i2u263_41:
  9606  000CE8  EF82  F006         	goto	i2l1258
  9607  000CEC                     i2u263_40:
  9608  000CEC  0E00               	movlw	0
  9609  000CEE  6E22               	movwf	i2___flmul@prod^0,c
  9610  000CF0  0E00               	movlw	0
  9611  000CF2  6E23               	movwf	(i2___flmul@prod+1)^0,c
  9612  000CF4  0E00               	movlw	0
  9613  000CF6  6E24               	movwf	(i2___flmul@prod+2)^0,c
  9614  000CF8  0E00               	movlw	0
  9615  000CFA  6E25               	movwf	(i2___flmul@prod+3)^0,c
  9616  000CFC  0E00               	movlw	0
  9617  000CFE  6E1B               	movwf	i2___flmul@sign^0,c
  9618  000D00  EF97  F006         	goto	i2l3077
  9619  000D04                     i2l1258:
  9620  000D04  C026  F021         	movff	i2___flmul@temp,i2___flmul@bexp
  9621  000D08  0EFF               	movlw	255
  9622  000D0A  1622               	andwf	i2___flmul@prod^0,f,c
  9623  000D0C  0EFF               	movlw	255
  9624  000D0E  1623               	andwf	(i2___flmul@prod+1)^0,f,c
  9625  000D10  0E7F               	movlw	127
  9626  000D12  1624               	andwf	(i2___flmul@prod+2)^0,f,c
  9627  000D14  0E00               	movlw	0
  9628  000D16  1625               	andwf	(i2___flmul@prod+3)^0,f,c
  9629  000D18  A021               	btfss	i2___flmul@bexp^0,0,c
  9630  000D1A  EF91  F006         	goto	i2u264_41
  9631  000D1E  EF93  F006         	goto	i2u264_40
  9632  000D22                     i2u264_41:
  9633  000D22  EF94  F006         	goto	i2l3075
  9634  000D26                     i2u264_40:
  9635  000D26  8E24               	bsf	(i2___flmul@prod+2)^0,7,c
  9636  000D28                     i2l3075:
  9637  000D28  90D8               	bcf	status,0,c
  9638  000D2A  3021               	rrcf	i2___flmul@bexp^0,w,c
  9639  000D2C  6E25               	movwf	(i2___flmul@prod+3)^0,c
  9640  000D2E                     i2l3077:
  9641  000D2E  501B               	movf	i2___flmul@sign^0,w,c
  9642  000D30  1225               	iorwf	(i2___flmul@prod+3)^0,f,c
  9643  000D32  C022  F00F         	movff	i2___flmul@prod,?i2___flmul
  9644  000D36  C023  F010         	movff	i2___flmul@prod+1,?i2___flmul+1
  9645  000D3A  C024  F011         	movff	i2___flmul@prod+2,?i2___flmul+2
  9646  000D3E  C025  F012         	movff	i2___flmul@prod+3,?i2___flmul+3
  9647  000D42                     i2l1245:
  9648  000D42  0012               	return		;funcret
  9649  000D44                     __end_ofi2___flmul:
  9650                           	opt callstack 0
  9651                           
  9652                           	psect	rparam
  9653  0000                     
  9654                           	psect	temp
  9655  000048                     btemp:
  9656                           	opt callstack 0
  9657  000048                     	ds	1
  9658  0000                     int$flags	set	btemp
  9659  0000                     wtemp8	set	btemp+1
  9660  0000                     ttemp5	set	btemp+1
  9661  0000                     ttemp6	set	btemp+4
  9662  0000                     ttemp7	set	btemp+8
  9663                           tosu	equ	0xFFF
  9664                           tosh	equ	0xFFE
  9665                           tosl	equ	0xFFD
  9666                           stkptr	equ	0xFFC
  9667                           pclatu	equ	0xFFB
  9668                           pclath	equ	0xFFA
  9669                           pcl	equ	0xFF9
  9670                           tblptru	equ	0xFF8
  9671                           tblptrh	equ	0xFF7
  9672                           tblptrl	equ	0xFF6
  9673                           tablat	equ	0xFF5
  9674                           prodh	equ	0xFF4
  9675                           prodl	equ	0xFF3
  9676                           indf0	equ	0xFEF
  9677                           postinc0	equ	0xFEE
  9678                           postdec0	equ	0xFED
  9679                           preinc0	equ	0xFEC
  9680                           plusw0	equ	0xFEB
  9681                           fsr0h	equ	0xFEA
  9682                           fsr0l	equ	0xFE9
  9683                           wreg	equ	0xFE8
  9684                           indf1	equ	0xFE7
  9685                           postinc1	equ	0xFE6
  9686                           postdec1	equ	0xFE5
  9687                           preinc1	equ	0xFE4
  9688                           plusw1	equ	0xFE3
  9689                           fsr1h	equ	0xFE2
  9690                           fsr1l	equ	0xFE1
  9691                           bsr	equ	0xFE0
  9692                           indf2	equ	0xFDF
  9693                           postinc2	equ	0xFDE
  9694                           postdec2	equ	0xFDD
  9695                           preinc2	equ	0xFDC
  9696                           plusw2	equ	0xFDB
  9697                           fsr2h	equ	0xFDA
  9698                           fsr2l	equ	0xFD9
  9699                           status	equ	0xFD8


Data Sizes:
    Strings     847
    Constant    0
    Data        0
    BSS         31
    Persistent  0
    Stack       0

Auto Spaces:
    Space          Size  Autos    Used
    COMRAM           94     65      71
    BANK0           160    102     127
    BANK1           256      0       0
    BANK2           256      0       0
    BANK3           256      0       0
    BANK4           256      0       0
    BANK5           256      0       0
    BANK6           256      0       0
    BANK7           256      0       0

Pointer List with Targets:

    main@pActMenu	PTR unsigned char  size(2) Largest target is 5
		 -> main@activarmenu(BANK0[5]), 

    scanf@guardarscan	PTR unsigned char  size(2) Largest target is 5
		 -> main@activarmenu(BANK0[5]), 

    printf@PointString	PTR unsigned char  size(2) Largest target is 64
		 -> STR_44(CODE[7]), STR_43(CODE[9]), STR_42(CODE[9]), STR_41(CODE[26]), 
		 -> STR_40(CODE[9]), STR_39(CODE[9]), STR_38(CODE[28]), STR_37(CODE[9]), 
		 -> STR_36(CODE[34]), STR_35(CODE[9]), STR_34(CODE[27]), STR_33(CODE[9]), 
		 -> STR_32(CODE[9]), STR_31(CODE[40]), STR_30(CODE[9]), STR_29(CODE[9]), 
		 -> STR_28(CODE[46]), STR_27(CODE[9]), STR_26(CODE[9]), STR_25(CODE[31]), 
		 -> STR_24(CODE[9]), STR_23(CODE[14]), STR_22(CODE[64]), STR_21(CODE[42]), 
		 -> STR_20(CODE[42]), STR_19(CODE[46]), STR_18(CODE[52]), STR_17(CODE[52]), 
		 -> STR_16(CODE[11]), STR_15(CODE[15]), STR_14(CODE[11]), STR_13(CODE[15]), 
		 -> STR_12(CODE[10]), STR_11(CODE[11]), STR_10(CODE[11]), STR_9(CODE[6]), 
		 -> STR_8(CODE[4]), STR_7(CODE[16]), STR_6(CODE[43]), STR_5(CODE[8]), 
		 -> STR_4(CODE[52]), STR_3(CODE[4]), STR_2(CODE[4]), STR_1(CODE[48]), 


Critical Paths under _main in COMRAM

    None.

Critical Paths under _low_isr in COMRAM

    None.

Critical Paths under _high_isr in COMRAM

    _high_isr->i2_PWM_DutyCycleCCP1
    _high_isr->i2_PWM_DutyCycleCCP2
    i2_printf->i2_send
    i2_send->i2_errorUART
    _moverHomeY->i2_PWM_DutyCycleCCP2
    i2_PWM_DutyCycleCCP2->i2___fltol
    _moverHomeX->i2_PWM_DutyCycleCCP1
    i2_PWM_DutyCycleCCP1->i2___fltol
    i2___fltol->i2___flmul
    i2___flmul->i2___xxtofl

Critical Paths under _main in BANK0

    _main->_moverHaciaXY
    _slidePiston->_receiveNum
    _scanf->_receive
    _receive->_errorUART
    _moverHaciaXY->_moverHaciaX
    _moverHaciaXY->_moverHaciaY
    _moverHaciaY->_PWM_DutyCycleCCP2
    _PWM_DutyCycleCCP2->___fltol
    _moverHaciaX->_PWM_DutyCycleCCP1
    ___wmul->_abs
    _PWM_DutyCycleCCP1->___fltol
    _modificarZ->_printf
    _impCoordActual->___fltol
    ___xxtofl->___lwmod
    ___fltol->___fladd
    ___flmul->___xxtofl
    ___fladd->___flmul
    _funcionToques->_receiveNum
    _receiveNum->_printf
    _printf->_send
    _send->_errorUART

Critical Paths under _low_isr in BANK0

    None.

Critical Paths under _high_isr in BANK0

    None.

Critical Paths under _main in BANK1

    None.

Critical Paths under _low_isr in BANK1

    None.

Critical Paths under _high_isr in BANK1

    None.

Critical Paths under _main in BANK2

    None.

Critical Paths under _low_isr in BANK2

    None.

Critical Paths under _high_isr in BANK2

    None.

Critical Paths under _main in BANK3

    None.

Critical Paths under _low_isr in BANK3

    None.

Critical Paths under _high_isr in BANK3

    None.

Critical Paths under _main in BANK4

    None.

Critical Paths under _low_isr in BANK4

    None.

Critical Paths under _high_isr in BANK4

    None.

Critical Paths under _main in BANK5

    None.

Critical Paths under _low_isr in BANK5

    None.

Critical Paths under _high_isr in BANK5

    None.

Critical Paths under _main in BANK6

    None.

Critical Paths under _low_isr in BANK6

    None.

Critical Paths under _high_isr in BANK6

    None.

Critical Paths under _main in BANK7

    None.

Critical Paths under _low_isr in BANK7

    None.

Critical Paths under _high_isr in BANK7

    None.

Call Graph Tables:

 ---------------------------------------------------------------------------------
 (Depth) Function   	        Calls       Base Space   Used Autos Params    Refs
 ---------------------------------------------------------------------------------
 (0) _main                                                11    11      0   63244
                                             91 BANK0     11    11      0
                      _PWM_CCP1_init
                      _PWM_CCP2_init
                  _PWM_DutyCycleCCP1
                  _PWM_DutyCycleCCP2
                           _UARTinit
                      _funcionToques
                   _habilitarIntTMR0
                   _habilitarIntTMR1
                     _impCoordActual
                   _interruptsEnable
                         _modificarZ
                         _motorXinit
                         _motorYinit
                       _motoresZinit
                       _moverHaciaXY
                         _pistonInit
                           _portInit
                             _printf
                            _receive
                              _scanf
                        _slidePiston
                           _tmr0Init
                           _tmr1Init
 ---------------------------------------------------------------------------------
 (1) _tmr1Init                                             0     0      0       0
 ---------------------------------------------------------------------------------
 (1) _tmr0Init                                             0     0      0       0
 ---------------------------------------------------------------------------------
 (1) _slidePiston                                          1     1      0    3542
                                              9 BANK0      1     1      0
                         _receiveNum
 ---------------------------------------------------------------------------------
 (1) _scanf                                                4     1      3     275
                                              3 BANK0      4     1      3
                          _errorUART
                            _receive
 ---------------------------------------------------------------------------------
 (2) _receive                                              1     1      0      28
                                              2 BANK0      1     1      0
                          _errorUART
 ---------------------------------------------------------------------------------
 (1) _portInit                                             0     0      0       0
 ---------------------------------------------------------------------------------
 (1) _pistonInit                                           0     0      0       0
 ---------------------------------------------------------------------------------
 (1) _moverHaciaXY                                         6     6      0   24616
                                             85 BANK0      6     6      0
                        _moverHaciaX
                        _moverHaciaY
                             _printf
                         _receiveNum
                               _send
 ---------------------------------------------------------------------------------
 (2) _moverHaciaY                                          5     3      2    8832
                                             80 BANK0      5     3      2
                  _PWM_DutyCycleCCP2
                             ___wmul
                                _abs
                             _printf
                               _send
                       _setNumPasosY
 ---------------------------------------------------------------------------------
 (3) _setNumPasosY                                         4     2      2     165
                                              1 BANK0      4     2      2
 ---------------------------------------------------------------------------------
 (3) _PWM_DutyCycleCCP2                                    9     9      0    4361
                                             71 BANK0      9     9      0
                            ___flmul
                            ___fltol
                           ___xxtofl
 ---------------------------------------------------------------------------------
 (2) _moverHaciaX                                          5     3      2    8832
                                             80 BANK0      5     3      2
                  _PWM_DutyCycleCCP1
                             ___wmul
                                _abs
                             _printf
                               _send
                       _setNumPasosX
 ---------------------------------------------------------------------------------
 (3) _setNumPasosX                                         4     2      2     165
                                              1 BANK0      4     2      2
 ---------------------------------------------------------------------------------
 (3) _abs                                                  4     2      2     218
                                              1 BANK0      4     2      2
 ---------------------------------------------------------------------------------
 (3) ___wmul                                               6     2      4     463
                                              5 BANK0      6     2      4
                                _abs (ARG)
 ---------------------------------------------------------------------------------
 (3) _PWM_DutyCycleCCP1                                    9     9      0    4361
                                             71 BANK0      9     9      0
                            ___flmul
                            ___fltol
                           ___xxtofl
 ---------------------------------------------------------------------------------
 (1) _motoresZinit                                         0     0      0       0
 ---------------------------------------------------------------------------------
 (1) _motorYinit                                           0     0      0       0
 ---------------------------------------------------------------------------------
 (1) _motorXinit                                           0     0      0       0
 ---------------------------------------------------------------------------------
 (1) _modificarZ                                           2     2      0    3404
                                              8 BANK0      2     2      0
                            _apagarZ
                        _moverZAbajo
                       _moverZArriba
                             _printf
 ---------------------------------------------------------------------------------
 (2) _moverZArriba                                         0     0      0       0
 ---------------------------------------------------------------------------------
 (2) _moverZAbajo                                          0     0      0       0
 ---------------------------------------------------------------------------------
 (2) _apagarZ                                              0     0      0       0
 ---------------------------------------------------------------------------------
 (1) _interruptsEnable                                     0     0      0       0
 ---------------------------------------------------------------------------------
 (1) _impCoordActual                                       2     2      0   11639
                                             71 BANK0      2     2      0
                            ___fladd
                            ___flmul
                            ___fltol
                            ___lwmod
                           ___xxtofl
                             _printf
                               _send
 ---------------------------------------------------------------------------------
 (4) ___xxtofl                                            14    10      4     778
                                              6 BANK0     14    10      4
                            ___lwmod (ARG)
 ---------------------------------------------------------------------------------
 (2) ___lwmod                                              5     1      4    1071
                                              1 BANK0      5     1      4
 ---------------------------------------------------------------------------------
 (4) ___fltol                                             10     6      4     685
                                             61 BANK0     10     6      4
                            ___fladd (ARG)
                            ___flmul (ARG)
                            ___lwmod (ARG)
                           ___xxtofl (ARG)
 ---------------------------------------------------------------------------------
 (4) ___flmul                                             25    17      8    2808
                                             20 BANK0     25    17      8
                            ___lwmod (ARG)
                           ___xxtofl (ARG)
 ---------------------------------------------------------------------------------
 (2) ___fladd                                             16     8      8    2844
                                             45 BANK0     16     8      8
                            ___flmul (ARG)
                            ___lwmod (ARG)
                           ___xxtofl (ARG)
 ---------------------------------------------------------------------------------
 (1) _habilitarIntTMR1                                     0     0      0       0
 ---------------------------------------------------------------------------------
 (1) _habilitarIntTMR0                                     0     0      0       0
 ---------------------------------------------------------------------------------
 (1) _funcionToques                                        0     0      0    7119
                  _presionarPantalla
                             _printf
                         _receiveNum
 ---------------------------------------------------------------------------------
 (2) _receiveNum                                           1     1      0    3497
                                              8 BANK0      1     1      0
                          _errorUART
                             _printf
 ---------------------------------------------------------------------------------
 (3) _printf                                               5     3      2    3380
                                              3 BANK0      5     3      2
                          _errorUART
                               _send
 ---------------------------------------------------------------------------------
 (4) _send                                                 1     1      0      27
                                              2 BANK0      1     1      0
                          _errorUART
 ---------------------------------------------------------------------------------
 (5) _errorUART                                            1     1      0       5
                                              1 BANK0      1     1      0
 ---------------------------------------------------------------------------------
 (2) _presionarPantalla                                    6     4      2     242
                                              1 BANK0      6     4      2
 ---------------------------------------------------------------------------------
 (1) _UARTinit                                             0     0      0       0
 ---------------------------------------------------------------------------------
 (1) _PWM_CCP2_init                                        0     0      0       0
 ---------------------------------------------------------------------------------
 (1) _PWM_CCP1_init                                        0     0      0       0
 ---------------------------------------------------------------------------------
 Estimated maximum stack depth 5
 ---------------------------------------------------------------------------------
 (Depth) Function   	        Calls       Base Space   Used Autos Params    Refs
 ---------------------------------------------------------------------------------
 (6) _low_isr                                              1     1      0       0
                                              0 BANK0      1     1      0
 ---------------------------------------------------------------------------------
 Estimated maximum stack depth 6
 ---------------------------------------------------------------------------------
 (Depth) Function   	        Calls       Base Space   Used Autos Params    Refs
 ---------------------------------------------------------------------------------
 (7) _high_isr                                             7     7      0    9972
                                             58 COMRAM     7     7      0
                         _moverHomeX
                         _moverHomeY
                i2_PWM_DutyCycleCCP1
                i2_PWM_DutyCycleCCP2
                           i2_printf
 ---------------------------------------------------------------------------------
 (8) i2_printf                                             5     3      2     296
                                              2 COMRAM     5     3      2
                        i2_errorUART
                             i2_send
 ---------------------------------------------------------------------------------
 (9) i2_send                                               1     1      0      27
                                              1 COMRAM     1     1      0
                        i2_errorUART
 ---------------------------------------------------------------------------------
 (10) i2_errorUART                                         1     1      0       5
                                              0 COMRAM     1     1      0
 ---------------------------------------------------------------------------------
 (8) _moverHomeY                                           0     0      0    2419
                i2_PWM_DutyCycleCCP2
 ---------------------------------------------------------------------------------
 (8) i2_PWM_DutyCycleCCP2                                  9     9      0    2419
                                             49 COMRAM     9     9      0
                          i2___flmul
                          i2___fltol
                         i2___xxtofl
 ---------------------------------------------------------------------------------
 (8) _moverHomeX                                           0     0      0    2419
                i2_PWM_DutyCycleCCP1
 ---------------------------------------------------------------------------------
 (8) i2_PWM_DutyCycleCCP1                                  9     9      0    2419
                                             49 COMRAM     9     9      0
                          i2___flmul
                          i2___fltol
                         i2___xxtofl
 ---------------------------------------------------------------------------------
 (9) i2___xxtofl                                          14    10      4     374
                                              0 COMRAM    14    10      4
 ---------------------------------------------------------------------------------
 (9) i2___fltol                                           10     6      4     281
                                             39 COMRAM    10     6      4
                          i2___flmul (ARG)
                         i2___xxtofl (ARG)
 ---------------------------------------------------------------------------------
 (9) i2___flmul                                           25    17      8    1674
                                             14 COMRAM    25    17      8
                         i2___xxtofl (ARG)
 ---------------------------------------------------------------------------------
 Estimated maximum stack depth 10
 ---------------------------------------------------------------------------------

 Call Graph Graphs:

 _main (ROOT)
   _PWM_CCP1_init
   _PWM_CCP2_init
   _PWM_DutyCycleCCP1
     ___flmul
       ___lwmod (ARG)
       ___xxtofl (ARG)
         ___lwmod (ARG)
     ___fltol
       ___fladd (ARG)
         ___flmul (ARG)
           ___lwmod (ARG)
           ___xxtofl (ARG)
             ___lwmod (ARG)
         ___lwmod (ARG)
         ___xxtofl (ARG)
           ___lwmod (ARG)
       ___flmul (ARG)
         ___lwmod (ARG)
         ___xxtofl (ARG)
           ___lwmod (ARG)
       ___lwmod (ARG)
       ___xxtofl (ARG)
         ___lwmod (ARG)
     ___xxtofl
       ___lwmod (ARG)
   _PWM_DutyCycleCCP2
     ___flmul
       ___lwmod (ARG)
       ___xxtofl (ARG)
         ___lwmod (ARG)
     ___fltol
       ___fladd (ARG)
         ___flmul (ARG)
           ___lwmod (ARG)
           ___xxtofl (ARG)
             ___lwmod (ARG)
         ___lwmod (ARG)
         ___xxtofl (ARG)
           ___lwmod (ARG)
       ___flmul (ARG)
         ___lwmod (ARG)
         ___xxtofl (ARG)
           ___lwmod (ARG)
       ___lwmod (ARG)
       ___xxtofl (ARG)
         ___lwmod (ARG)
     ___xxtofl
       ___lwmod (ARG)
   _UARTinit
   _funcionToques
     _presionarPantalla
     _printf
       _errorUART
       _send
         _errorUART
     _receiveNum
       _errorUART
       _printf
         _errorUART
         _send
           _errorUART
   _habilitarIntTMR0
   _habilitarIntTMR1
   _impCoordActual
     ___fladd
       ___flmul (ARG)
         ___lwmod (ARG)
         ___xxtofl (ARG)
           ___lwmod (ARG)
       ___lwmod (ARG)
       ___xxtofl (ARG)
         ___lwmod (ARG)
     ___flmul
       ___lwmod (ARG)
       ___xxtofl (ARG)
         ___lwmod (ARG)
     ___fltol
       ___fladd (ARG)
         ___flmul (ARG)
           ___lwmod (ARG)
           ___xxtofl (ARG)
             ___lwmod (ARG)
         ___lwmod (ARG)
         ___xxtofl (ARG)
           ___lwmod (ARG)
       ___flmul (ARG)
         ___lwmod (ARG)
         ___xxtofl (ARG)
           ___lwmod (ARG)
       ___lwmod (ARG)
       ___xxtofl (ARG)
         ___lwmod (ARG)
     ___lwmod
     ___xxtofl
       ___lwmod (ARG)
     _printf
       _errorUART
       _send
         _errorUART
     _send
       _errorUART
   _interruptsEnable
   _modificarZ
     _apagarZ
     _moverZAbajo
     _moverZArriba
     _printf
       _errorUART
       _send
         _errorUART
   _motorXinit
   _motorYinit
   _motoresZinit
   _moverHaciaXY
     _moverHaciaX
       _PWM_DutyCycleCCP1
         ___flmul
           ___lwmod (ARG)
           ___xxtofl (ARG)
             ___lwmod (ARG)
         ___fltol
           ___fladd (ARG)
             ___flmul (ARG)
               ___lwmod (ARG)
               ___xxtofl (ARG)
                 ___lwmod (ARG)
             ___lwmod (ARG)
             ___xxtofl (ARG)
               ___lwmod (ARG)
           ___flmul (ARG)
             ___lwmod (ARG)
             ___xxtofl (ARG)
               ___lwmod (ARG)
           ___lwmod (ARG)
           ___xxtofl (ARG)
             ___lwmod (ARG)
         ___xxtofl
           ___lwmod (ARG)
       ___wmul
         _abs (ARG)
       _abs
       _printf
         _errorUART
         _send
           _errorUART
       _send
         _errorUART
       _setNumPasosX
     _moverHaciaY
       _PWM_DutyCycleCCP2
         ___flmul
           ___lwmod (ARG)
           ___xxtofl (ARG)
             ___lwmod (ARG)
         ___fltol
           ___fladd (ARG)
             ___flmul (ARG)
               ___lwmod (ARG)
               ___xxtofl (ARG)
                 ___lwmod (ARG)
             ___lwmod (ARG)
             ___xxtofl (ARG)
               ___lwmod (ARG)
           ___flmul (ARG)
             ___lwmod (ARG)
             ___xxtofl (ARG)
               ___lwmod (ARG)
           ___lwmod (ARG)
           ___xxtofl (ARG)
             ___lwmod (ARG)
         ___xxtofl
           ___lwmod (ARG)
       ___wmul
         _abs (ARG)
       _abs
       _printf
         _errorUART
         _send
           _errorUART
       _send
         _errorUART
       _setNumPasosY
     _printf
       _errorUART
       _send
         _errorUART
     _receiveNum
       _errorUART
       _printf
         _errorUART
         _send
           _errorUART
     _send
       _errorUART
   _pistonInit
   _portInit
   _printf
     _errorUART
     _send
       _errorUART
   _receive
     _errorUART
   _scanf
     _errorUART
     _receive
       _errorUART
   _slidePiston
     _receiveNum
       _errorUART
       _printf
         _errorUART
         _send
           _errorUART
   _tmr0Init
   _tmr1Init

 _low_isr (ROOT)

 _high_isr (ROOT)
   _moverHomeX
     i2_PWM_DutyCycleCCP1
       i2___flmul
         i2___xxtofl (ARG)
       i2___fltol
         i2___flmul (ARG)
           i2___xxtofl (ARG)
         i2___xxtofl (ARG)
       i2___xxtofl
   _moverHomeY
     i2_PWM_DutyCycleCCP2
       i2___flmul
         i2___xxtofl (ARG)
       i2___fltol
         i2___flmul (ARG)
           i2___xxtofl (ARG)
         i2___xxtofl (ARG)
       i2___xxtofl
   i2_PWM_DutyCycleCCP1
     i2___flmul
       i2___xxtofl (ARG)
     i2___fltol
       i2___flmul (ARG)
         i2___xxtofl (ARG)
       i2___xxtofl (ARG)
     i2___xxtofl
   i2_PWM_DutyCycleCCP2
     i2___flmul
       i2___xxtofl (ARG)
     i2___fltol
       i2___flmul (ARG)
         i2___xxtofl (ARG)
       i2___xxtofl (ARG)
     i2___xxtofl
   i2_printf
     i2_errorUART
     i2_send
       i2_errorUART

 Address spaces:
Name               Size   Autos  Total    Cost      Usage
BIGRAM             7FF      0       0      21        0.0%
EEDATA             100      0       0       0        0.0%
BITBANK7           100      0       0      18        0.0%
BANK7              100      0       0      19        0.0%
BITBANK6           100      0       0      16        0.0%
BANK6              100      0       0      17        0.0%
BITBANK5           100      0       0      14        0.0%
BANK5              100      0       0      15        0.0%
BITBANK4           100      0       0      12        0.0%
BANK4              100      0       0      13        0.0%
BITBANK3           100      0       0      10        0.0%
BANK3              100      0       0      11        0.0%
BITBANK2           100      0       0       8        0.0%
BANK2              100      0       0       9        0.0%
BITBANK1           100      0       0       6        0.0%
BANK1              100      0       0       7        0.0%
BITBANK0            A0      0       0       4        0.0%
BANK0               A0     66      7F       5       79.4%
BITCOMRAM           5E      0       0       0        0.0%
COMRAM              5E     41      47       1       75.5%
BITSFR               0      0       0     200        0.0%
SFR                  0      0       0     200        0.0%
STACK                0      0       0       2        0.0%
NULL                 0      0       0       0        0.0%
ABS                  0      0      C6      20        0.0%
DATA                 0      0      C6       3        0.0%
CODE                 0      0       0       0        0.0%


Microchip Technology PIC18 Macro Assembler V2.10 build 88905656 
Symbol Table                                                                                   Wed Dec 04 15:52:56 2019

                                 l23 273A                                   l32 2748  
                                 l26 2764                                   l35 2782  
                                 l29 2756                                   l71 265A  
                                 l72 2666                                   l81 2424  
                                 l66 26D4                                   l82 2402  
                                 l75 268E                                   l85 2438  
                                 l77 269C                                   l69 264C  
                                 l78 26A0                                   bsr 000FE0  
              setNumPasosX@numPasosX 0061                  ___wmul@multiplicand 0067  
                                l100 2684                                  l103 1F76  
                                l121 2032                                  l204 22B8  
                                l118 2646                                  l230 2704  
                                l320 25D6                                  l240 256A  
                                l233 259C                                  l330 133A  
                                l235 25A0                                  l227 26BA  
                                l157 276C                                  l317 19A8  
                                l325 24FA                                  l166 278A  
                                l334 1DC6                                  l238 2566  
                                l327 24FC                                  l432 2224  
                                l192 2534                                  l433 21E8  
                                l169 2786                                  l337 1E5A  
                                l417 1CB8                                  l186 238C  
                                l450 2772                                  l346 1EBA  
                                l435 2240                                  l428 1DBA  
                                l197 2250                                  l453 2778  
                                l199 225E                                  l456 277E  
                                l627 25FE                                  l924 1AB0  
                                _PR2 000FCB                setNumPasosX@resultado 0063  
                                _abs 2480                           i2___xxtofl 14F4  
                                wreg 000FE8                          i2___flmul@a 0013  
                        i2___flmul@b 000F                           _TXSTA1bits 000FAC  
              setNumPasosY@numPasosY 0061                         ___flmul@aexp 0085  
                       ___flmul@bexp 0086                         ___flmul@sign 0080  
                       ___flmul@temp 008B                         ___flmul@prod 0087  
                       __CFG_LVP$OFF 000000                         ___fltol@exp1 00A6  
              setNumPasosY@resultado 0063                         __CFG_WDT$OFF 000000  
                               ?_abs 0061                                 l1302 24B8  
                               l1135 23F2                                 l1128 23EA  
                               l1241 05B4                                 l1305 24C0  
                               l1250 0822                                 l1155 021C  
                               l1251 0810                                 l1172 0336  
                               l1164 04EC                                 l1156 020A  
                               l1181 0406                                 l1157 01D0  
                               l1245 0918                                 l1182 03F4  
                               l1248 07AA                                 l3201 1D46  
                               l1258 08DA                                 l1282 1396  
                               l3211 1D94                                 l3203 1D5E  
                               l3131 265E                                 l3221 21CE  
                               l3141 2266                                 l3301 0152  
                               l1285 14F2                                 l3213 1D98  
                               l3205 1D64                                 l3223 21E0  
                               l3151 22B6                                 l3143 2278  
                               l3135 2242                                 l3311 0166  
                               l3303 0156                                 l3231 277A  
                               l3215 1DA4                                 l3207 1D7A  
                               l1296 148A                                 l3225 21EA  
                               l3145 2288                                 l3137 2246  
                               l3401 03D6                                 l3321 01B8  
                               l3313 016A                                 l3305 015A  
                               l3241 0048                                 l1289 142E  
                               l3233 276E                                 l3217 1DAE  
                               l3209 1D7C                                 l3161 1BFA  
                               l3129 2648                                 l3227 2204  
                               l3219 21A0                                 l3139 2262  
                               l3147 2294                                 l3411 0430  
                               l3403 03EC                                 l3331 01FC  
                               l3323 01C8                                 l3307 015E  
                               l3315 016E                                 l3251 007C  
                               l3243 004A                                 l3235 2774  
                               l3171 1C5C                                 l3163 1C28  
                               l3155 1BBC                                 l3501 26D2  
                               l3229 2220                                 l2621 23F4  
                               l3149 22A6                                 l3421 04AC  
                               l3413 046A                                 l3333 01FE  
                               l3325 01DE                                 l3317 0172  
                               l3309 0162                                 l3261 00AE  
                               l3245 005A                                 l3253 0084  
                               l3237 002C                                 l2701 0704  
                               l3181 1C96                                 l3173 1C62  
                               l3165 1C36                                 l3157 1BBC  
                               l3511 2628                                 l3503 2668  
                               l2623 2432                                 l3431 04CC  
                               l3423 04B0                                 l3407 0416  
                               l3415 046C                                 l3351 0286  
                               l3343 024E                                 l3335 0208  
                               l3327 01EA                                 l3319 019C  
                               l3271 00E4                                 l3263 00B4  
                               l3255 0094                                 l3247 006A  
                               l3239 003A                                 l2711 079A  
                               l2703 072E                                 l2631 050A  
                               l3191 1CD0                                 l3183 1CA2  
                               l3175 1C78                                 l3167 1C3E  
                               l3159 1BCE                                 l3513 2644  
                               l3505 266A                                 l2625 268A  
                               l3433 04DA                                 l3425 04BE  
                               l3417 047C                                 l3409 0422  
                               l3353 028A                                 l3345 025E  
                               l3337 022A                                 l3361 02AA  
                               l3329 01EE                                 l3281 0120  
                               l3273 00F4                                 l3265 00C2  
                               l3257 009A                                 l3249 007A  
                               l2721 07DA                                 l2713 07A8  
                               l2705 0764                                 l2641 0542  
                               l2633 050C                                 l3441 23A2  
                               l2801 1340                                 l3193 1CFC  
                               l3185 1CAC                                 l3177 1C7A  
                               l3169 1C44                                 l3521 24FE  
                               l3601 24DC                                 l3507 2682  
                               l3435 04DC                                 l3427 04C4  
                               l3419 048C                                 l3363 02D0  
                               l3371 0326                                 l3355 0298  
                               l3347 026C                                 l3339 023A  
                               l3291 013E                                 l3283 012E  
                               l3275 00F6                                 l3267 00C4  
                               l3259 00AC                                 l2731 084C  
                               l2723 0808                                 l2715 07BA  
                               l2707 0772                                 l2651 056E  
                               l2643 0552                                 l2635 051C  
                               l2627 04EE                                 l3451 23DE  
                               l3443 23AA                                 l2803 1352  
                               l3611 1116                                 l3515 2766  
                               l3195 1D2A                                 l3187 1CBE  
                               l3179 1C92                                 l3523 2502  
                               l3603 24E2                                 l3531 26A2  
                               l3509 2626                                 l3517 2788  
                               l3429 04C6                                 l3381 037A  
                               l3373 034C                                 l3365 0304  
                               l3357 029A                                 l3349 027A  
                               l3293 0142                                 l3285 0132  
                               l3269 00D4                                 l3277 00FE  
                               l2741 08C2                                 l2733 0876  
                               l2717 07C8                                 l2709 0790  
                               l2661 05C4                                 l2653 057E  
                               l2645 0558                                 l2637 052C  
                               l2629 04FC                                 l3453 23E4  
                               l3445 23B2                                 l2821 1418  
                               l2813 13D0                                 l2805 1360  
                               l3621 12F6                                 l3613 11A4  
                               l2901 25F6                                 l3197 1D38  
                               l3189 1CBE                                 l3525 250C  
                               l3605 24F4                                 l3541 2702  
                               l3533 26B0                                 l3519 2784  
                               l3391 03A4                                 l3383 0388  
                               l3375 035C                                 l3367 0306  
                               l3359 02A4                                 l3295 0146  
                               l3287 0136                                 l3279 010E  
                               l2743 08DE                                 l2751 0904  
                               l2727 0832                                 l2735 087A  
                               l2719 07CC                                 l2671 05FE  
                               l2663 05D4                                 l2655 058E  
                               l2647 055E                                 l2639 053C  
                               l3447 23C0                                 l3439 238E  
                               l2831 1498                                 l2823 1424  
                               l2815 13D8                                 l2807 13A6  
                               l3623 1314                                 l3615 11C2  
                               l3607 1090                                 l3631 1DE6  
                               l3199 1D40                                 l3551 1872  
                               l3543 184C                                 l3471 2736  
                               l3527 251E                                 l3535 26B8  
                               l3393 03B4                                 l3385 038A  
                               l3369 0316                                 l3297 014A  
                               l3289 013A                                 l2753 0908  
                               l2745 08EE                                 l2737 0894  
                               l2729 083E                                 l2681 0650  
                               l2673 0614                                 l2657 059E  
                               l2649 056C                                 l3449 23D6  
                               l2841 14E0                                 l2833 149A  
                               l2825 1460                                 l2817 13E4  
                               l2809 13BC                                 l3625 1334  
                               l3617 11F0                                 l3609 109E  
                               l3641 1E1A                                 l3633 1DF4  
                               l3561 189E                                 l3553 187A  
                               l3545 1856                                 l3481 2780  
                               l3473 2738                                 l3529 2522  
                               l3537 26F0                                 l3801 0D70  
                               l3491 26C8                                 l3483 26BC  
                               l3387 0398                                 l3379 0370  
                               l3395 03B6                                 l3299 014E  
                               l2747 08FC                                 l2739 08A8  
                               l2691 0696                                 l2683 065E  
                               l2675 0620                                 l2667 05E8  
                               l2659 05A4                                 l2771 1A16  
                               l2763 19D6                                 l2843 14E2  
                               l2835 149E                                 l2827 146C  
                               l2819 1416                                 l3619 1268  
                               l3651 1E68                                 l3643 1E2C  
                               l3635 1E02                                 l3627 1DBC  
                               l3475 2758                                 l2851 1F5E  
                               l3571 1940                                 l3563 18CA  
                               l3555 1886                                 l3547 1862  
                               l3539 26FA                                 l3811 0D8A  
                               l3803 0D74                                 l3493 26CA  
                               l3485 26C0                                 l2861 232A  
                               l3389 03A0                                 l3397 03C4  
                               l2749 08FE                                 l2693 06B0  
                               l2685 066A                                 l2677 0638  
                               l2669 05F4                                 l2781 1A46  
                               l2773 1A24                                 l2765 1A00  
                               l2757 19AA                                 l2837 14C2  
                               l2829 147A                                 l3653 1E7A  
                               l3645 1E3A                                 l3637 1E06  
                               l3629 1DD4                                 l3661 1EA8  
                               l3477 274A                                 l2853 1F7C  
                               l3581 196A                                 l3573 194C  
                               l3565 18F6                                 l3557 188E  
                               l3549 186A                                 l3469 272E  
                               l3821 0DC0                                 l3813 0D92  
                               l3805 0D78                                 l3495 26CC  
                               l3487 26C4                                 l3399 03C8  
                               l2695 06C0                                 l2687 067A  
                               l2679 0644                                 l2791 1A70  
                               l2783 1A50                                 l2767 1A02  
                               l2759 19C2                                 l2839 14D2  
                               l3655 1E88                                 l3647 1E48  
                               l3639 1E0C                                 l3479 273C  
                               l2855 2004                                 l2847 1EC0  
                               l3591 1998                                 l3583 1972  
                               l3575 1954                                 l3567 190C  
                               l3559 1896                                 l3831 0E1C  
                               l3823 0DD4                                 l3815 0D96  
                               l3807 0D7C                                 l3497 26CE  
                               l3489 26C6                                 l2873 235C  
                               l3593 25A2                                 l2697 06DC  
                               l2689 0686                                 l2793 1A80  
                               l2769 1A12                                 l3657 1E96  
                               l3649 1E4C                                 l2857 201A  
                               l2881 2580                                 l2849 1F48  
                               l3585 197A                                 l3577 195C  
                               l3569 1922                                 l3841 0E54  
                               l3833 0E20                                 l3825 0DE6  
                               l3817 0D9E                                 l3809 0D80  
                               l3499 26D0                                 l2875 2378  
                               l2867 2330                                 l2859 2326  
                               l3595 25C8                                 l2699 06E8  
                               l2795 1A90                                 l2779 1A3C  
                               l3659 1E9A                                 l2883 2590  
                               l2891 255A                                 l3587 1982  
                               l3579 1964                                 l3851 0EA8  
                               l3843 0E66                                 l3827 0DF8  
                               l3819 0DAA                                 l3835 0E2C  
                               l2877 237C                                 l2797 1AA0  
                               l2789 1A64                                 l2885 2594  
                               l2893 255E                                 l3589 1988  
                               l3597 24C2                                 l3861 0EFC  
                               l3853 0EBA                                 l3845 0E78  
                               l3837 0E3E                                 l3829 0E0A  
                               l2895 2480                                 l2879 256C  
                               l2887 2536                                 l3599 24CA  
                               l3871 0F74                                 l3863 0F0E  
                               l3855 0ECC                                 l3847 0E92  
                               l3839 0E4C                                 l3791 0D44  
                               l2897 249C                                 l2889 254A  
                               l3881 0FE6                                 l3873 0F92  
                               l3865 0F20                                 l3857 0EE6  
                               l3849 0E96                                 l3793 0D54  
                               l2899 25D8                                 l3891 103A  
                               l3883 0FF8                                 l3875 0FA4  
                               l3867 0F50                                 l3859 0EEA  
                               l3795 0D5A                                 l3893 104C  
                               l3885 1012                                 l3877 0FB6  
                               l3869 0F62                                 l3797 0D60  
                               l3895 107C                                 l3887 1016  
                               l3879 0FD4                                 l3799 0D64  
                               l3889 1028                                 STR_1 7D8B  
                               STR_2 7FF2                                 STR_3 7FF6  
                               STR_4 7D57                                 STR_5 7FDD  
                               STR_6 7E17                                 STR_7 7F50  
                               STR_8 7FFA                                 STR_9 7FEC  
                               _CREN 007D5C                                 _FERR 007D5A  
                               u2000 058E                                 u2001 058A  
                               u2010 05C4                                 u2011 05C0  
                               u2100 084C                                 u2020 05D4  
                               u2101 0848                                 u2021 05D0  
                               u2110 0894                                 u2030 074E  
                               u2111 0890                                 u3000 019C  
                               u2120 08C2                                 u2040 07A8  
                               u2200 1A90                                 u3001 0198  
                               u2121 08BE                                 u2041 07A4  
                               u2201 1A8C                                 u3010 01B4  
                               u2130 08FC                                 u2050 07C8  
                               u2210 1352                                 u3011 01AE  
                               u2131 08F8                                 u2051 07C4  
                               u2035 0744                                 u2211 134E  
                               u3100 0298                                 u3020 01B6  
                               u2060 07DA                                 u2140 19C2  
                               u2300 14E0                                 u2220 1360  
                               u3101 0294                                 u2061 07D6  
                               u2141 19BE                                 u2301 14DC  
                               u2221 135C                                 u2310 2358  
                               u3110 02D0                                 u3030 01DE  
                               u2070 0808                                 u2150 19F6  
                               u2230 13BC                                 u2311 2354  
                               u3111 02CC                                 u3031 01DA  
                               u2071 0804                                 u2231 13B8  
                               u2320 238C                                 u3200 03EC  
                               u3120 0316                                 u3040 01FC  
                               u2080 081E                                 u2160 1A24  
                               u2240 1412                                 u2321 2388  
                               u3201 03E8                                 u3121 0312  
                               u3041 01F8                                 u2081 081A  
                               u2161 1A20                                 u2241 140E  
                               u3210 0402                                 u3130 034C  
                               u3050 021C                                 u2090 0832  
                               u2170 1A38                                 u2250 145C  
                               u2330 2580                                 u3211 03FE  
                               u3131 0348                                 u3051 0218  
                               u2091 082E                                 u2171 1A34  
                               u2155 19EC                                 u2251 1458  
                               u2331 257C                                 u3220 0416  
                               u3140 035C                                 u3060 022A  
                               u2180 1A60                                 u3300 23A2  
                               u2260 147A                                 u2340 254A  
                               u3221 0412                                 u3141 0358  
                               u3061 0226                                 u2181 1A5C  
                               u3301 239E                                 u2261 1476  
                               u2341 2546                                 u3230 0430  
                               u3150 0388                                 u3070 023A  
                               u2190 1A80                                 u3310 23C0  
                               u2270 148A                                 u2350 249C  
                               u3231 042C                                 u3151 0384  
                               u3071 0236                                 u2191 1A7C  
                               u3311 23BC                                 u2271 1486  
                               u2351 2498                                 u3240 046A  
                               u3160 0398                                 u3080 026C  
                               u3320 23D6                                 u2280 1498  
                               u3400 1DF4                                 u3241 0466  
                               u3161 0394                                 u3081 0268  
                               u3321 23D2                                 u2281 1494  
                               u3401 1DF0                                 u3250 047C  
                               u3170 03B4                                 u3090 027A  
                               u2290 14D2                                 u3410 1E1A  
                               u3251 0478                                 u3171 03B0  
                               u3091 0276                                 u2291 14CE  
                               u3411 1E16                                 u3260 048C  
                               u3180 03C4                                 u3420 1E3A  
                               u3340 2534                                 u3261 0488  
                               u3181 03C0                                 u3421 1E36  
                               u3341 2530                                 u1910 2402  
                               u3270 04AC                                 u3190 03D6  
                               u3430 1E5A                                 u3350 190C  
                               u1911 23FE                                 u3271 04A8  
                               u3191 03D2                                 u3431 1E56  
                               u3351 1908                                 u1920 2424  
                               u2800 22B6                                 u3280 04BE  
                               u3440 1E68                                 u3360 1922  
                               u3600 0DD4                                 u1921 2420  
                               u2801 22B2                                 u3281 04BA  
                               u3441 1E64                                 u3361 191E  
                               u3601 0DD0                                 u1930 2432  
                               u3290 04DA                                 u3450 1E88  
                               u2810 1BCE                                 u3370 24DC  
                               u3610 0DE6                                 u1931 242E  
                               u3291 04D6                                 u3451 1E84  
                               u2811 1BCA                                 u3371 24D8  
                               u3611 0DE2                                 u2900 2240  
                               u1940 269C                                 u3460 1EA8  
                               u2820 1C5C                                 u3380 24F4  
                               u3700 0F0E                                 u3620 0DF8  
                               u2901 223C                                 u1941 2698  
                               u3461 1EA4                                 u2821 1C58  
                               u3381 24F0                                 u3701 0F0A  
                               u3621 0DF4                                 u2910 0048  
                               u1950 050A                                 u3470 1EBA  
                               u3390 1DD4                                 u2830 1C78  
                               u2750 265A                                 u3710 0F20  
                               u3630 0E0A                                 u2911 0044  
                               u1951 0506                                 u3471 1EB6  
                               u3391 1DD0                                 u2831 1C74  
                               u2751 2656                                 u3711 0F1C  
                               u3631 0E06                                 u2760 225E  
                               u2920 005A                                 u1960 051C  
                               u2840 1C92                                 u3720 0F62  
                               u3640 0E1C                                 u2761 225A  
                               u2921 0056                                 u1961 0518  
                               u2841 1C8E                                 u3721 0F5E  
                               u3641 0E18                                 u2770 2278  
                               u2930 006A                                 u1970 052C  
                               u2850 1CD0                                 u3730 0F74  
                               u3650 0E3E                                 u2771 2274  
                               u2931 0066                                 u1971 0528  
                               u2851 1CCC                                 u3731 0F70  
                               u3651 0E3A                                 u2780 2288  
                               u2940 00AC                                 u1980 056C  
                               u2860 1D5E                                 u3740 0FA4  
                               u3660 0E66                                 u2781 2284  
                               u2941 00A8                                 u1981 0568  
                               u2861 1D5A                                 u3741 0FA0  
                               u3661 0E62                                 u2790 22A6  
                               u2950 00C2                                 u1990 057E  
                               u2870 1D7A                                 u3750 0FB6  
                               u3670 0E78                                 u2791 22A2  
                               u2951 00BE                                 u1991 057A  
                               u3807 1DDC                                 u2871 1D76  
                               u3751 0FB2                                 u3671 0E74  
                               u2960 00D4                                 u2880 1D94  
                               u3760 0FE6                                 u3680 0EBA  
                               u2961 00D0                                 u3817 1E22  
                               u2881 1D90                                 u3761 0FE2  
                               u3681 0EB6                                 u2890 21E0  
                               u2970 00E4                                 u3770 0FF8  
                               u3690 0ECC                                 u2891 21DC  
                               u2971 00E0                                 u3827 1E70  
                               u3771 0FF4                                 u3691 0EC8  
                               u2980 0120                                 u3780 103A  
                               u3837 21F6                                 u2981 011C  
                               u3781 1036                                 u2990 012E  
                               u3790 104C                                 u3847 2212  
                               u2991 012A                                 u3791 1048  
                               i2l81 246A                                 i2l82 2448  
                               _OERR 007D59                                 i2l75 26DC  
                               i2l85 247E                                 i2l77 26EA  
                               i2l78 26EE                                 _TMR0 000FD6  
                               _TMR1 000FCE                                 _TMR2 000FCC  
                               _TXEN 007D65                                 abs@a 0061  
                               _main 0D44                                 _send 2686  
                               indf2 000FDF                                 fsr2l 000FD9  
                               btemp 0048                     scanf@guardarscan 0063  
                       main@pActMenu 00BD                                 prodh 000FF4  
                               prodl 000FF3                                 start 0028  
                       i2___fltol@f1 0028                        __CFG_MCLRE$ON 000000  
                       ___param_bank 000000                                ??_abs 0063  
           __end_of_interruptsEnable 276E                        ___fltol@sign1 00A5  
                    __end_of___fladd 04EE                                ?_main 0001  
                              ?_send 0001                                STR_10 7FAD  
                              STR_11 7FA2                                STR_12 7FB8  
                              STR_20 7E42                                STR_13 7F6F  
                              STR_21 7E6C                                STR_30 7FC2  
                              STR_14 7F97                                STR_22 7CAF  
                              STR_23 7F7E                                STR_15 7F60  
                              STR_31 7E96                                STR_40 7FC2  
                              STR_32 7FD4                                STR_24 7FCB  
                              STR_16 7F8C                                STR_33 7FC2  
                              STR_41 7F36                                STR_25 7EE0  
                              STR_17 7D23                                STR_42 7FD4  
                              STR_26 7FD4                                STR_34 7F1B  
                              STR_18 7CEF                                STR_43 7FC2  
                              STR_35 7FD4                                STR_27 7FC2  
                              STR_19 7DE9                                STR_44 7FE5  
                              STR_36 7EBE                                STR_28 7DBB  
                              STR_37 7FD4                                STR_29 7FD4  
                              STR_38 7EFF                                STR_39 7FD4  
                    __end_of___flmul 091A                      __end_of___fltol 1AB2  
                              i2l103 20E6                                i2l121 219A  
                    __end_of___lwmod 23F4                                i1l582 0020  
                              i2l441 2718                                i2l186 2324  
                              i2l438 272C                                i2l577 1830  
                              i2l924 1BB6                                _RCREG 000FAE  
                              _TMR0H 000FD7                                _TMR1H 000FCF  
                              _TMR0L 000FD6                                _TMR1L 000FCE  
                              _SPBRG 000FAF                      __end_of_apagarZ 2780  
                     _impCoordActual 1090                          i2_errorUART 243A  
                   __end_of_UARTinit 26D6                      _coordenadaNueva 0047  
                              _scanf 24FE                      __end_of_receive 2668  
                    __end_of_low_isr 0028                      ??_PWM_CCP1_init 0061  
                    ??_PWM_CCP2_init 0061                                tablat 000FF5  
                              ttemp5 0049                                ttemp6 004C  
                              ttemp7 0050                                status 000FD8  
       __size_ofi2_PWM_DutyCycleCCP1 00B4         __size_ofi2_PWM_DutyCycleCCP2 00B4  
                              wtemp8 0049                        i2___flmul@grs 001C  
                 __size_ofi2___flmul 042A                   __size_ofi2___fltol 0106  
                   __end_ofi2_printf 2326            moverHaciaY@coordYCentenas 00B4  
                    __initialization 2600                         __end_of_main 1090  
                       __end_of_send 26A2                               ??_main 00BB  
                             ??_send 0062                        __activetblptr 000002  
             __end_of_impCoordActual 133C                          ?i2___xxtofl 0001  
                   _habilitarIntTMR0 2788                     _habilitarIntTMR1 2784  
    i2PWM_DutyCycleCCP1@PWMDutyValue 0039        PWM_DutyCycleCCP1@PWMDutyValue 00AE  
                  main@calibrarSparc 00C4            moverHaciaY@coordYUnidades 00B1  
                             ?_scanf 0063                               _ADRESH 000FC4  
                             _ADRESL 000FC3                               _CCPR1L 000FBE  
                             _CCPR2L 000FBB                               i2l3001 0A4A  
                             i2l1241 09DE                               i2l1250 0C4C  
                             i2l1251 0C3A                               i2l3011 0A94  
                             i2l3003 0A62                               i2l3021 0AEA  
                             i2l3013 0AA4                               i2l3005 0A6E  
                             i2l1245 0D42                               i2l3101 15CA  
                             i2l3031 0B8E                               i2l3023 0B06  
                             i2l3015 0AB0                               i2l3007 0A7A  
                             i2l3111 162E                               i2l3103 15CC  
                             i2l1248 0BD4                               i2l3041 0BE4  
                             i2l3033 0B9C                               i2l3025 0B12  
                             i2l3017 0AC0                               i2l3009 0A88  
                             i2l3121 1686                               i2l3113 164C  
                             i2l3105 15D8                               i2l1258 0D04  
                             i2l1282 154A                               i2l3043 0BF2  
                             i2l3035 0BBA                               i2l3027 0B2E  
                             i2l3019 0ADA                               i2l3123 1694  
                             i2l3115 164E                               i2l3107 1614  
                             i2l3053 0C5C                               i2l3061 0CA4  
                             i2l3045 0BF6                               i2l3037 0BC4  
                             i2l3029 0B58                               i2l3125 1696  
                             i2l3117 1652                               i2l3109 1620  
                             i2l1285 16A6                               i2l3071 0D18  
                             i2l3063 0CBE                               i2l3055 0C68  
                             i2l3047 0C04                               i2l3039 0BD2  
                             i2l3119 1676                               i2l1296 163E  
                             i2l3073 0D26                               i2l3065 0CD2  
                             i2l3057 0C76                               i2l3049 0C32  
                             i2l1289 15E2                               i2l3075 0D28  
                             i2l3067 0CEC                               i2l3059 0CA0  
                             i2l3091 1570                               i2l3083 14F6  
                             i2l3069 0D08                               i2l3077 0D2E  
                             i2l3085 1506                               i1l3789 001E  
                             i2l3079 0D32                               i2l3095 1584  
                             i2l3087 1514                               i2l3097 158C  
                             i2l3089 155A                               i2l3099 1598  
                             i2l3461 20CE                               i2l2911 1AC8  
                             i2l3463 20EA                               i2l3455 26D8  
                             i2l3711 16E0                               i2l2921 1B18  
                             i2l3465 216E                               i2l3457 2036  
                             i2l2905 243A                               i2l3713 16E6  
                             i2l3721 1702                               i2l2931 1B42  
                             i2l2923 1B1C                               i2l2915 1ADC  
                             i2l3467 2182                               i2l3459 20BA  
                             i2l2907 2478                               i2l3731 173A  
                             i2l3723 1710                               i2l3715 16EE  
                             i2l3707 16C2                               i2l2941 1B6A  
                             i2l2933 1B4C                               i2l2925 1B2A  
                             i2l2917 1B06                               i2l2909 1AB2  
                             i2l3741 176E                               i2l3733 1740  
                             i2l3725 1720                               i2l3717 16FA  
                             i2l3709 16D0                               i2l2943 1B76  
                             i2l2935 1B56                               i2l2919 1B08  
                             i2l3663 271A                               i2l3671 270A  
                             i2l3751 1792                               i2l3743 177A  
                             i2l3727 1726                               i2l3735 1742  
                             i2l3719 1700                               i2l2961 0946  
                             i2l2953 091A                               i2l2945 1B86  
                             i2l3665 271E                               i2l3673 2712  
                             i2l3761 17CC                               i2l3753 17A2  
                             i2l3745 177E                               i2l3737 1750  
                             i2l3729 172E                               i2l2971 0982  
                             i2l2963 0956                               i2l2955 0926  
                             i2l2947 1B96                               i2l3667 2726  
                             i2l3691 231E                               i2l3683 22D6  
                             i2l3675 22BA                               i2l3771 17E8  
                             i2l3763 17D0                               i2l3755 17B0  
                             i2l3747 1782                               i2l3739 1760  
                             i2l2981 09B8                               i2l2973 0988  
                             i2l2965 0966                               i2l2957 0934  
                             i2l2949 1BA6                               i2l3669 2706  
                             i2l3677 22BE                               i2l3781 1822  
                             i2l3773 17F8                               i2l3765 17D4  
                             i2l3757 17BC                               i2l3749 1784  
                             i2l2983 09C8                               i2l2975 0996  
                             i2l2967 096C                               i2l2959 0936  
                             i2l3679 22C2                               i2l3783 1826  
                             i2l3775 1806                               i2l3767 17D8  
                             i2l3759 17C2                               i2l2993 0A12  
                             i2l2985 09CE                               i2l2977 0998  
                             i2l2969 097C                               i2l3689 2302  
                             i2l3785 182A                               i2l3777 1812  
                             i2l3769 17DA                               i2l2995 0A1E  
                             i2l2987 09EE                               i2l2979 09A8  
                             i2l3787 182E                               i2l3779 1818  
                             i2l2997 0A28                               i2l2989 09FE  
                             i2l2999 0A3E                               _RCREG1 000FAE  
                             _OSCCON 000FD3                               _TXREG1 000FAD  
                   __end_of___xxtofl 14F4                         ?_moverHaciaX 00B0  
                       ?_moverHaciaY 00B0                         ?_moverZAbajo 0001  
                             i2_send 26D6                      i2errorUART@temp 0001  
                   __end_of_high_isr 184C                         ?_slidePiston 0001  
                          ??___fladd 0095                               ___wmul 25D8  
                          ??___flmul 007C                            ??___fltol 00A1  
                          ??___lwmod 0065                        main@opcionsel 00C5  
                             clear_0 2606                            ??_apagarZ 0061  
                             _printf 2326                     __end_of_tmr0Init 2706  
                   __end_of_tmr1Init 26BC                               scanf@i 0066  
                    ?_impCoordActual 0001                    __end_ofi2___flmul 0D44  
                          ??_receive 0062                    __end_ofi2___fltol 1BB8  
                       __mediumconst 7CAE                     __end_of_portInit 273C  
                          ??_low_isr 0060               __size_of_funcionToques 0036  
                             tblptrh 000FF7                               tblptrl 000FF6  
                             tblptru 000FF8                  _impCoordActual$2878 00A7  
                     i2___flmul@aexp 0020                       i2___flmul@bexp 0021  
                     i2___flmul@sign 001B                       i2___flmul@temp 0026  
                     i2___flmul@prod 0022                         ___xxtofl@arg 0070  
                       ___xxtofl@exp 006F                         ___xxtofl@val 0066  
                         __accesstop 0060              __end_of__initialization 2618  
                     i2___fltol@exp1 0031                        ___rparam_used 000001  
                  _presionarZDecenas 00D7                           ___fltol@f1 009D  
                __size_ofi2___xxtofl 01B4                       __pcstackCOMRAM 0001  
                  _presionarPantalla 219C                        __end_of_scanf 2536  
                          ?_UARTinit 0001                          _CurrentPosX 00D0  
                        _CurrentPosY 00CC                   ?_presionarPantalla 0061  
           i2_PWM_DutyCycleCCP1$2961 0034             i2_PWM_DutyCycleCCP2$2960 0034  
                ??_presionarPantalla 0063                            ?i2_printf 0003  
    i2PWM_DutyCycleCCP2@PWMDutyValue 0039        PWM_DutyCycleCCP2@PWMDutyValue 00AE  
                            ??_scanf 0066                           __pbssBANK0 00C6  
                 __size_of_errorUART 0046                              ?i2_send 0001  
                  _habilitarModCoord 0046                        _funcionToques 25A2  
          __end_of_presionarPantalla 2242                        ?_setNumPasosX 0061  
                      ?_setNumPasosY 0061                              ?___wmul 0065  
                 receiveNum@recibido 0068                           ??_UARTinit 0061  
                            ?_printf 0063                    ?_interruptsEnable 0001  
                i2_PWM_DutyCycleCCP1 20E8                  i2_PWM_DutyCycleCCP2 2034  
                 ??_interruptsEnable 0061                            ?___xxtofl 0066  
                         ??i2_printf 0005                         ?i2_errorUART 0001  
                          ?_high_isr 0001                        ?_moverHaciaXY 0001  
               ?i2_PWM_DutyCycleCCP1 0001                 ?i2_PWM_DutyCycleCCP2 0001  
                      ?_moverZArriba 0001                            ?_tmr0Init 0001  
                          ?_tmr1Init 0001                           _xToAdvance 00D2  
                    __size_ofi2_send 001A                       ?_funcionToques 0001  
           __end_of_habilitarIntTMR0 278C             __end_of_habilitarIntTMR1 2788  
                            __Hparam 0000                              __Lparam 0000  
               __size_of_moverHaciaX 0102                 __size_of_moverHaciaY 0102  
               __size_of_moverZAbajo 0006                           _yToAdvance 00CE  
                     ??_setNumPasosX 0063                       ??_setNumPasosY 0063  
                          ?_portInit 0001                              ___fladd 002C  
                            ___flmul 04EE                              ___fltol 19AA  
                         _llegoHomeX 0043                           _llegoHomeY 0042  
                    __size_of___wmul 0028                              ___lwmod 238E  
                            __pcinit 2600                 __size_of_slidePiston 003C  
                            _apagarZ 277A                              __ramtop 0800  
                            __ptext0 0D44                              __ptext1 26A2  
                            __ptext2 26F0                              __ptext3 24C2  
                            __ptext4 24FE                              __ptext5 2648  
                            __ptext6 272E                              __ptext7 2780  
                            __ptext8 184C                              __ptext9 1BB8  
                    __size_of_printf 0068                            _T0CONbits 000FD5  
                          _T1CONbits 000FCD                    __end_of_errorUART 243A  
                          _T2CONbits 000FCA                         __size_of_abs 0042  
                       ??i2___xxtofl 0005                           ??___xxtofl 006A  
                            _receive 2648                           _receiveNum 2242  
                         _modificarZ 1DBC                              _low_isr 0018  
                       _destinoHomeX 0045                         _destinoHomeY 0044  
                         ??_high_isr 003B                       __pintcode_body 16A8  
                     ??_moverHaciaXY 00B5                 end_of_initialization 2618  
                      ?_motoresZinit 0001                ??i2_PWM_DutyCycleCCP1 0032  
              ??i2_PWM_DutyCycleCCP2 0032                       ??_moverZArriba 0061  
                      __Lmediumconst 7CAE                __end_of_PWM_CCP1_init 2648  
                            int_func 16A8                __end_of_PWM_CCP2_init 2686  
                     i2___xxtofl@arg 000B                       i2___xxtofl@exp 000A  
                     i2___xxtofl@val 0001                           ??_tmr0Init 0061  
                         ??_tmr1Init 0061                           _moverHomeX 271A  
                         _moverHomeY 2706           __size_of_presionarPantalla 00A6  
                            printf@i 0067                   __end_ofi2___xxtofl 16A8  
                         ??_portInit 0061                              postinc0 000FEE  
                         _motorXinit 2758                           _motorYinit 274A  
                         _pistonInit 2780                     ??_impCoordActual 00A7  
                    receive@recibido 0062                            _PORTAbits 000F80  
                          _PORTBbits 000F81                            _PORTCbits 000F82  
                        ___fladd@grs 009C             moverHaciaX@coordXDecenas 00B0  
                      ___xxtofl@sign 006E                            _TRISAbits 000F92  
                          _TRISBbits 000F93                            _TRISCbits 000F94  
                          _TRISDbits 000F95                            _TRISEbits 000F96  
                    i2___fltol@sign1 0030                            i2___flmul 091A  
                          i2___fltol 1AB2                       ??_motoresZinit 0061  
                        ___flmul@grs 0081                          _CCP1CONbits 000FBD  
                    ??_funcionToques 0069                          _CCP2CONbits 000FBA  
                 _presionarZCentenas 00D8                  i2printf@PointString 0003  
                     __end_ofi2_send 26F0                       __end_of___wmul 2600  
                        _BAUDCONbits 000FB8                    __size_of_UARTinit 001A  
                     __end_of_printf 238E                          ?_receiveNum 0001  
                start_initialization 2600                          ?_modificarZ 0001  
                 _presionarZUnidades 00D6                          __end_of_abs 24C2  
                          i2printf@i 0007                 __end_of_setNumPasosX 25A2  
               __end_of_setNumPasosY 256C                           ?i2___flmul 000F  
                         ?i2___fltol 0028                      main@activarmenu 00BF  
                  __size_ofi2_printf 006C                 __size_ofi2_errorUART 0046  
          moverHaciaX@coordXCentenas 00B4                             ??i2_send 0002  
                        ?_moverHomeX 0001                          ?_moverHomeY 0001  
                 _sparcEnMovimientoX 00D5                   _sparcEnMovimientoY 00D4  
                           ??___wmul 0069                          ?_motorXinit 0001  
                        ?_motorYinit 0001                          ?_pistonInit 0001  
               __end_of_moverHaciaXY 19AA                             ??_printf 0065  
 presionarPantalla@presionarZDecenas 0061                 __end_of_moverZArriba 2774  
                          ___fladd@a 0091                            ___fladd@b 008D  
          moverHaciaX@coordXUnidades 00B1                            ___flmul@a 0078  
                          ___flmul@b 0074                          __pbssCOMRAM 0042  
                      __pcstackBANK0 0060                         send@enviarpc 0062  
                  __size_of___xxtofl 01B8            __size_of_interruptsEnable 0008  
                  __size_of_high_isr 1844                    _PWM_DutyCycleCCP1 1F78  
                  _PWM_DutyCycleCCP2 1EBC                   ?_PWM_DutyCycleCCP1 0001  
                 ?_PWM_DutyCycleCCP2 0001            moverHaciaXY@validarCoordX 00B7  
          moverHaciaXY@validarCoordY 00B9                    ?_habilitarIntTMR0 0001  
                  ?_habilitarIntTMR1 0001                  __size_of_receiveNum 0078  
                __size_of_modificarZ 0100                    __size_of_tmr0Init 0016  
                  __size_of_tmr1Init 001A                            __pintcode 0008  
                      __pmediumconst 7CAE                             ?___fladd 008D  
                 ??_habilitarIntTMR0 0061                   ??_habilitarIntTMR1 0061  
                           ?___flmul 0074                             ?___fltol 009D  
                           ?___lwmod 0061                  ??_PWM_DutyCycleCCP1 00A7  
                ??_PWM_DutyCycleCCP2 00A7                 __end_of_motoresZinit 274A  
                        __pintcodelo 0018                    __size_of_portInit 000E  
                           ?_apagarZ 0001                             ?_receive 0001  
                           ?_low_isr 0001                  __size_of_moverHomeX 0014  
                __size_of_moverHomeY 0014                            _errorUART 23F4  
                        ??i2___flmul 0017                          ??i2___fltol 002C  
                     __size_of_scanf 0038                  __size_of_motorXinit 000E  
          __end_of_PWM_DutyCycleCCP1 2034            __end_of_PWM_DutyCycleCCP2 1F78  
                __size_of_motorYinit 000E                  __size_of_pistonInit 0004  
                     ___wmul@product 0069                             _LATBbits 000F8A  
                           _LATCbits 000F8B                             _LATDbits 000F8C  
                           _LATEbits 000F8D                        ??_moverHaciaX 00B2  
                      ??_moverHaciaY 00B2                        ??_moverZAbajo 0061  
                           _PIE1bits 000F9D                             i2u240_40 1AFC  
                           i2u240_45 1AF2                             i2u241_40 1B2A  
                           i2u241_41 1B26                             i2u250_40 09A8  
                           i2u242_40 1B3E                             i2u250_41 09A4  
                           i2u242_41 1B3A                             i2u251_40 09B8  
                           i2u243_40 1B66                             i2u251_41 09B4  
                           i2u243_41 1B62                             i2u260_40 0C5C  
                           i2u252_40 09EE                             i2u244_40 1B86  
                           i2u236_40 2448                             i2u260_41 0C58  
                           i2u252_41 09EA                             i2u244_41 1B82  
                           i2u236_41 2444                             i2u261_40 0C76  
                           i2u253_40 09FE                             i2u245_40 1B96  
                           i2u237_40 246A                             i2u333_40 26EA  
                           i2u261_41 0C72                             i2u253_41 09FA  
                           i2u245_41 1B92                             i2u237_41 2466  
                           i2u333_41 26E6                             i2u262_40 0CBE  
                           i2u254_40 0B78                             i2u246_40 0934  
                           i2u270_40 162E                             i2u238_40 2478  
                           i2u350_40 16D0                             i2u262_41 0CBA  
                           i2u246_41 0930                             i2u270_41 162A  
                           i2u238_41 2474                             i2u350_41 16CC  
                           i2u254_45 0B6E                             i2u263_40 0CEC  
                           i2u255_40 0BD2                             i2u247_40 0946  
                           i2u239_40 1AC8                             i2u271_40 163E  
                           i2u351_40 16E0                             i2u263_41 0CE8  
                           i2u255_41 0BCE                             i2u247_41 0942  
                           i2u239_41 1AC4                             i2u271_41 163A  
                           i2u351_41 16DC                             i2u264_40 0D26  
                           i2u256_40 0BF2                             i2u248_40 0956  
                           i2u272_40 164C                             i2u352_40 1710  
                           i2u264_41 0D22                             i2u256_41 0BEE  
                           i2u248_41 0952                             i2u272_41 1648  
                           i2u352_41 170C                             i2u257_40 0C04  
                           i2u249_40 0996                             i2u273_40 1686  
                           i2u265_40 1506                             i2u353_40 1720  
                           i2u257_41 0C00                             i2u249_41 0992  
                           i2u273_41 1682                             i2u265_41 1502  
                           i2u353_41 171C                             _PIR1bits 000F9E  
                           i2u258_40 0C32                             i2u274_40 1694  
                           i2u266_40 1514                             i2u354_40 1750  
                           i2u258_41 0C2E                             i2u274_41 1690  
                           i2u266_41 1510                             i2u354_41 174C  
                           i2u259_40 0C48                             i2u267_40 1570  
                           i2u355_40 176E                             i2u259_41 0C44  
                           i2u267_41 156C                             i2u355_41 176A  
                           i2u268_40 15C6                             i2u348_40 22D2  
                           i2u356_40 1792                             i2u268_41 15C2  
                           i2u348_41 22CE                             i2u356_41 178E  
                           i2u269_40 1610                             i2u349_40 22FE  
                           i2u357_40 17B0                             i2u269_41 160C  
                           i2u349_41 22FA                             i2u357_41 17AC  
                           i2u358_40 17E8                             i2u358_41 17E4  
                           i2u359_40 1806                             i2u359_41 1802  
                           i2u385_47 1756                             i2u386_47 1798  
                           i2u387_47 17EE                             _UCFGbits 000F6F  
                           _RCONbits 000FD0                        ??_slidePiston 0069  
                           _UCONbits 000F6D                             _UARTinit 26BC  
                         _ADCON0bits 000FC2                           _ADCON1bits 000FC1  
                         _ADCON2bits 000FC0                    ___wmul@multiplier 0065  
              __size_of_setNumPasosX 0036                __size_of_setNumPasosY 0036  
                        _coordinates 00C6             moverHaciaY@coordYDecenas 00B0  
        __end_ofi2_PWM_DutyCycleCCP1 219C          __end_ofi2_PWM_DutyCycleCCP2 20E8  
                           i2_printf 22BA                           ?_errorUART 0001  
                      errorUART@temp 0061                          _INTCON2bits 000FF1  
                        _INTCON3bits 000FF0                   scanf@numcaracteres 0065  
                           __Hrparam 0000                __size_of_moverHaciaXY 015E  
                           __Lrparam 0000                  __end_of_moverHaciaX 1DBC  
                __end_of_moverHaciaY 1CBA                         _setNumPasosX 256C  
                       _setNumPasosY 2536                __size_of_moverZArriba 0006  
                __end_of_moverZAbajo 277A                     __size_of___fladd 04C2  
               slidePiston@selection 0069                     __size_of___flmul 042C  
                   __size_of___fltol 0108                     __size_of___lwmod 0066  
                   __size_of_apagarZ 0006                  __end_of_slidePiston 24FE  
             __size_of_PWM_CCP1_init 0022                    printf@PointString 0063  
             __size_of_PWM_CCP2_init 001E                         ??_receiveNum 0068  
                           ___xxtofl 133C                         ??_modificarZ 0068  
                    main@tamanoarray 00BB                     __size_of_receive 0020  
                   __size_of_low_isr 0010                             __ptext10 2536  
                           __ptext11 1EBC                             __ptext20 1DBC  
                           __ptext12 1CBA                             __ptext21 276E  
                           __ptext13 256C                             __ptext30 002C  
                           __ptext22 2774                             __ptext14 2480  
                           __ptext31 2784                             __ptext23 277A  
                           __ptext15 25D8                             __ptext40 2668  
                           __ptext32 2788                             __ptext24 2766  
                           __ptext16 1F78                             __ptext41 2626  
                           __ptext33 25A2                             __ptext25 1090  
                           __ptext17 273C                             __ptext50 20E8  
                           __ptext34 2242                             __ptext26 133C  
                           __ptext18 274A                             __ptext51 14F4  
                           __ptext35 2326                             __ptext27 238E  
                           __ptext19 2758                             __ptext52 1AB2  
                           __ptext44 22BA                             __ptext36 2686  
                           __ptext28 19AA                             __ptext53 091A  
                           __ptext45 26D6                             __ptext37 23F4  
                           __ptext29 04EE                             __ptext46 243A  
                           __ptext38 219C                             __ptext47 2706  
                           __ptext39 26BC                             __ptext48 2034  
                           __ptext49 271A  presionarPantalla@presionarZCentenas 0065  
                           _high_isr 0008                       i2send@enviarpc 0002  
 i2PWM_DutyCycleCCP1@WantedDutyCycle 0038     PWM_DutyCycleCCP1@WantedDutyCycle 00AD  
         __size_of_PWM_DutyCycleCCP1 00BC           __size_of_PWM_DutyCycleCCP2 00BC  
                   _interruptsEnable 2766                         _moverHaciaXY 184C  
                      __size_of_main 034C                        __size_of_send 001C  
                       _moverZArriba 276E                             _tmr0Init 26F0  
                           _tmr1Init 26A2                __end_of_funcionToques 25D8  
                       ??_moverHomeX 003B                         ??_moverHomeY 003B  
              __size_of_motoresZinit 000E                   __end_of_receiveNum 22BA  
                           _portInit 272E                   __end_of_modificarZ 1EBC  
                           int$flags 0048                         ??_motorXinit 0061  
                       ??_motorYinit 0061                         ??_pistonInit 0061  
              modificarZ@OkEncendido 0069  presionarPantalla@presionarZUnidades 0062  
                         _INTCONbits 000FF2                        ??i2_errorUART 0001  
                        ??_errorUART 0061              __size_of_impCoordActual 02AC  
                 __end_of_moverHomeX 272E                   __end_of_moverHomeY 271A  
             _PWM_DutyCycleCCP1$2877 00A9               _PWM_DutyCycleCCP2$2876 00A9  
                           intlevel1 0000                             intlevel2 0000  
                       _motoresZinit 273C                      i2___xxtofl@sign 0009  
                 __end_of_motorXinit 2766                   __end_of_motorYinit 2758  
                   ___lwmod@dividend 0061                   __end_of_pistonInit 2784  
                     _coordXCentenas 00DE                        _PWM_CCP1_init 2626  
                      _PWM_CCP2_init 2668                          _moverHaciaX 1CBA  
                        _moverHaciaY 1BB8                           _RCSTA1bits 000FAB  
                        _moverZAbajo 2774                       _coordYCentenas 00DB  
 i2PWM_DutyCycleCCP2@WantedDutyCycle 0038     PWM_DutyCycleCCP2@WantedDutyCycle 00AD  
                        _slidePiston 24C2                  __CFG_FOSC$INTOSC_EC 000000  
                      _coordXDecenas 00DD                        _coordYDecenas 00DA  
                    ___lwmod@divisor 0063            __size_of_habilitarIntTMR0 0004  
          __size_of_habilitarIntTMR1 0004                      ___lwmod@counter 0065  
                     _coordXUnidades 00DC                       _coordYUnidades 00D9  
                      ___fladd@signs 0099              presionarPantalla@toques 0066  
                       ___fladd@aexp 009A                         ___fladd@bexp 009B  
                     ?_PWM_CCP1_init 0001                  __end_ofi2_errorUART 2480  
                     ?_PWM_CCP2_init 0001  
