

Microchip MPLAB XC8 Assembler V2.10 build 88905656 
                                                                                               Wed Nov 27 12:56:37 2019

Microchip MPLAB XC8 C Compiler v2.10 (Free license) build 20190730164152 Og1 
     1                           	processor	18F4550
     2                           	fnconf	rparam,??,?,0
     3                           	opt	pw 120
     4                           	opt	flic
     5                           	psect	mediumconst,global,reloc=2,class=MEDIUMCONST,delta=1,noexec
     6                           	psect	cinit,global,reloc=2,class=CODE,delta=1
     7                           	psect	bssCOMRAM,global,class=COMRAM,space=1,delta=1,noexec
     8                           	psect	bssBANK0,global,class=BANK0,space=1,delta=1,lowdata,noexec
     9                           	psect	cstackCOMRAM,global,class=COMRAM,space=1,delta=1,noexec
    10                           	psect	text0,global,reloc=2,class=CODE,delta=1
    11                           	psect	text1,global,reloc=2,class=CODE,delta=1
    12                           	psect	text2,global,reloc=2,class=CODE,delta=1
    13                           	psect	text3,global,reloc=2,class=CODE,delta=1
    14                           	psect	text4,global,reloc=2,class=CODE,delta=1
    15                           	psect	text5,global,reloc=2,class=CODE,delta=1
    16                           	psect	text6,global,reloc=2,class=CODE,delta=1
    17                           	psect	text7,global,reloc=2,class=CODE,delta=1
    18                           	psect	text8,global,reloc=2,class=CODE,delta=1
    19                           	psect	text9,global,reloc=2,class=CODE,delta=1
    20                           	psect	text10,global,reloc=2,class=CODE,delta=1
    21                           	psect	text11,global,reloc=2,class=CODE,delta=1
    22                           	psect	text12,global,reloc=2,class=CODE,delta=1
    23                           	psect	text13,global,reloc=2,class=CODE,delta=1
    24                           	psect	text14,global,reloc=2,class=CODE,delta=1
    25                           	psect	text15,global,reloc=2,class=CODE,delta=1
    26                           	psect	text16,global,reloc=2,class=CODE,delta=1
    27                           	psect	text17,global,reloc=2,class=CODE,delta=1
    28                           	psect	text18,global,reloc=2,class=CODE,delta=1
    29                           	psect	text19,global,reloc=2,class=CODE,delta=1,group=1
    30                           	psect	text20,global,reloc=2,class=CODE,delta=1,group=1
    31                           	psect	text21,global,reloc=2,class=CODE,delta=1,group=1
    32                           	psect	text22,global,reloc=2,class=CODE,delta=1
    33                           	psect	text23,global,reloc=2,class=CODE,delta=1
    34                           	psect	intcodelo,global,reloc=2,class=CODE,delta=1
    35                           	psect	intcode,global,reloc=2,class=CODE,delta=1
    36                           	psect	intcode_body,global,reloc=2,class=CODE,delta=1
    37                           	psect	intsave_regs,global,class=BIGRAM,space=1,delta=1,noexec
    38                           	psect	rparam,global,class=COMRAM,space=1,delta=1,noexec
    39                           	psect	temp,global,ovrld,common,class=COMRAM,space=1,delta=1
    40  0000                     
    41                           ; Version 2.10
    42                           ; Generated 31/07/2019 GMT
    43                           ; 
    44                           ; Copyright © 2019, Microchip Technology Inc. and its subsidiaries ("Microchip")
    45                           ; All rights reserved.
    46                           ; 
    47                           ; This software is developed by Microchip Technology Inc. and its subsidiaries ("Microch
      +                          ip").
    48                           ; 
    49                           ; Redistribution and use in source and binary forms, with or without modification, are
    50                           ; permitted provided that the following conditions are met:
    51                           ; 
    52                           ;     1. Redistributions of source code must retain the above copyright notice, this lis
      +                          t of
    53                           ;        conditions and the following disclaimer.
    54                           ; 
    55                           ;     2. Redistributions in binary form must reproduce the above copyright notice, this 
      +                          list
    56                           ;        of conditions and the following disclaimer in the documentation and/or other
    57                           ;        materials provided with the distribution.
    58                           ; 
    59                           ;     3. Microchip's name may not be used to endorse or promote products derived from th
      +                          is
    60                           ;        software without specific prior written permission.
    61                           ; 
    62                           ; THIS SOFTWARE IS PROVIDED BY MICROCHIP "AS IS" AND ANY EXPRESS OR IMPLIED WARRANTIES,
    63                           ; INCLUDING, BUT NOT LIMITED TO, THE IMPLIED WARRANTIES OF MERCHANTABILITY AND FITNESS F
      +                          OR
    64                           ; PURPOSE ARE DISCLAIMED.  IN NO EVENT SHALL MICROCHIP BE LIABLE FOR ANY DIRECT, INDIREC
      +                          T,
    65                           ; INCIDENTAL, SPECIAL, EXEMPLARY, OR CONSEQUENTIAL DAMAGES (INCLUDING BUT NOT LIMITED TO
    66                           ; PROCUREMENT OF SUBSTITUTE GOODS OR SERVICES; LOSS OF USE, DATA OR PROFITS; OR BUSINESS
    67                           ; INTERRUPTION) HOWSOEVER CAUSED AND ON ANY THEORY OF LIABILITY, WHETHER IN CONTRACT, ST
      +                          RICT
    68                           ; LIABILITY, OR TORT (INCLUDING NEGLIGENCE OR OTHERWISE) ARISING IN ANY WAY OUT OF THE U
      +                          SE OF
    69                           ; THIS SOFTWARE, EVEN IF ADVISED OF THE POSSIBILITY OF SUCH DAMAGE.
    70                           ; 
    71                           ; 
    72                           ; Code-generator required, PIC18F4550 Definitions
    73                           ; 
    74                           ; SFR Addresses
    75  0000                     _TMR1	set	4046
    76  0000                     _TMR0	set	4054
    77  0000                     _TMR1L	set	4046
    78  0000                     _TMR1H	set	4047
    79  0000                     _TMR0L	set	4054
    80  0000                     _TMR0H	set	4055
    81  0000                     _T1CONbits	set	4045
    82  0000                     _T0CONbits	set	4053
    83  0000                     _PIE1bits	set	3997
    84  0000                     _INTCON3bits	set	4080
    85  0000                     _TRISBbits	set	3987
    86  0000                     _INTCON2bits	set	4081
    87  0000                     _INTCONbits	set	4082
    88  0000                     _RCONbits	set	4048
    89  0000                     _ADRESL	set	4035
    90  0000                     _ADRESH	set	4036
    91  0000                     _ADCON2bits	set	4032
    92  0000                     _ADCON0bits	set	4034
    93  0000                     _CCPR1L	set	4030
    94  0000                     _CCP1CONbits	set	4029
    95  0000                     _TMR2	set	4044
    96  0000                     _CCPR2L	set	4027
    97  0000                     _T2CONbits	set	4042
    98  0000                     _PR2	set	4043
    99  0000                     _CCP2CONbits	set	4026
   100  0000                     _TXREG1	set	4013
   101  0000                     _RCREG1	set	4014
   102  0000                     _PIR1bits	set	3998
   103  0000                     _RCSTA1bits	set	4011
   104  0000                     _BAUDCONbits	set	4024
   105  0000                     _TXSTA1bits	set	4012
   106  0000                     _SPBRG	set	4015
   107  0000                     _LATCbits	set	3979
   108  0000                     _LATDbits	set	3980
   109  0000                     _TRISCbits	set	3988
   110  0000                     _TRISDbits	set	3989
   111  0000                     _LATAbits	set	3977
   112  0000                     _TRISAbits	set	3986
   113  0000                     _OSCCON	set	4051
   114  0000                     _ADCON1bits	set	4033
   115                           
   116                           	psect	mediumconst
   117  007CEC                     __pmediumconst:
   118                           	opt callstack 0
   119  007CEC  00                 	db	0
   120  007CED                     STR_2:
   121  007CED  28                 	db	40
   122  007CEE  30                 	db	48	;'0'
   123  007CEF  29                 	db	41
   124  007CF0  41                 	db	65	;'A'
   125  007CF1  79                 	db	121	;'y'
   126  007CF2  75                 	db	117	;'u'
   127  007CF3  64                 	db	100	;'d'
   128  007CF4  61                 	db	97	;'a'
   129  007CF5  20                 	db	32
   130  007CF6  73                 	db	115	;'s'
   131  007CF7  6F                 	db	111	;'o'
   132  007CF8  62                 	db	98	;'b'
   133  007CF9  72                 	db	114	;'r'
   134  007CFA  65                 	db	101	;'e'
   135  007CFB  20                 	db	32
   136  007CFC  63                 	db	99	;'c'
   137  007CFD  6F                 	db	111	;'o'
   138  007CFE  6D                 	db	109	;'m'
   139  007CFF  6F                 	db	111	;'o'
   140  007D00  20                 	db	32
   141  007D01  66                 	db	102	;'f'
   142  007D02  75                 	db	117	;'u'
   143  007D03  6E                 	db	110	;'n'
   144  007D04  63                 	db	99	;'c'
   145  007D05  69                 	db	105	;'i'
   146  007D06  6F                 	db	111	;'o'
   147  007D07  6E                 	db	110	;'n'
   148  007D08  61                 	db	97	;'a'
   149  007D09  20                 	db	32
   150  007D0A  65                 	db	101	;'e'
   151  007D0B  6C                 	db	108	;'l'
   152  007D0C  20                 	db	32
   153  007D0D  70                 	db	112	;'p'
   154  007D0E  72                 	db	114	;'r'
   155  007D0F  6F                 	db	111	;'o'
   156  007D10  67                 	db	103	;'g'
   157  007D11  72                 	db	114	;'r'
   158  007D12  61                 	db	97	;'a'
   159  007D13  6D                 	db	109	;'m'
   160  007D14  61                 	db	97	;'a'
   161  007D15  20                 	db	32
   162  007D16  28                 	db	40
   163  007D17  31                 	db	49	;'1'
   164  007D18  29                 	db	41
   165  007D19  49                 	db	73	;'I'
   166  007D1A  6E                 	db	110	;'n'
   167  007D1B  74                 	db	116	;'t'
   168  007D1C  72                 	db	114	;'r'
   169  007D1D  6F                 	db	111	;'o'
   170  007D1E  64                 	db	100	;'d'
   171  007D1F  75                 	db	117	;'u'
   172  007D20  63                 	db	99	;'c'
   173  007D21  69                 	db	105	;'i'
   174  007D22  72                 	db	114	;'r'
   175  007D23  20                 	db	32
   176  007D24  63                 	db	99	;'c'
   177  007D25  6F                 	db	111	;'o'
   178  007D26  6F                 	db	111	;'o'
   179  007D27  72                 	db	114	;'r'
   180  007D28  64                 	db	100	;'d'
   181  007D29  65                 	db	101	;'e'
   182  007D2A  6E                 	db	110	;'n'
   183  007D2B  61                 	db	97	;'a'
   184  007D2C  64                 	db	100	;'d'
   185  007D2D  61                 	db	97	;'a'
   186  007D2E  20                 	db	32
   187  007D2F  6E                 	db	110	;'n'
   188  007D30  75                 	db	117	;'u'
   189  007D31  65                 	db	101	;'e'
   190  007D32  76                 	db	118	;'v'
   191  007D33  61                 	db	97	;'a'
   192  007D34  20                 	db	32
   193  007D35  28                 	db	40
   194  007D36  32                 	db	50	;'2'
   195  007D37  29                 	db	41
   196  007D38  49                 	db	73	;'I'
   197  007D39  6D                 	db	109	;'m'
   198  007D3A  70                 	db	112	;'p'
   199  007D3B  72                 	db	114	;'r'
   200  007D3C  69                 	db	105	;'i'
   201  007D3D  6D                 	db	109	;'m'
   202  007D3E  69                 	db	105	;'i'
   203  007D3F  72                 	db	114	;'r'
   204  007D40  20                 	db	32
   205  007D41  6C                 	db	108	;'l'
   206  007D42  61                 	db	97	;'a'
   207  007D43  73                 	db	115	;'s'
   208  007D44  20                 	db	32
   209  007D45  63                 	db	99	;'c'
   210  007D46  6F                 	db	111	;'o'
   211  007D47  6F                 	db	111	;'o'
   212  007D48  72                 	db	114	;'r'
   213  007D49  64                 	db	100	;'d'
   214  007D4A  65                 	db	101	;'e'
   215  007D4B  6E                 	db	110	;'n'
   216  007D4C  61                 	db	97	;'a'
   217  007D4D  64                 	db	100	;'d'
   218  007D4E  61                 	db	97	;'a'
   219  007D4F  73                 	db	115	;'s'
   220  007D50  20                 	db	32
   221  007D51  72                 	db	114	;'r'
   222  007D52  65                 	db	101	;'e'
   223  007D53  63                 	db	99	;'c'
   224  007D54  69                 	db	105	;'i'
   225  007D55  62                 	db	98	;'b'
   226  007D56  69                 	db	105	;'i'
   227  007D57  64                 	db	100	;'d'
   228  007D58  61                 	db	97	;'a'
   229  007D59  73                 	db	115	;'s'
   230  007D5A  20                 	db	32
   231  007D5B  28                 	db	40
   232  007D5C  33                 	db	51	;'3'
   233  007D5D  29                 	db	41
   234  007D5E  49                 	db	73	;'I'
   235  007D5F  72                 	db	114	;'r'
   236  007D60  20                 	db	32
   237  007D61  61                 	db	97	;'a'
   238  007D62  20                 	db	32
   239  007D63  68                 	db	104	;'h'
   240  007D64  6F                 	db	111	;'o'
   241  007D65  6D                 	db	109	;'m'
   242  007D66  65                 	db	101	;'e'
   243  007D67  0A                 	db	10
   244  007D68  28                 	db	40
   245  007D69  34                 	db	52	;'4'
   246  007D6A  29                 	db	41
   247  007D6B  4D                 	db	77	;'M'
   248  007D6C  6F                 	db	111	;'o'
   249  007D6D  64                 	db	100	;'d'
   250  007D6E  69                 	db	105	;'i'
   251  007D6F  66                 	db	102	;'f'
   252  007D70  69                 	db	105	;'i'
   253  007D71  63                 	db	99	;'c'
   254  007D72  61                 	db	97	;'a'
   255  007D73  72                 	db	114	;'r'
   256  007D74  20                 	db	32
   257  007D75  63                 	db	99	;'c'
   258  007D76  6F                 	db	111	;'o'
   259  007D77  6F                 	db	111	;'o'
   260  007D78  72                 	db	114	;'r'
   261  007D79  64                 	db	100	;'d'
   262  007D7A  65                 	db	101	;'e'
   263  007D7B  6E                 	db	110	;'n'
   264  007D7C  61                 	db	97	;'a'
   265  007D7D  64                 	db	100	;'d'
   266  007D7E  61                 	db	97	;'a'
   267  007D7F  20                 	db	32
   268  007D80  28                 	db	40
   269  007D81  35                 	db	53	;'5'
   270  007D82  29                 	db	41
   271  007D83  49                 	db	73	;'I'
   272  007D84  6E                 	db	110	;'n'
   273  007D85  69                 	db	105	;'i'
   274  007D86  63                 	db	99	;'c'
   275  007D87  69                 	db	105	;'i'
   276  007D88  61                 	db	97	;'a'
   277  007D89  72                 	db	114	;'r'
   278  007D8A  20                 	db	32
   279  007D8B  50                 	db	80	;'P'
   280  007D8C  72                 	db	114	;'r'
   281  007D8D  6F                 	db	111	;'o'
   282  007D8E  67                 	db	103	;'g'
   283  007D8F  72                 	db	114	;'r'
   284  007D90  61                 	db	97	;'a'
   285  007D91  6D                 	db	109	;'m'
   286  007D92  61                 	db	97	;'a'
   287  007D93  20                 	db	32
   288  007D94  28                 	db	40
   289  007D95  36                 	db	54	;'6'
   290  007D96  29                 	db	41
   291  007D97  42                 	db	66	;'B'
   292  007D98  6F                 	db	111	;'o'
   293  007D99  72                 	db	114	;'r'
   294  007D9A  72                 	db	114	;'r'
   295  007D9B  61                 	db	97	;'a'
   296  007D9C  72                 	db	114	;'r'
   297  007D9D  20                 	db	32
   298  007D9E  65                 	db	101	;'e'
   299  007D9F  6C                 	db	108	;'l'
   300  007DA0  20                 	db	32
   301  007DA1  76                 	db	118	;'v'
   302  007DA2  61                 	db	97	;'a'
   303  007DA3  6C                 	db	108	;'l'
   304  007DA4  6F                 	db	111	;'o'
   305  007DA5  72                 	db	114	;'r'
   306  007DA6  20                 	db	32
   307  007DA7  64                 	db	100	;'d'
   308  007DA8  65                 	db	101	;'e'
   309  007DA9  20                 	db	32
   310  007DAA  74                 	db	116	;'t'
   311  007DAB  6F                 	db	111	;'o'
   312  007DAC  64                 	db	100	;'d'
   313  007DAD  61                 	db	97	;'a'
   314  007DAE  73                 	db	115	;'s'
   315  007DAF  20                 	db	32
   316  007DB0  6C                 	db	108	;'l'
   317  007DB1  61                 	db	97	;'a'
   318  007DB2  73                 	db	115	;'s'
   319  007DB3  20                 	db	32
   320  007DB4  63                 	db	99	;'c'
   321  007DB5  6F                 	db	111	;'o'
   322  007DB6  6F                 	db	111	;'o'
   323  007DB7  72                 	db	114	;'r'
   324  007DB8  64                 	db	100	;'d'
   325  007DB9  65                 	db	101	;'e'
   326  007DBA  6E                 	db	110	;'n'
   327  007DBB  61                 	db	97	;'a'
   328  007DBC  64                 	db	100	;'d'
   329  007DBD  61                 	db	97	;'a'
   330  007DBE  73                 	db	115	;'s'
   331  007DBF  0A                 	db	10
   332  007DC0  00                 	db	0
   333  007DC1                     STR_7:
   334  007DC1  49                 	db	73	;'I'
   335  007DC2  6E                 	db	110	;'n'
   336  007DC3  74                 	db	116	;'t'
   337  007DC4  72                 	db	114	;'r'
   338  007DC5  6F                 	db	111	;'o'
   339  007DC6  64                 	db	100	;'d'
   340  007DC7  75                 	db	117	;'u'
   341  007DC8  63                 	db	99	;'c'
   342  007DC9  65                 	db	101	;'e'
   343  007DCA  20                 	db	32
   344  007DCB  65                 	db	101	;'e'
   345  007DCC  6E                 	db	110	;'n'
   346  007DCD  20                 	db	32
   347  007DCE  65                 	db	101	;'e'
   348  007DCF  6C                 	db	108	;'l'
   349  007DD0  20                 	db	32
   350  007DD1  73                 	db	115	;'s'
   351  007DD2  69                 	db	105	;'i'
   352  007DD3  67                 	db	103	;'g'
   353  007DD4  75                 	db	117	;'u'
   354  007DD5  69                 	db	105	;'i'
   355  007DD6  65                 	db	101	;'e'
   356  007DD7  6E                 	db	110	;'n'
   357  007DD8  74                 	db	116	;'t'
   358  007DD9  65                 	db	101	;'e'
   359  007DDA  20                 	db	32
   360  007DDB  6F                 	db	111	;'o'
   361  007DDC  72                 	db	114	;'r'
   362  007DDD  64                 	db	100	;'d'
   363  007DDE  65                 	db	101	;'e'
   364  007DDF  6E                 	db	110	;'n'
   365  007DE0  20                 	db	32
   366  007DE1  6C                 	db	108	;'l'
   367  007DE2  61                 	db	97	;'a'
   368  007DE3  73                 	db	115	;'s'
   369  007DE4  20                 	db	32
   370  007DE5  76                 	db	118	;'v'
   371  007DE6  61                 	db	97	;'a'
   372  007DE7  72                 	db	114	;'r'
   373  007DE8  69                 	db	105	;'i'
   374  007DE9  61                 	db	97	;'a'
   375  007DEA  62                 	db	98	;'b'
   376  007DEB  6C                 	db	108	;'l'
   377  007DEC  65                 	db	101	;'e'
   378  007DED  73                 	db	115	;'s'
   379  007DEE  20                 	db	32
   380  007DEF  61                 	db	97	;'a'
   381  007DF0  20                 	db	32
   382  007DF1  75                 	db	117	;'u'
   383  007DF2  73                 	db	115	;'s'
   384  007DF3  61                 	db	97	;'a'
   385  007DF4  72                 	db	114	;'r'
   386  007DF5  20                 	db	32
   387  007DF6  28                 	db	40
   388  007DF7  6E                 	db	110	;'n'
   389  007DF8  6F                 	db	111	;'o'
   390  007DF9  20                 	db	32
   391  007DFA  75                 	db	117	;'u'
   392  007DFB  73                 	db	115	;'s'
   393  007DFC  65                 	db	101	;'e'
   394  007DFD  73                 	db	115	;'s'
   395  007DFE  20                 	db	32
   396  007DFF  6C                 	db	108	;'l'
   397  007E00  61                 	db	97	;'a'
   398  007E01  73                 	db	115	;'s'
   399  007E02  20                 	db	32
   400  007E03  63                 	db	99	;'c'
   401  007E04  6F                 	db	111	;'o'
   402  007E05  6D                 	db	109	;'m'
   403  007E06  61                 	db	97	;'a'
   404  007E07  73                 	db	115	;'s'
   405  007E08  29                 	db	41
   406  007E09  3A                 	db	58	;':'
   407  007E0A  20                 	db	32
   408  007E0B  63                 	db	99	;'c'
   409  007E0C  6F                 	db	111	;'o'
   410  007E0D  6F                 	db	111	;'o'
   411  007E0E  72                 	db	114	;'r'
   412  007E0F  64                 	db	100	;'d'
   413  007E10  58                 	db	88	;'X'
   414  007E11  2C                 	db	44
   415  007E12  63                 	db	99	;'c'
   416  007E13  6F                 	db	111	;'o'
   417  007E14  6F                 	db	111	;'o'
   418  007E15  72                 	db	114	;'r'
   419  007E16  64                 	db	100	;'d'
   420  007E17  59                 	db	89	;'Y'
   421  007E18  2C                 	db	44
   422  007E19  23                 	db	35
   423  007E1A  20                 	db	32
   424  007E1B  64                 	db	100	;'d'
   425  007E1C  65                 	db	101	;'e'
   426  007E1D  20                 	db	32
   427  007E1E  76                 	db	118	;'v'
   428  007E1F  65                 	db	101	;'e'
   429  007E20  63                 	db	99	;'c'
   430  007E21  65                 	db	101	;'e'
   431  007E22  73                 	db	115	;'s'
   432  007E23  20                 	db	32
   433  007E24  61                 	db	97	;'a'
   434  007E25  20                 	db	32
   435  007E26  70                 	db	112	;'p'
   436  007E27  72                 	db	114	;'r'
   437  007E28  65                 	db	101	;'e'
   438  007E29  73                 	db	115	;'s'
   439  007E2A  69                 	db	105	;'i'
   440  007E2B  6F                 	db	111	;'o'
   441  007E2C  6E                 	db	110	;'n'
   442  007E2D  61                 	db	97	;'a'
   443  007E2E  72                 	db	114	;'r'
   444  007E2F  20                 	db	32
   445  007E30  5A                 	db	90	;'Z'
   446  007E31  00                 	db	0
   447  007E32                     STR_6:
   448  007E32  54                 	db	84	;'T'
   449  007E33  75                 	db	117	;'u'
   450  007E34  76                 	db	118	;'v'
   451  007E35  69                 	db	105	;'i'
   452  007E36  73                 	db	115	;'s'
   453  007E37  74                 	db	116	;'t'
   454  007E38  65                 	db	101	;'e'
   455  007E39  20                 	db	32
   456  007E3A  75                 	db	117	;'u'
   457  007E3B  6E                 	db	110	;'n'
   458  007E3C  20                 	db	32
   459  007E3D  65                 	db	101	;'e'
   460  007E3E  72                 	db	114	;'r'
   461  007E3F  72                 	db	114	;'r'
   462  007E40  6F                 	db	111	;'o'
   463  007E41  72                 	db	114	;'r'
   464  007E42  2C                 	db	44
   465  007E43  20                 	db	32
   466  007E44  65                 	db	101	;'e'
   467  007E45  73                 	db	115	;'s'
   468  007E46  63                 	db	99	;'c'
   469  007E47  72                 	db	114	;'r'
   470  007E48  69                 	db	105	;'i'
   471  007E49  62                 	db	98	;'b'
   472  007E4A  65                 	db	101	;'e'
   473  007E4B  20                 	db	32
   474  007E4C  6C                 	db	108	;'l'
   475  007E4D  61                 	db	97	;'a'
   476  007E4E  20                 	db	32
   477  007E4F  70                 	db	112	;'p'
   478  007E50  61                 	db	97	;'a'
   479  007E51  6C                 	db	108	;'l'
   480  007E52  61                 	db	97	;'a'
   481  007E53  62                 	db	98	;'b'
   482  007E54  72                 	db	114	;'r'
   483  007E55  61                 	db	97	;'a'
   484  007E56  20                 	db	32
   485  007E57  27                 	db	39
   486  007E58  4D                 	db	77	;'M'
   487  007E59  65                 	db	101	;'e'
   488  007E5A  6E                 	db	110	;'n'
   489  007E5B  75                 	db	117	;'u'
   490  007E5C  27                 	db	39
   491  007E5D  20                 	db	32
   492  007E5E  6F                 	db	111	;'o'
   493  007E5F  20                 	db	32
   494  007E60  27                 	db	39
   495  007E61  6D                 	db	109	;'m'
   496  007E62  65                 	db	101	;'e'
   497  007E63  6E                 	db	110	;'n'
   498  007E64  75                 	db	117	;'u'
   499  007E65  27                 	db	39
   500  007E66  20                 	db	32
   501  007E67  70                 	db	112	;'p'
   502  007E68  61                 	db	97	;'a'
   503  007E69  72                 	db	114	;'r'
   504  007E6A  61                 	db	97	;'a'
   505  007E6B  20                 	db	32
   506  007E6C  61                 	db	97	;'a'
   507  007E6D  63                 	db	99	;'c'
   508  007E6E  63                 	db	99	;'c'
   509  007E6F  65                 	db	101	;'e'
   510  007E70  64                 	db	100	;'d'
   511  007E71  65                 	db	101	;'e'
   512  007E72  72                 	db	114	;'r'
   513  007E73  20                 	db	32
   514  007E74  61                 	db	97	;'a'
   515  007E75  6C                 	db	108	;'l'
   516  007E76  20                 	db	32
   517  007E77  6D                 	db	109	;'m'
   518  007E78  65                 	db	101	;'e'
   519  007E79  6E                 	db	110	;'n'
   520  007E7A  75                 	db	117	;'u'
   521  007E7B  0A                 	db	10
   522  007E7C  00                 	db	0
   523  007E7D                     STR_1:
   524  007E7D  45                 	db	69	;'E'
   525  007E7E  73                 	db	115	;'s'
   526  007E7F  63                 	db	99	;'c'
   527  007E80  72                 	db	114	;'r'
   528  007E81  69                 	db	105	;'i'
   529  007E82  62                 	db	98	;'b'
   530  007E83  65                 	db	101	;'e'
   531  007E84  20                 	db	32
   532  007E85  6C                 	db	108	;'l'
   533  007E86  61                 	db	97	;'a'
   534  007E87  20                 	db	32
   535  007E88  70                 	db	112	;'p'
   536  007E89  61                 	db	97	;'a'
   537  007E8A  6C                 	db	108	;'l'
   538  007E8B  61                 	db	97	;'a'
   539  007E8C  62                 	db	98	;'b'
   540  007E8D  72                 	db	114	;'r'
   541  007E8E  61                 	db	97	;'a'
   542  007E8F  20                 	db	32
   543  007E90  27                 	db	39
   544  007E91  4D                 	db	77	;'M'
   545  007E92  65                 	db	101	;'e'
   546  007E93  6E                 	db	110	;'n'
   547  007E94  75                 	db	117	;'u'
   548  007E95  27                 	db	39
   549  007E96  20                 	db	32
   550  007E97  6F                 	db	111	;'o'
   551  007E98  20                 	db	32
   552  007E99  27                 	db	39
   553  007E9A  6D                 	db	109	;'m'
   554  007E9B  65                 	db	101	;'e'
   555  007E9C  6E                 	db	110	;'n'
   556  007E9D  75                 	db	117	;'u'
   557  007E9E  27                 	db	39
   558  007E9F  20                 	db	32
   559  007EA0  70                 	db	112	;'p'
   560  007EA1  61                 	db	97	;'a'
   561  007EA2  72                 	db	114	;'r'
   562  007EA3  61                 	db	97	;'a'
   563  007EA4  20                 	db	32
   564  007EA5  61                 	db	97	;'a'
   565  007EA6  63                 	db	99	;'c'
   566  007EA7  63                 	db	99	;'c'
   567  007EA8  65                 	db	101	;'e'
   568  007EA9  64                 	db	100	;'d'
   569  007EAA  65                 	db	101	;'e'
   570  007EAB  72                 	db	114	;'r'
   571  007EAC  20                 	db	32
   572  007EAD  61                 	db	97	;'a'
   573  007EAE  6C                 	db	108	;'l'
   574  007EAF  20                 	db	32
   575  007EB0  6D                 	db	109	;'m'
   576  007EB1  65                 	db	101	;'e'
   577  007EB2  6E                 	db	110	;'n'
   578  007EB3  75                 	db	117	;'u'
   579  007EB4  0A                 	db	10
   580  007EB5  00                 	db	0
   581  007EB6                     STR_13:
   582  007EB6  45                 	db	69	;'E'
   583  007EB7  6C                 	db	108	;'l'
   584  007EB8  65                 	db	101	;'e'
   585  007EB9  67                 	db	103	;'g'
   586  007EBA  69                 	db	105	;'i'
   587  007EBB  73                 	db	115	;'s'
   588  007EBC  74                 	db	116	;'t'
   589  007EBD  65                 	db	101	;'e'
   590  007EBE  20                 	db	32
   591  007EBF  6C                 	db	108	;'l'
   592  007EC0  61                 	db	97	;'a'
   593  007EC1  20                 	db	32
   594  007EC2  6F                 	db	111	;'o'
   595  007EC3  70                 	db	112	;'p'
   596  007EC4  63                 	db	99	;'c'
   597  007EC5  69                 	db	105	;'i'
   598  007EC6  6F                 	db	111	;'o'
   599  007EC7  6E                 	db	110	;'n'
   600  007EC8  20                 	db	32
   601  007EC9  64                 	db	100	;'d'
   602  007ECA  65                 	db	101	;'e'
   603  007ECB  20                 	db	32
   604  007ECC  69                 	db	105	;'i'
   605  007ECD  6D                 	db	109	;'m'
   606  007ECE  70                 	db	112	;'p'
   607  007ECF  72                 	db	114	;'r'
   608  007ED0  69                 	db	105	;'i'
   609  007ED1  6D                 	db	109	;'m'
   610  007ED2  69                 	db	105	;'i'
   611  007ED3  72                 	db	114	;'r'
   612  007ED4  20                 	db	32
   613  007ED5  63                 	db	99	;'c'
   614  007ED6  6F                 	db	111	;'o'
   615  007ED7  6F                 	db	111	;'o'
   616  007ED8  72                 	db	114	;'r'
   617  007ED9  64                 	db	100	;'d'
   618  007EDA  65                 	db	101	;'e'
   619  007EDB  6E                 	db	110	;'n'
   620  007EDC  61                 	db	97	;'a'
   621  007EDD  64                 	db	100	;'d'
   622  007EDE  61                 	db	97	;'a'
   623  007EDF  73                 	db	115	;'s'
   624  007EE0  0A                 	db	10
   625  007EE1  00                 	db	0
   626  007EE2                     STR_12:
   627  007EE2  43                 	db	67	;'C'
   628  007EE3  6F                 	db	111	;'o'
   629  007EE4  6F                 	db	111	;'o'
   630  007EE5  72                 	db	114	;'r'
   631  007EE6  64                 	db	100	;'d'
   632  007EE7  65                 	db	101	;'e'
   633  007EE8  6E                 	db	110	;'n'
   634  007EE9  61                 	db	97	;'a'
   635  007EEA  64                 	db	100	;'d'
   636  007EEB  61                 	db	97	;'a'
   637  007EEC  20                 	db	32
   638  007EED  72                 	db	114	;'r'
   639  007EEE  65                 	db	101	;'e'
   640  007EEF  63                 	db	99	;'c'
   641  007EF0  69                 	db	105	;'i'
   642  007EF1  62                 	db	98	;'b'
   643  007EF2  69                 	db	105	;'i'
   644  007EF3  64                 	db	100	;'d'
   645  007EF4  61                 	db	97	;'a'
   646  007EF5  2C                 	db	44
   647  007EF6  20                 	db	32
   648  007EF7  6C                 	db	108	;'l'
   649  007EF8  6F                 	db	111	;'o'
   650  007EF9  20                 	db	32
   651  007EFA  71                 	db	113	;'q'
   652  007EFB  75                 	db	117	;'u'
   653  007EFC  65                 	db	101	;'e'
   654  007EFD  20                 	db	32
   655  007EFE  72                 	db	114	;'r'
   656  007EFF  65                 	db	101	;'e'
   657  007F00  63                 	db	99	;'c'
   658  007F01  69                 	db	105	;'i'
   659  007F02  62                 	db	98	;'b'
   660  007F03  69                 	db	105	;'i'
   661  007F04  6D                 	db	109	;'m'
   662  007F05  6F                 	db	111	;'o'
   663  007F06  73                 	db	115	;'s'
   664  007F07  20                 	db	32
   665  007F08  66                 	db	102	;'f'
   666  007F09  75                 	db	117	;'u'
   667  007F0A  65                 	db	101	;'e'
   668  007F0B  3A                 	db	58	;':'
   669  007F0C  00                 	db	0
   670  007F0D                     STR_3:
   671  007F0D  45                 	db	69	;'E'
   672  007F0E  6C                 	db	108	;'l'
   673  007F0F  65                 	db	101	;'e'
   674  007F10  63                 	db	99	;'c'
   675  007F11  63                 	db	99	;'c'
   676  007F12  69                 	db	105	;'i'
   677  007F13  6F                 	db	111	;'o'
   678  007F14  6E                 	db	110	;'n'
   679  007F15  20                 	db	32
   680  007F16  6E                 	db	110	;'n'
   681  007F17  6F                 	db	111	;'o'
   682  007F18  20                 	db	32
   683  007F19  76                 	db	118	;'v'
   684  007F1A  61                 	db	97	;'a'
   685  007F1B  6C                 	db	108	;'l'
   686  007F1C  69                 	db	105	;'i'
   687  007F1D  64                 	db	100	;'d'
   688  007F1E  61                 	db	97	;'a'
   689  007F1F  20                 	db	32
   690  007F20  76                 	db	118	;'v'
   691  007F21  75                 	db	117	;'u'
   692  007F22  65                 	db	101	;'e'
   693  007F23  6C                 	db	108	;'l'
   694  007F24  76                 	db	118	;'v'
   695  007F25  61                 	db	97	;'a'
   696  007F26  20                 	db	32
   697  007F27  61                 	db	97	;'a'
   698  007F28  20                 	db	32
   699  007F29  69                 	db	105	;'i'
   700  007F2A  6E                 	db	110	;'n'
   701  007F2B  74                 	db	116	;'t'
   702  007F2C  65                 	db	101	;'e'
   703  007F2D  6E                 	db	110	;'n'
   704  007F2E  74                 	db	116	;'t'
   705  007F2F  61                 	db	97	;'a'
   706  007F30  72                 	db	114	;'r'
   707  007F31  00                 	db	0
   708  007F32                     STR_10:
   709  007F32  52                 	db	82	;'R'
   710  007F33  65                 	db	101	;'e'
   711  007F34  63                 	db	99	;'c'
   712  007F35  69                 	db	105	;'i'
   713  007F36  62                 	db	98	;'b'
   714  007F37  69                 	db	105	;'i'
   715  007F38  20                 	db	32
   716  007F39  23                 	db	35
   717  007F3A  20                 	db	32
   718  007F3B  64                 	db	100	;'d'
   719  007F3C  65                 	db	101	;'e'
   720  007F3D  20                 	db	32
   721  007F3E  76                 	db	118	;'v'
   722  007F3F  65                 	db	101	;'e'
   723  007F40  63                 	db	99	;'c'
   724  007F41  65                 	db	101	;'e'
   725  007F42  73                 	db	115	;'s'
   726  007F43  20                 	db	32
   727  007F44  61                 	db	97	;'a'
   728  007F45  20                 	db	32
   729  007F46  70                 	db	112	;'p'
   730  007F47  72                 	db	114	;'r'
   731  007F48  65                 	db	101	;'e'
   732  007F49  73                 	db	115	;'s'
   733  007F4A  69                 	db	105	;'i'
   734  007F4B  6F                 	db	111	;'o'
   735  007F4C  6E                 	db	110	;'n'
   736  007F4D  61                 	db	97	;'a'
   737  007F4E  72                 	db	114	;'r'
   738  007F4F  20                 	db	32
   739  007F50  5A                 	db	90	;'Z'
   740  007F51  0A                 	db	10
   741  007F52  00                 	db	0
   742  007F53                     STR_11:
   743  007F53  4D                 	db	77	;'M'
   744  007F54  65                 	db	101	;'e'
   745  007F55  74                 	db	116	;'t'
   746  007F56  69                 	db	105	;'i'
   747  007F57  73                 	db	115	;'s'
   748  007F58  74                 	db	116	;'t'
   749  007F59  65                 	db	101	;'e'
   750  007F5A  20                 	db	32
   751  007F5B  75                 	db	117	;'u'
   752  007F5C  6E                 	db	110	;'n'
   753  007F5D  61                 	db	97	;'a'
   754  007F5E  20                 	db	32
   755  007F5F  63                 	db	99	;'c'
   756  007F60  6F                 	db	111	;'o'
   757  007F61  6F                 	db	111	;'o'
   758  007F62  72                 	db	114	;'r'
   759  007F63  64                 	db	100	;'d'
   760  007F64  65                 	db	101	;'e'
   761  007F65  6E                 	db	110	;'n'
   762  007F66  61                 	db	97	;'a'
   763  007F67  64                 	db	100	;'d'
   764  007F68  61                 	db	97	;'a'
   765  007F69  20                 	db	32
   766  007F6A  69                 	db	105	;'i'
   767  007F6B  6E                 	db	110	;'n'
   768  007F6C  76                 	db	118	;'v'
   769  007F6D  61                 	db	97	;'a'
   770  007F6E  6C                 	db	108	;'l'
   771  007F6F  69                 	db	105	;'i'
   772  007F70  64                 	db	100	;'d'
   773  007F71  61                 	db	97	;'a'
   774  007F72  0A                 	db	10
   775  007F73  00                 	db	0
   776  007F74                     STR_15:
   777  007F74  63                 	db	99	;'c'
   778  007F75  6F                 	db	111	;'o'
   779  007F76  6F                 	db	111	;'o'
   780  007F77  72                 	db	114	;'r'
   781  007F78  64                 	db	100	;'d'
   782  007F79  65                 	db	101	;'e'
   783  007F7A  6E                 	db	110	;'n'
   784  007F7B  61                 	db	97	;'a'
   785  007F7C  64                 	db	100	;'d'
   786  007F7D  61                 	db	97	;'a'
   787  007F7E  73                 	db	115	;'s'
   788  007F7F  2C                 	db	44
   789  007F80  20                 	db	32
   790  007F81  6C                 	db	108	;'l'
   791  007F82  61                 	db	97	;'a'
   792  007F83  73                 	db	115	;'s'
   793  007F84  20                 	db	32
   794  007F85  63                 	db	99	;'c'
   795  007F86  75                 	db	117	;'u'
   796  007F87  61                 	db	97	;'a'
   797  007F88  6C                 	db	108	;'l'
   798  007F89  65                 	db	101	;'e'
   799  007F8A  73                 	db	115	;'s'
   800  007F8B  20                 	db	32
   801  007F8C  73                 	db	115	;'s'
   802  007F8D  6F                 	db	111	;'o'
   803  007F8E  6E                 	db	110	;'n'
   804  007F8F  3A                 	db	58	;':'
   805  007F90  20                 	db	32
   806  007F91  0A                 	db	10
   807  007F92  00                 	db	0
   808  007F93                     STR_17:
   809  007F93  20                 	db	32
   810  007F94  63                 	db	99	;'c'
   811  007F95  6F                 	db	111	;'o'
   812  007F96  6E                 	db	110	;'n'
   813  007F97  74                 	db	116	;'t'
   814  007F98  69                 	db	105	;'i'
   815  007F99  65                 	db	101	;'e'
   816  007F9A  6E                 	db	110	;'n'
   817  007F9B  65                 	db	101	;'e'
   818  007F9C  20                 	db	32
   819  007F9D  6C                 	db	108	;'l'
   820  007F9E  6F                 	db	111	;'o'
   821  007F9F  73                 	db	115	;'s'
   822  007FA0  20                 	db	32
   823  007FA1  76                 	db	118	;'v'
   824  007FA2  61                 	db	97	;'a'
   825  007FA3  6C                 	db	108	;'l'
   826  007FA4  6F                 	db	111	;'o'
   827  007FA5  72                 	db	114	;'r'
   828  007FA6  65                 	db	101	;'e'
   829  007FA7  73                 	db	115	;'s'
   830  007FA8  20                 	db	32
   831  007FA9  64                 	db	100	;'d'
   832  007FAA  65                 	db	101	;'e'
   833  007FAB  3A                 	db	58	;':'
   834  007FAC  20                 	db	32
   835  007FAD  00                 	db	0
   836  007FAE                     STR_16:
   837  007FAE  4C                 	db	76	;'L'
   838  007FAF  61                 	db	97	;'a'
   839  007FB0  20                 	db	32
   840  007FB1  63                 	db	99	;'c'
   841  007FB2  6F                 	db	111	;'o'
   842  007FB3  6F                 	db	111	;'o'
   843  007FB4  72                 	db	114	;'r'
   844  007FB5  64                 	db	100	;'d'
   845  007FB6  65                 	db	101	;'e'
   846  007FB7  6E                 	db	110	;'n'
   847  007FB8  61                 	db	97	;'a'
   848  007FB9  64                 	db	100	;'d'
   849  007FBA  61                 	db	97	;'a'
   850  007FBB  20                 	db	32
   851  007FBC  00                 	db	0
   852  007FBD                     STR_8:
   853  007FBD  52                 	db	82	;'R'
   854  007FBE  65                 	db	101	;'e'
   855  007FBF  63                 	db	99	;'c'
   856  007FC0  69                 	db	105	;'i'
   857  007FC1  62                 	db	98	;'b'
   858  007FC2  69                 	db	105	;'i'
   859  007FC3  20                 	db	32
   860  007FC4  63                 	db	99	;'c'
   861  007FC5  6F                 	db	111	;'o'
   862  007FC6  6F                 	db	111	;'o'
   863  007FC7  72                 	db	114	;'r'
   864  007FC8  64                 	db	100	;'d'
   865  007FC9  58                 	db	88	;'X'
   866  007FCA  00                 	db	0
   867  007FCB                     STR_9:
   868  007FCB  52                 	db	82	;'R'
   869  007FCC  65                 	db	101	;'e'
   870  007FCD  63                 	db	99	;'c'
   871  007FCE  69                 	db	105	;'i'
   872  007FCF  62                 	db	98	;'b'
   873  007FD0  69                 	db	105	;'i'
   874  007FD1  20                 	db	32
   875  007FD2  63                 	db	99	;'c'
   876  007FD3  6F                 	db	111	;'o'
   877  007FD4  6F                 	db	111	;'o'
   878  007FD5  72                 	db	114	;'r'
   879  007FD6  64                 	db	100	;'d'
   880  007FD7  59                 	db	89	;'Y'
   881  007FD8  00                 	db	0
   882  007FD9                     STR_4:
   883  007FD9  45                 	db	69	;'E'
   884  007FDA  6E                 	db	110	;'n'
   885  007FDB  74                 	db	116	;'t'
   886  007FDC  72                 	db	114	;'r'
   887  007FDD  61                 	db	97	;'a'
   888  007FDE  73                 	db	115	;'s'
   889  007FDF  65                 	db	101	;'e'
   890  007FE0  20                 	db	32
   891  007FE1  61                 	db	97	;'a'
   892  007FE2  6C                 	db	108	;'l'
   893  007FE3  20                 	db	32
   894  007FE4  33                 	db	51	;'3'
   895  007FE5  00                 	db	0
   896  007FE6                     STR_5:
   897  007FE6  45                 	db	69	;'E'
   898  007FE7  6E                 	db	110	;'n'
   899  007FE8  74                 	db	116	;'t'
   900  007FE9  72                 	db	114	;'r'
   901  007FEA  61                 	db	97	;'a'
   902  007FEB  73                 	db	115	;'s'
   903  007FEC  65                 	db	101	;'e'
   904  007FED  20                 	db	32
   905  007FEE  61                 	db	97	;'a'
   906  007FEF  6C                 	db	108	;'l'
   907  007FF0  20                 	db	32
   908  007FF1  34                 	db	52	;'4'
   909  007FF2  00                 	db	0
   910  007FF3                     STR_14:
   911  007FF3  41                 	db	65	;'A'
   912  007FF4  67                 	db	103	;'g'
   913  007FF5  72                 	db	114	;'r'
   914  007FF6  65                 	db	101	;'e'
   915  007FF7  67                 	db	103	;'g'
   916  007FF8  61                 	db	97	;'a'
   917  007FF9  73                 	db	115	;'s'
   918  007FFA  74                 	db	116	;'t'
   919  007FFB  65                 	db	101	;'e'
   920  007FFC  3A                 	db	58	;':'
   921  007FFD  00                 	db	0
   922                           
   923                           ; #config settings
   924  007FFE  00                 	db	0	; dummy byte at the end
   925  0000                     
   926                           	psect	cinit
   927  000E68                     __pcinit:
   928                           	opt callstack 0
   929  000E68                     start_initialization:
   930                           	opt callstack 0
   931  000E68                     __initialization:
   932                           	opt callstack 0
   933                           
   934                           ; Clear objects allocated to BANK0 (88 bytes)
   935  000E68  EE00  F060         	lfsr	0,__pbssBANK0
   936  000E6C  0E58               	movlw	88
   937  000E6E                     clear_0:
   938  000E6E  6AEE               	clrf	postinc0,c
   939  000E70  06E8               	decf	wreg,f,c
   940  000E72  E1FD               	bnz	clear_0
   941                           
   942                           ; Clear objects allocated to COMRAM (20 bytes)
   943  000E74  EE00  F046         	lfsr	0,__pbssCOMRAM
   944  000E78  0E14               	movlw	20
   945  000E7A                     clear_1:
   946  000E7A  6AEE               	clrf	postinc0,c
   947  000E7C  06E8               	decf	wreg,f,c
   948  000E7E  E1FD               	bnz	clear_1
   949  000E80                     end_of_initialization:
   950                           	opt callstack 0
   951  000E80                     __end_of__initialization:
   952                           	opt callstack 0
   953  000E80  905A               	bcf	int$flags,0,c	;clear compiler interrupt flag (level 1)
   954  000E82  925A               	bcf	int$flags,1,c	;clear compiler interrupt flag (level 2)
   955  000E84  0E00               	movlw	low (__Lmediumconst shr (0+16))
   956  000E86  6EF8               	movwf	tblptru,c
   957  000E88  0100               	movlb	0
   958  000E8A  EF4E  F004         	goto	_main	;jump to C main() function
   959                           
   960                           	psect	bssCOMRAM
   961  000046                     __pbssCOMRAM:
   962                           	opt callstack 0
   963  000046                     _coordXCentenas:
   964                           	opt callstack 0
   965  000046                     	ds	10
   966  000050                     _CurrentPosY:
   967                           	opt callstack 0
   968  000050                     	ds	2
   969  000052                     _yToAdvance:
   970                           	opt callstack 0
   971  000052                     	ds	2
   972  000054                     _CurrentPosX:
   973                           	opt callstack 0
   974  000054                     	ds	2
   975  000056                     _xToAdvance:
   976                           	opt callstack 0
   977  000056                     	ds	2
   978  000058                     _working:
   979                           	opt callstack 0
   980  000058                     	ds	1
   981  000059                     _coordenadaNueva:
   982                           	opt callstack 0
   983  000059                     	ds	1
   984                           
   985                           	psect	bssBANK0
   986  000060                     __pbssBANK0:
   987                           	opt callstack 0
   988  000060                     _presionarZUnidades:
   989                           	opt callstack 0
   990  000060                     	ds	10
   991  00006A                     _presionarZDecenas:
   992                           	opt callstack 0
   993  00006A                     	ds	10
   994  000074                     _presionarZCentenas:
   995                           	opt callstack 0
   996  000074                     	ds	10
   997  00007E                     _coordYUnidades:
   998                           	opt callstack 0
   999  00007E                     	ds	10
  1000  000088                     _coordYDecenas:
  1001                           	opt callstack 0
  1002  000088                     	ds	10
  1003  000092                     _coordYCentenas:
  1004                           	opt callstack 0
  1005  000092                     	ds	10
  1006  00009C                     _coordXUnidades:
  1007                           	opt callstack 0
  1008  00009C                     	ds	10
  1009  0000A6                     _coordXDecenas:
  1010                           	opt callstack 0
  1011  0000A6                     	ds	10
  1012  0000B0                     _coordinates:
  1013                           	opt callstack 0
  1014  0000B0                     	ds	8
  1015                           
  1016                           	psect	cstackCOMRAM
  1017  000001                     __pcstackCOMRAM:
  1018                           	opt callstack 0
  1019  000001                     ??_low_isr:
  1020  000001                     
  1021                           ; 1 bytes @ 0x0
  1022  000001                     	ds	1
  1023  000002                     ?___xxtofl:
  1024                           	opt callstack 0
  1025  000002                     receive@recibido:
  1026                           	opt callstack 0
  1027  000002                     send@enviarpc:
  1028                           	opt callstack 0
  1029  000002                     ___xxtofl@val:
  1030                           	opt callstack 0
  1031                           
  1032                           ; 4 bytes @ 0x1
  1033  000002                     	ds	1
  1034  000003                     printf@PointString:
  1035                           	opt callstack 0
  1036  000003                     scanf@guardarscan:
  1037                           	opt callstack 0
  1038                           
  1039                           ; 2 bytes @ 0x2
  1040  000003                     	ds	2
  1041  000005                     ??_printf:
  1042  000005                     scanf@numcaracteres:
  1043                           	opt callstack 0
  1044                           
  1045                           ; 1 bytes @ 0x4
  1046  000005                     	ds	1
  1047  000006                     ??___xxtofl:
  1048  000006                     scanf@i:
  1049                           	opt callstack 0
  1050                           
  1051                           ; 1 bytes @ 0x5
  1052  000006                     	ds	1
  1053  000007                     printf@i:
  1054                           	opt callstack 0
  1055                           
  1056                           ; 1 bytes @ 0x6
  1057  000007                     	ds	1
  1058  000008                     ??_introducirCoordNueva:
  1059  000008                     
  1060                           ; 1 bytes @ 0x7
  1061  000008                     	ds	1
  1062  000009                     imprimirCoordenadas@impresionCoordenada:
  1063                           	opt callstack 0
  1064                           
  1065                           ; 1 bytes @ 0x8
  1066  000009                     	ds	1
  1067  00000A                     ___xxtofl@sign:
  1068                           	opt callstack 0
  1069                           
  1070                           ; 1 bytes @ 0x9
  1071  00000A                     	ds	1
  1072  00000B                     ___xxtofl@exp:
  1073                           	opt callstack 0
  1074                           
  1075                           ; 1 bytes @ 0xA
  1076  00000B                     	ds	1
  1077  00000C                     ___xxtofl@arg:
  1078                           	opt callstack 0
  1079                           
  1080                           ; 4 bytes @ 0xB
  1081  00000C                     	ds	1
  1082  00000D                     introducirCoordNueva@validarCoordX:
  1083                           	opt callstack 0
  1084                           
  1085                           ; 2 bytes @ 0xC
  1086  00000D                     	ds	2
  1087  00000F                     introducirCoordNueva@validarCoordY:
  1088                           	opt callstack 0
  1089                           
  1090                           ; 2 bytes @ 0xE
  1091  00000F                     	ds	1
  1092  000010                     ?___flmul:
  1093                           	opt callstack 0
  1094  000010                     ___flmul@b:
  1095                           	opt callstack 0
  1096                           
  1097                           ; 4 bytes @ 0xF
  1098  000010                     	ds	4
  1099  000014                     ___flmul@a:
  1100                           	opt callstack 0
  1101                           
  1102                           ; 4 bytes @ 0x13
  1103  000014                     	ds	4
  1104  000018                     ??___flmul:
  1105                           
  1106                           ; 1 bytes @ 0x17
  1107  000018                     	ds	4
  1108  00001C                     ___flmul@sign:
  1109                           	opt callstack 0
  1110                           
  1111                           ; 1 bytes @ 0x1B
  1112  00001C                     	ds	1
  1113  00001D                     ___flmul@grs:
  1114                           	opt callstack 0
  1115                           
  1116                           ; 4 bytes @ 0x1C
  1117  00001D                     	ds	4
  1118  000021                     ___flmul@aexp:
  1119                           	opt callstack 0
  1120                           
  1121                           ; 1 bytes @ 0x20
  1122  000021                     	ds	1
  1123  000022                     ___flmul@bexp:
  1124                           	opt callstack 0
  1125                           
  1126                           ; 1 bytes @ 0x21
  1127  000022                     	ds	1
  1128  000023                     ___flmul@prod:
  1129                           	opt callstack 0
  1130                           
  1131                           ; 4 bytes @ 0x22
  1132  000023                     	ds	4
  1133  000027                     ___flmul@temp:
  1134                           	opt callstack 0
  1135                           
  1136                           ; 2 bytes @ 0x26
  1137  000027                     	ds	2
  1138  000029                     ?___fltol:
  1139                           	opt callstack 0
  1140  000029                     ___fltol@f1:
  1141                           	opt callstack 0
  1142                           
  1143                           ; 4 bytes @ 0x28
  1144  000029                     	ds	4
  1145  00002D                     ??___fltol:
  1146                           
  1147                           ; 1 bytes @ 0x2C
  1148  00002D                     	ds	4
  1149  000031                     ___fltol@sign1:
  1150                           	opt callstack 0
  1151                           
  1152                           ; 1 bytes @ 0x30
  1153  000031                     	ds	1
  1154  000032                     ___fltol@exp1:
  1155                           	opt callstack 0
  1156                           
  1157                           ; 1 bytes @ 0x31
  1158  000032                     	ds	1
  1159  000033                     ??_PWM_DutyCycleCCP2:
  1160  000033                     ??_PWM_DutyCycleCCP1:
  1161                           
  1162                           ; 1 bytes @ 0x32
  1163  000033                     	ds	2
  1164  000035                     _PWM_DutyCycleCCP2$2205:
  1165                           	opt callstack 0
  1166  000035                     _PWM_DutyCycleCCP1$2206:
  1167                           	opt callstack 0
  1168                           
  1169                           ; 4 bytes @ 0x34
  1170  000035                     	ds	4
  1171  000039                     PWM_DutyCycleCCP2@WantedDutyCycle:
  1172                           	opt callstack 0
  1173  000039                     PWM_DutyCycleCCP1@WantedDutyCycle:
  1174                           	opt callstack 0
  1175                           
  1176                           ; 1 bytes @ 0x38
  1177  000039                     	ds	1
  1178  00003A                     PWM_DutyCycleCCP2@PWMDutyValue:
  1179                           	opt callstack 0
  1180  00003A                     PWM_DutyCycleCCP1@PWMDutyValue:
  1181                           	opt callstack 0
  1182                           
  1183                           ; 2 bytes @ 0x39
  1184  00003A                     	ds	2
  1185  00003C                     main@tamanoarray:
  1186                           	opt callstack 0
  1187                           
  1188                           ; 1 bytes @ 0x3B
  1189  00003C                     	ds	2
  1190  00003E                     main@pActMenu:
  1191                           	opt callstack 0
  1192                           
  1193                           ; 2 bytes @ 0x3D
  1194  00003E                     	ds	2
  1195  000040                     main@activarmenu:
  1196                           	opt callstack 0
  1197                           
  1198                           ; 5 bytes @ 0x3F
  1199  000040                     	ds	5
  1200  000045                     main@opcionsel:
  1201                           	opt callstack 0
  1202                           
  1203                           ; 1 bytes @ 0x44
  1204  000045                     	ds	1
  1205                           
  1206 ;;
  1207 ;;Main: autosize = 0, tempsize = 0, incstack = 0, save=0
  1208 ;;
  1209 ;; *************** function _main *****************
  1210 ;; Defined at:
  1211 ;;		line 44 in file "main.c"
  1212 ;; Parameters:    Size  Location     Type
  1213 ;;		None
  1214 ;; Auto vars:     Size  Location     Type
  1215 ;;  opcionsel       1   68[COMRAM] unsigned char 
  1216 ;;  activarmenu     5   63[COMRAM] unsigned char [5]
  1217 ;;  pActMenu        2   61[COMRAM] PTR unsigned char 
  1218 ;;		 -> main@activarmenu(5), 
  1219 ;;  desechable      1    0        unsigned char 
  1220 ;;  tamanoarray     1   59[COMRAM] unsigned char 
  1221 ;; Return value:  Size  Location     Type
  1222 ;;                  1    wreg      void 
  1223 ;; Registers used:
  1224 ;;		wreg, fsr2l, fsr2h, status,2, status,0, tblptrl, tblptrh, tblptru, prodl, prodh, cstack
  1225 ;; Tracked objects:
  1226 ;;		On entry : 0/0
  1227 ;;		On exit  : 0/0
  1228 ;;		Unchanged: 0/0
  1229 ;; Data sizes:     COMRAM   BANK0   BANK1   BANK2   BANK3   BANK4   BANK5   BANK6   BANK7
  1230 ;;      Params:         0       0       0       0       0       0       0       0       0
  1231 ;;      Locals:        10       0       0       0       0       0       0       0       0
  1232 ;;      Temps:          0       0       0       0       0       0       0       0       0
  1233 ;;      Totals:        10       0       0       0       0       0       0       0       0
  1234 ;;Total ram usage:       10 bytes
  1235 ;; Hardware stack levels required when called:    5
  1236 ;; This function calls:
  1237 ;;		_PWM_CCP1_init
  1238 ;;		_PWM_CCP2_init
  1239 ;;		_PWM_DutyCycleCCP1
  1240 ;;		_PWM_DutyCycleCCP2
  1241 ;;		_UARTinit
  1242 ;;		_habilitarIntExternas
  1243 ;;		_habilitarIntTMR0
  1244 ;;		_habilitarIntTMR1
  1245 ;;		_imprimirCoordenadas
  1246 ;;		_interruptsEnable
  1247 ;;		_introducirCoordNueva
  1248 ;;		_motorXinit
  1249 ;;		_motorYinit
  1250 ;;		_portInit
  1251 ;;		_printf
  1252 ;;		_receive
  1253 ;;		_scanf
  1254 ;;		_tmr0Init
  1255 ;;		_tmr1Init
  1256 ;; This function is called by:
  1257 ;;		Startup code after reset
  1258 ;; This function uses a non-reentrant model
  1259 ;;
  1260                           
  1261                           	psect	text0
  1262  00089C                     __ptext0:
  1263                           	opt callstack 0
  1264  00089C                     _main:
  1265                           	opt callstack 26
  1266  00089C                     
  1267                           ;main.c: 46:     portInit();
  1268  00089C  ECC3  F007         	call	_portInit	;wreg free
  1269                           
  1270                           ;main.c: 47:     UARTinit();
  1271  0008A0  EC8E  F007         	call	_UARTinit	;wreg free
  1272                           
  1273                           ;main.c: 48:     PWM_CCP2_init();
  1274  0008A4  EC58  F007         	call	_PWM_CCP2_init	;wreg free
  1275                           
  1276                           ;main.c: 49:     PWM_CCP1_init();
  1277  0008A8  EC47  F007         	call	_PWM_CCP1_init	;wreg free
  1278  0008AC                     
  1279                           ;main.c: 50:     PWM_DutyCycleCCP2(0);
  1280  0008AC  0E00               	movlw	0
  1281  0008AE  EC38  F006         	call	_PWM_DutyCycleCCP2
  1282  0008B2                     
  1283                           ;main.c: 51:     PWM_DutyCycleCCP1(0);
  1284  0008B2  0E00               	movlw	0
  1285  0008B4  EC92  F006         	call	_PWM_DutyCycleCCP1
  1286  0008B8                     
  1287                           ;main.c: 52:     motorXinit();
  1288  0008B8  ECA6  F007         	call	_motorXinit	;wreg free
  1289  0008BC                     
  1290                           ;main.c: 53:     motorYinit();
  1291  0008BC  ECBC  F007         	call	_motorYinit	;wreg free
  1292                           
  1293                           ;main.c: 54:     tmr0Init();
  1294  0008C0  EC9B  F007         	call	_tmr0Init	;wreg free
  1295                           
  1296                           ;main.c: 55:     tmr1Init();
  1297  0008C4  EC67  F007         	call	_tmr1Init	;wreg free
  1298  0008C8                     
  1299                           ;main.c: 56:     interruptsEnable();
  1300  0008C8  ECC8  F007         	call	_interruptsEnable	;wreg free
  1301  0008CC                     
  1302                           ;main.c: 57:     habilitarIntTMR0();
  1303  0008CC  ECD2  F007         	call	_habilitarIntTMR0	;wreg free
  1304  0008D0                     
  1305                           ;main.c: 58:     habilitarIntTMR1();
  1306  0008D0  ECD0  F007         	call	_habilitarIntTMR1	;wreg free
  1307  0008D4                     
  1308                           ;main.c: 59:     habilitarIntExternas();
  1309  0008D4  EC81  F007         	call	_habilitarIntExternas	;wreg free
  1310  0008D8                     
  1311                           ;main.c: 63:     unsigned char activarmenu[5];;main.c: 64:     activarmenu[4] = ((void*)
      +                          0);
  1312  0008D8  0E00               	movlw	0
  1313  0008DA  6E44               	movwf	(main@activarmenu+4)^0,c
  1314  0008DC                     
  1315                           ;main.c: 65:     unsigned char *pActMenu = (unsigned char *) &activarmenu;
  1316  0008DC  0E40               	movlw	low main@activarmenu
  1317  0008DE  6E3E               	movwf	main@pActMenu^0,c
  1318  0008E0  0E00               	movlw	high main@activarmenu
  1319  0008E2  6E3F               	movwf	(main@pActMenu+1)^0,c
  1320  0008E4  EC74  F007         	call	_receive	;wreg free
  1321  0008E8                     
  1322                           ;main.c: 69:     printf("Escribe la palabra 'Menu' o 'menu' para acceder al menu\n");
  1323  0008E8  0E7D               	movlw	low STR_1
  1324  0008EA  6E03               	movwf	printf@PointString^0,c
  1325  0008EC  0E7E               	movlw	high STR_1
  1326  0008EE  6E04               	movwf	(printf@PointString+1)^0,c
  1327  0008F0  ECEC  F006         	call	_printf	;wreg free
  1328  0008F4                     l1967:
  1329                           
  1330                           ;main.c: 72:         scanf(pActMenu, tamanoarray = (sizeof (activarmenu) - 1));
  1331  0008F4  C03E  F003         	movff	main@pActMenu,scanf@guardarscan
  1332  0008F8  C03F  F004         	movff	main@pActMenu+1,scanf@guardarscan+1
  1333  0008FC  0E04               	movlw	4
  1334  0008FE  6E3C               	movwf	main@tamanoarray^0,c
  1335  000900  C03C  F005         	movff	main@tamanoarray,scanf@numcaracteres
  1336  000904  EC1C  F007         	call	_scanf	;wreg free
  1337  000908                     
  1338                           ;main.c: 73:         if ((activarmenu[0] == 'M' || activarmenu[0] == 'm') && activarmenu
      +                          [1] == 'e' && activarmenu[2] == 'n' && activarmenu[3] == 'u') {
  1339  000908  0E4D               	movlw	77
  1340  00090A  1840               	xorwf	main@activarmenu^0,w,c
  1341  00090C  B4D8               	btfsc	status,2,c
  1342  00090E  EF8B  F004         	goto	u1051
  1343  000912  EF8D  F004         	goto	u1050
  1344  000916                     u1051:
  1345  000916  EF96  F004         	goto	l1973
  1346  00091A                     u1050:
  1347  00091A  0E6D               	movlw	109
  1348  00091C  1840               	xorwf	main@activarmenu^0,w,c
  1349  00091E  A4D8               	btfss	status,2,c
  1350  000920  EF94  F004         	goto	u1061
  1351  000924  EF96  F004         	goto	u1060
  1352  000928                     u1061:
  1353  000928  EF0A  F005         	goto	l2007
  1354  00092C                     u1060:
  1355  00092C                     l1973:
  1356  00092C  0E65               	movlw	101
  1357  00092E  1841               	xorwf	(main@activarmenu+1)^0,w,c
  1358  000930  A4D8               	btfss	status,2,c
  1359  000932  EF9D  F004         	goto	u1071
  1360  000936  EF9F  F004         	goto	u1070
  1361  00093A                     u1071:
  1362  00093A  EF0A  F005         	goto	l2007
  1363  00093E                     u1070:
  1364  00093E  0E6E               	movlw	110
  1365  000940  1842               	xorwf	(main@activarmenu+2)^0,w,c
  1366  000942  A4D8               	btfss	status,2,c
  1367  000944  EFA6  F004         	goto	u1081
  1368  000948  EFA8  F004         	goto	u1080
  1369  00094C                     u1081:
  1370  00094C  EF0A  F005         	goto	l2007
  1371  000950                     u1080:
  1372  000950  0E75               	movlw	117
  1373  000952  1843               	xorwf	(main@activarmenu+3)^0,w,c
  1374  000954  A4D8               	btfss	status,2,c
  1375  000956  EFAF  F004         	goto	u1091
  1376  00095A  EFB1  F004         	goto	u1090
  1377  00095E                     u1091:
  1378  00095E  EF0A  F005         	goto	l2007
  1379  000962                     u1090:
  1380  000962                     
  1381                           ;main.c: 75:             printf("(0)Ayuda sobre como funciona el programa (1)Introducir 
      +                          coordenada nueva (2)Imprimir las coordenadas recibidas (3)Ir a home\n"
  1382  000962  0EED               	movlw	low STR_2
  1383  000964  6E03               	movwf	printf@PointString^0,c
  1384  000966  0E7C               	movlw	high STR_2
  1385  000968  6E04               	movwf	(printf@PointString+1)^0,c
  1386  00096A  ECEC  F006         	call	_printf	;wreg free
  1387  00096E                     l1981:
  1388                           
  1389                           ;main.c: 77:             uint8_t opcionsel = receive();
  1390  00096E  EC74  F007         	call	_receive	;wreg free
  1391  000972  6E45               	movwf	main@opcionsel^0,c
  1392                           
  1393                           ;main.c: 78:             while (opcionsel > 57 || opcionsel < 48) {
  1394  000974  EFC4  F004         	goto	l1987
  1395  000978                     l1983:
  1396                           
  1397                           ;main.c: 79:                 printf("Eleccion no valida vuelva a intentar");
  1398  000978  0E0D               	movlw	low STR_3
  1399  00097A  6E03               	movwf	printf@PointString^0,c
  1400  00097C  0E7F               	movlw	high STR_3
  1401  00097E  6E04               	movwf	(printf@PointString+1)^0,c
  1402  000980  ECEC  F006         	call	_printf	;wreg free
  1403  000984  EFB7  F004         	goto	l1981
  1404  000988                     l1987:
  1405                           
  1406                           ;main.c: 78:             while (opcionsel > 57 || opcionsel < 48) {
  1407  000988  0E3A               	movlw	58
  1408  00098A  6045               	cpfslt	main@opcionsel^0,c
  1409  00098C  EFCA  F004         	goto	u1101
  1410  000990  EFCC  F004         	goto	u1100
  1411  000994                     u1101:
  1412  000994  EFBC  F004         	goto	l1983
  1413  000998                     u1100:
  1414  000998  0E2F               	movlw	47
  1415  00099A  6445               	cpfsgt	main@opcionsel^0,c
  1416  00099C  EFD2  F004         	goto	u1111
  1417  0009A0  EFD4  F004         	goto	u1110
  1418  0009A4                     u1111:
  1419  0009A4  EFBC  F004         	goto	l1983
  1420  0009A8                     u1110:
  1421  0009A8                     
  1422                           ;main.c: 82:             if (opcionsel == '1') {
  1423  0009A8  0E31               	movlw	49
  1424  0009AA  1845               	xorwf	main@opcionsel^0,w,c
  1425  0009AC  A4D8               	btfss	status,2,c
  1426  0009AE  EFDB  F004         	goto	u1121
  1427  0009B2  EFDD  F004         	goto	u1120
  1428  0009B6                     u1121:
  1429  0009B6  EFDF  F004         	goto	l1995
  1430  0009BA                     u1120:
  1431  0009BA                     
  1432                           ;main.c: 83:                 introducirCoordNueva();
  1433  0009BA  EC2B  F002         	call	_introducirCoordNueva	;wreg free
  1434  0009BE                     l1995:
  1435                           
  1436                           ;main.c: 85:             if (opcionsel == '2') {
  1437  0009BE  0E32               	movlw	50
  1438  0009C0  1845               	xorwf	main@opcionsel^0,w,c
  1439  0009C2  A4D8               	btfss	status,2,c
  1440  0009C4  EFE6  F004         	goto	u1131
  1441  0009C8  EFE8  F004         	goto	u1130
  1442  0009CC                     u1131:
  1443  0009CC  EFEA  F004         	goto	l1999
  1444  0009D0                     u1130:
  1445  0009D0                     
  1446                           ;main.c: 86:                imprimirCoordenadas();
  1447  0009D0  EC14  F005         	call	_imprimirCoordenadas	;wreg free
  1448  0009D4                     l1999:
  1449                           
  1450                           ;main.c: 88:             if (opcionsel == '3') {
  1451  0009D4  0E33               	movlw	51
  1452  0009D6  1845               	xorwf	main@opcionsel^0,w,c
  1453  0009D8  A4D8               	btfss	status,2,c
  1454  0009DA  EFF1  F004         	goto	u1141
  1455  0009DE  EFF3  F004         	goto	u1140
  1456  0009E2                     u1141:
  1457  0009E2  EFF9  F004         	goto	l2003
  1458  0009E6                     u1140:
  1459  0009E6                     
  1460                           ;main.c: 89:                 printf("Entrase al 3");
  1461  0009E6  0ED9               	movlw	low STR_4
  1462  0009E8  6E03               	movwf	printf@PointString^0,c
  1463  0009EA  0E7F               	movlw	high STR_4
  1464  0009EC  6E04               	movwf	(printf@PointString+1)^0,c
  1465  0009EE  ECEC  F006         	call	_printf	;wreg free
  1466  0009F2                     l2003:
  1467                           
  1468                           ;main.c: 91:             if (opcionsel == '4') {
  1469  0009F2  0E34               	movlw	52
  1470  0009F4  1845               	xorwf	main@opcionsel^0,w,c
  1471  0009F6  A4D8               	btfss	status,2,c
  1472  0009F8  EF00  F005         	goto	u1151
  1473  0009FC  EF02  F005         	goto	u1150
  1474  000A00                     u1151:
  1475  000A00  EF7A  F004         	goto	l1967
  1476  000A04                     u1150:
  1477  000A04                     
  1478                           ;main.c: 92:                 printf("Entrase al 4");
  1479  000A04  0EE6               	movlw	low STR_5
  1480  000A06  6E03               	movwf	printf@PointString^0,c
  1481  000A08  0E7F               	movlw	high STR_5
  1482  000A0A  6E04               	movwf	(printf@PointString+1)^0,c
  1483  000A0C  ECEC  F006         	call	_printf	;wreg free
  1484  000A10  EF7A  F004         	goto	l1967
  1485  000A14                     l2007:
  1486  000A14  0E32               	movlw	low STR_6
  1487  000A16  6E03               	movwf	printf@PointString^0,c
  1488  000A18  0E7E               	movlw	high STR_6
  1489  000A1A  6E04               	movwf	(printf@PointString+1)^0,c
  1490  000A1C  ECEC  F006         	call	_printf	;wreg free
  1491  000A20  EF7A  F004         	goto	l1967
  1492  000A24  EF14  F000         	goto	start
  1493  000A28                     __end_of_main:
  1494                           	opt callstack 0
  1495                           
  1496 ;; *************** function _tmr1Init *****************
  1497 ;; Defined at:
  1498 ;;		line 18 in file "Timers.c"
  1499 ;; Parameters:    Size  Location     Type
  1500 ;;		None
  1501 ;; Auto vars:     Size  Location     Type
  1502 ;;		None
  1503 ;; Return value:  Size  Location     Type
  1504 ;;                  1    wreg      void 
  1505 ;; Registers used:
  1506 ;;		wreg, status,2
  1507 ;; Tracked objects:
  1508 ;;		On entry : 0/0
  1509 ;;		On exit  : 0/0
  1510 ;;		Unchanged: 0/0
  1511 ;; Data sizes:     COMRAM   BANK0   BANK1   BANK2   BANK3   BANK4   BANK5   BANK6   BANK7
  1512 ;;      Params:         0       0       0       0       0       0       0       0       0
  1513 ;;      Locals:         0       0       0       0       0       0       0       0       0
  1514 ;;      Temps:          0       0       0       0       0       0       0       0       0
  1515 ;;      Totals:         0       0       0       0       0       0       0       0       0
  1516 ;;Total ram usage:        0 bytes
  1517 ;; Hardware stack levels used:    1
  1518 ;; Hardware stack levels required when called:    2
  1519 ;; This function calls:
  1520 ;;		Nothing
  1521 ;; This function is called by:
  1522 ;;		_main
  1523 ;; This function uses a non-reentrant model
  1524 ;;
  1525                           
  1526                           	psect	text1
  1527  000ECE                     __ptext1:
  1528                           	opt callstack 0
  1529  000ECE                     _tmr1Init:
  1530                           	opt callstack 28
  1531  000ECE                     
  1532                           ;Timers.c: 20:     T1CONbits.TMR1ON = 0;
  1533  000ECE  90CD               	bcf	205,0,c	;volatile
  1534                           
  1535                           ;Timers.c: 21:     T1CONbits.RD16 = 1;
  1536  000ED0  8ECD               	bsf	205,7,c	;volatile
  1537                           
  1538                           ;Timers.c: 22:     T1CONbits.T1OSCEN = 0;
  1539  000ED2  96CD               	bcf	205,3,c	;volatile
  1540                           
  1541                           ;Timers.c: 23:     T1CONbits.T1RUN = 1;
  1542  000ED4  8CCD               	bsf	205,6,c	;volatile
  1543                           
  1544                           ;Timers.c: 24:     T1CONbits.TMR1CS = 1;
  1545  000ED6  82CD               	bsf	205,1,c	;volatile
  1546                           
  1547                           ;Timers.c: 25:     T1CONbits.T1SYNC = 1;
  1548  000ED8  84CD               	bsf	205,2,c	;volatile
  1549                           
  1550                           ;Timers.c: 26:     TRISCbits.RC0 = 1;
  1551  000EDA  8094               	bsf	148,0,c	;volatile
  1552  000EDC                     
  1553                           ;Timers.c: 27:     TMR1 = 0;
  1554  000EDC  0E00               	movlw	0
  1555  000EDE  6ECF               	movwf	207,c	;volatile
  1556  000EE0  0E00               	movlw	0
  1557  000EE2  6ECE               	movwf	206,c	;volatile
  1558  000EE4                     
  1559                           ;Timers.c: 28:     T1CONbits.TMR1ON = 1;
  1560  000EE4  80CD               	bsf	205,0,c	;volatile
  1561  000EE6  0012               	return		;funcret
  1562  000EE8                     __end_of_tmr1Init:
  1563                           	opt callstack 0
  1564                           
  1565 ;; *************** function _tmr0Init *****************
  1566 ;; Defined at:
  1567 ;;		line 7 in file "Timers.c"
  1568 ;; Parameters:    Size  Location     Type
  1569 ;;		None
  1570 ;; Auto vars:     Size  Location     Type
  1571 ;;		None
  1572 ;; Return value:  Size  Location     Type
  1573 ;;                  1    wreg      void 
  1574 ;; Registers used:
  1575 ;;		wreg, status,2
  1576 ;; Tracked objects:
  1577 ;;		On entry : 0/0
  1578 ;;		On exit  : 0/0
  1579 ;;		Unchanged: 0/0
  1580 ;; Data sizes:     COMRAM   BANK0   BANK1   BANK2   BANK3   BANK4   BANK5   BANK6   BANK7
  1581 ;;      Params:         0       0       0       0       0       0       0       0       0
  1582 ;;      Locals:         0       0       0       0       0       0       0       0       0
  1583 ;;      Temps:          0       0       0       0       0       0       0       0       0
  1584 ;;      Totals:         0       0       0       0       0       0       0       0       0
  1585 ;;Total ram usage:        0 bytes
  1586 ;; Hardware stack levels used:    1
  1587 ;; Hardware stack levels required when called:    2
  1588 ;; This function calls:
  1589 ;;		Nothing
  1590 ;; This function is called by:
  1591 ;;		_main
  1592 ;; This function uses a non-reentrant model
  1593 ;;
  1594                           
  1595                           	psect	text2
  1596  000F36                     __ptext2:
  1597                           	opt callstack 0
  1598  000F36                     _tmr0Init:
  1599                           	opt callstack 28
  1600  000F36                     
  1601                           ;Timers.c: 9:     T0CONbits.TMR0ON = 0;
  1602  000F36  9ED5               	bcf	213,7,c	;volatile
  1603                           
  1604                           ;Timers.c: 10:     T0CONbits.T08BIT = 0;
  1605  000F38  9CD5               	bcf	213,6,c	;volatile
  1606                           
  1607                           ;Timers.c: 11:     T0CONbits.T0CS = 1;
  1608  000F3A  8AD5               	bsf	213,5,c	;volatile
  1609                           
  1610                           ;Timers.c: 12:     T0CONbits.T0SE = 0;
  1611  000F3C  98D5               	bcf	213,4,c	;volatile
  1612                           
  1613                           ;Timers.c: 13:     TRISAbits.RA4 = 1;
  1614  000F3E  8892               	bsf	146,4,c	;volatile
  1615  000F40                     
  1616                           ;Timers.c: 14:     TMR0 = 0;
  1617  000F40  0E00               	movlw	0
  1618  000F42  6ED7               	movwf	215,c	;volatile
  1619  000F44  0E00               	movlw	0
  1620  000F46  6ED6               	movwf	214,c	;volatile
  1621  000F48                     
  1622                           ;Timers.c: 15:     T0CONbits.TMR0ON = 1;
  1623  000F48  8ED5               	bsf	213,7,c	;volatile
  1624  000F4A  0012               	return		;funcret
  1625  000F4C                     __end_of_tmr0Init:
  1626                           	opt callstack 0
  1627                           
  1628 ;; *************** function _scanf *****************
  1629 ;; Defined at:
  1630 ;;		line 13 in file "Comunicacion.c"
  1631 ;; Parameters:    Size  Location     Type
  1632 ;;  guardarscan     2    2[COMRAM] PTR unsigned char 
  1633 ;;		 -> main@activarmenu(5), 
  1634 ;;  numcaractere    1    4[COMRAM] unsigned char 
  1635 ;; Auto vars:     Size  Location     Type
  1636 ;;  i               1    5[COMRAM] unsigned char 
  1637 ;; Return value:  Size  Location     Type
  1638 ;;                  1    wreg      void 
  1639 ;; Registers used:
  1640 ;;		wreg, fsr2l, fsr2h, status,2, status,0, cstack
  1641 ;; Tracked objects:
  1642 ;;		On entry : 0/0
  1643 ;;		On exit  : 0/0
  1644 ;;		Unchanged: 0/0
  1645 ;; Data sizes:     COMRAM   BANK0   BANK1   BANK2   BANK3   BANK4   BANK5   BANK6   BANK7
  1646 ;;      Params:         3       0       0       0       0       0       0       0       0
  1647 ;;      Locals:         1       0       0       0       0       0       0       0       0
  1648 ;;      Temps:          0       0       0       0       0       0       0       0       0
  1649 ;;      Totals:         4       0       0       0       0       0       0       0       0
  1650 ;;Total ram usage:        4 bytes
  1651 ;; Hardware stack levels used:    1
  1652 ;; Hardware stack levels required when called:    3
  1653 ;; This function calls:
  1654 ;;		_receive
  1655 ;; This function is called by:
  1656 ;;		_main
  1657 ;; This function uses a non-reentrant model
  1658 ;;
  1659                           
  1660                           	psect	text3
  1661  000E38                     __ptext3:
  1662                           	opt callstack 0
  1663  000E38                     _scanf:
  1664                           	opt callstack 27
  1665  000E38                     
  1666                           ;Comunicacion.c: 14:     for (unsigned char i = 0; i < numcaracteres; i++) {
  1667  000E38  0E00               	movlw	0
  1668  000E3A  6E06               	movwf	scanf@i^0,c
  1669  000E3C  EF2A  F007         	goto	l1823
  1670  000E40                     l1819:
  1671                           
  1672                           ;Comunicacion.c: 15:         guardarscan[i] = receive();
  1673  000E40  5006               	movf	scanf@i^0,w,c
  1674  000E42  2403               	addwf	scanf@guardarscan^0,w,c
  1675  000E44  6ED9               	movwf	fsr2l,c
  1676  000E46  0E00               	movlw	0
  1677  000E48  2004               	addwfc	(scanf@guardarscan+1)^0,w,c
  1678  000E4A  6EDA               	movwf	fsr2h,c
  1679  000E4C  EC74  F007         	call	_receive	;wreg free
  1680  000E50  6EDF               	movwf	indf2,c
  1681  000E52                     
  1682                           ;Comunicacion.c: 16:     }
  1683  000E52  2A06               	incf	scanf@i^0,f,c
  1684  000E54                     l1823:
  1685  000E54  5005               	movf	scanf@numcaracteres^0,w,c
  1686  000E56  5C06               	subwf	scanf@i^0,w,c
  1687  000E58  A0D8               	btfss	status,0,c
  1688  000E5A  EF31  F007         	goto	u1001
  1689  000E5E  EF33  F007         	goto	u1000
  1690  000E62                     u1001:
  1691  000E62  EF20  F007         	goto	l1819
  1692  000E66                     u1000:
  1693  000E66  0012               	return		;funcret
  1694  000E68                     __end_of_scanf:
  1695                           	opt callstack 0
  1696                           
  1697 ;; *************** function _portInit *****************
  1698 ;; Defined at:
  1699 ;;		line 10 in file "Gpio.c"
  1700 ;; Parameters:    Size  Location     Type
  1701 ;;		None
  1702 ;; Auto vars:     Size  Location     Type
  1703 ;;		None
  1704 ;; Return value:  Size  Location     Type
  1705 ;;                  1    wreg      void 
  1706 ;; Registers used:
  1707 ;;		wreg, status,2
  1708 ;; Tracked objects:
  1709 ;;		On entry : 0/0
  1710 ;;		On exit  : 0/0
  1711 ;;		Unchanged: 0/0
  1712 ;; Data sizes:     COMRAM   BANK0   BANK1   BANK2   BANK3   BANK4   BANK5   BANK6   BANK7
  1713 ;;      Params:         0       0       0       0       0       0       0       0       0
  1714 ;;      Locals:         0       0       0       0       0       0       0       0       0
  1715 ;;      Temps:          0       0       0       0       0       0       0       0       0
  1716 ;;      Totals:         0       0       0       0       0       0       0       0       0
  1717 ;;Total ram usage:        0 bytes
  1718 ;; Hardware stack levels used:    1
  1719 ;; Hardware stack levels required when called:    2
  1720 ;; This function calls:
  1721 ;;		Nothing
  1722 ;; This function is called by:
  1723 ;;		_main
  1724 ;; This function uses a non-reentrant model
  1725 ;;
  1726                           
  1727                           	psect	text4
  1728  000F86                     __ptext4:
  1729                           	opt callstack 0
  1730  000F86                     _portInit:
  1731                           	opt callstack 28
  1732  000F86                     
  1733                           ;Gpio.c: 11:     LATAbits.LATA3 = 0;
  1734  000F86  0E0F               	movlw	15
  1735  000F88  12C1               	iorwf	193,f,c	;volatile
  1736                           
  1737                           ;Gpio.c: 12: 
  1738  000F8A  0E70               	movlw	112
  1739  000F8C  6ED3               	movwf	211,c	;volatile
  1740  000F8E  0012               	return		;funcret
  1741  000F90                     __end_of_portInit:
  1742                           	opt callstack 0
  1743                           
  1744 ;; *************** function _motorYinit *****************
  1745 ;; Defined at:
  1746 ;;		line 30 in file "Gpio.c"
  1747 ;; Parameters:    Size  Location     Type
  1748 ;;		None
  1749 ;; Auto vars:     Size  Location     Type
  1750 ;;		None
  1751 ;; Return value:  Size  Location     Type
  1752 ;;                  1    wreg      void 
  1753 ;; Registers used:
  1754 ;;		None
  1755 ;; Tracked objects:
  1756 ;;		On entry : 0/0
  1757 ;;		On exit  : 0/0
  1758 ;;		Unchanged: 0/0
  1759 ;; Data sizes:     COMRAM   BANK0   BANK1   BANK2   BANK3   BANK4   BANK5   BANK6   BANK7
  1760 ;;      Params:         0       0       0       0       0       0       0       0       0
  1761 ;;      Locals:         0       0       0       0       0       0       0       0       0
  1762 ;;      Temps:          0       0       0       0       0       0       0       0       0
  1763 ;;      Totals:         0       0       0       0       0       0       0       0       0
  1764 ;;Total ram usage:        0 bytes
  1765 ;; Hardware stack levels used:    1
  1766 ;; Hardware stack levels required when called:    2
  1767 ;; This function calls:
  1768 ;;		Nothing
  1769 ;; This function is called by:
  1770 ;;		_main
  1771 ;; This function uses a non-reentrant model
  1772 ;;
  1773                           
  1774                           	psect	text5
  1775  000F78                     __ptext5:
  1776                           	opt callstack 0
  1777  000F78                     _motorYinit:
  1778                           	opt callstack 28
  1779  000F78  9495               	bcf	149,2,c	;volatile
  1780  000F7A  9695               	bcf	149,3,c	;volatile
  1781  000F7C  9494               	bcf	148,2,c	;volatile
  1782  000F7E  948C               	bcf	140,2,c	;volatile
  1783  000F80  968C               	bcf	140,3,c	;volatile
  1784  000F82  948B               	bcf	139,2,c	;volatile
  1785  000F84  0012               	return		;funcret
  1786  000F86                     __end_of_motorYinit:
  1787                           	opt callstack 0
  1788                           
  1789 ;; *************** function _motorXinit *****************
  1790 ;; Defined at:
  1791 ;;		line 15 in file "Gpio.c"
  1792 ;; Parameters:    Size  Location     Type
  1793 ;;		None
  1794 ;; Auto vars:     Size  Location     Type
  1795 ;;		None
  1796 ;; Return value:  Size  Location     Type
  1797 ;;                  1    wreg      void 
  1798 ;; Registers used:
  1799 ;;		None
  1800 ;; Tracked objects:
  1801 ;;		On entry : 0/0
  1802 ;;		On exit  : 0/0
  1803 ;;		Unchanged: 0/0
  1804 ;; Data sizes:     COMRAM   BANK0   BANK1   BANK2   BANK3   BANK4   BANK5   BANK6   BANK7
  1805 ;;      Params:         0       0       0       0       0       0       0       0       0
  1806 ;;      Locals:         0       0       0       0       0       0       0       0       0
  1807 ;;      Temps:          0       0       0       0       0       0       0       0       0
  1808 ;;      Totals:         0       0       0       0       0       0       0       0       0
  1809 ;;Total ram usage:        0 bytes
  1810 ;; Hardware stack levels used:    1
  1811 ;; Hardware stack levels required when called:    2
  1812 ;; This function calls:
  1813 ;;		Nothing
  1814 ;; This function is called by:
  1815 ;;		_main
  1816 ;; This function uses a non-reentrant model
  1817 ;;
  1818                           
  1819                           	psect	text6
  1820  000F4C                     __ptext6:
  1821                           	opt callstack 0
  1822  000F4C                     _motorXinit:
  1823                           	opt callstack 28
  1824  000F4C                     
  1825                           ;Gpio.c: 17:     LATDbits.LATD1 = 0;
  1826  000F4C  9492               	bcf	146,2,c	;volatile
  1827                           
  1828                           ;Gpio.c: 18:     LATCbits.LC1 = 0;
  1829  000F4E  9692               	bcf	146,3,c	;volatile
  1830                           
  1831                           ;Gpio.c: 19: }
  1832  000F50  9489               	bcf	137,2,c	;volatile
  1833                           
  1834                           ;Gpio.c: 20: 
  1835  000F52  9689               	bcf	137,3,c	;volatile
  1836                           
  1837                           ;Gpio.c: 22: 
  1838  000F54  9095               	bcf	149,0,c	;volatile
  1839                           
  1840                           ;Gpio.c: 23:     TRISDbits.RD2 = 0;
  1841  000F56  9295               	bcf	149,1,c	;volatile
  1842                           
  1843                           ;Gpio.c: 24:     TRISDbits.RD3 = 0;
  1844  000F58  9294               	bcf	148,1,c	;volatile
  1845                           
  1846                           ;Gpio.c: 25:     TRISCbits.RC2 = 0;
  1847  000F5A  908C               	bcf	140,0,c	;volatile
  1848                           
  1849                           ;Gpio.c: 26:     LATDbits.LATD2 = 0;
  1850  000F5C  928C               	bcf	140,1,c	;volatile
  1851                           
  1852                           ;Gpio.c: 27:     LATDbits.LATD3 = 0;
  1853  000F5E  928B               	bcf	139,1,c	;volatile
  1854  000F60  0012               	return		;funcret
  1855  000F62                     __end_of_motorXinit:
  1856                           	opt callstack 0
  1857                           
  1858 ;; *************** function _introducirCoordNueva *****************
  1859 ;; Defined at:
  1860 ;;		line 8 in file "FuncionesMenu.c"
  1861 ;; Parameters:    Size  Location     Type
  1862 ;;		None
  1863 ;; Auto vars:     Size  Location     Type
  1864 ;;  validarCoord    2   14[COMRAM] unsigned short 
  1865 ;;  validarCoord    2   12[COMRAM] unsigned short 
  1866 ;; Return value:  Size  Location     Type
  1867 ;;                  1    wreg      void 
  1868 ;; Registers used:
  1869 ;;		wreg, fsr2l, fsr2h, status,2, status,0, tblptrl, tblptrh, tblptru, prodl, prodh, cstack
  1870 ;; Tracked objects:
  1871 ;;		On entry : 0/0
  1872 ;;		On exit  : 0/0
  1873 ;;		Unchanged: 0/0
  1874 ;; Data sizes:     COMRAM   BANK0   BANK1   BANK2   BANK3   BANK4   BANK5   BANK6   BANK7
  1875 ;;      Params:         0       0       0       0       0       0       0       0       0
  1876 ;;      Locals:         4       0       0       0       0       0       0       0       0
  1877 ;;      Temps:          5       0       0       0       0       0       0       0       0
  1878 ;;      Totals:         9       0       0       0       0       0       0       0       0
  1879 ;;Total ram usage:        9 bytes
  1880 ;; Hardware stack levels used:    1
  1881 ;; Hardware stack levels required when called:    4
  1882 ;; This function calls:
  1883 ;;		_printf
  1884 ;;		_receive
  1885 ;;		_send
  1886 ;; This function is called by:
  1887 ;;		_main
  1888 ;; This function uses a non-reentrant model
  1889 ;;
  1890                           
  1891                           	psect	text7
  1892  000456                     __ptext7:
  1893                           	opt callstack 0
  1894  000456                     _introducirCoordNueva:
  1895                           	opt callstack 26
  1896  000456                     
  1897                           ;FuncionesMenu.c: 10:     uint16_t validarCoordY = 0;
  1898  000456  0E00               	movlw	0
  1899  000458  6E10               	movwf	(introducirCoordNueva@validarCoordY+1)^0,c
  1900  00045A  0E00               	movlw	0
  1901  00045C  6E0F               	movwf	introducirCoordNueva@validarCoordY^0,c
  1902  00045E                     l1827:
  1903                           
  1904                           ;FuncionesMenu.c: 12:     printf("Introduce en el siguiente orden las variables a usar (
      +                          no uses las comas): coordX,coordY,# de veces a presionar Z");
  1905  00045E  0EC1               	movlw	low STR_7
  1906  000460  6E03               	movwf	printf@PointString^0,c
  1907  000462  0E7D               	movlw	high STR_7
  1908  000464  6E04               	movwf	(printf@PointString+1)^0,c
  1909  000466  ECEC  F006         	call	_printf	;wreg free
  1910  00046A                     
  1911                           ;FuncionesMenu.c: 13:     coordXCentenas[coordenadaNueva] = receive();
  1912  00046A  0E46               	movlw	low _coordXCentenas
  1913  00046C  2459               	addwf	_coordenadaNueva^0,w,c
  1914  00046E  6ED9               	movwf	fsr2l,c
  1915  000470  6ADA               	clrf	fsr2h,c
  1916  000472  0E00               	movlw	high _coordXCentenas
  1917  000474  22DA               	addwfc	fsr2h,f,c
  1918  000476  EC74  F007         	call	_receive	;wreg free
  1919  00047A  6EDF               	movwf	indf2,c
  1920  00047C                     
  1921                           ;FuncionesMenu.c: 14:     coordXDecenas[coordenadaNueva] = receive();
  1922  00047C  0EA6               	movlw	low _coordXDecenas
  1923  00047E  2459               	addwf	_coordenadaNueva^0,w,c
  1924  000480  6ED9               	movwf	fsr2l,c
  1925  000482  6ADA               	clrf	fsr2h,c
  1926  000484  0E00               	movlw	high _coordXDecenas
  1927  000486  22DA               	addwfc	fsr2h,f,c
  1928  000488  EC74  F007         	call	_receive	;wreg free
  1929  00048C  6EDF               	movwf	indf2,c
  1930  00048E                     
  1931                           ;FuncionesMenu.c: 15:     coordXUnidades[coordenadaNueva] = receive();
  1932  00048E  0E9C               	movlw	low _coordXUnidades
  1933  000490  2459               	addwf	_coordenadaNueva^0,w,c
  1934  000492  6ED9               	movwf	fsr2l,c
  1935  000494  6ADA               	clrf	fsr2h,c
  1936  000496  0E00               	movlw	high _coordXUnidades
  1937  000498  22DA               	addwfc	fsr2h,f,c
  1938  00049A  EC74  F007         	call	_receive	;wreg free
  1939  00049E  6EDF               	movwf	indf2,c
  1940  0004A0                     
  1941                           ;FuncionesMenu.c: 16:     printf("Recibi coordX");
  1942  0004A0  0EBD               	movlw	low STR_8
  1943  0004A2  6E03               	movwf	printf@PointString^0,c
  1944  0004A4  0E7F               	movlw	high STR_8
  1945  0004A6  6E04               	movwf	(printf@PointString+1)^0,c
  1946  0004A8  ECEC  F006         	call	_printf	;wreg free
  1947  0004AC                     
  1948                           ;FuncionesMenu.c: 17:     coordYCentenas[coordenadaNueva] = receive();
  1949  0004AC  0E92               	movlw	low _coordYCentenas
  1950  0004AE  2459               	addwf	_coordenadaNueva^0,w,c
  1951  0004B0  6ED9               	movwf	fsr2l,c
  1952  0004B2  6ADA               	clrf	fsr2h,c
  1953  0004B4  0E00               	movlw	high _coordYCentenas
  1954  0004B6  22DA               	addwfc	fsr2h,f,c
  1955  0004B8  EC74  F007         	call	_receive	;wreg free
  1956  0004BC  6EDF               	movwf	indf2,c
  1957  0004BE                     
  1958                           ;FuncionesMenu.c: 18:     coordYDecenas[coordenadaNueva] = receive();
  1959  0004BE  0E88               	movlw	low _coordYDecenas
  1960  0004C0  2459               	addwf	_coordenadaNueva^0,w,c
  1961  0004C2  6ED9               	movwf	fsr2l,c
  1962  0004C4  6ADA               	clrf	fsr2h,c
  1963  0004C6  0E00               	movlw	high _coordYDecenas
  1964  0004C8  22DA               	addwfc	fsr2h,f,c
  1965  0004CA  EC74  F007         	call	_receive	;wreg free
  1966  0004CE  6EDF               	movwf	indf2,c
  1967  0004D0                     
  1968                           ;FuncionesMenu.c: 19:     coordYUnidades[coordenadaNueva] = receive();
  1969  0004D0  0E7E               	movlw	low _coordYUnidades
  1970  0004D2  2459               	addwf	_coordenadaNueva^0,w,c
  1971  0004D4  6ED9               	movwf	fsr2l,c
  1972  0004D6  6ADA               	clrf	fsr2h,c
  1973  0004D8  0E00               	movlw	high _coordYUnidades
  1974  0004DA  22DA               	addwfc	fsr2h,f,c
  1975  0004DC  EC74  F007         	call	_receive	;wreg free
  1976  0004E0  6EDF               	movwf	indf2,c
  1977  0004E2                     
  1978                           ;FuncionesMenu.c: 20:     printf("Recibi coordY");
  1979  0004E2  0ECB               	movlw	low STR_9
  1980  0004E4  6E03               	movwf	printf@PointString^0,c
  1981  0004E6  0E7F               	movlw	high STR_9
  1982  0004E8  6E04               	movwf	(printf@PointString+1)^0,c
  1983  0004EA  ECEC  F006         	call	_printf	;wreg free
  1984  0004EE                     
  1985                           ;FuncionesMenu.c: 21:     presionarZCentenas[coordenadaNueva] = receive();
  1986  0004EE  0E74               	movlw	low _presionarZCentenas
  1987  0004F0  2459               	addwf	_coordenadaNueva^0,w,c
  1988  0004F2  6ED9               	movwf	fsr2l,c
  1989  0004F4  6ADA               	clrf	fsr2h,c
  1990  0004F6  0E00               	movlw	high _presionarZCentenas
  1991  0004F8  22DA               	addwfc	fsr2h,f,c
  1992  0004FA  EC74  F007         	call	_receive	;wreg free
  1993  0004FE  6EDF               	movwf	indf2,c
  1994  000500                     
  1995                           ;FuncionesMenu.c: 22:     presionarZDecenas[coordenadaNueva] = receive();
  1996  000500  0E6A               	movlw	low _presionarZDecenas
  1997  000502  2459               	addwf	_coordenadaNueva^0,w,c
  1998  000504  6ED9               	movwf	fsr2l,c
  1999  000506  6ADA               	clrf	fsr2h,c
  2000  000508  0E00               	movlw	high _presionarZDecenas
  2001  00050A  22DA               	addwfc	fsr2h,f,c
  2002  00050C  EC74  F007         	call	_receive	;wreg free
  2003  000510  6EDF               	movwf	indf2,c
  2004  000512                     
  2005                           ;FuncionesMenu.c: 23:     presionarZUnidades[coordenadaNueva] = receive();
  2006  000512  0E60               	movlw	low _presionarZUnidades
  2007  000514  2459               	addwf	_coordenadaNueva^0,w,c
  2008  000516  6ED9               	movwf	fsr2l,c
  2009  000518  6ADA               	clrf	fsr2h,c
  2010  00051A  0E00               	movlw	high _presionarZUnidades
  2011  00051C  22DA               	addwfc	fsr2h,f,c
  2012  00051E  EC74  F007         	call	_receive	;wreg free
  2013  000522  6EDF               	movwf	indf2,c
  2014  000524                     
  2015                           ;FuncionesMenu.c: 24:     printf("Recibi # de veces a presionar Z\n");
  2016  000524  0E32               	movlw	low STR_10
  2017  000526  6E03               	movwf	printf@PointString^0,c
  2018  000528  0E7F               	movlw	high STR_10
  2019  00052A  6E04               	movwf	(printf@PointString+1)^0,c
  2020  00052C  ECEC  F006         	call	_printf	;wreg free
  2021  000530                     
  2022                           ;FuncionesMenu.c: 25:     validarCoordX = ((coordXCentenas[coordenadaNueva] - 48)*100)+(
      +                          (coordXDecenas[coordenadaNueva] - 48)*10)+(coordXUnidades[coordenadaNueva] - 48);
  2023  000530  0E46               	movlw	low _coordXCentenas
  2024  000532  2459               	addwf	_coordenadaNueva^0,w,c
  2025  000534  6ED9               	movwf	fsr2l,c
  2026  000536  6ADA               	clrf	fsr2h,c
  2027  000538  0E00               	movlw	high _coordXCentenas
  2028  00053A  22DA               	addwfc	fsr2h,f,c
  2029  00053C  50DF               	movf	indf2,w,c
  2030  00053E  6E08               	movwf	??_introducirCoordNueva^0,c
  2031  000540  5008               	movf	??_introducirCoordNueva^0,w,c
  2032  000542  0D64               	mullw	100
  2033  000544  CFF3 F009          	movff	prodl,??_introducirCoordNueva+1
  2034  000548  CFF4 F00A          	movff	prodh,??_introducirCoordNueva+2
  2035  00054C  0EA6               	movlw	low _coordXDecenas
  2036  00054E  2459               	addwf	_coordenadaNueva^0,w,c
  2037  000550  6ED9               	movwf	fsr2l,c
  2038  000552  6ADA               	clrf	fsr2h,c
  2039  000554  0E00               	movlw	high _coordXDecenas
  2040  000556  22DA               	addwfc	fsr2h,f,c
  2041  000558  50DF               	movf	indf2,w,c
  2042  00055A  6E0B               	movwf	(??_introducirCoordNueva+3)^0,c
  2043  00055C  500B               	movf	(??_introducirCoordNueva+3)^0,w,c
  2044  00055E  0D0A               	mullw	10
  2045  000560  50F3               	movf	243,w,c
  2046  000562  2609               	addwf	(??_introducirCoordNueva+1)^0,f,c
  2047  000564  50F4               	movf	244,w,c
  2048  000566  220A               	addwfc	(??_introducirCoordNueva+2)^0,f,c
  2049  000568  0E9C               	movlw	low _coordXUnidades
  2050  00056A  2459               	addwf	_coordenadaNueva^0,w,c
  2051  00056C  6ED9               	movwf	fsr2l,c
  2052  00056E  6ADA               	clrf	fsr2h,c
  2053  000570  0E00               	movlw	high _coordXUnidades
  2054  000572  22DA               	addwfc	fsr2h,f,c
  2055  000574  50DF               	movf	indf2,w,c
  2056  000576  6E0C               	movwf	(??_introducirCoordNueva+4)^0,c
  2057  000578  500C               	movf	(??_introducirCoordNueva+4)^0,w,c
  2058  00057A  2609               	addwf	(??_introducirCoordNueva+1)^0,f,c
  2059  00057C  0E00               	movlw	0
  2060  00057E  220A               	addwfc	(??_introducirCoordNueva+2)^0,f,c
  2061  000580  0E30               	movlw	48
  2062  000582  2409               	addwf	(??_introducirCoordNueva+1)^0,w,c
  2063  000584  6E0D               	movwf	introducirCoordNueva@validarCoordX^0,c
  2064  000586  0EEB               	movlw	235
  2065  000588  200A               	addwfc	(??_introducirCoordNueva+2)^0,w,c
  2066  00058A  6E0E               	movwf	(introducirCoordNueva@validarCoordX+1)^0,c
  2067  00058C                     
  2068                           ;FuncionesMenu.c: 26:     validarCoordY = ((coordYCentenas[coordenadaNueva] - 48)*100)+(
      +                          (coordYDecenas[coordenadaNueva] - 48)*10)+(coordYUnidades[coordenadaNueva] - 48);
  2069  00058C  0E92               	movlw	low _coordYCentenas
  2070  00058E  2459               	addwf	_coordenadaNueva^0,w,c
  2071  000590  6ED9               	movwf	fsr2l,c
  2072  000592  6ADA               	clrf	fsr2h,c
  2073  000594  0E00               	movlw	high _coordYCentenas
  2074  000596  22DA               	addwfc	fsr2h,f,c
  2075  000598  50DF               	movf	indf2,w,c
  2076  00059A  6E08               	movwf	??_introducirCoordNueva^0,c
  2077  00059C  5008               	movf	??_introducirCoordNueva^0,w,c
  2078  00059E  0D64               	mullw	100
  2079  0005A0  CFF3 F009          	movff	prodl,??_introducirCoordNueva+1
  2080  0005A4  CFF4 F00A          	movff	prodh,??_introducirCoordNueva+2
  2081  0005A8  0E88               	movlw	low _coordYDecenas
  2082  0005AA  2459               	addwf	_coordenadaNueva^0,w,c
  2083  0005AC  6ED9               	movwf	fsr2l,c
  2084  0005AE  6ADA               	clrf	fsr2h,c
  2085  0005B0  0E00               	movlw	high _coordYDecenas
  2086  0005B2  22DA               	addwfc	fsr2h,f,c
  2087  0005B4  50DF               	movf	indf2,w,c
  2088  0005B6  6E0B               	movwf	(??_introducirCoordNueva+3)^0,c
  2089  0005B8  500B               	movf	(??_introducirCoordNueva+3)^0,w,c
  2090  0005BA  0D0A               	mullw	10
  2091  0005BC  50F3               	movf	243,w,c
  2092  0005BE  2609               	addwf	(??_introducirCoordNueva+1)^0,f,c
  2093  0005C0  50F4               	movf	244,w,c
  2094  0005C2  220A               	addwfc	(??_introducirCoordNueva+2)^0,f,c
  2095  0005C4  0E7E               	movlw	low _coordYUnidades
  2096  0005C6  2459               	addwf	_coordenadaNueva^0,w,c
  2097  0005C8  6ED9               	movwf	fsr2l,c
  2098  0005CA  6ADA               	clrf	fsr2h,c
  2099  0005CC  0E00               	movlw	high _coordYUnidades
  2100  0005CE  22DA               	addwfc	fsr2h,f,c
  2101  0005D0  50DF               	movf	indf2,w,c
  2102  0005D2  6E0C               	movwf	(??_introducirCoordNueva+4)^0,c
  2103  0005D4  500C               	movf	(??_introducirCoordNueva+4)^0,w,c
  2104  0005D6  2609               	addwf	(??_introducirCoordNueva+1)^0,f,c
  2105  0005D8  0E00               	movlw	0
  2106  0005DA  220A               	addwfc	(??_introducirCoordNueva+2)^0,f,c
  2107  0005DC  0E30               	movlw	48
  2108  0005DE  2409               	addwf	(??_introducirCoordNueva+1)^0,w,c
  2109  0005E0  6E0F               	movwf	introducirCoordNueva@validarCoordY^0,c
  2110  0005E2  0EEB               	movlw	235
  2111  0005E4  200A               	addwfc	(??_introducirCoordNueva+2)^0,w,c
  2112  0005E6  6E10               	movwf	(introducirCoordNueva@validarCoordY+1)^0,c
  2113  0005E8                     
  2114                           ;FuncionesMenu.c: 27:     if ((validarCoordX > 300) || (validarCoordY > 300)) {
  2115  0005E8  0E2D               	movlw	45
  2116  0005EA  5C0D               	subwf	introducirCoordNueva@validarCoordX^0,w,c
  2117  0005EC  0E01               	movlw	1
  2118  0005EE  580E               	subwfb	(introducirCoordNueva@validarCoordX+1)^0,w,c
  2119  0005F0  B0D8               	btfsc	status,0,c
  2120  0005F2  EFFD  F002         	goto	u1011
  2121  0005F6  EFFF  F002         	goto	u1010
  2122  0005FA                     u1011:
  2123  0005FA  EF0A  F003         	goto	l1861
  2124  0005FE                     u1010:
  2125  0005FE  0E2D               	movlw	45
  2126  000600  5C0F               	subwf	introducirCoordNueva@validarCoordY^0,w,c
  2127  000602  0E01               	movlw	1
  2128  000604  5810               	subwfb	(introducirCoordNueva@validarCoordY+1)^0,w,c
  2129  000606  A0D8               	btfss	status,0,c
  2130  000608  EF08  F003         	goto	u1021
  2131  00060C  EF0A  F003         	goto	u1020
  2132  000610                     u1021:
  2133  000610  EF12  F003         	goto	l1863
  2134  000614                     u1020:
  2135  000614                     l1861:
  2136                           
  2137                           ;FuncionesMenu.c: 28:         printf("Metiste una coordenada invalida\n");
  2138  000614  0E53               	movlw	low STR_11
  2139  000616  6E03               	movwf	printf@PointString^0,c
  2140  000618  0E7F               	movlw	high STR_11
  2141  00061A  6E04               	movwf	(printf@PointString+1)^0,c
  2142  00061C  ECEC  F006         	call	_printf	;wreg free
  2143                           
  2144                           ;FuncionesMenu.c: 29:         goto leerCoordValida;
  2145  000620  EF2F  F002         	goto	l1827
  2146  000624                     l1863:
  2147                           
  2148                           ;FuncionesMenu.c: 31:     printf("Coordenada recibida, lo que recibimos fue:");
  2149  000624  0EE2               	movlw	low STR_12
  2150  000626  6E03               	movwf	printf@PointString^0,c
  2151  000628  0E7E               	movlw	high STR_12
  2152  00062A  6E04               	movwf	(printf@PointString+1)^0,c
  2153  00062C  ECEC  F006         	call	_printf	;wreg free
  2154  000630                     
  2155                           ;FuncionesMenu.c: 32:     send(coordXCentenas[coordenadaNueva]);
  2156  000630  0E46               	movlw	low _coordXCentenas
  2157  000632  2459               	addwf	_coordenadaNueva^0,w,c
  2158  000634  6ED9               	movwf	fsr2l,c
  2159  000636  6ADA               	clrf	fsr2h,c
  2160  000638  0E00               	movlw	high _coordXCentenas
  2161  00063A  22DA               	addwfc	fsr2h,f,c
  2162  00063C  50DF               	movf	indf2,w,c
  2163  00063E  ECB1  F007         	call	_send
  2164  000642                     
  2165                           ;FuncionesMenu.c: 33:     send(coordXDecenas[coordenadaNueva]);
  2166  000642  0EA6               	movlw	low _coordXDecenas
  2167  000644  2459               	addwf	_coordenadaNueva^0,w,c
  2168  000646  6ED9               	movwf	fsr2l,c
  2169  000648  6ADA               	clrf	fsr2h,c
  2170  00064A  0E00               	movlw	high _coordXDecenas
  2171  00064C  22DA               	addwfc	fsr2h,f,c
  2172  00064E  50DF               	movf	indf2,w,c
  2173  000650  ECB1  F007         	call	_send
  2174  000654                     
  2175                           ;FuncionesMenu.c: 34:     send(coordXUnidades[coordenadaNueva]);
  2176  000654  0E9C               	movlw	low _coordXUnidades
  2177  000656  2459               	addwf	_coordenadaNueva^0,w,c
  2178  000658  6ED9               	movwf	fsr2l,c
  2179  00065A  6ADA               	clrf	fsr2h,c
  2180  00065C  0E00               	movlw	high _coordXUnidades
  2181  00065E  22DA               	addwfc	fsr2h,f,c
  2182  000660  50DF               	movf	indf2,w,c
  2183  000662  ECB1  F007         	call	_send
  2184  000666                     
  2185                           ;FuncionesMenu.c: 35:     send(',');
  2186  000666  0E2C               	movlw	44
  2187  000668  ECB1  F007         	call	_send
  2188  00066C                     
  2189                           ;FuncionesMenu.c: 36:     send(coordYCentenas[coordenadaNueva]);
  2190  00066C  0E92               	movlw	low _coordYCentenas
  2191  00066E  2459               	addwf	_coordenadaNueva^0,w,c
  2192  000670  6ED9               	movwf	fsr2l,c
  2193  000672  6ADA               	clrf	fsr2h,c
  2194  000674  0E00               	movlw	high _coordYCentenas
  2195  000676  22DA               	addwfc	fsr2h,f,c
  2196  000678  50DF               	movf	indf2,w,c
  2197  00067A  ECB1  F007         	call	_send
  2198  00067E                     
  2199                           ;FuncionesMenu.c: 37:     send(coordYDecenas[coordenadaNueva]);
  2200  00067E  0E88               	movlw	low _coordYDecenas
  2201  000680  2459               	addwf	_coordenadaNueva^0,w,c
  2202  000682  6ED9               	movwf	fsr2l,c
  2203  000684  6ADA               	clrf	fsr2h,c
  2204  000686  0E00               	movlw	high _coordYDecenas
  2205  000688  22DA               	addwfc	fsr2h,f,c
  2206  00068A  50DF               	movf	indf2,w,c
  2207  00068C  ECB1  F007         	call	_send
  2208  000690                     
  2209                           ;FuncionesMenu.c: 38:     send(coordYUnidades[coordenadaNueva]);
  2210  000690  0E7E               	movlw	low _coordYUnidades
  2211  000692  2459               	addwf	_coordenadaNueva^0,w,c
  2212  000694  6ED9               	movwf	fsr2l,c
  2213  000696  6ADA               	clrf	fsr2h,c
  2214  000698  0E00               	movlw	high _coordYUnidades
  2215  00069A  22DA               	addwfc	fsr2h,f,c
  2216  00069C  50DF               	movf	indf2,w,c
  2217  00069E  ECB1  F007         	call	_send
  2218  0006A2                     
  2219                           ;FuncionesMenu.c: 39:     send(',');
  2220  0006A2  0E2C               	movlw	44
  2221  0006A4  ECB1  F007         	call	_send
  2222  0006A8                     
  2223                           ;FuncionesMenu.c: 40:     send(presionarZCentenas[coordenadaNueva]);
  2224  0006A8  0E74               	movlw	low _presionarZCentenas
  2225  0006AA  2459               	addwf	_coordenadaNueva^0,w,c
  2226  0006AC  6ED9               	movwf	fsr2l,c
  2227  0006AE  6ADA               	clrf	fsr2h,c
  2228  0006B0  0E00               	movlw	high _presionarZCentenas
  2229  0006B2  22DA               	addwfc	fsr2h,f,c
  2230  0006B4  50DF               	movf	indf2,w,c
  2231  0006B6  ECB1  F007         	call	_send
  2232  0006BA                     
  2233                           ;FuncionesMenu.c: 41:     send(presionarZDecenas[coordenadaNueva]);
  2234  0006BA  0E6A               	movlw	low _presionarZDecenas
  2235  0006BC  2459               	addwf	_coordenadaNueva^0,w,c
  2236  0006BE  6ED9               	movwf	fsr2l,c
  2237  0006C0  6ADA               	clrf	fsr2h,c
  2238  0006C2  0E00               	movlw	high _presionarZDecenas
  2239  0006C4  22DA               	addwfc	fsr2h,f,c
  2240  0006C6  50DF               	movf	indf2,w,c
  2241  0006C8  ECB1  F007         	call	_send
  2242  0006CC                     
  2243                           ;FuncionesMenu.c: 42:     send(presionarZUnidades[coordenadaNueva]);
  2244  0006CC  0E60               	movlw	low _presionarZUnidades
  2245  0006CE  2459               	addwf	_coordenadaNueva^0,w,c
  2246  0006D0  6ED9               	movwf	fsr2l,c
  2247  0006D2  6ADA               	clrf	fsr2h,c
  2248  0006D4  0E00               	movlw	high _presionarZUnidades
  2249  0006D6  22DA               	addwfc	fsr2h,f,c
  2250  0006D8  50DF               	movf	indf2,w,c
  2251  0006DA  ECB1  F007         	call	_send
  2252  0006DE                     
  2253                           ;FuncionesMenu.c: 43:     send('.');
  2254  0006DE  0E2E               	movlw	46
  2255  0006E0  ECB1  F007         	call	_send
  2256  0006E4                     
  2257                           ;FuncionesMenu.c: 44:     coordenadaNueva++;
  2258  0006E4  2A59               	incf	_coordenadaNueva^0,f,c
  2259  0006E6  0012               	return		;funcret
  2260  0006E8                     __end_of_introducirCoordNueva:
  2261                           	opt callstack 0
  2262                           
  2263 ;; *************** function _receive *****************
  2264 ;; Defined at:
  2265 ;;		line 21 in file "UART.c"
  2266 ;; Parameters:    Size  Location     Type
  2267 ;;		None
  2268 ;; Auto vars:     Size  Location     Type
  2269 ;;  recibido        1    1[COMRAM] unsigned char 
  2270 ;; Return value:  Size  Location     Type
  2271 ;;                  1    wreg      unsigned char 
  2272 ;; Registers used:
  2273 ;;		wreg, status,2
  2274 ;; Tracked objects:
  2275 ;;		On entry : 0/0
  2276 ;;		On exit  : 0/0
  2277 ;;		Unchanged: 0/0
  2278 ;; Data sizes:     COMRAM   BANK0   BANK1   BANK2   BANK3   BANK4   BANK5   BANK6   BANK7
  2279 ;;      Params:         0       0       0       0       0       0       0       0       0
  2280 ;;      Locals:         1       0       0       0       0       0       0       0       0
  2281 ;;      Temps:          0       0       0       0       0       0       0       0       0
  2282 ;;      Totals:         1       0       0       0       0       0       0       0       0
  2283 ;;Total ram usage:        1 bytes
  2284 ;; Hardware stack levels used:    1
  2285 ;; Hardware stack levels required when called:    2
  2286 ;; This function calls:
  2287 ;;		Nothing
  2288 ;; This function is called by:
  2289 ;;		_scanf
  2290 ;;		_main
  2291 ;;		_introducirCoordNueva
  2292 ;; This function uses a non-reentrant model
  2293 ;;
  2294                           
  2295                           	psect	text8
  2296  000EE8                     __ptext8:
  2297                           	opt callstack 0
  2298  000EE8                     _receive:
  2299                           	opt callstack 27
  2300  000EE8                     l47:
  2301                           
  2302                           ;UART.c: 23:     while (PIR1bits.RCIF == 0) {
  2303  000EE8  AA9E               	btfss	158,5,c	;volatile
  2304  000EEA  EF79  F007         	goto	u611
  2305  000EEE  EF7B  F007         	goto	u610
  2306  000EF2                     u611:
  2307  000EF2  EF74  F007         	goto	l47
  2308  000EF6                     u610:
  2309  000EF6                     
  2310                           ;UART.c: 26:     recibido = RCREG1;
  2311  000EF6  CFAE F002          	movff	4014,receive@recibido	;volatile
  2312  000EFA                     
  2313                           ;UART.c: 27:     RCREG1 = 0;
  2314  000EFA  0E00               	movlw	0
  2315  000EFC  6EAE               	movwf	174,c	;volatile
  2316                           
  2317                           ;UART.c: 28:     return recibido;
  2318  000EFE  5002               	movf	receive@recibido^0,w,c
  2319  000F00  0012               	return		;funcret
  2320  000F02                     __end_of_receive:
  2321                           	opt callstack 0
  2322                           
  2323 ;; *************** function _interruptsEnable *****************
  2324 ;; Defined at:
  2325 ;;		line 5 in file "Interrupciones.c"
  2326 ;; Parameters:    Size  Location     Type
  2327 ;;		None
  2328 ;; Auto vars:     Size  Location     Type
  2329 ;;		None
  2330 ;; Return value:  Size  Location     Type
  2331 ;;                  1    wreg      void 
  2332 ;; Registers used:
  2333 ;;		None
  2334 ;; Tracked objects:
  2335 ;;		On entry : 0/0
  2336 ;;		On exit  : 0/0
  2337 ;;		Unchanged: 0/0
  2338 ;; Data sizes:     COMRAM   BANK0   BANK1   BANK2   BANK3   BANK4   BANK5   BANK6   BANK7
  2339 ;;      Params:         0       0       0       0       0       0       0       0       0
  2340 ;;      Locals:         0       0       0       0       0       0       0       0       0
  2341 ;;      Temps:          0       0       0       0       0       0       0       0       0
  2342 ;;      Totals:         0       0       0       0       0       0       0       0       0
  2343 ;;Total ram usage:        0 bytes
  2344 ;; Hardware stack levels used:    1
  2345 ;; Hardware stack levels required when called:    2
  2346 ;; This function calls:
  2347 ;;		Nothing
  2348 ;; This function is called by:
  2349 ;;		_main
  2350 ;; This function uses a non-reentrant model
  2351 ;;
  2352                           
  2353                           	psect	text9
  2354  000F90                     __ptext9:
  2355                           	opt callstack 0
  2356  000F90                     _interruptsEnable:
  2357                           	opt callstack 28
  2358  000F90                     
  2359                           ;Interrupciones.c: 7:     RCONbits.IPEN = 0;
  2360  000F90  9ED0               	bcf	208,7,c	;volatile
  2361                           
  2362                           ;Interrupciones.c: 8:     INTCONbits.PEIE = 1;
  2363  000F92  8CF2               	bsf	242,6,c	;volatile
  2364                           
  2365                           ;Interrupciones.c: 9:     INTCONbits.GIE = 1;
  2366  000F94  8EF2               	bsf	242,7,c	;volatile
  2367  000F96  0012               	return		;funcret
  2368  000F98                     __end_of_interruptsEnable:
  2369                           	opt callstack 0
  2370                           
  2371 ;; *************** function _imprimirCoordenadas *****************
  2372 ;; Defined at:
  2373 ;;		line 46 in file "FuncionesMenu.c"
  2374 ;; Parameters:    Size  Location     Type
  2375 ;;		None
  2376 ;; Auto vars:     Size  Location     Type
  2377 ;;  impresionCoo    1    8[COMRAM] unsigned char 
  2378 ;;  numCoordenad    1    0        unsigned char 
  2379 ;; Return value:  Size  Location     Type
  2380 ;;                  1    wreg      void 
  2381 ;; Registers used:
  2382 ;;		wreg, fsr2l, fsr2h, status,2, status,0, tblptrl, tblptrh, tblptru, cstack
  2383 ;; Tracked objects:
  2384 ;;		On entry : 0/0
  2385 ;;		On exit  : 0/0
  2386 ;;		Unchanged: 0/0
  2387 ;; Data sizes:     COMRAM   BANK0   BANK1   BANK2   BANK3   BANK4   BANK5   BANK6   BANK7
  2388 ;;      Params:         0       0       0       0       0       0       0       0       0
  2389 ;;      Locals:         2       0       0       0       0       0       0       0       0
  2390 ;;      Temps:          0       0       0       0       0       0       0       0       0
  2391 ;;      Totals:         2       0       0       0       0       0       0       0       0
  2392 ;;Total ram usage:        2 bytes
  2393 ;; Hardware stack levels used:    1
  2394 ;; Hardware stack levels required when called:    4
  2395 ;; This function calls:
  2396 ;;		_printf
  2397 ;;		_send
  2398 ;; This function is called by:
  2399 ;;		_main
  2400 ;; This function uses a non-reentrant model
  2401 ;;
  2402                           
  2403                           	psect	text10
  2404  000A28                     __ptext10:
  2405                           	opt callstack 0
  2406  000A28                     _imprimirCoordenadas:
  2407                           	opt callstack 26
  2408  000A28                     
  2409                           ;FuncionesMenu.c: 48:     printf("Elegiste la opcion de imprimir coordenadas\n");
  2410  000A28  0EB6               	movlw	low STR_13
  2411  000A2A  6E03               	movwf	printf@PointString^0,c
  2412  000A2C  0E7E               	movlw	high STR_13
  2413  000A2E  6E04               	movwf	(printf@PointString+1)^0,c
  2414  000A30  ECEC  F006         	call	_printf	;wreg free
  2415  000A34                     
  2416                           ;FuncionesMenu.c: 49:     printf("Agregaste:");
  2417  000A34  0EF3               	movlw	low STR_14
  2418  000A36  6E03               	movwf	printf@PointString^0,c
  2419  000A38  0E7F               	movlw	high STR_14
  2420  000A3A  6E04               	movwf	(printf@PointString+1)^0,c
  2421  000A3C  ECEC  F006         	call	_printf	;wreg free
  2422                           
  2423                           ;FuncionesMenu.c: 50:     if (coordenadaNueva > 9) {
  2424  000A40  0E09               	movlw	9
  2425  000A42  6459               	cpfsgt	_coordenadaNueva^0,c
  2426  000A44  EF26  F005         	goto	u1031
  2427  000A48  EF28  F005         	goto	u1030
  2428  000A4C                     u1031:
  2429  000A4C  EF30  F005         	goto	l1899
  2430  000A50                     u1030:
  2431  000A50                     
  2432                           ;FuncionesMenu.c: 51:         send('1');
  2433  000A50  0E31               	movlw	49
  2434  000A52  ECB1  F007         	call	_send
  2435                           
  2436                           ;FuncionesMenu.c: 52:         send('0');
  2437  000A56  0E30               	movlw	48
  2438  000A58  ECB1  F007         	call	_send
  2439                           
  2440                           ;FuncionesMenu.c: 53:     } else {
  2441  000A5C  EF33  F005         	goto	l1901
  2442  000A60                     l1899:
  2443                           
  2444                           ;FuncionesMenu.c: 54:         send('numCoordenadas');
  2445  000A60  0E73               	movlw	115
  2446  000A62  ECB1  F007         	call	_send
  2447  000A66                     l1901:
  2448                           
  2449                           ;FuncionesMenu.c: 56:     printf("coordenadas, las cuales son: \n");
  2450  000A66  0E74               	movlw	low STR_15
  2451  000A68  6E03               	movwf	printf@PointString^0,c
  2452  000A6A  0E7F               	movlw	high STR_15
  2453  000A6C  6E04               	movwf	(printf@PointString+1)^0,c
  2454  000A6E  ECEC  F006         	call	_printf	;wreg free
  2455  000A72                     
  2456                           ;FuncionesMenu.c: 57:     for (uint8_t impresionCoordenada = 0; impresionCoordenada < co
      +                          ordenadaNueva; impresionCoordenada++) {
  2457  000A72  0E00               	movlw	0
  2458  000A74  6E09               	movwf	imprimirCoordenadas@impresionCoordenada^0,c
  2459  000A76  EFAB  F005         	goto	l1939
  2460  000A7A                     l1905:
  2461                           
  2462                           ;FuncionesMenu.c: 58:         printf("La coordenada ");
  2463  000A7A  0EAE               	movlw	low STR_16
  2464  000A7C  6E03               	movwf	printf@PointString^0,c
  2465  000A7E  0E7F               	movlw	high STR_16
  2466  000A80  6E04               	movwf	(printf@PointString+1)^0,c
  2467  000A82  ECEC  F006         	call	_printf	;wreg free
  2468  000A86                     
  2469                           ;FuncionesMenu.c: 59:         send(impresionCoordenada + 48);
  2470  000A86  5009               	movf	imprimirCoordenadas@impresionCoordenada^0,w,c
  2471  000A88  0F30               	addlw	48
  2472  000A8A  ECB1  F007         	call	_send
  2473  000A8E                     
  2474                           ;FuncionesMenu.c: 60:         printf(" contiene los valores de: ");
  2475  000A8E  0E93               	movlw	low STR_17
  2476  000A90  6E03               	movwf	printf@PointString^0,c
  2477  000A92  0E7F               	movlw	high STR_17
  2478  000A94  6E04               	movwf	(printf@PointString+1)^0,c
  2479  000A96  ECEC  F006         	call	_printf	;wreg free
  2480  000A9A                     
  2481                           ;FuncionesMenu.c: 61:         send(coordXCentenas[impresionCoordenada]);
  2482  000A9A  0E46               	movlw	low _coordXCentenas
  2483  000A9C  2409               	addwf	imprimirCoordenadas@impresionCoordenada^0,w,c
  2484  000A9E  6ED9               	movwf	fsr2l,c
  2485  000AA0  6ADA               	clrf	fsr2h,c
  2486  000AA2  0E00               	movlw	high _coordXCentenas
  2487  000AA4  22DA               	addwfc	fsr2h,f,c
  2488  000AA6  50DF               	movf	indf2,w,c
  2489  000AA8  ECB1  F007         	call	_send
  2490  000AAC                     
  2491                           ;FuncionesMenu.c: 62:         send(coordXDecenas[impresionCoordenada]);
  2492  000AAC  0EA6               	movlw	low _coordXDecenas
  2493  000AAE  2409               	addwf	imprimirCoordenadas@impresionCoordenada^0,w,c
  2494  000AB0  6ED9               	movwf	fsr2l,c
  2495  000AB2  6ADA               	clrf	fsr2h,c
  2496  000AB4  0E00               	movlw	high _coordXDecenas
  2497  000AB6  22DA               	addwfc	fsr2h,f,c
  2498  000AB8  50DF               	movf	indf2,w,c
  2499  000ABA  ECB1  F007         	call	_send
  2500  000ABE                     
  2501                           ;FuncionesMenu.c: 63:         send(coordXUnidades[impresionCoordenada]);
  2502  000ABE  0E9C               	movlw	low _coordXUnidades
  2503  000AC0  2409               	addwf	imprimirCoordenadas@impresionCoordenada^0,w,c
  2504  000AC2  6ED9               	movwf	fsr2l,c
  2505  000AC4  6ADA               	clrf	fsr2h,c
  2506  000AC6  0E00               	movlw	high _coordXUnidades
  2507  000AC8  22DA               	addwfc	fsr2h,f,c
  2508  000ACA  50DF               	movf	indf2,w,c
  2509  000ACC  ECB1  F007         	call	_send
  2510  000AD0                     
  2511                           ;FuncionesMenu.c: 64:         send(',');
  2512  000AD0  0E2C               	movlw	44
  2513  000AD2  ECB1  F007         	call	_send
  2514  000AD6                     
  2515                           ;FuncionesMenu.c: 65:         send(coordYCentenas[impresionCoordenada]);
  2516  000AD6  0E92               	movlw	low _coordYCentenas
  2517  000AD8  2409               	addwf	imprimirCoordenadas@impresionCoordenada^0,w,c
  2518  000ADA  6ED9               	movwf	fsr2l,c
  2519  000ADC  6ADA               	clrf	fsr2h,c
  2520  000ADE  0E00               	movlw	high _coordYCentenas
  2521  000AE0  22DA               	addwfc	fsr2h,f,c
  2522  000AE2  50DF               	movf	indf2,w,c
  2523  000AE4  ECB1  F007         	call	_send
  2524  000AE8                     
  2525                           ;FuncionesMenu.c: 66:         send(coordYDecenas[impresionCoordenada]);
  2526  000AE8  0E88               	movlw	low _coordYDecenas
  2527  000AEA  2409               	addwf	imprimirCoordenadas@impresionCoordenada^0,w,c
  2528  000AEC  6ED9               	movwf	fsr2l,c
  2529  000AEE  6ADA               	clrf	fsr2h,c
  2530  000AF0  0E00               	movlw	high _coordYDecenas
  2531  000AF2  22DA               	addwfc	fsr2h,f,c
  2532  000AF4  50DF               	movf	indf2,w,c
  2533  000AF6  ECB1  F007         	call	_send
  2534  000AFA                     
  2535                           ;FuncionesMenu.c: 67:         send(coordYUnidades[impresionCoordenada]);
  2536  000AFA  0E7E               	movlw	low _coordYUnidades
  2537  000AFC  2409               	addwf	imprimirCoordenadas@impresionCoordenada^0,w,c
  2538  000AFE  6ED9               	movwf	fsr2l,c
  2539  000B00  6ADA               	clrf	fsr2h,c
  2540  000B02  0E00               	movlw	high _coordYUnidades
  2541  000B04  22DA               	addwfc	fsr2h,f,c
  2542  000B06  50DF               	movf	indf2,w,c
  2543  000B08  ECB1  F007         	call	_send
  2544  000B0C                     
  2545                           ;FuncionesMenu.c: 68:         send(',');
  2546  000B0C  0E2C               	movlw	44
  2547  000B0E  ECB1  F007         	call	_send
  2548  000B12                     
  2549                           ;FuncionesMenu.c: 69:         send(presionarZCentenas[impresionCoordenada]);
  2550  000B12  0E74               	movlw	low _presionarZCentenas
  2551  000B14  2409               	addwf	imprimirCoordenadas@impresionCoordenada^0,w,c
  2552  000B16  6ED9               	movwf	fsr2l,c
  2553  000B18  6ADA               	clrf	fsr2h,c
  2554  000B1A  0E00               	movlw	high _presionarZCentenas
  2555  000B1C  22DA               	addwfc	fsr2h,f,c
  2556  000B1E  50DF               	movf	indf2,w,c
  2557  000B20  ECB1  F007         	call	_send
  2558  000B24                     
  2559                           ;FuncionesMenu.c: 70:         send(presionarZDecenas[impresionCoordenada]);
  2560  000B24  0E6A               	movlw	low _presionarZDecenas
  2561  000B26  2409               	addwf	imprimirCoordenadas@impresionCoordenada^0,w,c
  2562  000B28  6ED9               	movwf	fsr2l,c
  2563  000B2A  6ADA               	clrf	fsr2h,c
  2564  000B2C  0E00               	movlw	high _presionarZDecenas
  2565  000B2E  22DA               	addwfc	fsr2h,f,c
  2566  000B30  50DF               	movf	indf2,w,c
  2567  000B32  ECB1  F007         	call	_send
  2568  000B36                     
  2569                           ;FuncionesMenu.c: 71:         send(presionarZUnidades[impresionCoordenada]);
  2570  000B36  0E60               	movlw	low _presionarZUnidades
  2571  000B38  2409               	addwf	imprimirCoordenadas@impresionCoordenada^0,w,c
  2572  000B3A  6ED9               	movwf	fsr2l,c
  2573  000B3C  6ADA               	clrf	fsr2h,c
  2574  000B3E  0E00               	movlw	high _presionarZUnidades
  2575  000B40  22DA               	addwfc	fsr2h,f,c
  2576  000B42  50DF               	movf	indf2,w,c
  2577  000B44  ECB1  F007         	call	_send
  2578  000B48                     
  2579                           ;FuncionesMenu.c: 72:         send('.');
  2580  000B48  0E2E               	movlw	46
  2581  000B4A  ECB1  F007         	call	_send
  2582  000B4E                     
  2583                           ;FuncionesMenu.c: 73:         send ('\n');
  2584  000B4E  0E0A               	movlw	10
  2585  000B50  ECB1  F007         	call	_send
  2586  000B54                     
  2587                           ;FuncionesMenu.c: 74:     }
  2588  000B54  2A09               	incf	imprimirCoordenadas@impresionCoordenada^0,f,c
  2589  000B56                     l1939:
  2590  000B56  5059               	movf	_coordenadaNueva^0,w,c
  2591  000B58  5C09               	subwf	imprimirCoordenadas@impresionCoordenada^0,w,c
  2592  000B5A  A0D8               	btfss	status,0,c
  2593  000B5C  EFB2  F005         	goto	u1041
  2594  000B60  EFB4  F005         	goto	u1040
  2595  000B64                     u1041:
  2596  000B64  EF3D  F005         	goto	l1905
  2597  000B68                     u1040:
  2598  000B68  0012               	return		;funcret
  2599  000B6A                     __end_of_imprimirCoordenadas:
  2600                           	opt callstack 0
  2601                           
  2602 ;; *************** function _printf *****************
  2603 ;; Defined at:
  2604 ;;		line 5 in file "Comunicacion.c"
  2605 ;; Parameters:    Size  Location     Type
  2606 ;;  PointString     2    2[COMRAM] PTR unsigned char 
  2607 ;;		 -> STR_17(27), STR_16(15), STR_15(31), STR_14(11), 
  2608 ;;		 -> STR_13(44), STR_12(43), STR_11(33), STR_10(33), 
  2609 ;;		 -> STR_9(14), STR_8(14), STR_7(113), STR_6(75), 
  2610 ;;		 -> STR_5(13), STR_4(13), STR_3(37), STR_2(212), 
  2611 ;;		 -> STR_1(57), 
  2612 ;; Auto vars:     Size  Location     Type
  2613 ;;  i               1    6[COMRAM] unsigned char 
  2614 ;; Return value:  Size  Location     Type
  2615 ;;                  1    wreg      void 
  2616 ;; Registers used:
  2617 ;;		wreg, status,2, status,0, tblptrl, tblptrh, tblptru, cstack
  2618 ;; Tracked objects:
  2619 ;;		On entry : 0/0
  2620 ;;		On exit  : 0/0
  2621 ;;		Unchanged: 0/0
  2622 ;; Data sizes:     COMRAM   BANK0   BANK1   BANK2   BANK3   BANK4   BANK5   BANK6   BANK7
  2623 ;;      Params:         2       0       0       0       0       0       0       0       0
  2624 ;;      Locals:         1       0       0       0       0       0       0       0       0
  2625 ;;      Temps:          2       0       0       0       0       0       0       0       0
  2626 ;;      Totals:         5       0       0       0       0       0       0       0       0
  2627 ;;Total ram usage:        5 bytes
  2628 ;; Hardware stack levels used:    1
  2629 ;; Hardware stack levels required when called:    3
  2630 ;; This function calls:
  2631 ;;		_send
  2632 ;; This function is called by:
  2633 ;;		_main
  2634 ;;		_introducirCoordNueva
  2635 ;;		_imprimirCoordenadas
  2636 ;; This function uses a non-reentrant model
  2637 ;;
  2638                           
  2639                           	psect	text11
  2640  000DD8                     __ptext11:
  2641                           	opt callstack 0
  2642  000DD8                     _printf:
  2643                           	opt callstack 27
  2644  000DD8                     
  2645                           ;Comunicacion.c: 6:     for (unsigned char i = 0; i < 255; i++) {
  2646  000DD8  0E00               	movlw	0
  2647  000DDA  6E07               	movwf	printf@i^0,c
  2648  000DDC                     l1573:
  2649                           
  2650                           ;Comunicacion.c: 7:         if (PointString[i] == ((void*)0)) {
  2651  000DDC  5007               	movf	printf@i^0,w,c
  2652  000DDE  2403               	addwf	printf@PointString^0,w,c
  2653  000DE0  6E05               	movwf	??_printf^0,c
  2654  000DE2  0E00               	movlw	0
  2655  000DE4  2004               	addwfc	(printf@PointString+1)^0,w,c
  2656  000DE6  6E06               	movwf	(??_printf+1)^0,c
  2657  000DE8  C005  FFF6         	movff	??_printf,tblptrl
  2658  000DEC  C006  FFF7         	movff	??_printf+1,tblptrh
  2659  000DF0                     	if	0	;tblptru may be non-zero
  2660  000DF0                     	endif
  2661  000DF0                     	if	0	;tblptru may be non-zero
  2662  000DF0                     	endif
  2663  000DF0  0008               	tblrd		*
  2664  000DF2  50F5               	movf	tablat,w,c
  2665  000DF4  0900               	iorlw	0
  2666  000DF6  A4D8               	btfss	status,2,c
  2667  000DF8  EF00  F007         	goto	u621
  2668  000DFC  EF02  F007         	goto	u620
  2669  000E00                     u621:
  2670  000E00  EF04  F007         	goto	l1579
  2671  000E04                     u620:
  2672  000E04  EF1B  F007         	goto	l151
  2673  000E08                     l1579:
  2674                           
  2675                           ;Comunicacion.c: 10:             send(PointString[i]);
  2676  000E08  5007               	movf	printf@i^0,w,c
  2677  000E0A  2403               	addwf	printf@PointString^0,w,c
  2678  000E0C  6E05               	movwf	??_printf^0,c
  2679  000E0E  0E00               	movlw	0
  2680  000E10  2004               	addwfc	(printf@PointString+1)^0,w,c
  2681  000E12  6E06               	movwf	(??_printf+1)^0,c
  2682  000E14  C005  FFF6         	movff	??_printf,tblptrl
  2683  000E18  C006  FFF7         	movff	??_printf+1,tblptrh
  2684  000E1C                     	if	0	;tblptru may be non-zero
  2685  000E1C                     	endif
  2686  000E1C                     	if	0	;tblptru may be non-zero
  2687  000E1C                     	endif
  2688  000E1C  0008               	tblrd		*
  2689  000E1E  50F5               	movf	tablat,w,c
  2690  000E20  ECB1  F007         	call	_send
  2691  000E24                     
  2692                           ;Comunicacion.c: 11:     }
  2693  000E24  2A07               	incf	printf@i^0,f,c
  2694  000E26  2807               	incf	printf@i^0,w,c
  2695  000E28  A4D8               	btfss	status,2,c
  2696  000E2A  EF19  F007         	goto	u631
  2697  000E2E  EF1B  F007         	goto	u630
  2698  000E32                     u631:
  2699  000E32  EFEE  F006         	goto	l1573
  2700  000E36                     u630:
  2701  000E36                     l151:
  2702  000E36  0012               	return		;funcret
  2703  000E38                     __end_of_printf:
  2704                           	opt callstack 0
  2705                           
  2706 ;; *************** function _send *****************
  2707 ;; Defined at:
  2708 ;;		line 31 in file "UART.c"
  2709 ;; Parameters:    Size  Location     Type
  2710 ;;  enviarpc        1    wreg     unsigned char 
  2711 ;; Auto vars:     Size  Location     Type
  2712 ;;  enviarpc        1    1[COMRAM] unsigned char 
  2713 ;; Return value:  Size  Location     Type
  2714 ;;                  1    wreg      void 
  2715 ;; Registers used:
  2716 ;;		wreg
  2717 ;; Tracked objects:
  2718 ;;		On entry : 0/0
  2719 ;;		On exit  : 0/0
  2720 ;;		Unchanged: 0/0
  2721 ;; Data sizes:     COMRAM   BANK0   BANK1   BANK2   BANK3   BANK4   BANK5   BANK6   BANK7
  2722 ;;      Params:         0       0       0       0       0       0       0       0       0
  2723 ;;      Locals:         1       0       0       0       0       0       0       0       0
  2724 ;;      Temps:          0       0       0       0       0       0       0       0       0
  2725 ;;      Totals:         1       0       0       0       0       0       0       0       0
  2726 ;;Total ram usage:        1 bytes
  2727 ;; Hardware stack levels used:    1
  2728 ;; Hardware stack levels required when called:    2
  2729 ;; This function calls:
  2730 ;;		Nothing
  2731 ;; This function is called by:
  2732 ;;		_printf
  2733 ;;		_introducirCoordNueva
  2734 ;;		_imprimirCoordenadas
  2735 ;; This function uses a non-reentrant model
  2736 ;;
  2737                           
  2738                           	psect	text12
  2739  000F62                     __ptext12:
  2740                           	opt callstack 0
  2741  000F62                     _send:
  2742                           	opt callstack 27
  2743                           
  2744                           ;incstack = 0
  2745                           ;send@enviarpc stored from wreg
  2746  000F62  6E02               	movwf	send@enviarpc^0,c
  2747  000F64                     l53:
  2748                           
  2749                           ;UART.c: 32:     while (TXSTA1bits.TRMT == 0) {
  2750  000F64  A2AC               	btfss	172,1,c	;volatile
  2751  000F66  EFB7  F007         	goto	u601
  2752  000F6A  EFB9  F007         	goto	u600
  2753  000F6E                     u601:
  2754  000F6E  EFB2  F007         	goto	l53
  2755  000F72                     u600:
  2756  000F72                     
  2757                           ;UART.c: 35:     TXREG1 = enviarpc;
  2758  000F72  C002  FFAD         	movff	send@enviarpc,4013	;volatile
  2759  000F76  0012               	return		;funcret
  2760  000F78                     __end_of_send:
  2761                           	opt callstack 0
  2762                           
  2763 ;; *************** function _habilitarIntTMR1 *****************
  2764 ;; Defined at:
  2765 ;;		line 42 in file "Interrupciones.c"
  2766 ;; Parameters:    Size  Location     Type
  2767 ;;		None
  2768 ;; Auto vars:     Size  Location     Type
  2769 ;;		None
  2770 ;; Return value:  Size  Location     Type
  2771 ;;                  1    wreg      void 
  2772 ;; Registers used:
  2773 ;;		None
  2774 ;; Tracked objects:
  2775 ;;		On entry : 0/0
  2776 ;;		On exit  : 0/0
  2777 ;;		Unchanged: 0/0
  2778 ;; Data sizes:     COMRAM   BANK0   BANK1   BANK2   BANK3   BANK4   BANK5   BANK6   BANK7
  2779 ;;      Params:         0       0       0       0       0       0       0       0       0
  2780 ;;      Locals:         0       0       0       0       0       0       0       0       0
  2781 ;;      Temps:          0       0       0       0       0       0       0       0       0
  2782 ;;      Totals:         0       0       0       0       0       0       0       0       0
  2783 ;;Total ram usage:        0 bytes
  2784 ;; Hardware stack levels used:    1
  2785 ;; Hardware stack levels required when called:    2
  2786 ;; This function calls:
  2787 ;;		Nothing
  2788 ;; This function is called by:
  2789 ;;		_main
  2790 ;; This function uses a non-reentrant model
  2791 ;;
  2792                           
  2793                           	psect	text13
  2794  000FA0                     __ptext13:
  2795                           	opt callstack 0
  2796  000FA0                     _habilitarIntTMR1:
  2797                           	opt callstack 28
  2798  000FA0                     
  2799                           ;Interrupciones.c: 43:     PIE1bits.TMR1IE = 1;
  2800  000FA0  809D               	bsf	157,0,c	;volatile
  2801  000FA2  0012               	return		;funcret
  2802  000FA4                     __end_of_habilitarIntTMR1:
  2803                           	opt callstack 0
  2804                           
  2805 ;; *************** function _habilitarIntTMR0 *****************
  2806 ;; Defined at:
  2807 ;;		line 38 in file "Interrupciones.c"
  2808 ;; Parameters:    Size  Location     Type
  2809 ;;		None
  2810 ;; Auto vars:     Size  Location     Type
  2811 ;;		None
  2812 ;; Return value:  Size  Location     Type
  2813 ;;                  1    wreg      void 
  2814 ;; Registers used:
  2815 ;;		None
  2816 ;; Tracked objects:
  2817 ;;		On entry : 0/0
  2818 ;;		On exit  : 0/0
  2819 ;;		Unchanged: 0/0
  2820 ;; Data sizes:     COMRAM   BANK0   BANK1   BANK2   BANK3   BANK4   BANK5   BANK6   BANK7
  2821 ;;      Params:         0       0       0       0       0       0       0       0       0
  2822 ;;      Locals:         0       0       0       0       0       0       0       0       0
  2823 ;;      Temps:          0       0       0       0       0       0       0       0       0
  2824 ;;      Totals:         0       0       0       0       0       0       0       0       0
  2825 ;;Total ram usage:        0 bytes
  2826 ;; Hardware stack levels used:    1
  2827 ;; Hardware stack levels required when called:    2
  2828 ;; This function calls:
  2829 ;;		Nothing
  2830 ;; This function is called by:
  2831 ;;		_main
  2832 ;; This function uses a non-reentrant model
  2833 ;;
  2834                           
  2835                           	psect	text14
  2836  000FA4                     __ptext14:
  2837                           	opt callstack 0
  2838  000FA4                     _habilitarIntTMR0:
  2839                           	opt callstack 28
  2840  000FA4                     
  2841                           ;Interrupciones.c: 39:     INTCONbits.TMR0IE = 1;
  2842  000FA4  8AF2               	bsf	242,5,c	;volatile
  2843  000FA6  0012               	return		;funcret
  2844  000FA8                     __end_of_habilitarIntTMR0:
  2845                           	opt callstack 0
  2846                           
  2847 ;; *************** function _habilitarIntExternas *****************
  2848 ;; Defined at:
  2849 ;;		line 19 in file "Interrupciones.c"
  2850 ;; Parameters:    Size  Location     Type
  2851 ;;		None
  2852 ;; Auto vars:     Size  Location     Type
  2853 ;;		None
  2854 ;; Return value:  Size  Location     Type
  2855 ;;                  1    wreg      void 
  2856 ;; Registers used:
  2857 ;;		None
  2858 ;; Tracked objects:
  2859 ;;		On entry : 0/0
  2860 ;;		On exit  : 0/0
  2861 ;;		Unchanged: 0/0
  2862 ;; Data sizes:     COMRAM   BANK0   BANK1   BANK2   BANK3   BANK4   BANK5   BANK6   BANK7
  2863 ;;      Params:         0       0       0       0       0       0       0       0       0
  2864 ;;      Locals:         0       0       0       0       0       0       0       0       0
  2865 ;;      Temps:          0       0       0       0       0       0       0       0       0
  2866 ;;      Totals:         0       0       0       0       0       0       0       0       0
  2867 ;;Total ram usage:        0 bytes
  2868 ;; Hardware stack levels used:    1
  2869 ;; Hardware stack levels required when called:    2
  2870 ;; This function calls:
  2871 ;;		Nothing
  2872 ;; This function is called by:
  2873 ;;		_main
  2874 ;; This function uses a non-reentrant model
  2875 ;;
  2876                           
  2877                           	psect	text15
  2878  000F02                     __ptext15:
  2879                           	opt callstack 0
  2880  000F02                     _habilitarIntExternas:
  2881                           	opt callstack 28
  2882  000F02                     
  2883                           ;Interrupciones.c: 22:     INTCONbits.INT0IF = 0;
  2884  000F02  92F2               	bcf	242,1,c	;volatile
  2885                           
  2886                           ;Interrupciones.c: 23:     INTCONbits.INT0IE = 1;
  2887  000F04  88F2               	bsf	242,4,c	;volatile
  2888                           
  2889                           ;Interrupciones.c: 24:     INTCON2bits.INTEDG0 = 1;
  2890  000F06  8CF1               	bsf	241,6,c	;volatile
  2891                           
  2892                           ;Interrupciones.c: 25:     TRISBbits.RB0 = 1;
  2893  000F08  8093               	bsf	147,0,c	;volatile
  2894                           
  2895                           ;Interrupciones.c: 27:     INTCON3bits.INT1F = 0;
  2896  000F0A  90F0               	bcf	240,0,c	;volatile
  2897                           
  2898                           ;Interrupciones.c: 28:     INTCON3bits.INT1IE = 1;
  2899  000F0C  86F0               	bsf	240,3,c	;volatile
  2900                           
  2901                           ;Interrupciones.c: 29:     INTCON2bits.INTEDG1 = 1;
  2902  000F0E  8AF1               	bsf	241,5,c	;volatile
  2903                           
  2904                           ;Interrupciones.c: 30:     TRISBbits.RB1 = 1;
  2905  000F10  8293               	bsf	147,1,c	;volatile
  2906                           
  2907                           ;Interrupciones.c: 32:     INTCON3bits.INT2IF = 0;
  2908  000F12  92F0               	bcf	240,1,c	;volatile
  2909                           
  2910                           ;Interrupciones.c: 33:     INTCON3bits.INT2IE = 1;
  2911  000F14  88F0               	bsf	240,4,c	;volatile
  2912                           
  2913                           ;Interrupciones.c: 34:     INTCON2bits.INTEDG2 = 1;
  2914  000F16  88F1               	bsf	241,4,c	;volatile
  2915                           
  2916                           ;Interrupciones.c: 35:     TRISBbits.RB2 = 1;
  2917  000F18  8493               	bsf	147,2,c	;volatile
  2918  000F1A  0012               	return		;funcret
  2919  000F1C                     __end_of_habilitarIntExternas:
  2920                           	opt callstack 0
  2921                           
  2922 ;; *************** function _UARTinit *****************
  2923 ;; Defined at:
  2924 ;;		line 5 in file "UART.c"
  2925 ;; Parameters:    Size  Location     Type
  2926 ;;		None
  2927 ;; Auto vars:     Size  Location     Type
  2928 ;;		None
  2929 ;; Return value:  Size  Location     Type
  2930 ;;                  1    wreg      void 
  2931 ;; Registers used:
  2932 ;;		wreg, status,2
  2933 ;; Tracked objects:
  2934 ;;		On entry : 0/0
  2935 ;;		On exit  : 0/0
  2936 ;;		Unchanged: 0/0
  2937 ;; Data sizes:     COMRAM   BANK0   BANK1   BANK2   BANK3   BANK4   BANK5   BANK6   BANK7
  2938 ;;      Params:         0       0       0       0       0       0       0       0       0
  2939 ;;      Locals:         0       0       0       0       0       0       0       0       0
  2940 ;;      Temps:          0       0       0       0       0       0       0       0       0
  2941 ;;      Totals:         0       0       0       0       0       0       0       0       0
  2942 ;;Total ram usage:        0 bytes
  2943 ;; Hardware stack levels used:    1
  2944 ;; Hardware stack levels required when called:    2
  2945 ;; This function calls:
  2946 ;;		Nothing
  2947 ;; This function is called by:
  2948 ;;		_main
  2949 ;; This function uses a non-reentrant model
  2950 ;;
  2951                           
  2952                           	psect	text16
  2953  000F1C                     __ptext16:
  2954                           	opt callstack 0
  2955  000F1C                     _UARTinit:
  2956                           	opt callstack 28
  2957  000F1C                     
  2958                           ;UART.c: 6:     TRISCbits.RC6 = 1;
  2959  000F1C  8C94               	bsf	148,6,c	;volatile
  2960                           
  2961                           ;UART.c: 7:     TRISCbits.RC7 = 1;
  2962  000F1E  8E94               	bsf	148,7,c	;volatile
  2963  000F20                     
  2964                           ;UART.c: 9:     SPBRG = 16;
  2965  000F20  0E10               	movlw	16
  2966  000F22  6EAF               	movwf	175,c	;volatile
  2967  000F24                     
  2968                           ;UART.c: 10:     TXSTA1bits.BRGH = 1;
  2969  000F24  84AC               	bsf	172,2,c	;volatile
  2970  000F26                     
  2971                           ;UART.c: 11:     BAUDCONbits.BRG16 = 1;
  2972  000F26  86B8               	bsf	184,3,c	;volatile
  2973  000F28                     
  2974                           ;UART.c: 13:     TXSTA1bits.TX9 = 0;
  2975  000F28  9CAC               	bcf	172,6,c	;volatile
  2976  000F2A                     
  2977                           ;UART.c: 14:     TXSTA1bits.TXEN = 1;
  2978  000F2A  8AAC               	bsf	172,5,c	;volatile
  2979  000F2C                     
  2980                           ;UART.c: 15:     TXSTA1bits.SYNC = 0;
  2981  000F2C  98AC               	bcf	172,4,c	;volatile
  2982  000F2E                     
  2983                           ;UART.c: 16:     RCSTA1bits.SPEN = 1;
  2984  000F2E  8EAB               	bsf	171,7,c	;volatile
  2985  000F30                     
  2986                           ;UART.c: 17:     RCSTA1bits.RX9 = 0;
  2987  000F30  9CAB               	bcf	171,6,c	;volatile
  2988  000F32                     
  2989                           ;UART.c: 18:     RCSTA1bits.CREN = 1;
  2990  000F32  88AB               	bsf	171,4,c	;volatile
  2991  000F34  0012               	return		;funcret
  2992  000F36                     __end_of_UARTinit:
  2993                           	opt callstack 0
  2994                           
  2995 ;; *************** function _PWM_DutyCycleCCP2 *****************
  2996 ;; Defined at:
  2997 ;;		line 16 in file "PWMCCP2.c"
  2998 ;; Parameters:    Size  Location     Type
  2999 ;;  WantedDutyCy    1    wreg     unsigned char 
  3000 ;; Auto vars:     Size  Location     Type
  3001 ;;  WantedDutyCy    1   56[COMRAM] unsigned char 
  3002 ;;  PWMDutyValue    2   57[COMRAM] unsigned int 
  3003 ;; Return value:  Size  Location     Type
  3004 ;;                  1    wreg      void 
  3005 ;; Registers used:
  3006 ;;		wreg, status,2, status,0, prodl, prodh, cstack
  3007 ;; Tracked objects:
  3008 ;;		On entry : 0/0
  3009 ;;		On exit  : 0/0
  3010 ;;		Unchanged: 0/0
  3011 ;; Data sizes:     COMRAM   BANK0   BANK1   BANK2   BANK3   BANK4   BANK5   BANK6   BANK7
  3012 ;;      Params:         0       0       0       0       0       0       0       0       0
  3013 ;;      Locals:         7       0       0       0       0       0       0       0       0
  3014 ;;      Temps:          2       0       0       0       0       0       0       0       0
  3015 ;;      Totals:         9       0       0       0       0       0       0       0       0
  3016 ;;Total ram usage:        9 bytes
  3017 ;; Hardware stack levels used:    1
  3018 ;; Hardware stack levels required when called:    3
  3019 ;; This function calls:
  3020 ;;		___flmul
  3021 ;;		___fltol
  3022 ;;		___xxtofl
  3023 ;; This function is called by:
  3024 ;;		_main
  3025 ;; This function uses a non-reentrant model
  3026 ;;
  3027                           
  3028                           	psect	text17
  3029  000C70                     __ptext17:
  3030                           	opt callstack 0
  3031  000C70                     _PWM_DutyCycleCCP2:
  3032                           	opt callstack 27
  3033                           
  3034                           ;incstack = 0
  3035                           ;PWM_DutyCycleCCP2@WantedDutyCycle stored from wreg
  3036  000C70  6E39               	movwf	PWM_DutyCycleCCP2@WantedDutyCycle^0,c
  3037  000C72                     
  3038                           ;PWMCCP2.c: 18:     unsigned int PWMDutyValue;;PWMCCP2.c: 19:     PWMDutyValue = (Wanted
      +                          DutyCycle * 0.01)*1000;
  3039  000C72  0E0A               	movlw	10
  3040  000C74  6E14               	movwf	___flmul@a^0,c
  3041  000C76  0ED7               	movlw	215
  3042  000C78  6E15               	movwf	(___flmul@a+1)^0,c
  3043  000C7A  0E23               	movlw	35
  3044  000C7C  6E16               	movwf	(___flmul@a+2)^0,c
  3045  000C7E  0E3C               	movlw	60
  3046  000C80  6E17               	movwf	(___flmul@a+3)^0,c
  3047  000C82  5039               	movf	PWM_DutyCycleCCP2@WantedDutyCycle^0,w,c
  3048  000C84  6E02               	movwf	___xxtofl@val^0,c
  3049  000C86  6A03               	clrf	(___xxtofl@val+1)^0,c
  3050  000C88  6A04               	clrf	(___xxtofl@val+2)^0,c
  3051  000C8A  6A05               	clrf	(___xxtofl@val+3)^0,c
  3052  000C8C  0E01               	movlw	1
  3053  000C8E  EC74  F003         	call	___xxtofl
  3054  000C92  C002  F010         	movff	?___xxtofl,___flmul@b
  3055  000C96  C003  F011         	movff	?___xxtofl+1,___flmul@b+1
  3056  000C9A  C004  F012         	movff	?___xxtofl+2,___flmul@b+2
  3057  000C9E  C005  F013         	movff	?___xxtofl+3,___flmul@b+3
  3058  000CA2  EC16  F000         	call	___flmul	;wreg free
  3059  000CA6  C010  F035         	movff	?___flmul,_PWM_DutyCycleCCP2$2205
  3060  000CAA  C011  F036         	movff	?___flmul+1,_PWM_DutyCycleCCP2$2205+1
  3061  000CAE  C012  F037         	movff	?___flmul+2,_PWM_DutyCycleCCP2$2205+2
  3062  000CB2  C013  F038         	movff	?___flmul+3,_PWM_DutyCycleCCP2$2205+3
  3063                           
  3064                           ;PWMCCP2.c: 18:     unsigned int PWMDutyValue;;PWMCCP2.c: 19:     PWMDutyValue = (Wanted
      +                          DutyCycle * 0.01)*1000;
  3065  000CB6  0E00               	movlw	0
  3066  000CB8  6E14               	movwf	___flmul@a^0,c
  3067  000CBA  0E00               	movlw	0
  3068  000CBC  6E15               	movwf	(___flmul@a+1)^0,c
  3069  000CBE  0E7A               	movlw	122
  3070  000CC0  6E16               	movwf	(___flmul@a+2)^0,c
  3071  000CC2  0E44               	movlw	68
  3072  000CC4  6E17               	movwf	(___flmul@a+3)^0,c
  3073  000CC6  C035  F010         	movff	_PWM_DutyCycleCCP2$2205,___flmul@b
  3074  000CCA  C036  F011         	movff	_PWM_DutyCycleCCP2$2205+1,___flmul@b+1
  3075  000CCE  C037  F012         	movff	_PWM_DutyCycleCCP2$2205+2,___flmul@b+2
  3076  000CD2  C038  F013         	movff	_PWM_DutyCycleCCP2$2205+3,___flmul@b+3
  3077  000CD6  EC16  F000         	call	___flmul	;wreg free
  3078  000CDA  C010  F029         	movff	?___flmul,___fltol@f1
  3079  000CDE  C011  F02A         	movff	?___flmul+1,___fltol@f1+1
  3080  000CE2  C012  F02B         	movff	?___flmul+2,___fltol@f1+2
  3081  000CE6  C013  F02C         	movff	?___flmul+3,___fltol@f1+3
  3082  000CEA  ECB5  F005         	call	___fltol	;wreg free
  3083  000CEE  C029  F03A         	movff	?___fltol,PWM_DutyCycleCCP2@PWMDutyValue
  3084  000CF2  C02A  F03B         	movff	?___fltol+1,PWM_DutyCycleCCP2@PWMDutyValue+1
  3085  000CF6                     
  3086                           ;PWMCCP2.c: 21:     CCP2CONbits.DC2B = (PWMDutyValue & 0x03);
  3087  000CF6  C03A  F033         	movff	PWM_DutyCycleCCP2@PWMDutyValue,??_PWM_DutyCycleCCP2
  3088  000CFA  0E03               	movlw	3
  3089  000CFC  1633               	andwf	??_PWM_DutyCycleCCP2^0,f,c
  3090  000CFE  3A33               	swapf	??_PWM_DutyCycleCCP2^0,f,c
  3091  000D00  50BA               	movf	186,w,c	;volatile
  3092  000D02  1833               	xorwf	??_PWM_DutyCycleCCP2^0,w,c
  3093  000D04  0BCF               	andlw	-49
  3094  000D06  1833               	xorwf	??_PWM_DutyCycleCCP2^0,w,c
  3095  000D08  6EBA               	movwf	186,c	;volatile
  3096  000D0A                     
  3097                           ;PWMCCP2.c: 22:     CCPR2L = ((PWMDutyValue >> 2)&0xFF);
  3098  000D0A  C03A  F033         	movff	PWM_DutyCycleCCP2@PWMDutyValue,??_PWM_DutyCycleCCP2
  3099  000D0E  C03B  F034         	movff	PWM_DutyCycleCCP2@PWMDutyValue+1,??_PWM_DutyCycleCCP2+1
  3100  000D12  90D8               	bcf	status,0,c
  3101  000D14  3234               	rrcf	(??_PWM_DutyCycleCCP2+1)^0,f,c
  3102  000D16  3233               	rrcf	??_PWM_DutyCycleCCP2^0,f,c
  3103  000D18  90D8               	bcf	status,0,c
  3104  000D1A  3234               	rrcf	(??_PWM_DutyCycleCCP2+1)^0,f,c
  3105  000D1C  3233               	rrcf	??_PWM_DutyCycleCCP2^0,f,c
  3106  000D1E  5033               	movf	??_PWM_DutyCycleCCP2^0,w,c
  3107  000D20  6EBB               	movwf	187,c	;volatile
  3108  000D22  0012               	return		;funcret
  3109  000D24                     __end_of_PWM_DutyCycleCCP2:
  3110                           	opt callstack 0
  3111                           
  3112 ;; *************** function _PWM_DutyCycleCCP1 *****************
  3113 ;; Defined at:
  3114 ;;		line 17 in file "PWMCCP1.c"
  3115 ;; Parameters:    Size  Location     Type
  3116 ;;  WantedDutyCy    1    wreg     unsigned char 
  3117 ;; Auto vars:     Size  Location     Type
  3118 ;;  WantedDutyCy    1   56[COMRAM] unsigned char 
  3119 ;;  PWMDutyValue    2   57[COMRAM] unsigned int 
  3120 ;; Return value:  Size  Location     Type
  3121 ;;                  1    wreg      void 
  3122 ;; Registers used:
  3123 ;;		wreg, status,2, status,0, prodl, prodh, cstack
  3124 ;; Tracked objects:
  3125 ;;		On entry : 0/0
  3126 ;;		On exit  : 0/0
  3127 ;;		Unchanged: 0/0
  3128 ;; Data sizes:     COMRAM   BANK0   BANK1   BANK2   BANK3   BANK4   BANK5   BANK6   BANK7
  3129 ;;      Params:         0       0       0       0       0       0       0       0       0
  3130 ;;      Locals:         7       0       0       0       0       0       0       0       0
  3131 ;;      Temps:          2       0       0       0       0       0       0       0       0
  3132 ;;      Totals:         9       0       0       0       0       0       0       0       0
  3133 ;;Total ram usage:        9 bytes
  3134 ;; Hardware stack levels used:    1
  3135 ;; Hardware stack levels required when called:    3
  3136 ;; This function calls:
  3137 ;;		___flmul
  3138 ;;		___fltol
  3139 ;;		___xxtofl
  3140 ;; This function is called by:
  3141 ;;		_main
  3142 ;; This function uses a non-reentrant model
  3143 ;;
  3144                           
  3145                           	psect	text18
  3146  000D24                     __ptext18:
  3147                           	opt callstack 0
  3148  000D24                     _PWM_DutyCycleCCP1:
  3149                           	opt callstack 27
  3150                           
  3151                           ;incstack = 0
  3152                           ;PWM_DutyCycleCCP1@WantedDutyCycle stored from wreg
  3153  000D24  6E39               	movwf	PWM_DutyCycleCCP1@WantedDutyCycle^0,c
  3154  000D26                     
  3155                           ;PWMCCP1.c: 19:     unsigned int PWMDutyValue;;PWMCCP1.c: 20:     PWMDutyValue = (Wanted
      +                          DutyCycle * 0.01)*1000;
  3156  000D26  0E0A               	movlw	10
  3157  000D28  6E14               	movwf	___flmul@a^0,c
  3158  000D2A  0ED7               	movlw	215
  3159  000D2C  6E15               	movwf	(___flmul@a+1)^0,c
  3160  000D2E  0E23               	movlw	35
  3161  000D30  6E16               	movwf	(___flmul@a+2)^0,c
  3162  000D32  0E3C               	movlw	60
  3163  000D34  6E17               	movwf	(___flmul@a+3)^0,c
  3164  000D36  5039               	movf	PWM_DutyCycleCCP1@WantedDutyCycle^0,w,c
  3165  000D38  6E02               	movwf	___xxtofl@val^0,c
  3166  000D3A  6A03               	clrf	(___xxtofl@val+1)^0,c
  3167  000D3C  6A04               	clrf	(___xxtofl@val+2)^0,c
  3168  000D3E  6A05               	clrf	(___xxtofl@val+3)^0,c
  3169  000D40  0E01               	movlw	1
  3170  000D42  EC74  F003         	call	___xxtofl
  3171  000D46  C002  F010         	movff	?___xxtofl,___flmul@b
  3172  000D4A  C003  F011         	movff	?___xxtofl+1,___flmul@b+1
  3173  000D4E  C004  F012         	movff	?___xxtofl+2,___flmul@b+2
  3174  000D52  C005  F013         	movff	?___xxtofl+3,___flmul@b+3
  3175  000D56  EC16  F000         	call	___flmul	;wreg free
  3176  000D5A  C010  F035         	movff	?___flmul,_PWM_DutyCycleCCP1$2206
  3177  000D5E  C011  F036         	movff	?___flmul+1,_PWM_DutyCycleCCP1$2206+1
  3178  000D62  C012  F037         	movff	?___flmul+2,_PWM_DutyCycleCCP1$2206+2
  3179  000D66  C013  F038         	movff	?___flmul+3,_PWM_DutyCycleCCP1$2206+3
  3180                           
  3181                           ;PWMCCP1.c: 19:     unsigned int PWMDutyValue;;PWMCCP1.c: 20:     PWMDutyValue = (Wanted
      +                          DutyCycle * 0.01)*1000;
  3182  000D6A  0E00               	movlw	0
  3183  000D6C  6E14               	movwf	___flmul@a^0,c
  3184  000D6E  0E00               	movlw	0
  3185  000D70  6E15               	movwf	(___flmul@a+1)^0,c
  3186  000D72  0E7A               	movlw	122
  3187  000D74  6E16               	movwf	(___flmul@a+2)^0,c
  3188  000D76  0E44               	movlw	68
  3189  000D78  6E17               	movwf	(___flmul@a+3)^0,c
  3190  000D7A  C035  F010         	movff	_PWM_DutyCycleCCP1$2206,___flmul@b
  3191  000D7E  C036  F011         	movff	_PWM_DutyCycleCCP1$2206+1,___flmul@b+1
  3192  000D82  C037  F012         	movff	_PWM_DutyCycleCCP1$2206+2,___flmul@b+2
  3193  000D86  C038  F013         	movff	_PWM_DutyCycleCCP1$2206+3,___flmul@b+3
  3194  000D8A  EC16  F000         	call	___flmul	;wreg free
  3195  000D8E  C010  F029         	movff	?___flmul,___fltol@f1
  3196  000D92  C011  F02A         	movff	?___flmul+1,___fltol@f1+1
  3197  000D96  C012  F02B         	movff	?___flmul+2,___fltol@f1+2
  3198  000D9A  C013  F02C         	movff	?___flmul+3,___fltol@f1+3
  3199  000D9E  ECB5  F005         	call	___fltol	;wreg free
  3200  000DA2  C029  F03A         	movff	?___fltol,PWM_DutyCycleCCP1@PWMDutyValue
  3201  000DA6  C02A  F03B         	movff	?___fltol+1,PWM_DutyCycleCCP1@PWMDutyValue+1
  3202  000DAA                     
  3203                           ;PWMCCP1.c: 22:     CCP1CONbits.DC1B = (PWMDutyValue & 0x03);
  3204  000DAA  C03A  F033         	movff	PWM_DutyCycleCCP1@PWMDutyValue,??_PWM_DutyCycleCCP1
  3205  000DAE  0E03               	movlw	3
  3206  000DB0  1633               	andwf	??_PWM_DutyCycleCCP1^0,f,c
  3207  000DB2  3A33               	swapf	??_PWM_DutyCycleCCP1^0,f,c
  3208  000DB4  50BD               	movf	189,w,c	;volatile
  3209  000DB6  1833               	xorwf	??_PWM_DutyCycleCCP1^0,w,c
  3210  000DB8  0BCF               	andlw	-49
  3211  000DBA  1833               	xorwf	??_PWM_DutyCycleCCP1^0,w,c
  3212  000DBC  6EBD               	movwf	189,c	;volatile
  3213  000DBE                     
  3214                           ;PWMCCP1.c: 23:     CCPR1L = ((PWMDutyValue >> 2)&0xFF);
  3215  000DBE  C03A  F033         	movff	PWM_DutyCycleCCP1@PWMDutyValue,??_PWM_DutyCycleCCP1
  3216  000DC2  C03B  F034         	movff	PWM_DutyCycleCCP1@PWMDutyValue+1,??_PWM_DutyCycleCCP1+1
  3217  000DC6  90D8               	bcf	status,0,c
  3218  000DC8  3234               	rrcf	(??_PWM_DutyCycleCCP1+1)^0,f,c
  3219  000DCA  3233               	rrcf	??_PWM_DutyCycleCCP1^0,f,c
  3220  000DCC  90D8               	bcf	status,0,c
  3221  000DCE  3234               	rrcf	(??_PWM_DutyCycleCCP1+1)^0,f,c
  3222  000DD0  3233               	rrcf	??_PWM_DutyCycleCCP1^0,f,c
  3223  000DD2  5033               	movf	??_PWM_DutyCycleCCP1^0,w,c
  3224  000DD4  6EBE               	movwf	190,c	;volatile
  3225  000DD6  0012               	return		;funcret
  3226  000DD8                     __end_of_PWM_DutyCycleCCP1:
  3227                           	opt callstack 0
  3228                           
  3229 ;; *************** function ___xxtofl *****************
  3230 ;; Defined at:
  3231 ;;		line 10 in file "C:\Program Files (x86)\Microchip\xc8\v2.10\pic\sources\c99\common\xxtofl.c"
  3232 ;; Parameters:    Size  Location     Type
  3233 ;;  sign            1    wreg     unsigned char 
  3234 ;;  val             4    1[COMRAM] long 
  3235 ;; Auto vars:     Size  Location     Type
  3236 ;;  sign            1    9[COMRAM] unsigned char 
  3237 ;;  arg             4   11[COMRAM] unsigned long 
  3238 ;;  exp             1   10[COMRAM] unsigned char 
  3239 ;; Return value:  Size  Location     Type
  3240 ;;                  4    1[COMRAM] unsigned char 
  3241 ;; Registers used:
  3242 ;;		wreg, status,2, status,0
  3243 ;; Tracked objects:
  3244 ;;		On entry : 0/0
  3245 ;;		On exit  : 0/0
  3246 ;;		Unchanged: 0/0
  3247 ;; Data sizes:     COMRAM   BANK0   BANK1   BANK2   BANK3   BANK4   BANK5   BANK6   BANK7
  3248 ;;      Params:         4       0       0       0       0       0       0       0       0
  3249 ;;      Locals:         6       0       0       0       0       0       0       0       0
  3250 ;;      Temps:          4       0       0       0       0       0       0       0       0
  3251 ;;      Totals:        14       0       0       0       0       0       0       0       0
  3252 ;;Total ram usage:       14 bytes
  3253 ;; Hardware stack levels used:    1
  3254 ;; Hardware stack levels required when called:    2
  3255 ;; This function calls:
  3256 ;;		Nothing
  3257 ;; This function is called by:
  3258 ;;		_PWM_DutyCycleCCP2
  3259 ;;		_PWM_DutyCycleCCP1
  3260 ;; This function uses a non-reentrant model
  3261 ;;
  3262                           
  3263                           	psect	text19
  3264  0006E8                     __ptext19:
  3265                           	opt callstack 0
  3266  0006E8                     ___xxtofl:
  3267                           	opt callstack 27
  3268                           
  3269                           ;incstack = 0
  3270                           ;___xxtofl@sign stored from wreg
  3271  0006E8  6E0A               	movwf	___xxtofl@sign^0,c
  3272  0006EA  500A               	movf	___xxtofl@sign^0,w,c
  3273  0006EC  B4D8               	btfsc	status,2,c
  3274  0006EE  EF7B  F003         	goto	u901
  3275  0006F2  EF7D  F003         	goto	u900
  3276  0006F6                     u901:
  3277  0006F6  EF9F  F003         	goto	l993
  3278  0006FA                     u900:
  3279  0006FA  BE05               	btfsc	(___xxtofl@val+3)^0,7,c
  3280  0006FC  EF84  F003         	goto	u910
  3281  000700  EF82  F003         	goto	u911
  3282  000704                     u911:
  3283  000704  EF9F  F003         	goto	l993
  3284  000708                     u910:
  3285  000708  C002  F006         	movff	___xxtofl@val,??___xxtofl
  3286  00070C  C003  F007         	movff	___xxtofl@val+1,??___xxtofl+1
  3287  000710  C004  F008         	movff	___xxtofl@val+2,??___xxtofl+2
  3288  000714  C005  F009         	movff	___xxtofl@val+3,??___xxtofl+3
  3289  000718  1E06               	comf	??___xxtofl^0,f,c
  3290  00071A  1E07               	comf	(??___xxtofl+1)^0,f,c
  3291  00071C  1E08               	comf	(??___xxtofl+2)^0,f,c
  3292  00071E  1E09               	comf	(??___xxtofl+3)^0,f,c
  3293  000720  2A06               	incf	??___xxtofl^0,f,c
  3294  000722  0E00               	movlw	0
  3295  000724  2207               	addwfc	(??___xxtofl+1)^0,f,c
  3296  000726  2208               	addwfc	(??___xxtofl+2)^0,f,c
  3297  000728  2209               	addwfc	(??___xxtofl+3)^0,f,c
  3298  00072A  C006  F00C         	movff	??___xxtofl,___xxtofl@arg
  3299  00072E  C007  F00D         	movff	??___xxtofl+1,___xxtofl@arg+1
  3300  000732  C008  F00E         	movff	??___xxtofl+2,___xxtofl@arg+2
  3301  000736  C009  F00F         	movff	??___xxtofl+3,___xxtofl@arg+3
  3302  00073A  EFA7  F003         	goto	l1765
  3303  00073E                     l993:
  3304  00073E  C002  F00C         	movff	___xxtofl@val,___xxtofl@arg
  3305  000742  C003  F00D         	movff	___xxtofl@val+1,___xxtofl@arg+1
  3306  000746  C004  F00E         	movff	___xxtofl@val+2,___xxtofl@arg+2
  3307  00074A  C005  F00F         	movff	___xxtofl@val+3,___xxtofl@arg+3
  3308  00074E                     l1765:
  3309  00074E  5002               	movf	___xxtofl@val^0,w,c
  3310  000750  1003               	iorwf	(___xxtofl@val+1)^0,w,c
  3311  000752  1004               	iorwf	(___xxtofl@val+2)^0,w,c
  3312  000754  1005               	iorwf	(___xxtofl@val+3)^0,w,c
  3313  000756  A4D8               	btfss	status,2,c
  3314  000758  EFB0  F003         	goto	u921
  3315  00075C  EFB2  F003         	goto	u920
  3316  000760                     u921:
  3317  000760  EFBC  F003         	goto	l1771
  3318  000764                     u920:
  3319  000764  0E00               	movlw	0
  3320  000766  6E02               	movwf	?___xxtofl^0,c
  3321  000768  0E00               	movlw	0
  3322  00076A  6E03               	movwf	(?___xxtofl+1)^0,c
  3323  00076C  0E00               	movlw	0
  3324  00076E  6E04               	movwf	(?___xxtofl+2)^0,c
  3325  000770  0E00               	movlw	0
  3326  000772  6E05               	movwf	(?___xxtofl+3)^0,c
  3327  000774  EF4D  F004         	goto	l996
  3328  000778                     l1771:
  3329  000778  0E96               	movlw	150
  3330  00077A  6E0B               	movwf	___xxtofl@exp^0,c
  3331  00077C  EFC6  F003         	goto	l1775
  3332  000780                     l1773:
  3333  000780  2A0B               	incf	___xxtofl@exp^0,f,c
  3334  000782  90D8               	bcf	status,0,c
  3335  000784  320F               	rrcf	(___xxtofl@arg+3)^0,f,c
  3336  000786  320E               	rrcf	(___xxtofl@arg+2)^0,f,c
  3337  000788  320D               	rrcf	(___xxtofl@arg+1)^0,f,c
  3338  00078A  320C               	rrcf	___xxtofl@arg^0,f,c
  3339  00078C                     l1775:
  3340  00078C  0E00               	movlw	0
  3341  00078E  140C               	andwf	___xxtofl@arg^0,w,c
  3342  000790  6E06               	movwf	??___xxtofl^0,c
  3343  000792  0E00               	movlw	0
  3344  000794  140D               	andwf	(___xxtofl@arg+1)^0,w,c
  3345  000796  6E07               	movwf	(??___xxtofl+1)^0,c
  3346  000798  0E00               	movlw	0
  3347  00079A  140E               	andwf	(___xxtofl@arg+2)^0,w,c
  3348  00079C  6E08               	movwf	(??___xxtofl+2)^0,c
  3349  00079E  0EFE               	movlw	254
  3350  0007A0  140F               	andwf	(___xxtofl@arg+3)^0,w,c
  3351  0007A2  6E09               	movwf	(??___xxtofl+3)^0,c
  3352  0007A4  5006               	movf	??___xxtofl^0,w,c
  3353  0007A6  1007               	iorwf	(??___xxtofl+1)^0,w,c
  3354  0007A8  1008               	iorwf	(??___xxtofl+2)^0,w,c
  3355  0007AA  1009               	iorwf	(??___xxtofl+3)^0,w,c
  3356  0007AC  A4D8               	btfss	status,2,c
  3357  0007AE  EFDB  F003         	goto	u931
  3358  0007B2  EFDD  F003         	goto	u930
  3359  0007B6                     u931:
  3360  0007B6  EFC0  F003         	goto	l1773
  3361  0007BA                     u930:
  3362  0007BA  EFEB  F003         	goto	l1000
  3363  0007BE                     l1777:
  3364  0007BE  2A0B               	incf	___xxtofl@exp^0,f,c
  3365  0007C0  0E01               	movlw	1
  3366  0007C2  260C               	addwf	___xxtofl@arg^0,f,c
  3367  0007C4  0E00               	movlw	0
  3368  0007C6  220D               	addwfc	(___xxtofl@arg+1)^0,f,c
  3369  0007C8  220E               	addwfc	(___xxtofl@arg+2)^0,f,c
  3370  0007CA  220F               	addwfc	(___xxtofl@arg+3)^0,f,c
  3371  0007CC  90D8               	bcf	status,0,c
  3372  0007CE  320F               	rrcf	(___xxtofl@arg+3)^0,f,c
  3373  0007D0  320E               	rrcf	(___xxtofl@arg+2)^0,f,c
  3374  0007D2  320D               	rrcf	(___xxtofl@arg+1)^0,f,c
  3375  0007D4  320C               	rrcf	___xxtofl@arg^0,f,c
  3376  0007D6                     l1000:
  3377  0007D6  0E00               	movlw	0
  3378  0007D8  140C               	andwf	___xxtofl@arg^0,w,c
  3379  0007DA  6E06               	movwf	??___xxtofl^0,c
  3380  0007DC  0E00               	movlw	0
  3381  0007DE  140D               	andwf	(___xxtofl@arg+1)^0,w,c
  3382  0007E0  6E07               	movwf	(??___xxtofl+1)^0,c
  3383  0007E2  0E00               	movlw	0
  3384  0007E4  140E               	andwf	(___xxtofl@arg+2)^0,w,c
  3385  0007E6  6E08               	movwf	(??___xxtofl+2)^0,c
  3386  0007E8  0EFF               	movlw	255
  3387  0007EA  140F               	andwf	(___xxtofl@arg+3)^0,w,c
  3388  0007EC  6E09               	movwf	(??___xxtofl+3)^0,c
  3389  0007EE  5006               	movf	??___xxtofl^0,w,c
  3390  0007F0  1007               	iorwf	(??___xxtofl+1)^0,w,c
  3391  0007F2  1008               	iorwf	(??___xxtofl+2)^0,w,c
  3392  0007F4  1009               	iorwf	(??___xxtofl+3)^0,w,c
  3393  0007F6  A4D8               	btfss	status,2,c
  3394  0007F8  EF00  F004         	goto	u941
  3395  0007FC  EF02  F004         	goto	u940
  3396  000800                     u941:
  3397  000800  EFDF  F003         	goto	l1777
  3398  000804                     u940:
  3399  000804  EF0A  F004         	goto	l1785
  3400  000808                     l1783:
  3401  000808  060B               	decf	___xxtofl@exp^0,f,c
  3402  00080A  90D8               	bcf	status,0,c
  3403  00080C  360C               	rlcf	___xxtofl@arg^0,f,c
  3404  00080E  360D               	rlcf	(___xxtofl@arg+1)^0,f,c
  3405  000810  360E               	rlcf	(___xxtofl@arg+2)^0,f,c
  3406  000812  360F               	rlcf	(___xxtofl@arg+3)^0,f,c
  3407  000814                     l1785:
  3408  000814  BE0E               	btfsc	(___xxtofl@arg+2)^0,7,c
  3409  000816  EF0F  F004         	goto	u951
  3410  00081A  EF11  F004         	goto	u950
  3411  00081E                     u951:
  3412  00081E  EF19  F004         	goto	l1007
  3413  000822                     u950:
  3414  000822  0E02               	movlw	2
  3415  000824  600B               	cpfslt	___xxtofl@exp^0,c
  3416  000826  EF17  F004         	goto	u961
  3417  00082A  EF19  F004         	goto	u960
  3418  00082E                     u961:
  3419  00082E  EF04  F004         	goto	l1783
  3420  000832                     u960:
  3421  000832                     l1007:
  3422  000832  B00B               	btfsc	___xxtofl@exp^0,0,c
  3423  000834  EF1E  F004         	goto	u971
  3424  000838  EF20  F004         	goto	u970
  3425  00083C                     u971:
  3426  00083C  EF21  F004         	goto	l1791
  3427  000840                     u970:
  3428  000840  9E0E               	bcf	(___xxtofl@arg+2)^0,7,c
  3429  000842                     l1791:
  3430  000842  90D8               	bcf	status,0,c
  3431  000844  320B               	rrcf	___xxtofl@exp^0,f,c
  3432  000846  C00B  F006         	movff	___xxtofl@exp,??___xxtofl
  3433  00084A  6A07               	clrf	(??___xxtofl+1)^0,c
  3434  00084C  6A08               	clrf	(??___xxtofl+2)^0,c
  3435  00084E  6A09               	clrf	(??___xxtofl+3)^0,c
  3436  000850  C006  F009         	movff	??___xxtofl,??___xxtofl+3
  3437  000854  6A08               	clrf	(??___xxtofl+2)^0,c
  3438  000856  6A07               	clrf	(??___xxtofl+1)^0,c
  3439  000858  6A06               	clrf	??___xxtofl^0,c
  3440  00085A  5006               	movf	??___xxtofl^0,w,c
  3441  00085C  120C               	iorwf	___xxtofl@arg^0,f,c
  3442  00085E  5007               	movf	(??___xxtofl+1)^0,w,c
  3443  000860  120D               	iorwf	(___xxtofl@arg+1)^0,f,c
  3444  000862  5008               	movf	(??___xxtofl+2)^0,w,c
  3445  000864  120E               	iorwf	(___xxtofl@arg+2)^0,f,c
  3446  000866  5009               	movf	(??___xxtofl+3)^0,w,c
  3447  000868  120F               	iorwf	(___xxtofl@arg+3)^0,f,c
  3448  00086A  500A               	movf	___xxtofl@sign^0,w,c
  3449  00086C  B4D8               	btfsc	status,2,c
  3450  00086E  EF3B  F004         	goto	u981
  3451  000872  EF3D  F004         	goto	u980
  3452  000876                     u981:
  3453  000876  EF45  F004         	goto	l1801
  3454  00087A                     u980:
  3455  00087A  BE05               	btfsc	(___xxtofl@val+3)^0,7,c
  3456  00087C  EF44  F004         	goto	u990
  3457  000880  EF42  F004         	goto	u991
  3458  000884                     u991:
  3459  000884  EF45  F004         	goto	l1801
  3460  000888                     u990:
  3461  000888  8E0F               	bsf	(___xxtofl@arg+3)^0,7,c
  3462  00088A                     l1801:
  3463  00088A  C00C  F002         	movff	___xxtofl@arg,?___xxtofl
  3464  00088E  C00D  F003         	movff	___xxtofl@arg+1,?___xxtofl+1
  3465  000892  C00E  F004         	movff	___xxtofl@arg+2,?___xxtofl+2
  3466  000896  C00F  F005         	movff	___xxtofl@arg+3,?___xxtofl+3
  3467  00089A                     l996:
  3468  00089A  0012               	return		;funcret
  3469  00089C                     __end_of___xxtofl:
  3470                           	opt callstack 0
  3471                           
  3472 ;; *************** function ___fltol *****************
  3473 ;; Defined at:
  3474 ;;		line 43 in file "C:\Program Files (x86)\Microchip\xc8\v2.10\pic\sources\c99\common\fltol.c"
  3475 ;; Parameters:    Size  Location     Type
  3476 ;;  f1              4   40[COMRAM] unsigned char 
  3477 ;; Auto vars:     Size  Location     Type
  3478 ;;  exp1            1   49[COMRAM] unsigned char 
  3479 ;;  sign1           1   48[COMRAM] unsigned char 
  3480 ;; Return value:  Size  Location     Type
  3481 ;;                  4   40[COMRAM] long 
  3482 ;; Registers used:
  3483 ;;		wreg, status,2, status,0
  3484 ;; Tracked objects:
  3485 ;;		On entry : 0/0
  3486 ;;		On exit  : 0/0
  3487 ;;		Unchanged: 0/0
  3488 ;; Data sizes:     COMRAM   BANK0   BANK1   BANK2   BANK3   BANK4   BANK5   BANK6   BANK7
  3489 ;;      Params:         4       0       0       0       0       0       0       0       0
  3490 ;;      Locals:         2       0       0       0       0       0       0       0       0
  3491 ;;      Temps:          4       0       0       0       0       0       0       0       0
  3492 ;;      Totals:        10       0       0       0       0       0       0       0       0
  3493 ;;Total ram usage:       10 bytes
  3494 ;; Hardware stack levels used:    1
  3495 ;; Hardware stack levels required when called:    2
  3496 ;; This function calls:
  3497 ;;		Nothing
  3498 ;; This function is called by:
  3499 ;;		_PWM_DutyCycleCCP2
  3500 ;;		_PWM_DutyCycleCCP1
  3501 ;; This function uses a non-reentrant model
  3502 ;;
  3503                           
  3504                           	psect	text20
  3505  000B6A                     __ptext20:
  3506                           	opt callstack 0
  3507  000B6A                     ___fltol:
  3508                           	opt callstack 27
  3509  000B6A  342B               	rlcf	(___fltol@f1+2)^0,w,c
  3510  000B6C  342C               	rlcf	(___fltol@f1+3)^0,w,c
  3511  000B6E  6E32               	movwf	___fltol@exp1^0,c
  3512  000B70  5032               	movf	___fltol@exp1^0,w,c
  3513  000B72  A4D8               	btfss	status,2,c
  3514  000B74  EFBE  F005         	goto	u831
  3515  000B78  EFC0  F005         	goto	u830
  3516  000B7C                     u831:
  3517  000B7C  EFCA  F005         	goto	l1721
  3518  000B80                     u830:
  3519  000B80                     l1717:
  3520  000B80  0E00               	movlw	0
  3521  000B82  6E29               	movwf	?___fltol^0,c
  3522  000B84  0E00               	movlw	0
  3523  000B86  6E2A               	movwf	(?___fltol+1)^0,c
  3524  000B88  0E00               	movlw	0
  3525  000B8A  6E2B               	movwf	(?___fltol+2)^0,c
  3526  000B8C  0E00               	movlw	0
  3527  000B8E  6E2C               	movwf	(?___fltol+3)^0,c
  3528  000B90  EF37  F006         	goto	l635
  3529  000B94                     l1721:
  3530  000B94  C029  F02D         	movff	___fltol@f1,??___fltol
  3531  000B98  C02A  F02E         	movff	___fltol@f1+1,??___fltol+1
  3532  000B9C  C02B  F02F         	movff	___fltol@f1+2,??___fltol+2
  3533  000BA0  C02C  F030         	movff	___fltol@f1+3,??___fltol+3
  3534  000BA4  0E20               	movlw	32
  3535  000BA6  EFDA  F005         	goto	u840
  3536  000BAA                     u845:
  3537  000BAA  90D8               	bcf	status,0,c
  3538  000BAC  3230               	rrcf	(??___fltol+3)^0,f,c
  3539  000BAE  322F               	rrcf	(??___fltol+2)^0,f,c
  3540  000BB0  322E               	rrcf	(??___fltol+1)^0,f,c
  3541  000BB2  322D               	rrcf	??___fltol^0,f,c
  3542  000BB4                     u840:
  3543  000BB4  2EE8               	decfsz	wreg,f,c
  3544  000BB6  EFD5  F005         	goto	u845
  3545  000BBA  502D               	movf	??___fltol^0,w,c
  3546  000BBC  6E31               	movwf	___fltol@sign1^0,c
  3547  000BBE  8E2B               	bsf	(___fltol@f1+2)^0,7,c
  3548  000BC0  0EFF               	movlw	255
  3549  000BC2  1629               	andwf	___fltol@f1^0,f,c
  3550  000BC4  0EFF               	movlw	255
  3551  000BC6  162A               	andwf	(___fltol@f1+1)^0,f,c
  3552  000BC8  0EFF               	movlw	255
  3553  000BCA  162B               	andwf	(___fltol@f1+2)^0,f,c
  3554  000BCC  0E00               	movlw	0
  3555  000BCE  162C               	andwf	(___fltol@f1+3)^0,f,c
  3556  000BD0  0E96               	movlw	150
  3557  000BD2  5E32               	subwf	___fltol@exp1^0,f,c
  3558  000BD4  BE32               	btfsc	___fltol@exp1^0,7,c
  3559  000BD6  EFF1  F005         	goto	u850
  3560  000BDA  EFEF  F005         	goto	u851
  3561  000BDE                     u851:
  3562  000BDE  EF07  F006         	goto	l1741
  3563  000BE2                     u850:
  3564  000BE2  5032               	movf	___fltol@exp1^0,w,c
  3565  000BE4  0A80               	xorlw	128
  3566  000BE6  0F97               	addlw	151
  3567  000BE8  B0D8               	btfsc	status,0,c
  3568  000BEA  EFF9  F005         	goto	u861
  3569  000BEE  EFFB  F005         	goto	u860
  3570  000BF2                     u861:
  3571  000BF2  EFFD  F005         	goto	l1737
  3572  000BF6                     u860:
  3573  000BF6  EFC0  F005         	goto	l1717
  3574  000BFA                     l1737:
  3575  000BFA  90D8               	bcf	status,0,c
  3576  000BFC  322C               	rrcf	(___fltol@f1+3)^0,f,c
  3577  000BFE  322B               	rrcf	(___fltol@f1+2)^0,f,c
  3578  000C00  322A               	rrcf	(___fltol@f1+1)^0,f,c
  3579  000C02  3229               	rrcf	___fltol@f1^0,f,c
  3580  000C04  3E32               	incfsz	___fltol@exp1^0,f,c
  3581  000C06  EFFD  F005         	goto	l1737
  3582  000C0A  EF1F  F006         	goto	l1751
  3583  000C0E                     l1741:
  3584  000C0E  0E1F               	movlw	31
  3585  000C10  6432               	cpfsgt	___fltol@exp1^0,c
  3586  000C12  EF0D  F006         	goto	u871
  3587  000C16  EF0F  F006         	goto	u870
  3588  000C1A                     u871:
  3589  000C1A  EF17  F006         	goto	l1749
  3590  000C1E                     u870:
  3591  000C1E  EFC0  F005         	goto	l1717
  3592  000C22                     l1747:
  3593  000C22  90D8               	bcf	status,0,c
  3594  000C24  3629               	rlcf	___fltol@f1^0,f,c
  3595  000C26  362A               	rlcf	(___fltol@f1+1)^0,f,c
  3596  000C28  362B               	rlcf	(___fltol@f1+2)^0,f,c
  3597  000C2A  362C               	rlcf	(___fltol@f1+3)^0,f,c
  3598  000C2C  0632               	decf	___fltol@exp1^0,f,c
  3599  000C2E                     l1749:
  3600  000C2E  5032               	movf	___fltol@exp1^0,w,c
  3601  000C30  A4D8               	btfss	status,2,c
  3602  000C32  EF1D  F006         	goto	u881
  3603  000C36  EF1F  F006         	goto	u880
  3604  000C3A                     u881:
  3605  000C3A  EF11  F006         	goto	l1747
  3606  000C3E                     u880:
  3607  000C3E                     l1751:
  3608  000C3E  5031               	movf	___fltol@sign1^0,w,c
  3609  000C40  B4D8               	btfsc	status,2,c
  3610  000C42  EF25  F006         	goto	u891
  3611  000C46  EF27  F006         	goto	u890
  3612  000C4A                     u891:
  3613  000C4A  EF2F  F006         	goto	l1755
  3614  000C4E                     u890:
  3615  000C4E  1E2C               	comf	(___fltol@f1+3)^0,f,c
  3616  000C50  1E2B               	comf	(___fltol@f1+2)^0,f,c
  3617  000C52  1E2A               	comf	(___fltol@f1+1)^0,f,c
  3618  000C54  6C29               	negf	___fltol@f1^0,c
  3619  000C56  0E00               	movlw	0
  3620  000C58  222A               	addwfc	(___fltol@f1+1)^0,f,c
  3621  000C5A  222B               	addwfc	(___fltol@f1+2)^0,f,c
  3622  000C5C  222C               	addwfc	(___fltol@f1+3)^0,f,c
  3623  000C5E                     l1755:
  3624  000C5E  C029  F029         	movff	___fltol@f1,?___fltol
  3625  000C62  C02A  F02A         	movff	___fltol@f1+1,?___fltol+1
  3626  000C66  C02B  F02B         	movff	___fltol@f1+2,?___fltol+2
  3627  000C6A  C02C  F02C         	movff	___fltol@f1+3,?___fltol+3
  3628  000C6E                     l635:
  3629  000C6E  0012               	return		;funcret
  3630  000C70                     __end_of___fltol:
  3631                           	opt callstack 0
  3632                           
  3633 ;; *************** function ___flmul *****************
  3634 ;; Defined at:
  3635 ;;		line 8 in file "C:\Program Files (x86)\Microchip\xc8\v2.10\pic\sources\c99\common\sprcmul.c"
  3636 ;; Parameters:    Size  Location     Type
  3637 ;;  b               4   15[COMRAM] long 
  3638 ;;  a               4   19[COMRAM] long 
  3639 ;; Auto vars:     Size  Location     Type
  3640 ;;  prod            4   34[COMRAM] struct .
  3641 ;;  grs             4   28[COMRAM] unsigned long 
  3642 ;;  temp            2   38[COMRAM] struct .
  3643 ;;  bexp            1   33[COMRAM] unsigned char 
  3644 ;;  aexp            1   32[COMRAM] unsigned char 
  3645 ;;  sign            1   27[COMRAM] unsigned char 
  3646 ;; Return value:  Size  Location     Type
  3647 ;;                  4   15[COMRAM] unsigned char 
  3648 ;; Registers used:
  3649 ;;		wreg, status,2, status,0, prodl, prodh
  3650 ;; Tracked objects:
  3651 ;;		On entry : 0/0
  3652 ;;		On exit  : 0/0
  3653 ;;		Unchanged: 0/0
  3654 ;; Data sizes:     COMRAM   BANK0   BANK1   BANK2   BANK3   BANK4   BANK5   BANK6   BANK7
  3655 ;;      Params:         8       0       0       0       0       0       0       0       0
  3656 ;;      Locals:        13       0       0       0       0       0       0       0       0
  3657 ;;      Temps:          4       0       0       0       0       0       0       0       0
  3658 ;;      Totals:        25       0       0       0       0       0       0       0       0
  3659 ;;Total ram usage:       25 bytes
  3660 ;; Hardware stack levels used:    1
  3661 ;; Hardware stack levels required when called:    2
  3662 ;; This function calls:
  3663 ;;		Nothing
  3664 ;; This function is called by:
  3665 ;;		_PWM_DutyCycleCCP2
  3666 ;;		_PWM_DutyCycleCCP1
  3667 ;; This function uses a non-reentrant model
  3668 ;;
  3669                           
  3670                           	psect	text21
  3671  00002C                     __ptext21:
  3672                           	opt callstack 0
  3673  00002C                     ___flmul:
  3674                           	opt callstack 27
  3675  00002C  5013               	movf	(___flmul@b+3)^0,w,c
  3676  00002E  0B80               	andlw	128
  3677  000030  6E1C               	movwf	___flmul@sign^0,c
  3678  000032  5013               	movf	(___flmul@b+3)^0,w,c
  3679  000034  2413               	addwf	(___flmul@b+3)^0,w,c
  3680  000036  6E22               	movwf	___flmul@bexp^0,c
  3681  000038  AE12               	btfss	(___flmul@b+2)^0,7,c
  3682  00003A  EF21  F000         	goto	u641
  3683  00003E  EF23  F000         	goto	u640
  3684  000042                     u641:
  3685  000042  EF24  F000         	goto	l1591
  3686  000046                     u640:
  3687  000046  8022               	bsf	___flmul@bexp^0,0,c
  3688  000048                     l1591:
  3689  000048  5022               	movf	___flmul@bexp^0,w,c
  3690  00004A  B4D8               	btfsc	status,2,c
  3691  00004C  EF2A  F000         	goto	u651
  3692  000050  EF2C  F000         	goto	u650
  3693  000054                     u651:
  3694  000054  EF3F  F000         	goto	l1599
  3695  000058                     u650:
  3696  000058  2822               	incf	___flmul@bexp^0,w,c
  3697  00005A  A4D8               	btfss	status,2,c
  3698  00005C  EF32  F000         	goto	u661
  3699  000060  EF34  F000         	goto	u660
  3700  000064                     u661:
  3701  000064  EF3C  F000         	goto	l1597
  3702  000068                     u660:
  3703  000068  0E00               	movlw	0
  3704  00006A  6E10               	movwf	___flmul@b^0,c
  3705  00006C  0E00               	movlw	0
  3706  00006E  6E11               	movwf	(___flmul@b+1)^0,c
  3707  000070  0E00               	movlw	0
  3708  000072  6E12               	movwf	(___flmul@b+2)^0,c
  3709  000074  0E00               	movlw	0
  3710  000076  6E13               	movwf	(___flmul@b+3)^0,c
  3711  000078                     l1597:
  3712  000078  8E12               	bsf	(___flmul@b+2)^0,7,c
  3713  00007A  EF47  F000         	goto	l1601
  3714  00007E                     l1599:
  3715  00007E  0E00               	movlw	0
  3716  000080  6E10               	movwf	___flmul@b^0,c
  3717  000082  0E00               	movlw	0
  3718  000084  6E11               	movwf	(___flmul@b+1)^0,c
  3719  000086  0E00               	movlw	0
  3720  000088  6E12               	movwf	(___flmul@b+2)^0,c
  3721  00008A  0E00               	movlw	0
  3722  00008C  6E13               	movwf	(___flmul@b+3)^0,c
  3723  00008E                     l1601:
  3724  00008E  5017               	movf	(___flmul@a+3)^0,w,c
  3725  000090  0B80               	andlw	128
  3726  000092  1A1C               	xorwf	___flmul@sign^0,f,c
  3727  000094  5017               	movf	(___flmul@a+3)^0,w,c
  3728  000096  2417               	addwf	(___flmul@a+3)^0,w,c
  3729  000098  6E21               	movwf	___flmul@aexp^0,c
  3730  00009A  AE16               	btfss	(___flmul@a+2)^0,7,c
  3731  00009C  EF52  F000         	goto	u671
  3732  0000A0  EF54  F000         	goto	u670
  3733  0000A4                     u671:
  3734  0000A4  EF55  F000         	goto	l1609
  3735  0000A8                     u670:
  3736  0000A8  8021               	bsf	___flmul@aexp^0,0,c
  3737  0000AA                     l1609:
  3738  0000AA  5021               	movf	___flmul@aexp^0,w,c
  3739  0000AC  B4D8               	btfsc	status,2,c
  3740  0000AE  EF5B  F000         	goto	u681
  3741  0000B2  EF5D  F000         	goto	u680
  3742  0000B6                     u681:
  3743  0000B6  EF70  F000         	goto	l1617
  3744  0000BA                     u680:
  3745  0000BA  2821               	incf	___flmul@aexp^0,w,c
  3746  0000BC  A4D8               	btfss	status,2,c
  3747  0000BE  EF63  F000         	goto	u691
  3748  0000C2  EF65  F000         	goto	u690
  3749  0000C6                     u691:
  3750  0000C6  EF6D  F000         	goto	l1615
  3751  0000CA                     u690:
  3752  0000CA  0E00               	movlw	0
  3753  0000CC  6E14               	movwf	___flmul@a^0,c
  3754  0000CE  0E00               	movlw	0
  3755  0000D0  6E15               	movwf	(___flmul@a+1)^0,c
  3756  0000D2  0E00               	movlw	0
  3757  0000D4  6E16               	movwf	(___flmul@a+2)^0,c
  3758  0000D6  0E00               	movlw	0
  3759  0000D8  6E17               	movwf	(___flmul@a+3)^0,c
  3760  0000DA                     l1615:
  3761  0000DA  8E16               	bsf	(___flmul@a+2)^0,7,c
  3762  0000DC  EF78  F000         	goto	l952
  3763  0000E0                     l1617:
  3764  0000E0  0E00               	movlw	0
  3765  0000E2  6E14               	movwf	___flmul@a^0,c
  3766  0000E4  0E00               	movlw	0
  3767  0000E6  6E15               	movwf	(___flmul@a+1)^0,c
  3768  0000E8  0E00               	movlw	0
  3769  0000EA  6E16               	movwf	(___flmul@a+2)^0,c
  3770  0000EC  0E00               	movlw	0
  3771  0000EE  6E17               	movwf	(___flmul@a+3)^0,c
  3772  0000F0                     l952:
  3773  0000F0  5021               	movf	___flmul@aexp^0,w,c
  3774  0000F2  B4D8               	btfsc	status,2,c
  3775  0000F4  EF7E  F000         	goto	u701
  3776  0000F8  EF80  F000         	goto	u700
  3777  0000FC                     u701:
  3778  0000FC  EF88  F000         	goto	l1621
  3779  000100                     u700:
  3780  000100  5022               	movf	___flmul@bexp^0,w,c
  3781  000102  A4D8               	btfss	status,2,c
  3782  000104  EF86  F000         	goto	u711
  3783  000108  EF88  F000         	goto	u710
  3784  00010C                     u711:
  3785  00010C  EF92  F000         	goto	l1625
  3786  000110                     u710:
  3787  000110                     l1621:
  3788  000110  0E00               	movlw	0
  3789  000112  6E10               	movwf	?___flmul^0,c
  3790  000114  0E00               	movlw	0
  3791  000116  6E11               	movwf	(?___flmul+1)^0,c
  3792  000118  0E00               	movlw	0
  3793  00011A  6E12               	movwf	(?___flmul+2)^0,c
  3794  00011C  0E00               	movlw	0
  3795  00011E  6E13               	movwf	(?___flmul+3)^0,c
  3796  000120  EF2A  F002         	goto	l956
  3797  000124                     l1625:
  3798  000124  5016               	movf	(___flmul@a+2)^0,w,c
  3799  000126  0210               	mulwf	___flmul@b^0,c
  3800  000128  CFF3 F027          	movff	prodl,___flmul@temp
  3801  00012C  CFF4 F028          	movff	prodh,___flmul@temp+1
  3802  000130  5027               	movf	___flmul@temp^0,w,c
  3803  000132  6E1D               	movwf	___flmul@grs^0,c
  3804  000134  6A1E               	clrf	(___flmul@grs+1)^0,c
  3805  000136  6A1F               	clrf	(___flmul@grs+2)^0,c
  3806  000138  6A20               	clrf	(___flmul@grs+3)^0,c
  3807  00013A  5028               	movf	(___flmul@temp+1)^0,w,c
  3808  00013C  6E23               	movwf	___flmul@prod^0,c
  3809  00013E  6A24               	clrf	(___flmul@prod+1)^0,c
  3810  000140  6A25               	clrf	(___flmul@prod+2)^0,c
  3811  000142  6A26               	clrf	(___flmul@prod+3)^0,c
  3812  000144  5015               	movf	(___flmul@a+1)^0,w,c
  3813  000146  0211               	mulwf	(___flmul@b+1)^0,c
  3814  000148  CFF3 F027          	movff	prodl,___flmul@temp
  3815  00014C  CFF4 F028          	movff	prodh,___flmul@temp+1
  3816  000150  5027               	movf	___flmul@temp^0,w,c
  3817  000152  261D               	addwf	___flmul@grs^0,f,c
  3818  000154  0E00               	movlw	0
  3819  000156  221E               	addwfc	(___flmul@grs+1)^0,f,c
  3820  000158  221F               	addwfc	(___flmul@grs+2)^0,f,c
  3821  00015A  2220               	addwfc	(___flmul@grs+3)^0,f,c
  3822  00015C  5028               	movf	(___flmul@temp+1)^0,w,c
  3823  00015E  2623               	addwf	___flmul@prod^0,f,c
  3824  000160  0E00               	movlw	0
  3825  000162  2224               	addwfc	(___flmul@prod+1)^0,f,c
  3826  000164  2225               	addwfc	(___flmul@prod+2)^0,f,c
  3827  000166  2226               	addwfc	(___flmul@prod+3)^0,f,c
  3828  000168  5014               	movf	___flmul@a^0,w,c
  3829  00016A  0212               	mulwf	(___flmul@b+2)^0,c
  3830  00016C  CFF3 F027          	movff	prodl,___flmul@temp
  3831  000170  CFF4 F028          	movff	prodh,___flmul@temp+1
  3832  000174  5027               	movf	___flmul@temp^0,w,c
  3833  000176  261D               	addwf	___flmul@grs^0,f,c
  3834  000178  0E00               	movlw	0
  3835  00017A  221E               	addwfc	(___flmul@grs+1)^0,f,c
  3836  00017C  221F               	addwfc	(___flmul@grs+2)^0,f,c
  3837  00017E  2220               	addwfc	(___flmul@grs+3)^0,f,c
  3838  000180  5028               	movf	(___flmul@temp+1)^0,w,c
  3839  000182  2623               	addwf	___flmul@prod^0,f,c
  3840  000184  0E00               	movlw	0
  3841  000186  2224               	addwfc	(___flmul@prod+1)^0,f,c
  3842  000188  2225               	addwfc	(___flmul@prod+2)^0,f,c
  3843  00018A  2226               	addwfc	(___flmul@prod+3)^0,f,c
  3844  00018C  C01F  F020         	movff	___flmul@grs+2,___flmul@grs+3
  3845  000190  C01E  F01F         	movff	___flmul@grs+1,___flmul@grs+2
  3846  000194  C01D  F01E         	movff	___flmul@grs,___flmul@grs+1
  3847  000198  6A1D               	clrf	___flmul@grs^0,c
  3848  00019A  5014               	movf	___flmul@a^0,w,c
  3849  00019C  0211               	mulwf	(___flmul@b+1)^0,c
  3850  00019E  CFF3 F027          	movff	prodl,___flmul@temp
  3851  0001A2  CFF4 F028          	movff	prodh,___flmul@temp+1
  3852  0001A6  5027               	movf	___flmul@temp^0,w,c
  3853  0001A8  261D               	addwf	___flmul@grs^0,f,c
  3854  0001AA  5028               	movf	(___flmul@temp+1)^0,w,c
  3855  0001AC  221E               	addwfc	(___flmul@grs+1)^0,f,c
  3856  0001AE  0E00               	movlw	0
  3857  0001B0  221F               	addwfc	(___flmul@grs+2)^0,f,c
  3858  0001B2  0E00               	movlw	0
  3859  0001B4  2220               	addwfc	(___flmul@grs+3)^0,f,c
  3860  0001B6  5015               	movf	(___flmul@a+1)^0,w,c
  3861  0001B8  0210               	mulwf	___flmul@b^0,c
  3862  0001BA  CFF3 F027          	movff	prodl,___flmul@temp
  3863  0001BE  CFF4 F028          	movff	prodh,___flmul@temp+1
  3864  0001C2  5027               	movf	___flmul@temp^0,w,c
  3865  0001C4  261D               	addwf	___flmul@grs^0,f,c
  3866  0001C6  5028               	movf	(___flmul@temp+1)^0,w,c
  3867  0001C8  221E               	addwfc	(___flmul@grs+1)^0,f,c
  3868  0001CA  0E00               	movlw	0
  3869  0001CC  221F               	addwfc	(___flmul@grs+2)^0,f,c
  3870  0001CE  0E00               	movlw	0
  3871  0001D0  2220               	addwfc	(___flmul@grs+3)^0,f,c
  3872  0001D2  C01F  F020         	movff	___flmul@grs+2,___flmul@grs+3
  3873  0001D6  C01E  F01F         	movff	___flmul@grs+1,___flmul@grs+2
  3874  0001DA  C01D  F01E         	movff	___flmul@grs,___flmul@grs+1
  3875  0001DE  6A1D               	clrf	___flmul@grs^0,c
  3876  0001E0  5014               	movf	___flmul@a^0,w,c
  3877  0001E2  0210               	mulwf	___flmul@b^0,c
  3878  0001E4  CFF3 F027          	movff	prodl,___flmul@temp
  3879  0001E8  CFF4 F028          	movff	prodh,___flmul@temp+1
  3880  0001EC  5027               	movf	___flmul@temp^0,w,c
  3881  0001EE  261D               	addwf	___flmul@grs^0,f,c
  3882  0001F0  5028               	movf	(___flmul@temp+1)^0,w,c
  3883  0001F2  221E               	addwfc	(___flmul@grs+1)^0,f,c
  3884  0001F4  0E00               	movlw	0
  3885  0001F6  221F               	addwfc	(___flmul@grs+2)^0,f,c
  3886  0001F8  0E00               	movlw	0
  3887  0001FA  2220               	addwfc	(___flmul@grs+3)^0,f,c
  3888  0001FC  5016               	movf	(___flmul@a+2)^0,w,c
  3889  0001FE  0211               	mulwf	(___flmul@b+1)^0,c
  3890  000200  CFF3 F027          	movff	prodl,___flmul@temp
  3891  000204  CFF4 F028          	movff	prodh,___flmul@temp+1
  3892  000208  5027               	movf	___flmul@temp^0,w,c
  3893  00020A  2623               	addwf	___flmul@prod^0,f,c
  3894  00020C  5028               	movf	(___flmul@temp+1)^0,w,c
  3895  00020E  2224               	addwfc	(___flmul@prod+1)^0,f,c
  3896  000210  0E00               	movlw	0
  3897  000212  2225               	addwfc	(___flmul@prod+2)^0,f,c
  3898  000214  0E00               	movlw	0
  3899  000216  2226               	addwfc	(___flmul@prod+3)^0,f,c
  3900  000218  5015               	movf	(___flmul@a+1)^0,w,c
  3901  00021A  0212               	mulwf	(___flmul@b+2)^0,c
  3902  00021C  CFF3 F027          	movff	prodl,___flmul@temp
  3903  000220  CFF4 F028          	movff	prodh,___flmul@temp+1
  3904  000224  5027               	movf	___flmul@temp^0,w,c
  3905  000226  2623               	addwf	___flmul@prod^0,f,c
  3906  000228  5028               	movf	(___flmul@temp+1)^0,w,c
  3907  00022A  2224               	addwfc	(___flmul@prod+1)^0,f,c
  3908  00022C  0E00               	movlw	0
  3909  00022E  2225               	addwfc	(___flmul@prod+2)^0,f,c
  3910  000230  0E00               	movlw	0
  3911  000232  2226               	addwfc	(___flmul@prod+3)^0,f,c
  3912  000234  5016               	movf	(___flmul@a+2)^0,w,c
  3913  000236  0212               	mulwf	(___flmul@b+2)^0,c
  3914  000238  CFF3 F027          	movff	prodl,___flmul@temp
  3915  00023C  CFF4 F028          	movff	prodh,___flmul@temp+1
  3916  000240  5027               	movf	___flmul@temp^0,w,c
  3917  000242  6E18               	movwf	??___flmul^0,c
  3918  000244  5028               	movf	(___flmul@temp+1)^0,w,c
  3919  000246  6E19               	movwf	(??___flmul+1)^0,c
  3920  000248  6A1A               	clrf	(??___flmul+2)^0,c
  3921  00024A  6A1B               	clrf	(??___flmul+3)^0,c
  3922  00024C  C01A  F01B         	movff	??___flmul+2,??___flmul+3
  3923  000250  C019  F01A         	movff	??___flmul+1,??___flmul+2
  3924  000254  C018  F019         	movff	??___flmul,??___flmul+1
  3925  000258  6A18               	clrf	??___flmul^0,c
  3926  00025A  5018               	movf	??___flmul^0,w,c
  3927  00025C  2623               	addwf	___flmul@prod^0,f,c
  3928  00025E  5019               	movf	(??___flmul+1)^0,w,c
  3929  000260  2224               	addwfc	(___flmul@prod+1)^0,f,c
  3930  000262  501A               	movf	(??___flmul+2)^0,w,c
  3931  000264  2225               	addwfc	(___flmul@prod+2)^0,f,c
  3932  000266  501B               	movf	(??___flmul+3)^0,w,c
  3933  000268  2226               	addwfc	(___flmul@prod+3)^0,f,c
  3934  00026A  C01D  F018         	movff	___flmul@grs,??___flmul
  3935  00026E  C01E  F019         	movff	___flmul@grs+1,??___flmul+1
  3936  000272  C01F  F01A         	movff	___flmul@grs+2,??___flmul+2
  3937  000276  C020  F01B         	movff	___flmul@grs+3,??___flmul+3
  3938  00027A  0E19               	movlw	25
  3939  00027C  EF45  F001         	goto	u720
  3940  000280                     u725:
  3941  000280  90D8               	bcf	status,0,c
  3942  000282  321B               	rrcf	(??___flmul+3)^0,f,c
  3943  000284  321A               	rrcf	(??___flmul+2)^0,f,c
  3944  000286  3219               	rrcf	(??___flmul+1)^0,f,c
  3945  000288  3218               	rrcf	??___flmul^0,f,c
  3946  00028A                     u720:
  3947  00028A  2EE8               	decfsz	wreg,f,c
  3948  00028C  EF40  F001         	goto	u725
  3949  000290  5018               	movf	??___flmul^0,w,c
  3950  000292  2623               	addwf	___flmul@prod^0,f,c
  3951  000294  5019               	movf	(??___flmul+1)^0,w,c
  3952  000296  2224               	addwfc	(___flmul@prod+1)^0,f,c
  3953  000298  501A               	movf	(??___flmul+2)^0,w,c
  3954  00029A  2225               	addwfc	(___flmul@prod+2)^0,f,c
  3955  00029C  501B               	movf	(??___flmul+3)^0,w,c
  3956  00029E  2226               	addwfc	(___flmul@prod+3)^0,f,c
  3957  0002A0  C01F  F020         	movff	___flmul@grs+2,___flmul@grs+3
  3958  0002A4  C01E  F01F         	movff	___flmul@grs+1,___flmul@grs+2
  3959  0002A8  C01D  F01E         	movff	___flmul@grs,___flmul@grs+1
  3960  0002AC  6A1D               	clrf	___flmul@grs^0,c
  3961  0002AE  5021               	movf	___flmul@aexp^0,w,c
  3962  0002B0  C022  F018         	movff	___flmul@bexp,??___flmul
  3963  0002B4  6A19               	clrf	(??___flmul+1)^0,c
  3964  0002B6  2618               	addwf	??___flmul^0,f,c
  3965  0002B8  0E00               	movlw	0
  3966  0002BA  2219               	addwfc	(??___flmul+1)^0,f,c
  3967  0002BC  0E82               	movlw	130
  3968  0002BE  2418               	addwf	??___flmul^0,w,c
  3969  0002C0  6E27               	movwf	___flmul@temp^0,c
  3970  0002C2  0EFF               	movlw	255
  3971  0002C4  2019               	addwfc	(??___flmul+1)^0,w,c
  3972  0002C6  6E28               	movwf	(___flmul@temp+1)^0,c
  3973  0002C8  EF7B  F001         	goto	l1673
  3974  0002CC                     l1667:
  3975  0002CC  90D8               	bcf	status,0,c
  3976  0002CE  3623               	rlcf	___flmul@prod^0,f,c
  3977  0002D0  3624               	rlcf	(___flmul@prod+1)^0,f,c
  3978  0002D2  3625               	rlcf	(___flmul@prod+2)^0,f,c
  3979  0002D4  3626               	rlcf	(___flmul@prod+3)^0,f,c
  3980  0002D6  AE20               	btfss	(___flmul@grs+3)^0,7,c
  3981  0002D8  EF70  F001         	goto	u731
  3982  0002DC  EF72  F001         	goto	u730
  3983  0002E0                     u731:
  3984  0002E0  EF73  F001         	goto	l959
  3985  0002E4                     u730:
  3986  0002E4  8023               	bsf	___flmul@prod^0,0,c
  3987  0002E6                     l959:
  3988  0002E6  90D8               	bcf	status,0,c
  3989  0002E8  361D               	rlcf	___flmul@grs^0,f,c
  3990  0002EA  361E               	rlcf	(___flmul@grs+1)^0,f,c
  3991  0002EC  361F               	rlcf	(___flmul@grs+2)^0,f,c
  3992  0002EE  3620               	rlcf	(___flmul@grs+3)^0,f,c
  3993  0002F0  0627               	decf	___flmul@temp^0,f,c
  3994  0002F2  A0D8               	btfss	status,0,c
  3995  0002F4  0628               	decf	(___flmul@temp+1)^0,f,c
  3996  0002F6                     l1673:
  3997  0002F6  AE25               	btfss	(___flmul@prod+2)^0,7,c
  3998  0002F8  EF80  F001         	goto	u741
  3999  0002FC  EF82  F001         	goto	u740
  4000  000300                     u741:
  4001  000300  EF66  F001         	goto	l1667
  4002  000304                     u740:
  4003  000304  0E00               	movlw	0
  4004  000306  6E21               	movwf	___flmul@aexp^0,c
  4005  000308  AE20               	btfss	(___flmul@grs+3)^0,7,c
  4006  00030A  EF89  F001         	goto	u751
  4007  00030E  EF8B  F001         	goto	u750
  4008  000312                     u751:
  4009  000312  EFAF  F001         	goto	l961
  4010  000316                     u750:
  4011  000316  0EFF               	movlw	255
  4012  000318  141D               	andwf	___flmul@grs^0,w,c
  4013  00031A  6E18               	movwf	??___flmul^0,c
  4014  00031C  0EFF               	movlw	255
  4015  00031E  141E               	andwf	(___flmul@grs+1)^0,w,c
  4016  000320  6E19               	movwf	(??___flmul+1)^0,c
  4017  000322  0EFF               	movlw	255
  4018  000324  141F               	andwf	(___flmul@grs+2)^0,w,c
  4019  000326  6E1A               	movwf	(??___flmul+2)^0,c
  4020  000328  0E7F               	movlw	127
  4021  00032A  1420               	andwf	(___flmul@grs+3)^0,w,c
  4022  00032C  6E1B               	movwf	(??___flmul+3)^0,c
  4023  00032E  5018               	movf	??___flmul^0,w,c
  4024  000330  1019               	iorwf	(??___flmul+1)^0,w,c
  4025  000332  101A               	iorwf	(??___flmul+2)^0,w,c
  4026  000334  101B               	iorwf	(??___flmul+3)^0,w,c
  4027  000336  B4D8               	btfsc	status,2,c
  4028  000338  EFA0  F001         	goto	u761
  4029  00033C  EFA2  F001         	goto	u760
  4030  000340                     u761:
  4031  000340  EFA6  F001         	goto	l962
  4032  000344                     u760:
  4033  000344                     l1681:
  4034  000344  0E01               	movlw	1
  4035  000346  6E21               	movwf	___flmul@aexp^0,c
  4036  000348  EFAF  F001         	goto	l961
  4037  00034C                     l962:
  4038  00034C  A023               	btfss	___flmul@prod^0,0,c
  4039  00034E  EFAB  F001         	goto	u771
  4040  000352  EFAD  F001         	goto	u770
  4041  000356                     u771:
  4042  000356  EFAF  F001         	goto	l961
  4043  00035A                     u770:
  4044  00035A  EFA2  F001         	goto	l1681
  4045  00035E                     l961:
  4046  00035E  5021               	movf	___flmul@aexp^0,w,c
  4047  000360  B4D8               	btfsc	status,2,c
  4048  000362  EFB5  F001         	goto	u781
  4049  000366  EFB7  F001         	goto	u780
  4050  00036A                     u781:
  4051  00036A  EFDB  F001         	goto	l1693
  4052  00036E                     u780:
  4053  00036E  0E01               	movlw	1
  4054  000370  2623               	addwf	___flmul@prod^0,f,c
  4055  000372  0E00               	movlw	0
  4056  000374  2224               	addwfc	(___flmul@prod+1)^0,f,c
  4057  000376  2225               	addwfc	(___flmul@prod+2)^0,f,c
  4058  000378  2226               	addwfc	(___flmul@prod+3)^0,f,c
  4059  00037A  A026               	btfss	(___flmul@prod+3)^0,0,c
  4060  00037C  EFC2  F001         	goto	u791
  4061  000380  EFC4  F001         	goto	u790
  4062  000384                     u791:
  4063  000384  EFDB  F001         	goto	l1693
  4064  000388                     u790:
  4065  000388  C023  F018         	movff	___flmul@prod,??___flmul
  4066  00038C  C024  F019         	movff	___flmul@prod+1,??___flmul+1
  4067  000390  C025  F01A         	movff	___flmul@prod+2,??___flmul+2
  4068  000394  C026  F01B         	movff	___flmul@prod+3,??___flmul+3
  4069  000398  341B               	rlcf	(??___flmul+3)^0,w,c
  4070  00039A  321B               	rrcf	(??___flmul+3)^0,f,c
  4071  00039C  321A               	rrcf	(??___flmul+2)^0,f,c
  4072  00039E  3219               	rrcf	(??___flmul+1)^0,f,c
  4073  0003A0  3218               	rrcf	??___flmul^0,f,c
  4074  0003A2  C018  F023         	movff	??___flmul,___flmul@prod
  4075  0003A6  C019  F024         	movff	??___flmul+1,___flmul@prod+1
  4076  0003AA  C01A  F025         	movff	??___flmul+2,___flmul@prod+2
  4077  0003AE  C01B  F026         	movff	??___flmul+3,___flmul@prod+3
  4078  0003B2  4A27               	infsnz	___flmul@temp^0,f,c
  4079  0003B4  2A28               	incf	(___flmul@temp+1)^0,f,c
  4080  0003B6                     l1693:
  4081  0003B6  BE28               	btfsc	(___flmul@temp+1)^0,7,c
  4082  0003B8  EFE6  F001         	goto	u801
  4083  0003BC  5028               	movf	(___flmul@temp+1)^0,w,c
  4084  0003BE  E108               	bnz	u800
  4085  0003C0  2827               	incf	___flmul@temp^0,w,c
  4086  0003C2  A0D8               	btfss	status,0,c
  4087  0003C4  EFE6  F001         	goto	u801
  4088  0003C8  EFE8  F001         	goto	u800
  4089  0003CC                     u801:
  4090  0003CC  EFF2  F001         	goto	l1697
  4091  0003D0                     u800:
  4092  0003D0  0E00               	movlw	0
  4093  0003D2  6E23               	movwf	___flmul@prod^0,c
  4094  0003D4  0E00               	movlw	0
  4095  0003D6  6E24               	movwf	(___flmul@prod+1)^0,c
  4096  0003D8  0E80               	movlw	128
  4097  0003DA  6E25               	movwf	(___flmul@prod+2)^0,c
  4098  0003DC  0E7F               	movlw	127
  4099  0003DE  6E26               	movwf	(___flmul@prod+3)^0,c
  4100  0003E0  EF20  F002         	goto	l1709
  4101  0003E4                     l1697:
  4102  0003E4  BE28               	btfsc	(___flmul@temp+1)^0,7,c
  4103  0003E6  EFFF  F001         	goto	u810
  4104  0003EA  5028               	movf	(___flmul@temp+1)^0,w,c
  4105  0003EC  E106               	bnz	u811
  4106  0003EE  0427               	decf	___flmul@temp^0,w,c
  4107  0003F0  B0D8               	btfsc	status,0,c
  4108  0003F2  EFFD  F001         	goto	u811
  4109  0003F6  EFFF  F001         	goto	u810
  4110  0003FA                     u811:
  4111  0003FA  EF0B  F002         	goto	l969
  4112  0003FE                     u810:
  4113  0003FE  0E00               	movlw	0
  4114  000400  6E23               	movwf	___flmul@prod^0,c
  4115  000402  0E00               	movlw	0
  4116  000404  6E24               	movwf	(___flmul@prod+1)^0,c
  4117  000406  0E00               	movlw	0
  4118  000408  6E25               	movwf	(___flmul@prod+2)^0,c
  4119  00040A  0E00               	movlw	0
  4120  00040C  6E26               	movwf	(___flmul@prod+3)^0,c
  4121  00040E  0E00               	movlw	0
  4122  000410  6E1C               	movwf	___flmul@sign^0,c
  4123  000412  EF20  F002         	goto	l1709
  4124  000416                     l969:
  4125  000416  C027  F022         	movff	___flmul@temp,___flmul@bexp
  4126  00041A  0EFF               	movlw	255
  4127  00041C  1623               	andwf	___flmul@prod^0,f,c
  4128  00041E  0EFF               	movlw	255
  4129  000420  1624               	andwf	(___flmul@prod+1)^0,f,c
  4130  000422  0E7F               	movlw	127
  4131  000424  1625               	andwf	(___flmul@prod+2)^0,f,c
  4132  000426  0E00               	movlw	0
  4133  000428  1626               	andwf	(___flmul@prod+3)^0,f,c
  4134  00042A  A022               	btfss	___flmul@bexp^0,0,c
  4135  00042C  EF1A  F002         	goto	u821
  4136  000430  EF1C  F002         	goto	u820
  4137  000434                     u821:
  4138  000434  EF1D  F002         	goto	l1707
  4139  000438                     u820:
  4140  000438  8E25               	bsf	(___flmul@prod+2)^0,7,c
  4141  00043A                     l1707:
  4142  00043A  90D8               	bcf	status,0,c
  4143  00043C  3022               	rrcf	___flmul@bexp^0,w,c
  4144  00043E  6E26               	movwf	(___flmul@prod+3)^0,c
  4145  000440                     l1709:
  4146  000440  501C               	movf	___flmul@sign^0,w,c
  4147  000442  1226               	iorwf	(___flmul@prod+3)^0,f,c
  4148  000444  C023  F010         	movff	___flmul@prod,?___flmul
  4149  000448  C024  F011         	movff	___flmul@prod+1,?___flmul+1
  4150  00044C  C025  F012         	movff	___flmul@prod+2,?___flmul+2
  4151  000450  C026  F013         	movff	___flmul@prod+3,?___flmul+3
  4152  000454                     l956:
  4153  000454  0012               	return		;funcret
  4154  000456                     __end_of___flmul:
  4155                           	opt callstack 0
  4156                           
  4157 ;; *************** function _PWM_CCP2_init *****************
  4158 ;; Defined at:
  4159 ;;		line 4 in file "PWMCCP2.c"
  4160 ;; Parameters:    Size  Location     Type
  4161 ;;		None
  4162 ;; Auto vars:     Size  Location     Type
  4163 ;;		None
  4164 ;; Return value:  Size  Location     Type
  4165 ;;                  1    wreg      void 
  4166 ;; Registers used:
  4167 ;;		wreg, status,2
  4168 ;; Tracked objects:
  4169 ;;		On entry : 0/0
  4170 ;;		On exit  : 0/0
  4171 ;;		Unchanged: 0/0
  4172 ;; Data sizes:     COMRAM   BANK0   BANK1   BANK2   BANK3   BANK4   BANK5   BANK6   BANK7
  4173 ;;      Params:         0       0       0       0       0       0       0       0       0
  4174 ;;      Locals:         0       0       0       0       0       0       0       0       0
  4175 ;;      Temps:          0       0       0       0       0       0       0       0       0
  4176 ;;      Totals:         0       0       0       0       0       0       0       0       0
  4177 ;;Total ram usage:        0 bytes
  4178 ;; Hardware stack levels used:    1
  4179 ;; Hardware stack levels required when called:    2
  4180 ;; This function calls:
  4181 ;;		Nothing
  4182 ;; This function is called by:
  4183 ;;		_main
  4184 ;; This function uses a non-reentrant model
  4185 ;;
  4186                           
  4187                           	psect	text22
  4188  000EB0                     __ptext22:
  4189                           	opt callstack 0
  4190  000EB0                     _PWM_CCP2_init:
  4191                           	opt callstack 28
  4192  000EB0                     
  4193                           ;PWMCCP2.c: 5:     TRISCbits.RC1 = 0;
  4194  000EB0  9294               	bcf	148,1,c	;volatile
  4195  000EB2                     
  4196                           ;PWMCCP2.c: 6:     CCP2CONbits.CCP2M = 0b1111;
  4197  000EB2  0E0F               	movlw	15
  4198  000EB4  12BA               	iorwf	186,f,c	;volatile
  4199                           
  4200                           ;PWMCCP2.c: 8:     PR2 = 249;
  4201  000EB6  0EF9               	movlw	249
  4202  000EB8  6ECB               	movwf	203,c	;volatile
  4203                           
  4204                           ;PWMCCP2.c: 9:     T2CONbits.T2CKPS = 0b11;
  4205  000EBA  0E03               	movlw	3
  4206  000EBC  12CA               	iorwf	202,f,c	;volatile
  4207                           
  4208                           ;PWMCCP2.c: 11:     CCP2CONbits.DC2B = 0;
  4209  000EBE  0ECF               	movlw	-49
  4210  000EC0  16BA               	andwf	186,f,c	;volatile
  4211                           
  4212                           ;PWMCCP2.c: 12:     CCPR2L = 0;
  4213  000EC2  0E00               	movlw	0
  4214  000EC4  6EBB               	movwf	187,c	;volatile
  4215                           
  4216                           ;PWMCCP2.c: 13:     TMR2 = 0;
  4217  000EC6  0E00               	movlw	0
  4218  000EC8  6ECC               	movwf	204,c	;volatile
  4219  000ECA                     
  4220                           ;PWMCCP2.c: 14:     T2CONbits.TMR2ON = 1;
  4221  000ECA  84CA               	bsf	202,2,c	;volatile
  4222  000ECC  0012               	return		;funcret
  4223  000ECE                     __end_of_PWM_CCP2_init:
  4224                           	opt callstack 0
  4225                           
  4226 ;; *************** function _PWM_CCP1_init *****************
  4227 ;; Defined at:
  4228 ;;		line 5 in file "PWMCCP1.c"
  4229 ;; Parameters:    Size  Location     Type
  4230 ;;		None
  4231 ;; Auto vars:     Size  Location     Type
  4232 ;;		None
  4233 ;; Return value:  Size  Location     Type
  4234 ;;                  1    wreg      void 
  4235 ;; Registers used:
  4236 ;;		wreg, status,2
  4237 ;; Tracked objects:
  4238 ;;		On entry : 0/0
  4239 ;;		On exit  : 0/0
  4240 ;;		Unchanged: 0/0
  4241 ;; Data sizes:     COMRAM   BANK0   BANK1   BANK2   BANK3   BANK4   BANK5   BANK6   BANK7
  4242 ;;      Params:         0       0       0       0       0       0       0       0       0
  4243 ;;      Locals:         0       0       0       0       0       0       0       0       0
  4244 ;;      Temps:          0       0       0       0       0       0       0       0       0
  4245 ;;      Totals:         0       0       0       0       0       0       0       0       0
  4246 ;;Total ram usage:        0 bytes
  4247 ;; Hardware stack levels used:    1
  4248 ;; Hardware stack levels required when called:    2
  4249 ;; This function calls:
  4250 ;;		Nothing
  4251 ;; This function is called by:
  4252 ;;		_main
  4253 ;; This function uses a non-reentrant model
  4254 ;;
  4255                           
  4256                           	psect	text23
  4257  000E8E                     __ptext23:
  4258                           	opt callstack 0
  4259  000E8E                     _PWM_CCP1_init:
  4260                           	opt callstack 28
  4261  000E8E                     
  4262                           ;PWMCCP1.c: 6:     TRISCbits.RC2 = 0;
  4263  000E8E  9494               	bcf	148,2,c	;volatile
  4264  000E90                     
  4265                           ;PWMCCP1.c: 7:     CCP1CONbits.CCP1M = 0b1100;
  4266  000E90  50BD               	movf	189,w,c	;volatile
  4267  000E92  0BF0               	andlw	-16
  4268  000E94  090C               	iorlw	12
  4269  000E96  6EBD               	movwf	189,c	;volatile
  4270                           
  4271                           ;PWMCCP1.c: 9:     PR2 = 249;
  4272  000E98  0EF9               	movlw	249
  4273  000E9A  6ECB               	movwf	203,c	;volatile
  4274                           
  4275                           ;PWMCCP1.c: 10:     T2CONbits.T2CKPS = 0b11;
  4276  000E9C  0E03               	movlw	3
  4277  000E9E  12CA               	iorwf	202,f,c	;volatile
  4278                           
  4279                           ;PWMCCP1.c: 12:     CCP1CONbits.DC1B = 0;
  4280  000EA0  0ECF               	movlw	-49
  4281  000EA2  16BD               	andwf	189,f,c	;volatile
  4282                           
  4283                           ;PWMCCP1.c: 13:     CCPR1L = 0;
  4284  000EA4  0E00               	movlw	0
  4285  000EA6  6EBE               	movwf	190,c	;volatile
  4286                           
  4287                           ;PWMCCP1.c: 14:     TMR2 = 0;
  4288  000EA8  0E00               	movlw	0
  4289  000EAA  6ECC               	movwf	204,c	;volatile
  4290  000EAC                     
  4291                           ;PWMCCP1.c: 15:     T2CONbits.TMR2ON = 1;
  4292  000EAC  84CA               	bsf	202,2,c	;volatile
  4293  000EAE  0012               	return		;funcret
  4294  000EB0                     __end_of_PWM_CCP1_init:
  4295                           	opt callstack 0
  4296                           
  4297 ;; *************** function _low_isr *****************
  4298 ;; Defined at:
  4299 ;;		line 39 in file "main.c"
  4300 ;; Parameters:    Size  Location     Type
  4301 ;;		None
  4302 ;; Auto vars:     Size  Location     Type
  4303 ;;		None
  4304 ;; Return value:  Size  Location     Type
  4305 ;;                  1    wreg      void 
  4306 ;; Registers used:
  4307 ;;		None
  4308 ;; Tracked objects:
  4309 ;;		On entry : 0/0
  4310 ;;		On exit  : 0/0
  4311 ;;		Unchanged: 0/0
  4312 ;; Data sizes:     COMRAM   BANK0   BANK1   BANK2   BANK3   BANK4   BANK5   BANK6   BANK7
  4313 ;;      Params:         0       0       0       0       0       0       0       0       0
  4314 ;;      Locals:         0       0       0       0       0       0       0       0       0
  4315 ;;      Temps:          1       0       0       0       0       0       0       0       0
  4316 ;;      Totals:         1       0       0       0       0       0       0       0       0
  4317 ;;Total ram usage:        1 bytes
  4318 ;; Hardware stack levels used:    1
  4319 ;; Hardware stack levels required when called:    1
  4320 ;; This function calls:
  4321 ;;		Nothing
  4322 ;; This function is called by:
  4323 ;;		Interrupt level 1
  4324 ;; This function uses a non-reentrant model
  4325 ;;
  4326                           
  4327                           	psect	intcodelo
  4328  000018                     __pintcodelo:
  4329                           	opt callstack 0
  4330  000018                     _low_isr:
  4331                           	opt callstack 26
  4332                           
  4333                           ;incstack = 0
  4334  000018  805A               	bsf	int$flags,0,c	;set compiler interrupt flag (level 1)
  4335  00001A  CFE0 F001          	movff	bsr,??_low_isr
  4336  00001E                     
  4337                           ;main.c: 40:     __nop();
  4338  00001E  F000               	nop	
  4339  000020  C001  FFE0         	movff	??_low_isr,bsr
  4340  000024  905A               	bcf	int$flags,0,c	;clear compiler interrupt flag (level 1)
  4341  000026  0010               	retfie	
  4342  000028                     __end_of_low_isr:
  4343                           	opt callstack 0
  4344                           
  4345 ;; *************** function _high_isr *****************
  4346 ;; Defined at:
  4347 ;;		line 34 in file "main.c"
  4348 ;; Parameters:    Size  Location     Type
  4349 ;;		None
  4350 ;; Auto vars:     Size  Location     Type
  4351 ;;		None
  4352 ;; Return value:  Size  Location     Type
  4353 ;;                  1    wreg      void 
  4354 ;; Registers used:
  4355 ;;		None
  4356 ;; Tracked objects:
  4357 ;;		On entry : 0/0
  4358 ;;		On exit  : 0/0
  4359 ;;		Unchanged: 0/0
  4360 ;; Data sizes:     COMRAM   BANK0   BANK1   BANK2   BANK3   BANK4   BANK5   BANK6   BANK7
  4361 ;;      Params:         0       0       0       0       0       0       0       0       0
  4362 ;;      Locals:         0       0       0       0       0       0       0       0       0
  4363 ;;      Temps:          0       0       0       0       0       0       0       0       0
  4364 ;;      Totals:         0       0       0       0       0       0       0       0       0
  4365 ;;Total ram usage:        0 bytes
  4366 ;; Hardware stack levels used:    1
  4367 ;; This function calls:
  4368 ;;		Nothing
  4369 ;; This function is called by:
  4370 ;;		Interrupt level 2
  4371 ;; This function uses a non-reentrant model
  4372 ;;
  4373                           
  4374                           	psect	intcode
  4375  000008                     __pintcode:
  4376                           	opt callstack 0
  4377  000008                     _high_isr:
  4378                           	opt callstack 26
  4379                           
  4380                           ;incstack = 0
  4381  000008  825A               	bsf	int$flags,1,c	;set compiler interrupt flag (level 2)
  4382  00000A  EDCC  F007         	call	int_func,f	;refresh shadow registers
  4383                           
  4384                           	psect	intcode_body
  4385  000F98                     __pintcode_body:
  4386                           	opt callstack 26
  4387  000F98                     int_func:
  4388                           	opt callstack 26
  4389  000F98  0006               	pop		; remove dummy address from shadow register refresh
  4390  000F9A                     
  4391                           ;main.c: 35:     __nop();
  4392  000F9A  F000               	nop	
  4393  000F9C  925A               	bcf	int$flags,1,c	;clear compiler interrupt flag (level 2)
  4394  000F9E  0011               	retfie		f
  4395  000FA0                     __end_of_high_isr:
  4396                           	opt callstack 0
  4397                           
  4398                           	psect	rparam
  4399  0000                     
  4400                           	psect	temp
  4401  00005A                     btemp:
  4402                           	opt callstack 0
  4403  00005A                     	ds	1
  4404  0000                     int$flags	set	btemp
  4405  0000                     wtemp8	set	btemp+1
  4406  0000                     ttemp5	set	btemp+1
  4407  0000                     ttemp6	set	btemp+4
  4408  0000                     ttemp7	set	btemp+8
  4409                           tosu	equ	0xFFF
  4410                           tosh	equ	0xFFE
  4411                           tosl	equ	0xFFD
  4412                           stkptr	equ	0xFFC
  4413                           pclatu	equ	0xFFB
  4414                           pclath	equ	0xFFA
  4415                           pcl	equ	0xFF9
  4416                           tblptru	equ	0xFF8
  4417                           tblptrh	equ	0xFF7
  4418                           tblptrl	equ	0xFF6
  4419                           tablat	equ	0xFF5
  4420                           prodh	equ	0xFF4
  4421                           prodl	equ	0xFF3
  4422                           indf0	equ	0xFEF
  4423                           postinc0	equ	0xFEE
  4424                           postdec0	equ	0xFED
  4425                           preinc0	equ	0xFEC
  4426                           plusw0	equ	0xFEB
  4427                           fsr0h	equ	0xFEA
  4428                           fsr0l	equ	0xFE9
  4429                           wreg	equ	0xFE8
  4430                           indf1	equ	0xFE7
  4431                           postinc1	equ	0xFE6
  4432                           postdec1	equ	0xFE5
  4433                           preinc1	equ	0xFE4
  4434                           plusw1	equ	0xFE3
  4435                           fsr1h	equ	0xFE2
  4436                           fsr1l	equ	0xFE1
  4437                           bsr	equ	0xFE0
  4438                           indf2	equ	0xFDF
  4439                           postinc2	equ	0xFDE
  4440                           postdec2	equ	0xFDD
  4441                           preinc2	equ	0xFDC
  4442                           plusw2	equ	0xFDB
  4443                           fsr2h	equ	0xFDA
  4444                           fsr2l	equ	0xFD9
  4445                           status	equ	0xFD8


Data Sizes:
    Strings     785
    Constant    0
    Data        0
    BSS         108
    Persistent  0
    Stack       0

Auto Spaces:
    Space          Size  Autos    Used
    COMRAM           94     69      89
    BANK0           160      0      88
    BANK1           256      0       0
    BANK2           256      0       0
    BANK3           256      0       0
    BANK4           256      0       0
    BANK5           256      0       0
    BANK6           256      0       0
    BANK7           256      0       0

Pointer List with Targets:

    main@pActMenu	PTR unsigned char  size(2) Largest target is 5
		 -> main@activarmenu(COMRAM[5]), 

    scanf@guardarscan	PTR unsigned char  size(2) Largest target is 5
		 -> main@activarmenu(COMRAM[5]), 

    printf@PointString	PTR unsigned char  size(2) Largest target is 212
		 -> STR_17(CODE[27]), STR_16(CODE[15]), STR_15(CODE[31]), STR_14(CODE[11]), 
		 -> STR_13(CODE[44]), STR_12(CODE[43]), STR_11(CODE[33]), STR_10(CODE[33]), 
		 -> STR_9(CODE[14]), STR_8(CODE[14]), STR_7(CODE[113]), STR_6(CODE[75]), 
		 -> STR_5(CODE[13]), STR_4(CODE[13]), STR_3(CODE[37]), STR_2(CODE[212]), 
		 -> STR_1(CODE[57]), 


Critical Paths under _main in COMRAM

    _main->_PWM_DutyCycleCCP1
    _main->_PWM_DutyCycleCCP2
    _scanf->_receive
    _introducirCoordNueva->_printf
    _imprimirCoordenadas->_printf
    _printf->_send
    _PWM_DutyCycleCCP2->___fltol
    _PWM_DutyCycleCCP1->___fltol
    ___fltol->___flmul
    ___flmul->___xxtofl

Critical Paths under _low_isr in COMRAM

    None.

Critical Paths under _high_isr in COMRAM

    None.

Critical Paths under _main in BANK0

    None.

Critical Paths under _low_isr in BANK0

    None.

Critical Paths under _high_isr in BANK0

    None.

Critical Paths under _main in BANK1

    None.

Critical Paths under _low_isr in BANK1

    None.

Critical Paths under _high_isr in BANK1

    None.

Critical Paths under _main in BANK2

    None.

Critical Paths under _low_isr in BANK2

    None.

Critical Paths under _high_isr in BANK2

    None.

Critical Paths under _main in BANK3

    None.

Critical Paths under _low_isr in BANK3

    None.

Critical Paths under _high_isr in BANK3

    None.

Critical Paths under _main in BANK4

    None.

Critical Paths under _low_isr in BANK4

    None.

Critical Paths under _high_isr in BANK4

    None.

Critical Paths under _main in BANK5

    None.

Critical Paths under _low_isr in BANK5

    None.

Critical Paths under _high_isr in BANK5

    None.

Critical Paths under _main in BANK6

    None.

Critical Paths under _low_isr in BANK6

    None.

Critical Paths under _high_isr in BANK6

    None.

Critical Paths under _main in BANK7

    None.

Critical Paths under _low_isr in BANK7

    None.

Critical Paths under _high_isr in BANK7

    None.

Call Graph Tables:

 ---------------------------------------------------------------------------------
 (Depth) Function   	        Calls       Base Space   Used Autos Params    Refs
 ---------------------------------------------------------------------------------
 (0) _main                                                10    10      0   11602
                                             59 COMRAM    10    10      0
                      _PWM_CCP1_init
                      _PWM_CCP2_init
                  _PWM_DutyCycleCCP1
                  _PWM_DutyCycleCCP2
                           _UARTinit
               _habilitarIntExternas
                   _habilitarIntTMR0
                   _habilitarIntTMR1
                _imprimirCoordenadas
                   _interruptsEnable
               _introducirCoordNueva
                         _motorXinit
                         _motorYinit
                           _portInit
                             _printf
                            _receive
                              _scanf
                           _tmr0Init
                           _tmr1Init
 ---------------------------------------------------------------------------------
 (1) _tmr1Init                                             0     0      0       0
 ---------------------------------------------------------------------------------
 (1) _tmr0Init                                             0     0      0       0
 ---------------------------------------------------------------------------------
 (1) _scanf                                                4     1      3     265
                                              2 COMRAM     4     1      3
                            _receive
 ---------------------------------------------------------------------------------
 (1) _portInit                                             0     0      0       0
 ---------------------------------------------------------------------------------
 (1) _motorYinit                                           0     0      0       0
 ---------------------------------------------------------------------------------
 (1) _motorXinit                                           0     0      0       0
 ---------------------------------------------------------------------------------
 (1) _introducirCoordNueva                                 9     9      0    1541
                                              7 COMRAM     9     9      0
                             _printf
                            _receive
                               _send
 ---------------------------------------------------------------------------------
 (2) _receive                                              1     1      0      23
                                              1 COMRAM     1     1      0
 ---------------------------------------------------------------------------------
 (1) _interruptsEnable                                     0     0      0       0
 ---------------------------------------------------------------------------------
 (1) _imprimirCoordenadas                                  2     2      0    1715
                                              7 COMRAM     2     2      0
                             _printf
                               _send
 ---------------------------------------------------------------------------------
 (1) _printf                                               5     3      2    1448
                                              2 COMRAM     5     3      2
                               _send
 ---------------------------------------------------------------------------------
 (2) _send                                                 1     1      0      22
                                              1 COMRAM     1     1      0
 ---------------------------------------------------------------------------------
 (1) _habilitarIntTMR1                                     0     0      0       0
 ---------------------------------------------------------------------------------
 (1) _habilitarIntTMR0                                     0     0      0       0
 ---------------------------------------------------------------------------------
 (1) _habilitarIntExternas                                 0     0      0       0
 ---------------------------------------------------------------------------------
 (1) _UARTinit                                             0     0      0       0
 ---------------------------------------------------------------------------------
 (1) _PWM_DutyCycleCCP2                                    9     9      0    3145
                                             50 COMRAM     9     9      0
                            ___flmul
                            ___fltol
                           ___xxtofl
 ---------------------------------------------------------------------------------
 (1) _PWM_DutyCycleCCP1                                    9     9      0    3145
                                             50 COMRAM     9     9      0
                            ___flmul
                            ___fltol
                           ___xxtofl
 ---------------------------------------------------------------------------------
 (2) ___xxtofl                                            14    10      4     474
                                              1 COMRAM    14    10      4
 ---------------------------------------------------------------------------------
 (2) ___fltol                                             10     6      4     381
                                             40 COMRAM    10     6      4
                            ___flmul (ARG)
                           ___xxtofl (ARG)
 ---------------------------------------------------------------------------------
 (2) ___flmul                                             25    17      8    2200
                                             15 COMRAM    25    17      8
                           ___xxtofl (ARG)
 ---------------------------------------------------------------------------------
 (1) _PWM_CCP2_init                                        0     0      0       0
 ---------------------------------------------------------------------------------
 (1) _PWM_CCP1_init                                        0     0      0       0
 ---------------------------------------------------------------------------------
 Estimated maximum stack depth 2
 ---------------------------------------------------------------------------------
 (Depth) Function   	        Calls       Base Space   Used Autos Params    Refs
 ---------------------------------------------------------------------------------
 (4) _low_isr                                              1     1      0       0
                                              0 COMRAM     1     1      0
 ---------------------------------------------------------------------------------
 Estimated maximum stack depth 4
 ---------------------------------------------------------------------------------
 (Depth) Function   	        Calls       Base Space   Used Autos Params    Refs
 ---------------------------------------------------------------------------------
 (5) _high_isr                                             0     0      0       0
 ---------------------------------------------------------------------------------
 Estimated maximum stack depth 5
 ---------------------------------------------------------------------------------

 Call Graph Graphs:

 _main (ROOT)
   _PWM_CCP1_init
   _PWM_CCP2_init
   _PWM_DutyCycleCCP1
     ___flmul
       ___xxtofl (ARG)
     ___fltol
       ___flmul (ARG)
         ___xxtofl (ARG)
       ___xxtofl (ARG)
     ___xxtofl
   _PWM_DutyCycleCCP2
     ___flmul
       ___xxtofl (ARG)
     ___fltol
       ___flmul (ARG)
         ___xxtofl (ARG)
       ___xxtofl (ARG)
     ___xxtofl
   _UARTinit
   _habilitarIntExternas
   _habilitarIntTMR0
   _habilitarIntTMR1
   _imprimirCoordenadas
     _printf
       _send
     _send
   _interruptsEnable
   _introducirCoordNueva
     _printf
       _send
     _receive
     _send
   _motorXinit
   _motorYinit
   _portInit
   _printf
     _send
   _receive
   _scanf
     _receive
   _tmr0Init
   _tmr1Init

 _low_isr (ROOT)

 _high_isr (ROOT)

 Address spaces:
Name               Size   Autos  Total    Cost      Usage
BIGRAM             7FF      0       0      21        0.0%
EEDATA             100      0       0       0        0.0%
BITBANK7           100      0       0      18        0.0%
BANK7              100      0       0      19        0.0%
BITBANK6           100      0       0      16        0.0%
BANK6              100      0       0      17        0.0%
BITBANK5           100      0       0      14        0.0%
BANK5              100      0       0      15        0.0%
BITBANK4           100      0       0      12        0.0%
BANK4              100      0       0      13        0.0%
BITBANK3           100      0       0      10        0.0%
BANK3              100      0       0      11        0.0%
BITBANK2           100      0       0       8        0.0%
BANK2              100      0       0       9        0.0%
BITBANK1           100      0       0       6        0.0%
BANK1              100      0       0       7        0.0%
BITBANK0            A0      0       0       4        0.0%
BANK0               A0      0      58       5       55.0%
BITCOMRAM           5E      0       0       0        0.0%
COMRAM              5E     45      59       1       94.7%
BITSFR               0      0       0     200        0.0%
SFR                  0      0       0     200        0.0%
STACK                0      0       0       2        0.0%
NULL                 0      0       0       0        0.0%
ABS                  0      0      B1      20        0.0%
DATA                 0      0      B1       3        0.0%
CODE                 0      0       0       0        0.0%


Microchip Technology PIC18 Macro Assembler V2.10 build 88905656 
Symbol Table                                                                                   Wed Nov 27 12:56:37 2019

                  _introducirCoordNueva 0456                                      l22 0F60  
                                    l25 0F84                                      l50 0F00  
                                    l19 0F8E                                      l44 0F34  
                                    l53 0F64                                      l71 0ECC  
                                    l47 0EE8                                      l56 0F76  
                                    l49 0EF6                                      l74 0D22  
                                    l92 0DD6                                      l89 0EAE  
                                    bsr 000FE0                                     l140 0FA2  
                                   l134 0F1A                                     l151 0E36  
                                   l128 0F96                                     l137 0FA6  
                                   l180 0F4A                                     l157 0E66  
                                   l335 0B68                                     l327 06E6  
                                   l183 0EE6                                     l635 0C6E  
                                   l952 00F0                                     l961 035E  
                                   l962 034C                                     l956 0454  
                                   l959 02E6                                     l969 0416  
                                   l993 073E                                     l996 089A  
                                   _PR2 000FCB                                     u600 0F72  
                                   u601 0F6E                                     u610 0EF6  
                                   u611 0EF2                                     u700 0100  
                                   u620 0E04                                     u701 00FC  
                                   u621 0E00                                     u710 0110  
                                   u630 0E36                                     u711 010C  
                                   u631 0E32                                     u800 03D0  
                                   u720 028A                                     u640 0046  
                                   u801 03CC                                     u641 0042  
                                   u810 03FE                                     u730 02E4  
                                   u650 0058                                     u811 03FA  
                                   u731 02E0                                     u651 0054  
                                   u820 0438                                     u740 0304  
                                   u660 0068                                     u900 06FA  
                                   u821 0434                                     u741 0300  
                                   u725 0280                                     u661 0064  
                                   u901 06F6                                     u750 0316  
                                   u670 00A8                                     u830 0B80  
                                   u910 0708                                     u751 0312  
                                   u671 00A4                                     u831 0B7C  
                                   u911 0704                                     u760 0344  
                                   u680 00BA                                     u840 0BB4  
                                   u920 0764                                     u761 0340  
                                   u681 00B6                                     u921 0760  
                                   u770 035A                                     u690 00CA  
                                   u850 0BE2                                     u930 07BA  
                                   u771 0356                                     u691 00C6  
                                   u851 0BDE                                     u931 07B6  
                                   u780 036E                                     u860 0BF6  
                                   u940 0804                                     u781 036A  
                                   u861 0BF2                                     u845 0BAA  
                                   u941 0800                                     u790 0388  
                                   u870 0C1E                                     u950 0822  
                                   u791 0384                                     u871 0C1A  
                                   u951 081E                                     u880 0C3E  
                                   u960 0832                                     u881 0C3A  
                                   u961 082E                                     u890 0C4E  
                                   u970 0840                                     u891 0C4A  
                                   u971 083C                                     u980 087A  
                                   u981 0876                                     u990 0888  
                                   u991 0884                                     wreg 000FE8  
                            _TXSTA1bits 000FAC                            ___flmul@aexp 0021  
                          ___flmul@bexp 0022                            ___flmul@sign 001C  
                          ___flmul@temp 0027                            ___flmul@prod 0023  
                          __CFG_LVP$OFF 000000                            ___fltol@exp1 0032  
                                  l1000 07D6                                    l1007 0832  
                                  l2001 09E6                                    l2003 09F2  
                                  l1301 0EAC                                    l2005 0A04  
                                  l1311 0F02                                    l2007 0A14  
                                  l1313 0FA4                                    l1315 0FA0  
                                  l1331 0ECE                                    l1309 0F90  
                                  l1261 0F4C                                    l1325 0F36  
                                  l1333 0EDC                                    l1271 0F26  
                                  l1263 0F78                                    l1327 0F40  
                                  l1335 0EE4                                    l1601 008E  
                                  l1281 0F30                                    l1273 0F28  
                                  l1265 0F1C                                    l1329 0F48  
                                  l1611 00BA                                    l1603 0094  
                                  l1283 0F32                                    l1275 0F2A  
                                  l1267 0F20                                    l1259 0F86  
                                  l1285 0EB0                                    l1701 041A  
                                  l1621 0110                                    l1613 00CA  
                                  l1605 009A                                    l1277 0F2C  
                                  l1269 0F24                                    l1287 0EB2  
                                  l1711 0444                                    l1703 042A  
                                  l1631 0150                                    l1615 00DA  
                                  l1607 00A8                                    l1279 0F2E  
                                  l1297 0E8E                                    l1289 0ECA  
                                  l1705 0438                                    l1641 019A  
                                  l1633 015C                                    l1625 0124  
                                  l1617 00E0                                    l1609 00AA  
                                  l1721 0B94                                    l1801 088A  
                                  l1561 0EE8                                    l1299 0E90  
                                  l1707 043A                                    l1651 01EC  
                                  l1643 01A6                                    l1635 0174  
                                  l1627 0130                                    l1619 0100  
                                  l1731 0BE2                                    l1723 0BBE  
                                  l1715 0B6A                                    l1811 0D26  
                                  l1563 0EFA                                    l1709 0440  
                                  l1661 026A                                    l1653 01FC  
                                  l1645 01B6                                    l1637 0180  
                                  l1629 013A                                    l1741 0C0E  
                                  l1725 0BC0                                    l1717 0B80  
                                  l1813 0DAA                                    l1805 0C72  
                                  l1557 0F64                                    l1581 0E24  
                                  l1573 0DDC                                    l1901 0A66  
                                  l1821 0E52                                    l1671 02E4  
                                  l1663 02A0                                    l1655 0218  
                                  l1647 01C2                                    l1639 018C  
                                  l1591 0048                                    l1751 0C3E  
                                  l1727 0BD0                                    l1815 0DBE  
                                  l1807 0CF6                                    l1559 0F72  
                                  l1583 0E26                                    l1567 0DD8  
                                  l1911 0A9A                                    l1903 0A72  
                                  l1831 047C                                    l1823 0E54  
                                  l1681 0344                                    l1673 02F6  
                                  l1665 02AE                                    l1657 0224  
                                  l1649 01D2                                    l1593 0058  
                                  l1585 002C                                    l1753 0C4E  
                                  l1737 0BFA                                    l1729 0BD4  
                                  l1761 06FA                                    l1809 0D0A  
                                  l1921 0AE8                                    l1913 0AAC  
                                  l1905 0A7A                                    l1841 04D0  
                                  l1833 048E                                    l1825 0456  
                                  l1817 0E38                                    l1691 03B2  
                                  l1675 0304                                    l1667 02CC  
                                  l1659 0240                                    l1595 0068  
                                  l1587 0038                                    l1755 0C5E  
                                  l1747 0C22                                    l1739 0C04  
                                  l1771 0778                                    l1763 0708  
                                  l1579 0E08                                    l1931 0B36  
                                  l1923 0AFA                                    l1915 0ABE  
                                  l1907 0A86                                    l1851 0524  
                                  l1843 04E2                                    l1835 04A0  
                                  l1827 045E                                    l1819 0E40  
                                  l1685 036E                                    l1693 03B6  
                                  l1677 0308                                    l1669 02D6  
                                  l1597 0078                                    l1589 0046  
                                  l1749 0C2E                                    l1781 07CC  
                                  l1773 0780                                    l1765 074E  
                                  l1933 0B48                                    l1925 0B0C  
                                  l1917 0AD0                                    l1909 0A8E  
                                  l1861 0614                                    l1853 0530  
                                  l1845 04EE                                    l1837 04AC  
                                  l1829 046A                                    l1941 089C  
                                  l1695 03D0                                    l1687 037A  
                                  l1679 0316                                    l1599 007E  
                                  l1791 0842                                    l1783 0808  
                                  l1775 078C                                    l1767 0764  
                                  l1759 06EA                                    l1935 0B4E  
                                  l1927 0B12                                    l1919 0AD6  
                                  l1871 0666                                    l1863 0624  
                                  l1855 058C                                    l1847 0500  
                                  l1839 04BE                                    l1951 08C8  
                                  l1943 08AC                                    l1697 03E4  
                                  l1689 0388                                    l1793 0846  
                                  l1785 0814                                    l1777 07BE  
                                  l1937 0B54                                    l1929 0B24  
                                  l1881 06A8                                    l1873 066C  
                                  l1865 0630                                    l1857 05E8  
                                  l1849 0512                                    l1961 08DC  
                                  l1953 08CC                                    l1945 08B2  
                                  l1699 03FE                                    l1795 086A  
                                  l1787 0822                                    l1779 07C0  
                                  l1939 0B56                                    l1891 0A28  
                                  l1883 06BA                                    l1875 067E  
                                  l1867 0642                                    l1859 05FE  
                                  l1971 091A                                    l1963 08E4  
                                  l1955 08D0                                    l1947 08B8  
                                  l1797 087A                                    l1789 0840  
                                  l1893 0A28                                    l1885 06CC  
                                  l1877 0690                                    l1869 0654  
                                  l1981 096E                                    l1973 092C  
                                  l1965 08E8                                    l1957 08D4  
                                  l1949 08BC                                    l1799 0888  
                                  l1895 0A34                                    l1887 06DE  
                                  l1879 06A2                                    l1991 09A8  
                                  l1983 0978                                    l1975 093E  
                                  l1967 08F4                                    l1959 08D8  
                                  l1897 0A50                                    l1889 06E4  
                                  l1993 09BA                                    l1977 0950  
                                  l1969 0908                                    l1899 0A60  
                                  l1995 09BE                                    l1987 0988  
                                  l1979 0962                                    l1997 09D0  
                                  l1989 0998                                    l1999 09D4  
                                  STR_1 7E7D                                    STR_2 7CED  
                                  STR_3 7F0D                                    STR_4 7FD9  
                                  STR_5 7FE6                                    STR_6 7E32  
                                  STR_7 7DC1                                    STR_8 7FBD  
                                  STR_9 7FCB                                    u1000 0E66  
                                  u1001 0E62                                    u1010 05FE  
                                  u1011 05FA                                    u1020 0614  
                                  u1100 0998                                    u1021 0610  
                                  u1101 0994                                    u1030 0A50  
                                  u1110 09A8                                    u1031 0A4C  
                                  u1111 09A4                                    u1040 0B68  
                                  u1120 09BA                                    u1041 0B64  
                                  u1121 09B6                                    u1130 09D0  
                                  u1050 091A                                    u1131 09CC  
                                  u1051 0916                                    u1140 09E6  
                                  u1060 092C                                    u1141 09E2  
                                  u1061 0928                                    u1150 0A04  
                                  u1070 093E                                    u1151 0A00  
                                  u1071 093A                                    u1080 0950  
                                  u1081 094C                                    u1090 0962  
                                  u1091 095E                                    _TMR0 000FD6  
                                  _TMR1 000FCE                                    _TMR2 000FCC  
                                  _main 089C                                    _send 0F62  
                                  indf2 000FDF                                    fsr2l 000FD9  
                                  btemp 005A                        scanf@guardarscan 0003  
                          main@pActMenu 003E                                    prodh 000FF4  
                                  prodl 000FF3                                    start 0028  
                 ?_introducirCoordNueva 0001                            ___param_bank 000000  
              __end_of_interruptsEnable 0F98                           ___fltol@sign1 0031  
                                 ?_main 0001                                   ?_send 0001  
                                 STR_10 7F32                                   STR_11 7F53  
                                 STR_12 7EE2                                   STR_13 7EB6  
                                 STR_14 7FF3                                   STR_15 7F74  
                                 STR_16 7FAE                                   STR_17 7F93  
                       __end_of___flmul 0456                         __end_of___fltol 0C70  
                                 i1l275 0020                                   i2l270 0F9C  
                                 _TMR0H 000FD7                                   _TMR1H 000FCF  
                                 _TMR0L 000FD6                                   _TMR1L 000FCE  
                                 _SPBRG 000FAF                        __end_of_UARTinit 0F36  
                       _coordenadaNueva 0059                                   _scanf 0E38  
                       __end_of_receive 0F02                         __end_of_low_isr 0028  
                       ??_PWM_CCP1_init 0002                         ??_PWM_CCP2_init 0002  
                                 tablat 000FF5                                   ttemp5 005B  
                                 ttemp6 005E                                   ttemp7 0062  
                                 status 000FD8                                   wtemp8 005B  
                        __CFG_MCLRE$OFF 000000                         __initialization 0E68  
                          __end_of_main 0A28                            __end_of_send 0F78  
                                ??_main 003C                                  ??_send 0002  
                         __activetblptr 000002                        _habilitarIntTMR0 0FA4  
                      _habilitarIntTMR1 0FA0           PWM_DutyCycleCCP1@PWMDutyValue 003A  
         __size_of_habilitarIntExternas 001A                                  ?_scanf 0003  
                                _ADRESH 000FC4                                  _ADRESL 000FC3  
                                _CCPR1L 000FBE                                  _CCPR2L 000FBB  
                                i1l1487 001E                                  i2l1485 0F9A  
                                _RCREG1 000FAE                                  _OSCCON 000FD3  
                                _TXREG1 000FAD                        __end_of___xxtofl 089C  
                ??_introducirCoordNueva 0008                        __end_of_high_isr 0FA0  
                             ??___flmul 0018                               ??___fltol 002D  
                         main@opcionsel 0045                                  clear_0 0E6E  
                                clear_1 0E7A             __end_of_imprimirCoordenadas 0B6A  
                                _printf 0DD8                        __end_of_tmr0Init 0F4C  
                      __end_of_tmr1Init 0EE8                                  scanf@i 0006  
                             ??_receive 0002                            __mediumconst 7CEC  
                      __end_of_portInit 0F90                               ??_low_isr 0001  
                                tblptrh 000FF7                                  tblptrl 000FF6  
                                tblptru 000FF8                            ___xxtofl@arg 000C  
                          ___xxtofl@exp 000B                            ___xxtofl@val 0002  
                            __accesstop 0060                 __end_of__initialization 0E80  
                         ___rparam_used 000001                       _presionarZDecenas 006A  
                            ___fltol@f1 0029                          __pcstackCOMRAM 0001  
                         __end_of_scanf 0E68                               ?_UARTinit 0001  
                           _CurrentPosX 0054                             _CurrentPosY 0050  
         PWM_DutyCycleCCP2@PWMDutyValue 003A                                 ??_scanf 0006  
                            __pbssBANK0 0060                              ??_UARTinit 0002  
                               ?_printf 0003                       ?_interruptsEnable 0001  
                    ??_interruptsEnable 0002                               ?___xxtofl 0002  
                             ?_high_isr 0001                               ?_tmr0Init 0001  
                             ?_tmr1Init 0001                              _xToAdvance 0056  
              __end_of_habilitarIntTMR0 0FA8                __end_of_habilitarIntTMR1 0FA4  
                               __Hparam 0000                                 __Lparam 0000  
                            _yToAdvance 0052                               ?_portInit 0001  
                               ___flmul 002C                                 ___fltol 0B6A  
                               __pcinit 0E68                                 __ramtop 0800  
                               __ptext0 089C                                 __ptext1 0ECE  
                               __ptext2 0F36                                 __ptext3 0E38  
                               __ptext4 0F86                                 __ptext5 0F78  
                               __ptext6 0F4C                                 __ptext7 0456  
                               __ptext8 0EE8                                 __ptext9 0F90  
                       __size_of_printf 0060                               _T0CONbits 000FD5  
                             _T1CONbits 000FCD                               _T2CONbits 000FCA  
                            ??___xxtofl 0006                                 _receive 0EE8  
                               _low_isr 0018                              ??_high_isr 0001  
                        __pintcode_body 0F98                    end_of_initialization 0E80  
                               _working 0058                           __Lmediumconst 7CEC  
                 __end_of_PWM_CCP1_init 0EB0                                 int_func 0F98  
                 __end_of_PWM_CCP2_init 0ECE                              ??_tmr0Init 0002  
                            ??_tmr1Init 0002            __end_of_habilitarIntExternas 0F1C  
                               printf@i 0007                              ??_portInit 0002  
                               postinc0 000FEE                              _motorXinit 0F4C  
                            _motorYinit 0F78                         receive@recibido 0002  
                         ___xxtofl@sign 000A                               _TRISAbits 000F92  
                             _TRISBbits 000F93                               _TRISCbits 000F94  
                             _TRISDbits 000F95                             ___flmul@grs 001D  
                           _CCP1CONbits 000FBD                             _CCP2CONbits 000FBA  
                    _presionarZCentenas 0074           __size_of_introducirCoordNueva 0292  
                           _BAUDCONbits 000FB8                       __size_of_UARTinit 001A  
                        __end_of_printf 0E38                     start_initialization 0E68  
                    _presionarZUnidades 0060            __size_of_imprimirCoordenadas 0142  
                       main@activarmenu 0040                             ?_motorXinit 0001  
                           ?_motorYinit 0001                                ??_printf 0005  
                             ___flmul@a 0014                               ___flmul@b 0010  
                           __pbssCOMRAM 0046                            send@enviarpc 0002  
                  _habilitarIntExternas 0F02                       __size_of___xxtofl 01B4  
             __size_of_interruptsEnable 0008                       __size_of_high_isr 0F98  
                     _PWM_DutyCycleCCP1 0D24                       _PWM_DutyCycleCCP2 0C70  
                    ?_PWM_DutyCycleCCP1 0001                      ?_PWM_DutyCycleCCP2 0001  
                     ?_habilitarIntTMR0 0001                       ?_habilitarIntTMR1 0001  
                     __size_of_tmr0Init 0016                       __size_of_tmr1Init 001A  
                             __pintcode 0008                           __pmediumconst 7CEC  
                    ??_habilitarIntTMR0 0002                      ??_habilitarIntTMR1 0002  
imprimirCoordenadas@impresionCoordenada 0009                                ?___flmul 0010  
                              ?___fltol 0029                     ??_PWM_DutyCycleCCP1 0033  
                   ??_PWM_DutyCycleCCP2 0033                             __pintcodelo 0018  
                     __size_of_portInit 000A                                ?_receive 0001  
                              ?_low_isr 0001                   ?_habilitarIntExternas 0001  
                        __size_of_scanf 0030                     __size_of_motorXinit 0016  
             __end_of_PWM_DutyCycleCCP1 0DD8               __end_of_PWM_DutyCycleCCP2 0D24  
                   __size_of_motorYinit 000E                                _LATAbits 000F89  
                              _LATCbits 000F8B                                _LATDbits 000F8C  
                              _PIE1bits 000F9D                                _PIR1bits 000F9E  
                              _RCONbits 000FD0                                _UARTinit 0F1C  
                            _ADCON0bits 000FC2                              _ADCON1bits 000FC1  
                            _ADCON2bits 000FC0                             _coordinates 00B0  
                           _INTCON2bits 000FF1                             _INTCON3bits 000FF0  
                    scanf@numcaracteres 0005                                __Hrparam 0000  
                   _imprimirCoordenadas 0A28                                __Lrparam 0000  
                      __size_of___flmul 042A                        __size_of___fltol 0106  
                __size_of_PWM_CCP1_init 0022                       printf@PointString 0003  
                __size_of_PWM_CCP2_init 001E                                ___xxtofl 06E8  
                ??_habilitarIntExternas 0002                         main@tamanoarray 003C  
                  ?_imprimirCoordenadas 0001            __end_of_introducirCoordNueva 06E8  
                      __size_of_receive 001A                        __size_of_low_isr 0010  
                              __ptext10 0A28                                __ptext11 0DD8  
                              __ptext20 0B6A                                __ptext12 0F62  
                              __ptext21 002C                                __ptext13 0FA0  
                              __ptext22 0EB0                                __ptext14 0FA4  
                              __ptext23 0E8E                                __ptext15 0F02  
                              __ptext16 0F1C                                __ptext17 0C70  
                              __ptext18 0D24                                __ptext19 06E8  
                              _high_isr 0008        PWM_DutyCycleCCP1@WantedDutyCycle 0039  
            __size_of_PWM_DutyCycleCCP1 00B4              __size_of_PWM_DutyCycleCCP2 00B4  
     introducirCoordNueva@validarCoordX 000D       introducirCoordNueva@validarCoordY 000F  
                      _interruptsEnable 0F90                           __size_of_main 018C  
                         __size_of_send 0016                                _tmr0Init 0F36  
                              _tmr1Init 0ECE                                _portInit 0F86  
                              int$flags 005A                            ??_motorXinit 0002  
                          ??_motorYinit 0002                              _INTCONbits 000FF2  
                 ??_imprimirCoordenadas 0008                  _PWM_DutyCycleCCP1$2206 0035  
                _PWM_DutyCycleCCP2$2205 0035                                intlevel1 0000  
                              intlevel2 0000                      __end_of_motorXinit 0F62  
                    __end_of_motorYinit 0F86                          _coordXCentenas 0046  
                         _PWM_CCP1_init 0E8E                           _PWM_CCP2_init 0EB0  
                            _RCSTA1bits 000FAB                          _coordYCentenas 0092  
      PWM_DutyCycleCCP2@WantedDutyCycle 0039                     __CFG_FOSC$INTOSC_EC 000000  
                         _coordXDecenas 00A6                           _coordYDecenas 0088  
             __size_of_habilitarIntTMR0 0004               __size_of_habilitarIntTMR1 0004  
                        _coordXUnidades 009C                          _coordYUnidades 007E  
                        ?_PWM_CCP1_init 0001                          ?_PWM_CCP2_init 0001  
