

Microchip MPLAB XC8 Assembler V2.10 build 88905656 
                                                                                               Fri Nov 29 10:29:10 2019

Microchip MPLAB XC8 C Compiler v2.10 (Free license) build 20190730164152 Og1 
     1                           	processor	18F4550
     2                           	fnconf	rparam,??,?,0
     3                           	opt	pw 120
     4                           	opt	flic
     5                           	psect	mediumconst,global,reloc=2,class=MEDIUMCONST,delta=1,noexec
     6                           	psect	cinit,global,reloc=2,class=CODE,delta=1
     7                           	psect	bssCOMRAM,global,class=COMRAM,space=1,delta=1,noexec
     8                           	psect	bssBANK0,global,class=BANK0,space=1,delta=1,lowdata,noexec
     9                           	psect	bssBANK1,global,class=BANK1,space=1,delta=1,lowdata,noexec
    10                           	psect	cstackBANK0,global,class=BANK0,space=1,delta=1,noexec
    11                           	psect	cstackCOMRAM,global,class=COMRAM,space=1,delta=1,noexec
    12                           	psect	text0,global,reloc=2,class=CODE,delta=1
    13                           	psect	text1,global,reloc=2,class=CODE,delta=1
    14                           	psect	text2,global,reloc=2,class=CODE,delta=1
    15                           	psect	text3,global,reloc=2,class=CODE,delta=1
    16                           	psect	text4,global,reloc=2,class=CODE,delta=1
    17                           	psect	text5,global,reloc=2,class=CODE,delta=1
    18                           	psect	text6,global,reloc=2,class=CODE,delta=1
    19                           	psect	text7,global,reloc=2,class=CODE,delta=1
    20                           	psect	text8,global,reloc=2,class=CODE,delta=1,group=2
    21                           	psect	text9,global,reloc=2,class=CODE,delta=1,group=1
    22                           	psect	text10,global,reloc=2,class=CODE,delta=1
    23                           	psect	text11,global,reloc=2,class=CODE,delta=1
    24                           	psect	text12,global,reloc=2,class=CODE,delta=1,group=1
    25                           	psect	text13,global,reloc=2,class=CODE,delta=1,group=1
    26                           	psect	text14,global,reloc=2,class=CODE,delta=1,group=1
    27                           	psect	text15,global,reloc=2,class=CODE,delta=1
    28                           	psect	text16,global,reloc=2,class=CODE,delta=1
    29                           	psect	text17,global,reloc=2,class=CODE,delta=1
    30                           	psect	text18,global,reloc=2,class=CODE,delta=1
    31                           	psect	text19,global,reloc=2,class=CODE,delta=1
    32                           	psect	text20,global,reloc=2,class=CODE,delta=1
    33                           	psect	text21,global,reloc=2,class=CODE,delta=1
    34                           	psect	text22,global,reloc=2,class=CODE,delta=1
    35                           	psect	text23,global,reloc=2,class=CODE,delta=1
    36                           	psect	text24,global,reloc=2,class=CODE,delta=1
    37                           	psect	text25,global,reloc=2,class=CODE,delta=1
    38                           	psect	text26,global,reloc=2,class=CODE,delta=1
    39                           	psect	text27,global,reloc=2,class=CODE,delta=1
    40                           	psect	text28,global,reloc=2,class=CODE,delta=1
    41                           	psect	text29,global,reloc=2,class=CODE,delta=1
    42                           	psect	intcodelo,global,reloc=2,class=CODE,delta=1
    43                           	psect	intcode,global,reloc=2,class=CODE,delta=1
    44                           	psect	intcode_body,global,reloc=2,class=CODE,delta=1
    45                           	psect	text32,global,reloc=2,class=CODE,delta=1
    46                           	psect	text33,global,reloc=2,class=CODE,delta=1
    47                           	psect	text34,global,reloc=2,class=CODE,delta=1
    48                           	psect	text35,global,reloc=2,class=CODE,delta=1
    49                           	psect	text36,global,reloc=2,class=CODE,delta=1
    50                           	psect	text37,global,reloc=2,class=CODE,delta=1
    51                           	psect	text38,global,reloc=2,class=CODE,delta=1
    52                           	psect	intsave_regs,global,class=BIGRAM,space=1,delta=1,noexec
    53                           	psect	rparam,global,class=COMRAM,space=1,delta=1,noexec
    54                           	psect	temp,global,ovrld,common,class=COMRAM,space=1,delta=1
    55  0000                     
    56                           ; Version 2.10
    57                           ; Generated 31/07/2019 GMT
    58                           ; 
    59                           ; Copyright © 2019, Microchip Technology Inc. and its subsidiaries ("Microchip")
    60                           ; All rights reserved.
    61                           ; 
    62                           ; This software is developed by Microchip Technology Inc. and its subsidiaries ("Microch
      +                          ip").
    63                           ; 
    64                           ; Redistribution and use in source and binary forms, with or without modification, are
    65                           ; permitted provided that the following conditions are met:
    66                           ; 
    67                           ;     1. Redistributions of source code must retain the above copyright notice, this lis
      +                          t of
    68                           ;        conditions and the following disclaimer.
    69                           ; 
    70                           ;     2. Redistributions in binary form must reproduce the above copyright notice, this 
      +                          list
    71                           ;        of conditions and the following disclaimer in the documentation and/or other
    72                           ;        materials provided with the distribution.
    73                           ; 
    74                           ;     3. Microchip's name may not be used to endorse or promote products derived from th
      +                          is
    75                           ;        software without specific prior written permission.
    76                           ; 
    77                           ; THIS SOFTWARE IS PROVIDED BY MICROCHIP "AS IS" AND ANY EXPRESS OR IMPLIED WARRANTIES,
    78                           ; INCLUDING, BUT NOT LIMITED TO, THE IMPLIED WARRANTIES OF MERCHANTABILITY AND FITNESS F
      +                          OR
    79                           ; PURPOSE ARE DISCLAIMED.  IN NO EVENT SHALL MICROCHIP BE LIABLE FOR ANY DIRECT, INDIREC
      +                          T,
    80                           ; INCIDENTAL, SPECIAL, EXEMPLARY, OR CONSEQUENTIAL DAMAGES (INCLUDING BUT NOT LIMITED TO
    81                           ; PROCUREMENT OF SUBSTITUTE GOODS OR SERVICES; LOSS OF USE, DATA OR PROFITS; OR BUSINESS
    82                           ; INTERRUPTION) HOWSOEVER CAUSED AND ON ANY THEORY OF LIABILITY, WHETHER IN CONTRACT, ST
      +                          RICT
    83                           ; LIABILITY, OR TORT (INCLUDING NEGLIGENCE OR OTHERWISE) ARISING IN ANY WAY OUT OF THE U
      +                          SE OF
    84                           ; THIS SOFTWARE, EVEN IF ADVISED OF THE POSSIBILITY OF SUCH DAMAGE.
    85                           ; 
    86                           ; 
    87                           ; Code-generator required, PIC18F4550 Definitions
    88                           ; 
    89                           ; SFR Addresses
    90  0000                     _TMR0	set	4054
    91  0000                     _TMR1	set	4046
    92  0000                     _LATBbits	set	3978
    93  0000                     _TMR0L	set	4054
    94  0000                     _TMR0H	set	4055
    95  0000                     _TMR1L	set	4046
    96  0000                     _TMR1H	set	4047
    97  0000                     _T0CONbits	set	4053
    98  0000                     _T1CONbits	set	4045
    99  0000                     _PIE1bits	set	3997
   100  0000                     _INTCON3bits	set	4080
   101  0000                     _TRISBbits	set	3987
   102  0000                     _INTCON2bits	set	4081
   103  0000                     _INTCONbits	set	4082
   104  0000                     _RCONbits	set	4048
   105  0000                     _TRISAbits	set	3986
   106  0000                     _ADRESL	set	4035
   107  0000                     _ADRESH	set	4036
   108  0000                     _ADCON2bits	set	4032
   109  0000                     _ADCON0bits	set	4034
   110  0000                     _CCPR1L	set	4030
   111  0000                     _CCP1CONbits	set	4029
   112  0000                     _TMR2	set	4044
   113  0000                     _CCPR2L	set	4027
   114  0000                     _T2CONbits	set	4042
   115  0000                     _PR2	set	4043
   116  0000                     _CCP2CONbits	set	4026
   117  0000                     _TXREG1	set	4013
   118  0000                     _RCREG1	set	4014
   119  0000                     _PIR1bits	set	3998
   120  0000                     _RCSTA1bits	set	4011
   121  0000                     _BAUDCONbits	set	4024
   122  0000                     _TXSTA1bits	set	4012
   123  0000                     _SPBRG	set	4015
   124  0000                     _LATCbits	set	3979
   125  0000                     _LATDbits	set	3980
   126  0000                     _TRISCbits	set	3988
   127  0000                     _TRISDbits	set	3989
   128  0000                     _OSCCON	set	4051
   129  0000                     _ADCON1bits	set	4033
   130                           
   131                           	psect	mediumconst
   132  007A5C                     __pmediumconst:
   133                           	opt callstack 0
   134  007A5C  00                 	db	0
   135  007A5D                     STR_24:
   136  007A5D  28                 	db	40
   137  007A5E  30                 	db	48	;'0'
   138  007A5F  29                 	db	41
   139  007A60  41                 	db	65	;'A'
   140  007A61  79                 	db	121	;'y'
   141  007A62  75                 	db	117	;'u'
   142  007A63  64                 	db	100	;'d'
   143  007A64  61                 	db	97	;'a'
   144  007A65  20                 	db	32
   145  007A66  73                 	db	115	;'s'
   146  007A67  6F                 	db	111	;'o'
   147  007A68  62                 	db	98	;'b'
   148  007A69  72                 	db	114	;'r'
   149  007A6A  65                 	db	101	;'e'
   150  007A6B  20                 	db	32
   151  007A6C  63                 	db	99	;'c'
   152  007A6D  6F                 	db	111	;'o'
   153  007A6E  6D                 	db	109	;'m'
   154  007A6F  6F                 	db	111	;'o'
   155  007A70  20                 	db	32
   156  007A71  66                 	db	102	;'f'
   157  007A72  75                 	db	117	;'u'
   158  007A73  6E                 	db	110	;'n'
   159  007A74  63                 	db	99	;'c'
   160  007A75  69                 	db	105	;'i'
   161  007A76  6F                 	db	111	;'o'
   162  007A77  6E                 	db	110	;'n'
   163  007A78  61                 	db	97	;'a'
   164  007A79  20                 	db	32
   165  007A7A  65                 	db	101	;'e'
   166  007A7B  6C                 	db	108	;'l'
   167  007A7C  20                 	db	32
   168  007A7D  70                 	db	112	;'p'
   169  007A7E  72                 	db	114	;'r'
   170  007A7F  6F                 	db	111	;'o'
   171  007A80  67                 	db	103	;'g'
   172  007A81  72                 	db	114	;'r'
   173  007A82  61                 	db	97	;'a'
   174  007A83  6D                 	db	109	;'m'
   175  007A84  61                 	db	97	;'a'
   176  007A85  20                 	db	32
   177  007A86  28                 	db	40
   178  007A87  31                 	db	49	;'1'
   179  007A88  29                 	db	41
   180  007A89  49                 	db	73	;'I'
   181  007A8A  6E                 	db	110	;'n'
   182  007A8B  74                 	db	116	;'t'
   183  007A8C  72                 	db	114	;'r'
   184  007A8D  6F                 	db	111	;'o'
   185  007A8E  64                 	db	100	;'d'
   186  007A8F  75                 	db	117	;'u'
   187  007A90  63                 	db	99	;'c'
   188  007A91  69                 	db	105	;'i'
   189  007A92  72                 	db	114	;'r'
   190  007A93  20                 	db	32
   191  007A94  63                 	db	99	;'c'
   192  007A95  6F                 	db	111	;'o'
   193  007A96  6F                 	db	111	;'o'
   194  007A97  72                 	db	114	;'r'
   195  007A98  64                 	db	100	;'d'
   196  007A99  65                 	db	101	;'e'
   197  007A9A  6E                 	db	110	;'n'
   198  007A9B  61                 	db	97	;'a'
   199  007A9C  64                 	db	100	;'d'
   200  007A9D  61                 	db	97	;'a'
   201  007A9E  20                 	db	32
   202  007A9F  6E                 	db	110	;'n'
   203  007AA0  75                 	db	117	;'u'
   204  007AA1  65                 	db	101	;'e'
   205  007AA2  76                 	db	118	;'v'
   206  007AA3  61                 	db	97	;'a'
   207  007AA4  20                 	db	32
   208  007AA5  28                 	db	40
   209  007AA6  32                 	db	50	;'2'
   210  007AA7  29                 	db	41
   211  007AA8  49                 	db	73	;'I'
   212  007AA9  6D                 	db	109	;'m'
   213  007AAA  70                 	db	112	;'p'
   214  007AAB  72                 	db	114	;'r'
   215  007AAC  69                 	db	105	;'i'
   216  007AAD  6D                 	db	109	;'m'
   217  007AAE  69                 	db	105	;'i'
   218  007AAF  72                 	db	114	;'r'
   219  007AB0  20                 	db	32
   220  007AB1  6C                 	db	108	;'l'
   221  007AB2  61                 	db	97	;'a'
   222  007AB3  73                 	db	115	;'s'
   223  007AB4  20                 	db	32
   224  007AB5  63                 	db	99	;'c'
   225  007AB6  6F                 	db	111	;'o'
   226  007AB7  6F                 	db	111	;'o'
   227  007AB8  72                 	db	114	;'r'
   228  007AB9  64                 	db	100	;'d'
   229  007ABA  65                 	db	101	;'e'
   230  007ABB  6E                 	db	110	;'n'
   231  007ABC  61                 	db	97	;'a'
   232  007ABD  64                 	db	100	;'d'
   233  007ABE  61                 	db	97	;'a'
   234  007ABF  73                 	db	115	;'s'
   235  007AC0  20                 	db	32
   236  007AC1  72                 	db	114	;'r'
   237  007AC2  65                 	db	101	;'e'
   238  007AC3  63                 	db	99	;'c'
   239  007AC4  69                 	db	105	;'i'
   240  007AC5  62                 	db	98	;'b'
   241  007AC6  69                 	db	105	;'i'
   242  007AC7  64                 	db	100	;'d'
   243  007AC8  61                 	db	97	;'a'
   244  007AC9  73                 	db	115	;'s'
   245  007ACA  20                 	db	32
   246  007ACB  28                 	db	40
   247  007ACC  33                 	db	51	;'3'
   248  007ACD  29                 	db	41
   249  007ACE  49                 	db	73	;'I'
   250  007ACF  72                 	db	114	;'r'
   251  007AD0  20                 	db	32
   252  007AD1  61                 	db	97	;'a'
   253  007AD2  20                 	db	32
   254  007AD3  68                 	db	104	;'h'
   255  007AD4  6F                 	db	111	;'o'
   256  007AD5  6D                 	db	109	;'m'
   257  007AD6  65                 	db	101	;'e'
   258  007AD7  0A                 	db	10
   259  007AD8  28                 	db	40
   260  007AD9  34                 	db	52	;'4'
   261  007ADA  29                 	db	41
   262  007ADB  4D                 	db	77	;'M'
   263  007ADC  6F                 	db	111	;'o'
   264  007ADD  64                 	db	100	;'d'
   265  007ADE  69                 	db	105	;'i'
   266  007ADF  66                 	db	102	;'f'
   267  007AE0  69                 	db	105	;'i'
   268  007AE1  63                 	db	99	;'c'
   269  007AE2  61                 	db	97	;'a'
   270  007AE3  72                 	db	114	;'r'
   271  007AE4  20                 	db	32
   272  007AE5  63                 	db	99	;'c'
   273  007AE6  6F                 	db	111	;'o'
   274  007AE7  6F                 	db	111	;'o'
   275  007AE8  72                 	db	114	;'r'
   276  007AE9  64                 	db	100	;'d'
   277  007AEA  65                 	db	101	;'e'
   278  007AEB  6E                 	db	110	;'n'
   279  007AEC  61                 	db	97	;'a'
   280  007AED  64                 	db	100	;'d'
   281  007AEE  61                 	db	97	;'a'
   282  007AEF  20                 	db	32
   283  007AF0  28                 	db	40
   284  007AF1  35                 	db	53	;'5'
   285  007AF2  29                 	db	41
   286  007AF3  49                 	db	73	;'I'
   287  007AF4  6E                 	db	110	;'n'
   288  007AF5  69                 	db	105	;'i'
   289  007AF6  63                 	db	99	;'c'
   290  007AF7  69                 	db	105	;'i'
   291  007AF8  61                 	db	97	;'a'
   292  007AF9  72                 	db	114	;'r'
   293  007AFA  20                 	db	32
   294  007AFB  50                 	db	80	;'P'
   295  007AFC  72                 	db	114	;'r'
   296  007AFD  6F                 	db	111	;'o'
   297  007AFE  67                 	db	103	;'g'
   298  007AFF  72                 	db	114	;'r'
   299  007B00  61                 	db	97	;'a'
   300  007B01  6D                 	db	109	;'m'
   301  007B02  61                 	db	97	;'a'
   302  007B03  20                 	db	32
   303  007B04  28                 	db	40
   304  007B05  36                 	db	54	;'6'
   305  007B06  29                 	db	41
   306  007B07  42                 	db	66	;'B'
   307  007B08  6F                 	db	111	;'o'
   308  007B09  72                 	db	114	;'r'
   309  007B0A  72                 	db	114	;'r'
   310  007B0B  61                 	db	97	;'a'
   311  007B0C  72                 	db	114	;'r'
   312  007B0D  20                 	db	32
   313  007B0E  65                 	db	101	;'e'
   314  007B0F  6C                 	db	108	;'l'
   315  007B10  20                 	db	32
   316  007B11  76                 	db	118	;'v'
   317  007B12  61                 	db	97	;'a'
   318  007B13  6C                 	db	108	;'l'
   319  007B14  6F                 	db	111	;'o'
   320  007B15  72                 	db	114	;'r'
   321  007B16  20                 	db	32
   322  007B17  64                 	db	100	;'d'
   323  007B18  65                 	db	101	;'e'
   324  007B19  20                 	db	32
   325  007B1A  74                 	db	116	;'t'
   326  007B1B  6F                 	db	111	;'o'
   327  007B1C  64                 	db	100	;'d'
   328  007B1D  61                 	db	97	;'a'
   329  007B1E  73                 	db	115	;'s'
   330  007B1F  20                 	db	32
   331  007B20  6C                 	db	108	;'l'
   332  007B21  61                 	db	97	;'a'
   333  007B22  73                 	db	115	;'s'
   334  007B23  20                 	db	32
   335  007B24  63                 	db	99	;'c'
   336  007B25  6F                 	db	111	;'o'
   337  007B26  6F                 	db	111	;'o'
   338  007B27  72                 	db	114	;'r'
   339  007B28  64                 	db	100	;'d'
   340  007B29  65                 	db	101	;'e'
   341  007B2A  6E                 	db	110	;'n'
   342  007B2B  61                 	db	97	;'a'
   343  007B2C  64                 	db	100	;'d'
   344  007B2D  61                 	db	97	;'a'
   345  007B2E  73                 	db	115	;'s'
   346  007B2F  0A                 	db	10
   347  007B30  00                 	db	0
   348  007B31                     STR_2:
   349  007B31  49                 	db	73	;'I'
   350  007B32  6E                 	db	110	;'n'
   351  007B33  74                 	db	116	;'t'
   352  007B34  72                 	db	114	;'r'
   353  007B35  6F                 	db	111	;'o'
   354  007B36  64                 	db	100	;'d'
   355  007B37  75                 	db	117	;'u'
   356  007B38  63                 	db	99	;'c'
   357  007B39  65                 	db	101	;'e'
   358  007B3A  20                 	db	32
   359  007B3B  65                 	db	101	;'e'
   360  007B3C  6E                 	db	110	;'n'
   361  007B3D  20                 	db	32
   362  007B3E  65                 	db	101	;'e'
   363  007B3F  6C                 	db	108	;'l'
   364  007B40  20                 	db	32
   365  007B41  73                 	db	115	;'s'
   366  007B42  69                 	db	105	;'i'
   367  007B43  67                 	db	103	;'g'
   368  007B44  75                 	db	117	;'u'
   369  007B45  69                 	db	105	;'i'
   370  007B46  65                 	db	101	;'e'
   371  007B47  6E                 	db	110	;'n'
   372  007B48  74                 	db	116	;'t'
   373  007B49  65                 	db	101	;'e'
   374  007B4A  20                 	db	32
   375  007B4B  6F                 	db	111	;'o'
   376  007B4C  72                 	db	114	;'r'
   377  007B4D  64                 	db	100	;'d'
   378  007B4E  65                 	db	101	;'e'
   379  007B4F  6E                 	db	110	;'n'
   380  007B50  20                 	db	32
   381  007B51  6C                 	db	108	;'l'
   382  007B52  61                 	db	97	;'a'
   383  007B53  73                 	db	115	;'s'
   384  007B54  20                 	db	32
   385  007B55  76                 	db	118	;'v'
   386  007B56  61                 	db	97	;'a'
   387  007B57  72                 	db	114	;'r'
   388  007B58  69                 	db	105	;'i'
   389  007B59  61                 	db	97	;'a'
   390  007B5A  62                 	db	98	;'b'
   391  007B5B  6C                 	db	108	;'l'
   392  007B5C  65                 	db	101	;'e'
   393  007B5D  73                 	db	115	;'s'
   394  007B5E  20                 	db	32
   395  007B5F  61                 	db	97	;'a'
   396  007B60  20                 	db	32
   397  007B61  75                 	db	117	;'u'
   398  007B62  73                 	db	115	;'s'
   399  007B63  61                 	db	97	;'a'
   400  007B64  72                 	db	114	;'r'
   401  007B65  20                 	db	32
   402  007B66  28                 	db	40
   403  007B67  6E                 	db	110	;'n'
   404  007B68  6F                 	db	111	;'o'
   405  007B69  20                 	db	32
   406  007B6A  75                 	db	117	;'u'
   407  007B6B  73                 	db	115	;'s'
   408  007B6C  65                 	db	101	;'e'
   409  007B6D  73                 	db	115	;'s'
   410  007B6E  20                 	db	32
   411  007B6F  6C                 	db	108	;'l'
   412  007B70  61                 	db	97	;'a'
   413  007B71  73                 	db	115	;'s'
   414  007B72  20                 	db	32
   415  007B73  63                 	db	99	;'c'
   416  007B74  6F                 	db	111	;'o'
   417  007B75  6D                 	db	109	;'m'
   418  007B76  61                 	db	97	;'a'
   419  007B77  73                 	db	115	;'s'
   420  007B78  29                 	db	41
   421  007B79  3A                 	db	58	;':'
   422  007B7A  20                 	db	32
   423  007B7B  63                 	db	99	;'c'
   424  007B7C  6F                 	db	111	;'o'
   425  007B7D  6F                 	db	111	;'o'
   426  007B7E  72                 	db	114	;'r'
   427  007B7F  64                 	db	100	;'d'
   428  007B80  58                 	db	88	;'X'
   429  007B81  2C                 	db	44
   430  007B82  63                 	db	99	;'c'
   431  007B83  6F                 	db	111	;'o'
   432  007B84  6F                 	db	111	;'o'
   433  007B85  72                 	db	114	;'r'
   434  007B86  64                 	db	100	;'d'
   435  007B87  59                 	db	89	;'Y'
   436  007B88  2C                 	db	44
   437  007B89  23                 	db	35
   438  007B8A  20                 	db	32
   439  007B8B  64                 	db	100	;'d'
   440  007B8C  65                 	db	101	;'e'
   441  007B8D  20                 	db	32
   442  007B8E  76                 	db	118	;'v'
   443  007B8F  65                 	db	101	;'e'
   444  007B90  63                 	db	99	;'c'
   445  007B91  65                 	db	101	;'e'
   446  007B92  73                 	db	115	;'s'
   447  007B93  20                 	db	32
   448  007B94  61                 	db	97	;'a'
   449  007B95  20                 	db	32
   450  007B96  70                 	db	112	;'p'
   451  007B97  72                 	db	114	;'r'
   452  007B98  65                 	db	101	;'e'
   453  007B99  73                 	db	115	;'s'
   454  007B9A  69                 	db	105	;'i'
   455  007B9B  6F                 	db	111	;'o'
   456  007B9C  6E                 	db	110	;'n'
   457  007B9D  61                 	db	97	;'a'
   458  007B9E  72                 	db	114	;'r'
   459  007B9F  20                 	db	32
   460  007BA0  5A                 	db	90	;'Z'
   461  007BA1  00                 	db	0
   462  007BA2                     STR_35:
   463  007BA2  54                 	db	84	;'T'
   464  007BA3  75                 	db	117	;'u'
   465  007BA4  76                 	db	118	;'v'
   466  007BA5  69                 	db	105	;'i'
   467  007BA6  73                 	db	115	;'s'
   468  007BA7  74                 	db	116	;'t'
   469  007BA8  65                 	db	101	;'e'
   470  007BA9  20                 	db	32
   471  007BAA  75                 	db	117	;'u'
   472  007BAB  6E                 	db	110	;'n'
   473  007BAC  20                 	db	32
   474  007BAD  65                 	db	101	;'e'
   475  007BAE  72                 	db	114	;'r'
   476  007BAF  72                 	db	114	;'r'
   477  007BB0  6F                 	db	111	;'o'
   478  007BB1  72                 	db	114	;'r'
   479  007BB2  2C                 	db	44
   480  007BB3  20                 	db	32
   481  007BB4  65                 	db	101	;'e'
   482  007BB5  73                 	db	115	;'s'
   483  007BB6  63                 	db	99	;'c'
   484  007BB7  72                 	db	114	;'r'
   485  007BB8  69                 	db	105	;'i'
   486  007BB9  62                 	db	98	;'b'
   487  007BBA  65                 	db	101	;'e'
   488  007BBB  20                 	db	32
   489  007BBC  6C                 	db	108	;'l'
   490  007BBD  61                 	db	97	;'a'
   491  007BBE  20                 	db	32
   492  007BBF  70                 	db	112	;'p'
   493  007BC0  61                 	db	97	;'a'
   494  007BC1  6C                 	db	108	;'l'
   495  007BC2  61                 	db	97	;'a'
   496  007BC3  62                 	db	98	;'b'
   497  007BC4  72                 	db	114	;'r'
   498  007BC5  61                 	db	97	;'a'
   499  007BC6  20                 	db	32
   500  007BC7  27                 	db	39
   501  007BC8  4D                 	db	77	;'M'
   502  007BC9  65                 	db	101	;'e'
   503  007BCA  6E                 	db	110	;'n'
   504  007BCB  75                 	db	117	;'u'
   505  007BCC  27                 	db	39
   506  007BCD  20                 	db	32
   507  007BCE  6F                 	db	111	;'o'
   508  007BCF  20                 	db	32
   509  007BD0  27                 	db	39
   510  007BD1  6D                 	db	109	;'m'
   511  007BD2  65                 	db	101	;'e'
   512  007BD3  6E                 	db	110	;'n'
   513  007BD4  75                 	db	117	;'u'
   514  007BD5  27                 	db	39
   515  007BD6  20                 	db	32
   516  007BD7  70                 	db	112	;'p'
   517  007BD8  61                 	db	97	;'a'
   518  007BD9  72                 	db	114	;'r'
   519  007BDA  61                 	db	97	;'a'
   520  007BDB  20                 	db	32
   521  007BDC  61                 	db	97	;'a'
   522  007BDD  63                 	db	99	;'c'
   523  007BDE  63                 	db	99	;'c'
   524  007BDF  65                 	db	101	;'e'
   525  007BE0  64                 	db	100	;'d'
   526  007BE1  65                 	db	101	;'e'
   527  007BE2  72                 	db	114	;'r'
   528  007BE3  20                 	db	32
   529  007BE4  61                 	db	97	;'a'
   530  007BE5  6C                 	db	108	;'l'
   531  007BE6  20                 	db	32
   532  007BE7  6D                 	db	109	;'m'
   533  007BE8  65                 	db	101	;'e'
   534  007BE9  6E                 	db	110	;'n'
   535  007BEA  75                 	db	117	;'u'
   536  007BEB  0A                 	db	10
   537  007BEC  00                 	db	0
   538  007BED                     STR_15:
   539  007BED  45                 	db	69	;'E'
   540  007BEE  72                 	db	114	;'r'
   541  007BEF  72                 	db	114	;'r'
   542  007BF0  6F                 	db	111	;'o'
   543  007BF1  72                 	db	114	;'r'
   544  007BF2  2C                 	db	44
   545  007BF3  20                 	db	32
   546  007BF4  65                 	db	101	;'e'
   547  007BF5  73                 	db	115	;'s'
   548  007BF6  74                 	db	116	;'t'
   549  007BF7  61                 	db	97	;'a'
   550  007BF8  73                 	db	115	;'s'
   551  007BF9  20                 	db	32
   552  007BFA  71                 	db	113	;'q'
   553  007BFB  75                 	db	117	;'u'
   554  007BFC  65                 	db	101	;'e'
   555  007BFD  72                 	db	114	;'r'
   556  007BFE  69                 	db	105	;'i'
   557  007BFF  65                 	db	101	;'e'
   558  007C00  6E                 	db	110	;'n'
   559  007C01  64                 	db	100	;'d'
   560  007C02  6F                 	db	111	;'o'
   561  007C03  20                 	db	32
   562  007C04  6D                 	db	109	;'m'
   563  007C05  6F                 	db	111	;'o'
   564  007C06  64                 	db	100	;'d'
   565  007C07  69                 	db	105	;'i'
   566  007C08  66                 	db	102	;'f'
   567  007C09  69                 	db	105	;'i'
   568  007C0A  63                 	db	99	;'c'
   569  007C0B  61                 	db	97	;'a'
   570  007C0C  72                 	db	114	;'r'
   571  007C0D  20                 	db	32
   572  007C0E  75                 	db	117	;'u'
   573  007C0F  6E                 	db	110	;'n'
   574  007C10  61                 	db	97	;'a'
   575  007C11  20                 	db	32
   576  007C12  63                 	db	99	;'c'
   577  007C13  6F                 	db	111	;'o'
   578  007C14  6F                 	db	111	;'o'
   579  007C15  72                 	db	114	;'r'
   580  007C16  64                 	db	100	;'d'
   581  007C17  65                 	db	101	;'e'
   582  007C18  6E                 	db	110	;'n'
   583  007C19  61                 	db	97	;'a'
   584  007C1A  64                 	db	100	;'d'
   585  007C1B  61                 	db	97	;'a'
   586  007C1C  20                 	db	32
   587  007C1D  71                 	db	113	;'q'
   588  007C1E  75                 	db	117	;'u'
   589  007C1F  65                 	db	101	;'e'
   590  007C20  20                 	db	32
   591  007C21  61                 	db	97	;'a'
   592  007C22  75                 	db	117	;'u'
   593  007C23  6E                 	db	110	;'n'
   594  007C24  20                 	db	32
   595  007C25  6E                 	db	110	;'n'
   596  007C26  6F                 	db	111	;'o'
   597  007C27  20                 	db	32
   598  007C28  61                 	db	97	;'a'
   599  007C29  67                 	db	103	;'g'
   600  007C2A  72                 	db	114	;'r'
   601  007C2B  65                 	db	101	;'e'
   602  007C2C  67                 	db	103	;'g'
   603  007C2D  61                 	db	97	;'a'
   604  007C2E  73                 	db	115	;'s'
   605  007C2F  0A                 	db	10
   606  007C30  00                 	db	0
   607  007C31                     STR_16:
   608  007C31  43                 	db	67	;'C'
   609  007C32  75                 	db	117	;'u'
   610  007C33  61                 	db	97	;'a'
   611  007C34  6C                 	db	108	;'l'
   612  007C35  20                 	db	32
   613  007C36  63                 	db	99	;'c'
   614  007C37  6F                 	db	111	;'o'
   615  007C38  6F                 	db	111	;'o'
   616  007C39  72                 	db	114	;'r'
   617  007C3A  64                 	db	100	;'d'
   618  007C3B  65                 	db	101	;'e'
   619  007C3C  6E                 	db	110	;'n'
   620  007C3D  61                 	db	97	;'a'
   621  007C3E  64                 	db	100	;'d'
   622  007C3F  61                 	db	97	;'a'
   623  007C40  20                 	db	32
   624  007C41  71                 	db	113	;'q'
   625  007C42  75                 	db	117	;'u'
   626  007C43  69                 	db	105	;'i'
   627  007C44  65                 	db	101	;'e'
   628  007C45  72                 	db	114	;'r'
   629  007C46  65                 	db	101	;'e'
   630  007C47  73                 	db	115	;'s'
   631  007C48  20                 	db	32
   632  007C49  6D                 	db	109	;'m'
   633  007C4A  6F                 	db	111	;'o'
   634  007C4B  64                 	db	100	;'d'
   635  007C4C  69                 	db	105	;'i'
   636  007C4D  66                 	db	102	;'f'
   637  007C4E  69                 	db	105	;'i'
   638  007C4F  63                 	db	99	;'c'
   639  007C50  61                 	db	97	;'a'
   640  007C51  72                 	db	114	;'r'
   641  007C52  2C                 	db	44
   642  007C53  20                 	db	32
   643  007C54  65                 	db	101	;'e'
   644  007C55  6C                 	db	108	;'l'
   645  007C56  69                 	db	105	;'i'
   646  007C57  67                 	db	103	;'g'
   647  007C58  65                 	db	101	;'e'
   648  007C59  20                 	db	32
   649  007C5A  76                 	db	118	;'v'
   650  007C5B  61                 	db	97	;'a'
   651  007C5C  6C                 	db	108	;'l'
   652  007C5D  6F                 	db	111	;'o'
   653  007C5E  72                 	db	114	;'r'
   654  007C5F  65                 	db	101	;'e'
   655  007C60  73                 	db	115	;'s'
   656  007C61  20                 	db	32
   657  007C62  76                 	db	118	;'v'
   658  007C63  61                 	db	97	;'a'
   659  007C64  6C                 	db	108	;'l'
   660  007C65  69                 	db	105	;'i'
   661  007C66  64                 	db	100	;'d'
   662  007C67  6F                 	db	111	;'o'
   663  007C68  73                 	db	115	;'s'
   664  007C69  3F                 	db	63	;'?'
   665  007C6A  0A                 	db	10
   666  007C6B  00                 	db	0
   667  007C6C                     STR_9:
   668  007C6C  59                 	db	89	;'Y'
   669  007C6D  61                 	db	97	;'a'
   670  007C6E  20                 	db	32
   671  007C6F  65                 	db	101	;'e'
   672  007C70  73                 	db	115	;'s'
   673  007C71  74                 	db	116	;'t'
   674  007C72  61                 	db	97	;'a'
   675  007C73  6E                 	db	110	;'n'
   676  007C74  20                 	db	32
   677  007C75  6C                 	db	108	;'l'
   678  007C76  61                 	db	97	;'a'
   679  007C77  73                 	db	115	;'s'
   680  007C78  20                 	db	32
   681  007C79  31                 	db	49	;'1'
   682  007C7A  30                 	db	48	;'0'
   683  007C7B  20                 	db	32
   684  007C7C  63                 	db	99	;'c'
   685  007C7D  6F                 	db	111	;'o'
   686  007C7E  6F                 	db	111	;'o'
   687  007C7F  72                 	db	114	;'r'
   688  007C80  64                 	db	100	;'d'
   689  007C81  65                 	db	101	;'e'
   690  007C82  6E                 	db	110	;'n'
   691  007C83  61                 	db	97	;'a'
   692  007C84  64                 	db	100	;'d'
   693  007C85  61                 	db	97	;'a'
   694  007C86  73                 	db	115	;'s'
   695  007C87  20                 	db	32
   696  007C88  6C                 	db	108	;'l'
   697  007C89  6C                 	db	108	;'l'
   698  007C8A  65                 	db	101	;'e'
   699  007C8B  6E                 	db	110	;'n'
   700  007C8C  61                 	db	97	;'a'
   701  007C8D  73                 	db	115	;'s'
   702  007C8E  2C                 	db	44
   703  007C8F  20                 	db	32
   704  007C90  6E                 	db	110	;'n'
   705  007C91  6F                 	db	111	;'o'
   706  007C92  20                 	db	32
   707  007C93  70                 	db	112	;'p'
   708  007C94  75                 	db	117	;'u'
   709  007C95  65                 	db	101	;'e'
   710  007C96  64                 	db	100	;'d'
   711  007C97  65                 	db	101	;'e'
   712  007C98  73                 	db	115	;'s'
   713  007C99  20                 	db	32
   714  007C9A  61                 	db	97	;'a'
   715  007C9B  67                 	db	103	;'g'
   716  007C9C  72                 	db	114	;'r'
   717  007C9D  65                 	db	101	;'e'
   718  007C9E  67                 	db	103	;'g'
   719  007C9F  61                 	db	97	;'a'
   720  007CA0  72                 	db	114	;'r'
   721  007CA1  20                 	db	32
   722  007CA2  6D                 	db	109	;'m'
   723  007CA3  61                 	db	97	;'a'
   724  007CA4  73                 	db	115	;'s'
   725  007CA5  00                 	db	0
   726  007CA6                     STR_23:
   727  007CA6  45                 	db	69	;'E'
   728  007CA7  73                 	db	115	;'s'
   729  007CA8  63                 	db	99	;'c'
   730  007CA9  72                 	db	114	;'r'
   731  007CAA  69                 	db	105	;'i'
   732  007CAB  62                 	db	98	;'b'
   733  007CAC  65                 	db	101	;'e'
   734  007CAD  20                 	db	32
   735  007CAE  6C                 	db	108	;'l'
   736  007CAF  61                 	db	97	;'a'
   737  007CB0  20                 	db	32
   738  007CB1  70                 	db	112	;'p'
   739  007CB2  61                 	db	97	;'a'
   740  007CB3  6C                 	db	108	;'l'
   741  007CB4  61                 	db	97	;'a'
   742  007CB5  62                 	db	98	;'b'
   743  007CB6  72                 	db	114	;'r'
   744  007CB7  61                 	db	97	;'a'
   745  007CB8  20                 	db	32
   746  007CB9  27                 	db	39
   747  007CBA  4D                 	db	77	;'M'
   748  007CBB  65                 	db	101	;'e'
   749  007CBC  6E                 	db	110	;'n'
   750  007CBD  75                 	db	117	;'u'
   751  007CBE  27                 	db	39
   752  007CBF  20                 	db	32
   753  007CC0  6F                 	db	111	;'o'
   754  007CC1  20                 	db	32
   755  007CC2  27                 	db	39
   756  007CC3  6D                 	db	109	;'m'
   757  007CC4  65                 	db	101	;'e'
   758  007CC5  6E                 	db	110	;'n'
   759  007CC6  75                 	db	117	;'u'
   760  007CC7  27                 	db	39
   761  007CC8  20                 	db	32
   762  007CC9  70                 	db	112	;'p'
   763  007CCA  61                 	db	97	;'a'
   764  007CCB  72                 	db	114	;'r'
   765  007CCC  61                 	db	97	;'a'
   766  007CCD  20                 	db	32
   767  007CCE  61                 	db	97	;'a'
   768  007CCF  63                 	db	99	;'c'
   769  007CD0  63                 	db	99	;'c'
   770  007CD1  65                 	db	101	;'e'
   771  007CD2  64                 	db	100	;'d'
   772  007CD3  65                 	db	101	;'e'
   773  007CD4  72                 	db	114	;'r'
   774  007CD5  20                 	db	32
   775  007CD6  61                 	db	97	;'a'
   776  007CD7  6C                 	db	108	;'l'
   777  007CD8  20                 	db	32
   778  007CD9  6D                 	db	109	;'m'
   779  007CDA  65                 	db	101	;'e'
   780  007CDB  6E                 	db	110	;'n'
   781  007CDC  75                 	db	117	;'u'
   782  007CDD  0A                 	db	10
   783  007CDE  00                 	db	0
   784  007CDF                     STR_30:
   785  007CDF  56                 	db	86	;'V'
   786  007CE0  61                 	db	97	;'a'
   787  007CE1  73                 	db	115	;'s'
   788  007CE2  20                 	db	32
   789  007CE3  61                 	db	97	;'a'
   790  007CE4  20                 	db	32
   791  007CE5  62                 	db	98	;'b'
   792  007CE6  6F                 	db	111	;'o'
   793  007CE7  72                 	db	114	;'r'
   794  007CE8  72                 	db	114	;'r'
   795  007CE9  61                 	db	97	;'a'
   796  007CEA  72                 	db	114	;'r'
   797  007CEB  20                 	db	32
   798  007CEC  74                 	db	116	;'t'
   799  007CED  6F                 	db	111	;'o'
   800  007CEE  64                 	db	100	;'d'
   801  007CEF  61                 	db	97	;'a'
   802  007CF0  73                 	db	115	;'s'
   803  007CF1  20                 	db	32
   804  007CF2  6C                 	db	108	;'l'
   805  007CF3  61                 	db	97	;'a'
   806  007CF4  73                 	db	115	;'s'
   807  007CF5  20                 	db	32
   808  007CF6  63                 	db	99	;'c'
   809  007CF7  6F                 	db	111	;'o'
   810  007CF8  6F                 	db	111	;'o'
   811  007CF9  72                 	db	114	;'r'
   812  007CFA  64                 	db	100	;'d'
   813  007CFB  65                 	db	101	;'e'
   814  007CFC  6E                 	db	110	;'n'
   815  007CFD  61                 	db	97	;'a'
   816  007CFE  64                 	db	100	;'d'
   817  007CFF  61                 	db	97	;'a'
   818  007D00  73                 	db	115	;'s'
   819  007D01  2C                 	db	44
   820  007D02  20                 	db	32
   821  007D03  73                 	db	115	;'s'
   822  007D04  65                 	db	101	;'e'
   823  007D05  67                 	db	103	;'g'
   824  007D06  75                 	db	117	;'u'
   825  007D07  72                 	db	114	;'r'
   826  007D08  6F                 	db	111	;'o'
   827  007D09  3F                 	db	63	;'?'
   828  007D0A  20                 	db	32
   829  007D0B  28                 	db	40
   830  007D0C  31                 	db	49	;'1'
   831  007D0D  29                 	db	41
   832  007D0E  20                 	db	32
   833  007D0F  53                 	db	83	;'S'
   834  007D10  69                 	db	105	;'i'
   835  007D11  20                 	db	32
   836  007D12  28                 	db	40
   837  007D13  30                 	db	48	;'0'
   838  007D14  29                 	db	41
   839  007D15  4E                 	db	78	;'N'
   840  007D16  6F                 	db	111	;'o'
   841  007D17  00                 	db	0
   842  007D18                     STR_22:
   843  007D18  49                 	db	73	;'I'
   844  007D19  6E                 	db	110	;'n'
   845  007D1A  74                 	db	116	;'t'
   846  007D1B  65                 	db	101	;'e'
   847  007D1C  72                 	db	114	;'r'
   848  007D1D  72                 	db	114	;'r'
   849  007D1E  75                 	db	117	;'u'
   850  007D1F  70                 	db	112	;'p'
   851  007D20  63                 	db	99	;'c'
   852  007D21  69                 	db	105	;'i'
   853  007D22  6F                 	db	111	;'o'
   854  007D23  6E                 	db	110	;'n'
   855  007D24  20                 	db	32
   856  007D25  54                 	db	84	;'T'
   857  007D26  4D                 	db	77	;'M'
   858  007D27  52                 	db	82	;'R'
   859  007D28  31                 	db	49	;'1'
   860  007D29  2C                 	db	44
   861  007D2A  20                 	db	32
   862  007D2B  6C                 	db	108	;'l'
   863  007D2C  6C                 	db	108	;'l'
   864  007D2D  65                 	db	101	;'e'
   865  007D2E  67                 	db	103	;'g'
   866  007D2F  61                 	db	97	;'a'
   867  007D30  73                 	db	115	;'s'
   868  007D31  74                 	db	116	;'t'
   869  007D32  65                 	db	101	;'e'
   870  007D33  20                 	db	32
   871  007D34  61                 	db	97	;'a'
   872  007D35  20                 	db	32
   873  007D36  63                 	db	99	;'c'
   874  007D37  6F                 	db	111	;'o'
   875  007D38  6F                 	db	111	;'o'
   876  007D39  72                 	db	114	;'r'
   877  007D3A  64                 	db	100	;'d'
   878  007D3B  65                 	db	101	;'e'
   879  007D3C  6E                 	db	110	;'n'
   880  007D3D  61                 	db	97	;'a'
   881  007D3E  64                 	db	100	;'d'
   882  007D3F  61                 	db	97	;'a'
   883  007D40  20                 	db	32
   884  007D41  64                 	db	100	;'d'
   885  007D42  65                 	db	101	;'e'
   886  007D43  73                 	db	115	;'s'
   887  007D44  65                 	db	101	;'e'
   888  007D45  61                 	db	97	;'a'
   889  007D46  64                 	db	100	;'d'
   890  007D47  61                 	db	97	;'a'
   891  007D48  20                 	db	32
   892  007D49  58                 	db	88	;'X'
   893  007D4A  0A                 	db	10
   894  007D4B  00                 	db	0
   895  007D4C                     STR_21:
   896  007D4C  49                 	db	73	;'I'
   897  007D4D  6E                 	db	110	;'n'
   898  007D4E  74                 	db	116	;'t'
   899  007D4F  65                 	db	101	;'e'
   900  007D50  72                 	db	114	;'r'
   901  007D51  72                 	db	114	;'r'
   902  007D52  75                 	db	117	;'u'
   903  007D53  70                 	db	112	;'p'
   904  007D54  63                 	db	99	;'c'
   905  007D55  69                 	db	105	;'i'
   906  007D56  6F                 	db	111	;'o'
   907  007D57  6E                 	db	110	;'n'
   908  007D58  20                 	db	32
   909  007D59  54                 	db	84	;'T'
   910  007D5A  4D                 	db	77	;'M'
   911  007D5B  52                 	db	82	;'R'
   912  007D5C  30                 	db	48	;'0'
   913  007D5D  2C                 	db	44
   914  007D5E  20                 	db	32
   915  007D5F  6C                 	db	108	;'l'
   916  007D60  6C                 	db	108	;'l'
   917  007D61  65                 	db	101	;'e'
   918  007D62  67                 	db	103	;'g'
   919  007D63  61                 	db	97	;'a'
   920  007D64  73                 	db	115	;'s'
   921  007D65  74                 	db	116	;'t'
   922  007D66  65                 	db	101	;'e'
   923  007D67  20                 	db	32
   924  007D68  61                 	db	97	;'a'
   925  007D69  20                 	db	32
   926  007D6A  63                 	db	99	;'c'
   927  007D6B  6F                 	db	111	;'o'
   928  007D6C  6F                 	db	111	;'o'
   929  007D6D  72                 	db	114	;'r'
   930  007D6E  64                 	db	100	;'d'
   931  007D6F  65                 	db	101	;'e'
   932  007D70  6E                 	db	110	;'n'
   933  007D71  61                 	db	97	;'a'
   934  007D72  64                 	db	100	;'d'
   935  007D73  61                 	db	97	;'a'
   936  007D74  20                 	db	32
   937  007D75  64                 	db	100	;'d'
   938  007D76  65                 	db	101	;'e'
   939  007D77  73                 	db	115	;'s'
   940  007D78  65                 	db	101	;'e'
   941  007D79  61                 	db	97	;'a'
   942  007D7A  64                 	db	100	;'d'
   943  007D7B  61                 	db	97	;'a'
   944  007D7C  20                 	db	32
   945  007D7D  59                 	db	89	;'Y'
   946  007D7E  0A                 	db	10
   947  007D7F  00                 	db	0
   948  007D80                     STR_18:
   949  007D80  4C                 	db	76	;'L'
   950  007D81  69                 	db	105	;'i'
   951  007D82  73                 	db	115	;'s'
   952  007D83  74                 	db	116	;'t'
   953  007D84  6F                 	db	111	;'o'
   954  007D85  2C                 	db	44
   955  007D86  20                 	db	32
   956  007D87  74                 	db	116	;'t'
   957  007D88  6F                 	db	111	;'o'
   958  007D89  64                 	db	100	;'d'
   959  007D8A  61                 	db	97	;'a'
   960  007D8B  73                 	db	115	;'s'
   961  007D8C  20                 	db	32
   962  007D8D  6C                 	db	108	;'l'
   963  007D8E  61                 	db	97	;'a'
   964  007D8F  73                 	db	115	;'s'
   965  007D90  20                 	db	32
   966  007D91  63                 	db	99	;'c'
   967  007D92  6F                 	db	111	;'o'
   968  007D93  6F                 	db	111	;'o'
   969  007D94  72                 	db	114	;'r'
   970  007D95  64                 	db	100	;'d'
   971  007D96  65                 	db	101	;'e'
   972  007D97  6E                 	db	110	;'n'
   973  007D98  61                 	db	97	;'a'
   974  007D99  64                 	db	100	;'d'
   975  007D9A  61                 	db	97	;'a'
   976  007D9B  73                 	db	115	;'s'
   977  007D9C  20                 	db	32
   978  007D9D  68                 	db	104	;'h'
   979  007D9E  61                 	db	97	;'a'
   980  007D9F  6E                 	db	110	;'n'
   981  007DA0  20                 	db	32
   982  007DA1  73                 	db	115	;'s'
   983  007DA2  69                 	db	105	;'i'
   984  007DA3  64                 	db	100	;'d'
   985  007DA4  6F                 	db	111	;'o'
   986  007DA5  20                 	db	32
   987  007DA6  62                 	db	98	;'b'
   988  007DA7  6F                 	db	111	;'o'
   989  007DA8  72                 	db	114	;'r'
   990  007DA9  72                 	db	114	;'r'
   991  007DAA  61                 	db	97	;'a'
   992  007DAB  64                 	db	100	;'d'
   993  007DAC  61                 	db	97	;'a'
   994  007DAD  73                 	db	115	;'s'
   995  007DAE  0A                 	db	10
   996  007DAF  00                 	db	0
   997  007DB0                     STR_1:
   998  007DB0  53                 	db	83	;'S'
   999  007DB1  6F                 	db	111	;'o'
  1000  007DB2  6C                 	db	108	;'l'
  1001  007DB3  6F                 	db	111	;'o'
  1002  007DB4  20                 	db	32
  1003  007DB5  70                 	db	112	;'p'
  1004  007DB6  75                 	db	117	;'u'
  1005  007DB7  65                 	db	101	;'e'
  1006  007DB8  64                 	db	100	;'d'
  1007  007DB9  65                 	db	101	;'e'
  1008  007DBA  73                 	db	115	;'s'
  1009  007DBB  20                 	db	32
  1010  007DBC  69                 	db	105	;'i'
  1011  007DBD  6E                 	db	110	;'n'
  1012  007DBE  74                 	db	116	;'t'
  1013  007DBF  72                 	db	114	;'r'
  1014  007DC0  6F                 	db	111	;'o'
  1015  007DC1  64                 	db	100	;'d'
  1016  007DC2  75                 	db	117	;'u'
  1017  007DC3  63                 	db	99	;'c'
  1018  007DC4  69                 	db	105	;'i'
  1019  007DC5  72                 	db	114	;'r'
  1020  007DC6  20                 	db	32
  1021  007DC7  6E                 	db	110	;'n'
  1022  007DC8  75                 	db	117	;'u'
  1023  007DC9  6D                 	db	109	;'m'
  1024  007DCA  65                 	db	101	;'e'
  1025  007DCB  72                 	db	114	;'r'
  1026  007DCC  6F                 	db	111	;'o'
  1027  007DCD  73                 	db	115	;'s'
  1028  007DCE  2C                 	db	44
  1029  007DCF  20                 	db	32
  1030  007DD0  70                 	db	112	;'p'
  1031  007DD1  72                 	db	114	;'r'
  1032  007DD2  75                 	db	117	;'u'
  1033  007DD3  65                 	db	101	;'e'
  1034  007DD4  62                 	db	98	;'b'
  1035  007DD5  61                 	db	97	;'a'
  1036  007DD6  20                 	db	32
  1037  007DD7  64                 	db	100	;'d'
  1038  007DD8  65                 	db	101	;'e'
  1039  007DD9  20                 	db	32
  1040  007DDA  6E                 	db	110	;'n'
  1041  007DDB  75                 	db	117	;'u'
  1042  007DDC  65                 	db	101	;'e'
  1043  007DDD  76                 	db	118	;'v'
  1044  007DDE  6F                 	db	111	;'o'
  1045  007DDF  00                 	db	0
  1046  007DE0                     STR_14:
  1047  007DE0  43                 	db	67	;'C'
  1048  007DE1  75                 	db	117	;'u'
  1049  007DE2  61                 	db	97	;'a'
  1050  007DE3  6C                 	db	108	;'l'
  1051  007DE4  20                 	db	32
  1052  007DE5  64                 	db	100	;'d'
  1053  007DE6  65                 	db	101	;'e'
  1054  007DE7  20                 	db	32
  1055  007DE8  65                 	db	101	;'e'
  1056  007DE9  73                 	db	115	;'s'
  1057  007DEA  74                 	db	116	;'t'
  1058  007DEB  61                 	db	97	;'a'
  1059  007DEC  73                 	db	115	;'s'
  1060  007DED  20                 	db	32
  1061  007DEE  63                 	db	99	;'c'
  1062  007DEF  6F                 	db	111	;'o'
  1063  007DF0  6F                 	db	111	;'o'
  1064  007DF1  72                 	db	114	;'r'
  1065  007DF2  64                 	db	100	;'d'
  1066  007DF3  65                 	db	101	;'e'
  1067  007DF4  6E                 	db	110	;'n'
  1068  007DF5  61                 	db	97	;'a'
  1069  007DF6  64                 	db	100	;'d'
  1070  007DF7  61                 	db	97	;'a'
  1071  007DF8  73                 	db	115	;'s'
  1072  007DF9  20                 	db	32
  1073  007DFA  71                 	db	113	;'q'
  1074  007DFB  75                 	db	117	;'u'
  1075  007DFC  69                 	db	105	;'i'
  1076  007DFD  65                 	db	101	;'e'
  1077  007DFE  72                 	db	114	;'r'
  1078  007DFF  65                 	db	101	;'e'
  1079  007E00  73                 	db	115	;'s'
  1080  007E01  20                 	db	32
  1081  007E02  6D                 	db	109	;'m'
  1082  007E03  6F                 	db	111	;'o'
  1083  007E04  64                 	db	100	;'d'
  1084  007E05  69                 	db	105	;'i'
  1085  007E06  66                 	db	102	;'f'
  1086  007E07  69                 	db	105	;'i'
  1087  007E08  63                 	db	99	;'c'
  1088  007E09  61                 	db	97	;'a'
  1089  007E0A  72                 	db	114	;'r'
  1090  007E0B  3F                 	db	63	;'?'
  1091  007E0C  0A                 	db	10
  1092  007E0D  00                 	db	0
  1093  007E0E                     STR_27:
  1094  007E0E  45                 	db	69	;'E'
  1095  007E0F  6C                 	db	108	;'l'
  1096  007E10  65                 	db	101	;'e'
  1097  007E11  67                 	db	103	;'g'
  1098  007E12  69                 	db	105	;'i'
  1099  007E13  73                 	db	115	;'s'
  1100  007E14  74                 	db	116	;'t'
  1101  007E15  65                 	db	101	;'e'
  1102  007E16  20                 	db	32
  1103  007E17  6C                 	db	108	;'l'
  1104  007E18  61                 	db	97	;'a'
  1105  007E19  20                 	db	32
  1106  007E1A  6F                 	db	111	;'o'
  1107  007E1B  70                 	db	112	;'p'
  1108  007E1C  63                 	db	99	;'c'
  1109  007E1D  69                 	db	105	;'i'
  1110  007E1E  6F                 	db	111	;'o'
  1111  007E1F  6E                 	db	110	;'n'
  1112  007E20  20                 	db	32
  1113  007E21  64                 	db	100	;'d'
  1114  007E22  65                 	db	101	;'e'
  1115  007E23  20                 	db	32
  1116  007E24  69                 	db	105	;'i'
  1117  007E25  6D                 	db	109	;'m'
  1118  007E26  70                 	db	112	;'p'
  1119  007E27  72                 	db	114	;'r'
  1120  007E28  69                 	db	105	;'i'
  1121  007E29  6D                 	db	109	;'m'
  1122  007E2A  69                 	db	105	;'i'
  1123  007E2B  72                 	db	114	;'r'
  1124  007E2C  20                 	db	32
  1125  007E2D  63                 	db	99	;'c'
  1126  007E2E  6F                 	db	111	;'o'
  1127  007E2F  6F                 	db	111	;'o'
  1128  007E30  72                 	db	114	;'r'
  1129  007E31  64                 	db	100	;'d'
  1130  007E32  65                 	db	101	;'e'
  1131  007E33  6E                 	db	110	;'n'
  1132  007E34  61                 	db	97	;'a'
  1133  007E35  64                 	db	100	;'d'
  1134  007E36  61                 	db	97	;'a'
  1135  007E37  73                 	db	115	;'s'
  1136  007E38  0A                 	db	10
  1137  007E39  00                 	db	0
  1138  007E3A                     STR_7:
  1139  007E3A  43                 	db	67	;'C'
  1140  007E3B  6F                 	db	111	;'o'
  1141  007E3C  6F                 	db	111	;'o'
  1142  007E3D  72                 	db	114	;'r'
  1143  007E3E  64                 	db	100	;'d'
  1144  007E3F  65                 	db	101	;'e'
  1145  007E40  6E                 	db	110	;'n'
  1146  007E41  61                 	db	97	;'a'
  1147  007E42  64                 	db	100	;'d'
  1148  007E43  61                 	db	97	;'a'
  1149  007E44  20                 	db	32
  1150  007E45  72                 	db	114	;'r'
  1151  007E46  65                 	db	101	;'e'
  1152  007E47  63                 	db	99	;'c'
  1153  007E48  69                 	db	105	;'i'
  1154  007E49  62                 	db	98	;'b'
  1155  007E4A  69                 	db	105	;'i'
  1156  007E4B  64                 	db	100	;'d'
  1157  007E4C  61                 	db	97	;'a'
  1158  007E4D  2C                 	db	44
  1159  007E4E  20                 	db	32
  1160  007E4F  6C                 	db	108	;'l'
  1161  007E50  6F                 	db	111	;'o'
  1162  007E51  20                 	db	32
  1163  007E52  71                 	db	113	;'q'
  1164  007E53  75                 	db	117	;'u'
  1165  007E54  65                 	db	101	;'e'
  1166  007E55  20                 	db	32
  1167  007E56  72                 	db	114	;'r'
  1168  007E57  65                 	db	101	;'e'
  1169  007E58  63                 	db	99	;'c'
  1170  007E59  69                 	db	105	;'i'
  1171  007E5A  62                 	db	98	;'b'
  1172  007E5B  69                 	db	105	;'i'
  1173  007E5C  6D                 	db	109	;'m'
  1174  007E5D  6F                 	db	111	;'o'
  1175  007E5E  73                 	db	115	;'s'
  1176  007E5F  20                 	db	32
  1177  007E60  66                 	db	102	;'f'
  1178  007E61  75                 	db	117	;'u'
  1179  007E62  65                 	db	101	;'e'
  1180  007E63  3A                 	db	58	;':'
  1181  007E64  00                 	db	0
  1182  007E65                     STR_8:
  1183  007E65  48                 	db	72	;'H'
  1184  007E66  61                 	db	97	;'a'
  1185  007E67  73                 	db	115	;'s'
  1186  007E68  20                 	db	32
  1187  007E69  61                 	db	97	;'a'
  1188  007E6A  67                 	db	103	;'g'
  1189  007E6B  72                 	db	114	;'r'
  1190  007E6C  65                 	db	101	;'e'
  1191  007E6D  67                 	db	103	;'g'
  1192  007E6E  61                 	db	97	;'a'
  1193  007E6F  64                 	db	100	;'d'
  1194  007E70  6F                 	db	111	;'o'
  1195  007E71  20                 	db	32
  1196  007E72  65                 	db	101	;'e'
  1197  007E73  73                 	db	115	;'s'
  1198  007E74  74                 	db	116	;'t'
  1199  007E75  65                 	db	101	;'e'
  1200  007E76  20                 	db	32
  1201  007E77  6E                 	db	110	;'n'
  1202  007E78  75                 	db	117	;'u'
  1203  007E79  6D                 	db	109	;'m'
  1204  007E7A  65                 	db	101	;'e'
  1205  007E7B  72                 	db	114	;'r'
  1206  007E7C  6F                 	db	111	;'o'
  1207  007E7D  20                 	db	32
  1208  007E7E  64                 	db	100	;'d'
  1209  007E7F  65                 	db	101	;'e'
  1210  007E80  20                 	db	32
  1211  007E81  63                 	db	99	;'c'
  1212  007E82  6F                 	db	111	;'o'
  1213  007E83  6F                 	db	111	;'o'
  1214  007E84  72                 	db	114	;'r'
  1215  007E85  64                 	db	100	;'d'
  1216  007E86  65                 	db	101	;'e'
  1217  007E87  6E                 	db	110	;'n'
  1218  007E88  61                 	db	97	;'a'
  1219  007E89  64                 	db	100	;'d'
  1220  007E8A  61                 	db	97	;'a'
  1221  007E8B  73                 	db	115	;'s'
  1222  007E8C  3A                 	db	58	;':'
  1223  007E8D  00                 	db	0
  1224  007E8E                     STR_25:
  1225  007E8E  45                 	db	69	;'E'
  1226  007E8F  6C                 	db	108	;'l'
  1227  007E90  65                 	db	101	;'e'
  1228  007E91  63                 	db	99	;'c'
  1229  007E92  63                 	db	99	;'c'
  1230  007E93  69                 	db	105	;'i'
  1231  007E94  6F                 	db	111	;'o'
  1232  007E95  6E                 	db	110	;'n'
  1233  007E96  20                 	db	32
  1234  007E97  6E                 	db	110	;'n'
  1235  007E98  6F                 	db	111	;'o'
  1236  007E99  20                 	db	32
  1237  007E9A  76                 	db	118	;'v'
  1238  007E9B  61                 	db	97	;'a'
  1239  007E9C  6C                 	db	108	;'l'
  1240  007E9D  69                 	db	105	;'i'
  1241  007E9E  64                 	db	100	;'d'
  1242  007E9F  61                 	db	97	;'a'
  1243  007EA0  20                 	db	32
  1244  007EA1  76                 	db	118	;'v'
  1245  007EA2  75                 	db	117	;'u'
  1246  007EA3  65                 	db	101	;'e'
  1247  007EA4  6C                 	db	108	;'l'
  1248  007EA5  76                 	db	118	;'v'
  1249  007EA6  61                 	db	97	;'a'
  1250  007EA7  20                 	db	32
  1251  007EA8  61                 	db	97	;'a'
  1252  007EA9  20                 	db	32
  1253  007EAA  69                 	db	105	;'i'
  1254  007EAB  6E                 	db	110	;'n'
  1255  007EAC  74                 	db	116	;'t'
  1256  007EAD  65                 	db	101	;'e'
  1257  007EAE  6E                 	db	110	;'n'
  1258  007EAF  74                 	db	116	;'t'
  1259  007EB0  61                 	db	97	;'a'
  1260  007EB1  72                 	db	114	;'r'
  1261  007EB2  00                 	db	0
  1262  007EB3                     STR_5:
  1263  007EB3  52                 	db	82	;'R'
  1264  007EB4  65                 	db	101	;'e'
  1265  007EB5  63                 	db	99	;'c'
  1266  007EB6  69                 	db	105	;'i'
  1267  007EB7  62                 	db	98	;'b'
  1268  007EB8  69                 	db	105	;'i'
  1269  007EB9  20                 	db	32
  1270  007EBA  23                 	db	35
  1271  007EBB  20                 	db	32
  1272  007EBC  64                 	db	100	;'d'
  1273  007EBD  65                 	db	101	;'e'
  1274  007EBE  20                 	db	32
  1275  007EBF  76                 	db	118	;'v'
  1276  007EC0  65                 	db	101	;'e'
  1277  007EC1  63                 	db	99	;'c'
  1278  007EC2  65                 	db	101	;'e'
  1279  007EC3  73                 	db	115	;'s'
  1280  007EC4  20                 	db	32
  1281  007EC5  61                 	db	97	;'a'
  1282  007EC6  20                 	db	32
  1283  007EC7  70                 	db	112	;'p'
  1284  007EC8  72                 	db	114	;'r'
  1285  007EC9  65                 	db	101	;'e'
  1286  007ECA  73                 	db	115	;'s'
  1287  007ECB  69                 	db	105	;'i'
  1288  007ECC  6F                 	db	111	;'o'
  1289  007ECD  6E                 	db	110	;'n'
  1290  007ECE  61                 	db	97	;'a'
  1291  007ECF  72                 	db	114	;'r'
  1292  007ED0  20                 	db	32
  1293  007ED1  5A                 	db	90	;'Z'
  1294  007ED2  0A                 	db	10
  1295  007ED3  00                 	db	0
  1296  007ED4                     STR_6:
  1297  007ED4  4D                 	db	77	;'M'
  1298  007ED5  65                 	db	101	;'e'
  1299  007ED6  74                 	db	116	;'t'
  1300  007ED7  69                 	db	105	;'i'
  1301  007ED8  73                 	db	115	;'s'
  1302  007ED9  74                 	db	116	;'t'
  1303  007EDA  65                 	db	101	;'e'
  1304  007EDB  20                 	db	32
  1305  007EDC  75                 	db	117	;'u'
  1306  007EDD  6E                 	db	110	;'n'
  1307  007EDE  61                 	db	97	;'a'
  1308  007EDF  20                 	db	32
  1309  007EE0  63                 	db	99	;'c'
  1310  007EE1  6F                 	db	111	;'o'
  1311  007EE2  6F                 	db	111	;'o'
  1312  007EE3  72                 	db	114	;'r'
  1313  007EE4  64                 	db	100	;'d'
  1314  007EE5  65                 	db	101	;'e'
  1315  007EE6  6E                 	db	110	;'n'
  1316  007EE7  61                 	db	97	;'a'
  1317  007EE8  64                 	db	100	;'d'
  1318  007EE9  61                 	db	97	;'a'
  1319  007EEA  20                 	db	32
  1320  007EEB  69                 	db	105	;'i'
  1321  007EEC  6E                 	db	110	;'n'
  1322  007EED  76                 	db	118	;'v'
  1323  007EEE  61                 	db	97	;'a'
  1324  007EEF  6C                 	db	108	;'l'
  1325  007EF0  69                 	db	105	;'i'
  1326  007EF1  64                 	db	100	;'d'
  1327  007EF2  61                 	db	97	;'a'
  1328  007EF3  0A                 	db	10
  1329  007EF4  00                 	db	0
  1330  007EF5                     STR_11:
  1331  007EF5  20                 	db	32
  1332  007EF6  63                 	db	99	;'c'
  1333  007EF7  6F                 	db	111	;'o'
  1334  007EF8  6F                 	db	111	;'o'
  1335  007EF9  72                 	db	114	;'r'
  1336  007EFA  64                 	db	100	;'d'
  1337  007EFB  65                 	db	101	;'e'
  1338  007EFC  6E                 	db	110	;'n'
  1339  007EFD  61                 	db	97	;'a'
  1340  007EFE  64                 	db	100	;'d'
  1341  007EFF  61                 	db	97	;'a'
  1342  007F00  73                 	db	115	;'s'
  1343  007F01  2C                 	db	44
  1344  007F02  20                 	db	32
  1345  007F03  6C                 	db	108	;'l'
  1346  007F04  61                 	db	97	;'a'
  1347  007F05  73                 	db	115	;'s'
  1348  007F06  20                 	db	32
  1349  007F07  63                 	db	99	;'c'
  1350  007F08  75                 	db	117	;'u'
  1351  007F09  61                 	db	97	;'a'
  1352  007F0A  6C                 	db	108	;'l'
  1353  007F0B  65                 	db	101	;'e'
  1354  007F0C  73                 	db	115	;'s'
  1355  007F0D  20                 	db	32
  1356  007F0E  73                 	db	115	;'s'
  1357  007F0F  6F                 	db	111	;'o'
  1358  007F10  6E                 	db	110	;'n'
  1359  007F11  3A                 	db	58	;':'
  1360  007F12  20                 	db	32
  1361  007F13  0A                 	db	10
  1362  007F14  00                 	db	0
  1363  007F15                     STR_17:
  1364  007F15  56                 	db	86	;'V'
  1365  007F16  61                 	db	97	;'a'
  1366  007F17  73                 	db	115	;'s'
  1367  007F18  20                 	db	32
  1368  007F19  61                 	db	97	;'a'
  1369  007F1A  20                 	db	32
  1370  007F1B  6D                 	db	109	;'m'
  1371  007F1C  6F                 	db	111	;'o'
  1372  007F1D  64                 	db	100	;'d'
  1373  007F1E  69                 	db	105	;'i'
  1374  007F1F  66                 	db	102	;'f'
  1375  007F20  69                 	db	105	;'i'
  1376  007F21  63                 	db	99	;'c'
  1377  007F22  61                 	db	97	;'a'
  1378  007F23  72                 	db	114	;'r'
  1379  007F24  20                 	db	32
  1380  007F25  6C                 	db	108	;'l'
  1381  007F26  61                 	db	97	;'a'
  1382  007F27  20                 	db	32
  1383  007F28  63                 	db	99	;'c'
  1384  007F29  6F                 	db	111	;'o'
  1385  007F2A  6F                 	db	111	;'o'
  1386  007F2B  72                 	db	114	;'r'
  1387  007F2C  64                 	db	100	;'d'
  1388  007F2D  65                 	db	101	;'e'
  1389  007F2E  6E                 	db	110	;'n'
  1390  007F2F  61                 	db	97	;'a'
  1391  007F30  64                 	db	100	;'d'
  1392  007F31  61                 	db	97	;'a'
  1393  007F32  20                 	db	32
  1394  007F33  00                 	db	0
  1395  007F34                     STR_26:
  1396  007F34  46                 	db	70	;'F'
  1397  007F35  75                 	db	117	;'u'
  1398  007F36  6E                 	db	110	;'n'
  1399  007F37  63                 	db	99	;'c'
  1400  007F38  69                 	db	105	;'i'
  1401  007F39  6F                 	db	111	;'o'
  1402  007F3A  6E                 	db	110	;'n'
  1403  007F3B  61                 	db	97	;'a'
  1404  007F3C  6D                 	db	109	;'m'
  1405  007F3D  69                 	db	105	;'i'
  1406  007F3E  65                 	db	101	;'e'
  1407  007F3F  6E                 	db	110	;'n'
  1408  007F40  74                 	db	116	;'t'
  1409  007F41  6F                 	db	111	;'o'
  1410  007F42  20                 	db	32
  1411  007F43  64                 	db	100	;'d'
  1412  007F44  65                 	db	101	;'e'
  1413  007F45  6C                 	db	108	;'l'
  1414  007F46  20                 	db	32
  1415  007F47  53                 	db	83	;'S'
  1416  007F48  50                 	db	80	;'P'
  1417  007F49  41                 	db	65	;'A'
  1418  007F4A  52                 	db	82	;'R'
  1419  007F4B  43                 	db	67	;'C'
  1420  007F4C  3A                 	db	58	;':'
  1421  007F4D  00                 	db	0
  1422  007F4E                     STR_28:
  1423  007F4E  48                 	db	72	;'H'
  1424  007F4F  61                 	db	97	;'a'
  1425  007F50  73                 	db	115	;'s'
  1426  007F51  20                 	db	32
  1427  007F52  65                 	db	101	;'e'
  1428  007F53  6C                 	db	108	;'l'
  1429  007F54  65                 	db	101	;'e'
  1430  007F55  67                 	db	103	;'g'
  1431  007F56  69                 	db	105	;'i'
  1432  007F57  64                 	db	100	;'d'
  1433  007F58  6F                 	db	111	;'o'
  1434  007F59  20                 	db	32
  1435  007F5A  69                 	db	105	;'i'
  1436  007F5B  72                 	db	114	;'r'
  1437  007F5C  20                 	db	32
  1438  007F5D  61                 	db	97	;'a'
  1439  007F5E  20                 	db	32
  1440  007F5F  68                 	db	104	;'h'
  1441  007F60  6F                 	db	111	;'o'
  1442  007F61  6D                 	db	109	;'m'
  1443  007F62  65                 	db	101	;'e'
  1444  007F63  0A                 	db	10
  1445  007F64  00                 	db	0
  1446  007F65                     STR_31:
  1447  007F65  52                 	db	82	;'R'
  1448  007F66  65                 	db	101	;'e'
  1449  007F67  67                 	db	103	;'g'
  1450  007F68  72                 	db	114	;'r'
  1451  007F69  65                 	db	101	;'e'
  1452  007F6A  73                 	db	115	;'s'
  1453  007F6B  61                 	db	97	;'a'
  1454  007F6C  6E                 	db	110	;'n'
  1455  007F6D  64                 	db	100	;'d'
  1456  007F6E  6F                 	db	111	;'o'
  1457  007F6F  20                 	db	32
  1458  007F70  61                 	db	97	;'a'
  1459  007F71  6C                 	db	108	;'l'
  1460  007F72  20                 	db	32
  1461  007F73  6D                 	db	109	;'m'
  1462  007F74  65                 	db	101	;'e'
  1463  007F75  6E                 	db	110	;'n'
  1464  007F76  75                 	db	117	;'u'
  1465  007F77  00                 	db	0
  1466  007F78                     STR_20:
  1467  007F78  78                 	db	120	;'x'
  1468  007F79  54                 	db	84	;'T'
  1469  007F7A  6F                 	db	111	;'o'
  1470  007F7B  41                 	db	65	;'A'
  1471  007F7C  64                 	db	100	;'d'
  1472  007F7D  76                 	db	118	;'v'
  1473  007F7E  61                 	db	97	;'a'
  1474  007F7F  6E                 	db	110	;'n'
  1475  007F80  63                 	db	99	;'c'
  1476  007F81  65                 	db	101	;'e'
  1477  007F82  20                 	db	32
  1478  007F83  69                 	db	105	;'i'
  1479  007F84  73                 	db	115	;'s'
  1480  007F85  3A                 	db	58	;':'
  1481  007F86  00                 	db	0
  1482  007F87  79                 	db	121	;'y'
  1483  007F88  54                 	db	84	;'T'
  1484  007F89  6F                 	db	111	;'o'
  1485  007F8A  41                 	db	65	;'A'
  1486  007F8B  64                 	db	100	;'d'
  1487  007F8C  76                 	db	118	;'v'
  1488  007F8D  61                 	db	97	;'a'
  1489  007F8E  6E                 	db	110	;'n'
  1490  007F8F  63                 	db	99	;'c'
  1491  007F90  65                 	db	101	;'e'
  1492  007F91  20                 	db	32
  1493  007F92  69                 	db	105	;'i'
  1494  007F93  73                 	db	115	;'s'
  1495  007F94  3A                 	db	58	;':'
  1496  007F95  00                 	db	0
  1497  007F96                     STR_3:
  1498  007F96  52                 	db	82	;'R'
  1499  007F97  65                 	db	101	;'e'
  1500  007F98  63                 	db	99	;'c'
  1501  007F99  69                 	db	105	;'i'
  1502  007F9A  62                 	db	98	;'b'
  1503  007F9B  69                 	db	105	;'i'
  1504  007F9C  20                 	db	32
  1505  007F9D  63                 	db	99	;'c'
  1506  007F9E  6F                 	db	111	;'o'
  1507  007F9F  6F                 	db	111	;'o'
  1508  007FA0  72                 	db	114	;'r'
  1509  007FA1  64                 	db	100	;'d'
  1510  007FA2  58                 	db	88	;'X'
  1511  007FA3  00                 	db	0
  1512  007FA4                     STR_4:
  1513  007FA4  52                 	db	82	;'R'
  1514  007FA5  65                 	db	101	;'e'
  1515  007FA6  63                 	db	99	;'c'
  1516  007FA7  69                 	db	105	;'i'
  1517  007FA8  62                 	db	98	;'b'
  1518  007FA9  69                 	db	105	;'i'
  1519  007FAA  20                 	db	32
  1520  007FAB  63                 	db	99	;'c'
  1521  007FAC  6F                 	db	111	;'o'
  1522  007FAD  6F                 	db	111	;'o'
  1523  007FAE  72                 	db	114	;'r'
  1524  007FAF  64                 	db	100	;'d'
  1525  007FB0  59                 	db	89	;'Y'
  1526  007FB1  00                 	db	0
  1527  007FB2                     STR_29:
  1528  007FB2  45                 	db	69	;'E'
  1529  007FB3  6E                 	db	110	;'n'
  1530  007FB4  74                 	db	116	;'t'
  1531  007FB5  72                 	db	114	;'r'
  1532  007FB6  61                 	db	97	;'a'
  1533  007FB7  73                 	db	115	;'s'
  1534  007FB8  65                 	db	101	;'e'
  1535  007FB9  20                 	db	32
  1536  007FBA  61                 	db	97	;'a'
  1537  007FBB  6C                 	db	108	;'l'
  1538  007FBC  20                 	db	32
  1539  007FBD  35                 	db	53	;'5'
  1540  007FBE  00                 	db	0
  1541  007FBF                     STR_32:
  1542  007FBF  45                 	db	69	;'E'
  1543  007FC0  6E                 	db	110	;'n'
  1544  007FC1  74                 	db	116	;'t'
  1545  007FC2  72                 	db	114	;'r'
  1546  007FC3  61                 	db	97	;'a'
  1547  007FC4  73                 	db	115	;'s'
  1548  007FC5  65                 	db	101	;'e'
  1549  007FC6  20                 	db	32
  1550  007FC7  61                 	db	97	;'a'
  1551  007FC8  6C                 	db	108	;'l'
  1552  007FC9  20                 	db	32
  1553  007FCA  37                 	db	55	;'7'
  1554  007FCB  00                 	db	0
  1555  007FCC                     STR_33:
  1556  007FCC  45                 	db	69	;'E'
  1557  007FCD  6E                 	db	110	;'n'
  1558  007FCE  74                 	db	116	;'t'
  1559  007FCF  72                 	db	114	;'r'
  1560  007FD0  61                 	db	97	;'a'
  1561  007FD1  73                 	db	115	;'s'
  1562  007FD2  65                 	db	101	;'e'
  1563  007FD3  20                 	db	32
  1564  007FD4  61                 	db	97	;'a'
  1565  007FD5  6C                 	db	108	;'l'
  1566  007FD6  20                 	db	32
  1567  007FD7  38                 	db	56	;'8'
  1568  007FD8  00                 	db	0
  1569  007FD9                     STR_34:
  1570  007FD9  45                 	db	69	;'E'
  1571  007FDA  6E                 	db	110	;'n'
  1572  007FDB  74                 	db	116	;'t'
  1573  007FDC  72                 	db	114	;'r'
  1574  007FDD  61                 	db	97	;'a'
  1575  007FDE  73                 	db	115	;'s'
  1576  007FDF  65                 	db	101	;'e'
  1577  007FE0  20                 	db	32
  1578  007FE1  61                 	db	97	;'a'
  1579  007FE2  6C                 	db	108	;'l'
  1580  007FE3  20                 	db	32
  1581  007FE4  39                 	db	57	;'9'
  1582  007FE5  00                 	db	0
  1583  007FE6                     STR_10:
  1584  007FE6  41                 	db	65	;'A'
  1585  007FE7  67                 	db	103	;'g'
  1586  007FE8  72                 	db	114	;'r'
  1587  007FE9  65                 	db	101	;'e'
  1588  007FEA  67                 	db	103	;'g'
  1589  007FEB  61                 	db	97	;'a'
  1590  007FEC  73                 	db	115	;'s'
  1591  007FED  74                 	db	116	;'t'
  1592  007FEE  65                 	db	101	;'e'
  1593  007FEF  3A                 	db	58	;':'
  1594  007FF0  20                 	db	32
  1595  007FF1  00                 	db	0
  1596  007FF2                     STR_12:
  1597  007FF2  43                 	db	67	;'C'
  1598  007FF3  6F                 	db	111	;'o'
  1599  007FF4  6F                 	db	111	;'o'
  1600  007FF5  72                 	db	114	;'r'
  1601  007FF6  64                 	db	100	;'d'
  1602  007FF7  65                 	db	101	;'e'
  1603  007FF8  6E                 	db	110	;'n'
  1604  007FF9  61                 	db	97	;'a'
  1605  007FFA  64                 	db	100	;'d'
  1606  007FFB  61                 	db	97	;'a'
  1607  007FFC  20                 	db	32
  1608  007FFD  00                 	db	0
  1609  0000                     
  1610                           ; #config settings
  1611  007FFE  00                 	db	0	; dummy byte at the end
  1612  0000                     
  1613                           	psect	cinit
  1614  001CD4                     __pcinit:
  1615                           	opt callstack 0
  1616  001CD4                     start_initialization:
  1617                           	opt callstack 0
  1618  001CD4                     __initialization:
  1619                           	opt callstack 0
  1620                           
  1621                           ; Clear objects allocated to BANK1 (10 bytes)
  1622  001CD4  EE01  F000         	lfsr	0,__pbssBANK1
  1623  001CD8  0E0A               	movlw	10
  1624  001CDA                     clear_0:
  1625  001CDA  6AEE               	clrf	postinc0,c
  1626  001CDC  06E8               	decf	wreg,f,c
  1627  001CDE  E1FD               	bnz	clear_0
  1628                           
  1629                           ; Clear objects allocated to BANK0 (75 bytes)
  1630  001CE0  EE00  F0AE         	lfsr	0,__pbssBANK0
  1631  001CE4  0E4B               	movlw	75
  1632  001CE6                     clear_1:
  1633  001CE6  6AEE               	clrf	postinc0,c
  1634  001CE8  06E8               	decf	wreg,f,c
  1635  001CEA  E1FD               	bnz	clear_1
  1636                           
  1637                           ; Clear objects allocated to COMRAM (24 bytes)
  1638  001CEC  EE00  F041         	lfsr	0,__pbssCOMRAM
  1639  001CF0  0E18               	movlw	24
  1640  001CF2                     clear_2:
  1641  001CF2  6AEE               	clrf	postinc0,c
  1642  001CF4  06E8               	decf	wreg,f,c
  1643  001CF6  E1FD               	bnz	clear_2
  1644  001CF8                     end_of_initialization:
  1645                           	opt callstack 0
  1646  001CF8                     __end_of__initialization:
  1647                           	opt callstack 0
  1648  001CF8  9059               	bcf	int$flags,0,c	;clear compiler interrupt flag (level 1)
  1649  001CFA  9259               	bcf	int$flags,1,c	;clear compiler interrupt flag (level 2)
  1650  001CFC  0E00               	movlw	low (__Lmediumconst shr (0+16))
  1651  001CFE  6EF8               	movwf	tblptru,c
  1652  001D00  0100               	movlb	0
  1653  001D02  EFCE  F005         	goto	_main	;jump to C main() function
  1654                           
  1655                           	psect	bssCOMRAM
  1656  000041                     __pbssCOMRAM:
  1657                           	opt callstack 0
  1658  000041                     _presionarZDecenas:
  1659                           	opt callstack 0
  1660  000041                     	ds	10
  1661  00004B                     _presionarZCentenas:
  1662                           	opt callstack 0
  1663  00004B                     	ds	10
  1664  000055                     _CurrentPosY:
  1665                           	opt callstack 0
  1666  000055                     	ds	2
  1667  000057                     _yToAdvance:
  1668                           	opt callstack 0
  1669  000057                     	ds	2
  1670                           
  1671                           	psect	bssBANK0
  1672  0000AE                     __pbssBANK0:
  1673                           	opt callstack 0
  1674  0000AE                     _coordYUnidades:
  1675                           	opt callstack 0
  1676  0000AE                     	ds	10
  1677  0000B8                     _coordYDecenas:
  1678                           	opt callstack 0
  1679  0000B8                     	ds	10
  1680  0000C2                     _coordYCentenas:
  1681                           	opt callstack 0
  1682  0000C2                     	ds	10
  1683  0000CC                     _coordXUnidades:
  1684                           	opt callstack 0
  1685  0000CC                     	ds	10
  1686  0000D6                     _coordXDecenas:
  1687                           	opt callstack 0
  1688  0000D6                     	ds	10
  1689  0000E0                     _coordXCentenas:
  1690                           	opt callstack 0
  1691  0000E0                     	ds	10
  1692  0000EA                     _coordinates:
  1693                           	opt callstack 0
  1694  0000EA                     	ds	8
  1695  0000F2                     _CurrentPosX:
  1696                           	opt callstack 0
  1697  0000F2                     	ds	2
  1698  0000F4                     _xToAdvance:
  1699                           	opt callstack 0
  1700  0000F4                     	ds	2
  1701  0000F6                     _sparcEnMovimiento:
  1702                           	opt callstack 0
  1703  0000F6                     	ds	1
  1704  0000F7                     _habilitarModCoord:
  1705                           	opt callstack 0
  1706  0000F7                     	ds	1
  1707  0000F8                     _coordenadaNueva:
  1708                           	opt callstack 0
  1709  0000F8                     	ds	1
  1710                           
  1711                           	psect	bssBANK1
  1712  000100                     __pbssBANK1:
  1713                           	opt callstack 0
  1714  000100                     _presionarZUnidades:
  1715                           	opt callstack 0
  1716  000100                     	ds	10
  1717                           
  1718                           	psect	cstackBANK0
  1719  000060                     __pcstackBANK0:
  1720                           	opt callstack 0
  1721  000060                     ??_low_isr:
  1722                           
  1723                           ; 1 bytes @ 0x0
  1724  000060                     	ds	1
  1725  000061                     ?_abs:
  1726                           	opt callstack 0
  1727  000061                     ?___xxtofl:
  1728                           	opt callstack 0
  1729  000061                     receive@recibido:
  1730                           	opt callstack 0
  1731  000061                     send@enviarpc:
  1732                           	opt callstack 0
  1733  000061                     setNumPasosX@numPasosX:
  1734                           	opt callstack 0
  1735  000061                     abs@a:
  1736                           	opt callstack 0
  1737  000061                     ___xxtofl@val:
  1738                           	opt callstack 0
  1739                           
  1740                           ; 4 bytes @ 0x1
  1741  000061                     	ds	1
  1742  000062                     printf@PointString:
  1743                           	opt callstack 0
  1744  000062                     scanf@guardarscan:
  1745                           	opt callstack 0
  1746                           
  1747                           ; 2 bytes @ 0x2
  1748  000062                     	ds	1
  1749  000063                     ??_abs:
  1750  000063                     setNumPasosX@resultado:
  1751                           	opt callstack 0
  1752                           
  1753                           ; 2 bytes @ 0x3
  1754  000063                     	ds	1
  1755  000064                     ??_printf:
  1756  000064                     scanf@numcaracteres:
  1757                           	opt callstack 0
  1758                           
  1759                           ; 1 bytes @ 0x4
  1760  000064                     	ds	1
  1761  000065                     ??___xxtofl:
  1762  000065                     ?___wmul:
  1763                           	opt callstack 0
  1764  000065                     scanf@i:
  1765                           	opt callstack 0
  1766  000065                     ___wmul@multiplier:
  1767                           	opt callstack 0
  1768                           
  1769                           ; 2 bytes @ 0x5
  1770  000065                     	ds	1
  1771  000066                     printf@i:
  1772                           	opt callstack 0
  1773                           
  1774                           ; 1 bytes @ 0x6
  1775  000066                     	ds	1
  1776  000067                     receiveNum@recibido:
  1777                           	opt callstack 0
  1778  000067                     imprimirCoordenadas@numCoordenadas:
  1779                           	opt callstack 0
  1780  000067                     borrarTodasCoordenadas@impresionCoordenada:
  1781                           	opt callstack 0
  1782  000067                     ___wmul@multiplicand:
  1783                           	opt callstack 0
  1784                           
  1785                           ; 2 bytes @ 0x7
  1786  000067                     	ds	1
  1787  000068                     ??_introducirCoordNueva:
  1788  000068                     imprimirCoordenadas@impresionCoordenada:
  1789                           	opt callstack 0
  1790                           
  1791                           ; 1 bytes @ 0x8
  1792  000068                     	ds	1
  1793  000069                     ___xxtofl@sign:
  1794                           	opt callstack 0
  1795  000069                     ___wmul@product:
  1796                           	opt callstack 0
  1797                           
  1798                           ; 2 bytes @ 0x9
  1799  000069                     	ds	1
  1800  00006A                     ___xxtofl@exp:
  1801                           	opt callstack 0
  1802                           
  1803                           ; 1 bytes @ 0xA
  1804  00006A                     	ds	1
  1805  00006B                     ___xxtofl@arg:
  1806                           	opt callstack 0
  1807                           
  1808                           ; 4 bytes @ 0xB
  1809  00006B                     	ds	2
  1810  00006D                     introducirCoordNueva@validarCoordX:
  1811                           	opt callstack 0
  1812                           
  1813                           ; 2 bytes @ 0xD
  1814  00006D                     	ds	2
  1815  00006F                     ?___flmul:
  1816                           	opt callstack 0
  1817  00006F                     introducirCoordNueva@validarCoordY:
  1818                           	opt callstack 0
  1819  00006F                     ___flmul@b:
  1820                           	opt callstack 0
  1821                           
  1822                           ; 4 bytes @ 0xF
  1823  00006F                     	ds	2
  1824  000071                     ??_modificarCoordenada:
  1825                           
  1826                           ; 1 bytes @ 0x11
  1827  000071                     	ds	2
  1828  000073                     ___flmul@a:
  1829                           	opt callstack 0
  1830                           
  1831                           ; 4 bytes @ 0x13
  1832  000073                     	ds	4
  1833  000077                     ??___flmul:
  1834                           
  1835                           ; 1 bytes @ 0x17
  1836  000077                     	ds	1
  1837  000078                     modificarCoordenada@coordenadaNuevaCopia:
  1838                           	opt callstack 0
  1839                           
  1840                           ; 1 bytes @ 0x18
  1841  000078                     	ds	1
  1842  000079                     modificarCoordenada@modCoord:
  1843                           	opt callstack 0
  1844                           
  1845                           ; 1 bytes @ 0x19
  1846  000079                     	ds	2
  1847  00007B                     ___flmul@sign:
  1848                           	opt callstack 0
  1849                           
  1850                           ; 1 bytes @ 0x1B
  1851  00007B                     	ds	1
  1852  00007C                     ___flmul@grs:
  1853                           	opt callstack 0
  1854                           
  1855                           ; 4 bytes @ 0x1C
  1856  00007C                     	ds	4
  1857  000080                     ___flmul@aexp:
  1858                           	opt callstack 0
  1859                           
  1860                           ; 1 bytes @ 0x20
  1861  000080                     	ds	1
  1862  000081                     ___flmul@bexp:
  1863                           	opt callstack 0
  1864                           
  1865                           ; 1 bytes @ 0x21
  1866  000081                     	ds	1
  1867  000082                     ___flmul@prod:
  1868                           	opt callstack 0
  1869                           
  1870                           ; 4 bytes @ 0x22
  1871  000082                     	ds	4
  1872  000086                     ___flmul@temp:
  1873                           	opt callstack 0
  1874                           
  1875                           ; 2 bytes @ 0x26
  1876  000086                     	ds	2
  1877  000088                     ?___fltol:
  1878                           	opt callstack 0
  1879  000088                     ___fltol@f1:
  1880                           	opt callstack 0
  1881                           
  1882                           ; 4 bytes @ 0x28
  1883  000088                     	ds	4
  1884  00008C                     ??___fltol:
  1885                           
  1886                           ; 1 bytes @ 0x2C
  1887  00008C                     	ds	4
  1888  000090                     ___fltol@sign1:
  1889                           	opt callstack 0
  1890                           
  1891                           ; 1 bytes @ 0x30
  1892  000090                     	ds	1
  1893  000091                     ___fltol@exp1:
  1894                           	opt callstack 0
  1895                           
  1896                           ; 1 bytes @ 0x31
  1897  000091                     	ds	1
  1898  000092                     ??_PWM_DutyCycleCCP2:
  1899  000092                     ??_PWM_DutyCycleCCP1:
  1900                           
  1901                           ; 1 bytes @ 0x32
  1902  000092                     	ds	2
  1903  000094                     _PWM_DutyCycleCCP2$2402:
  1904                           	opt callstack 0
  1905  000094                     _PWM_DutyCycleCCP1$2403:
  1906                           	opt callstack 0
  1907                           
  1908                           ; 4 bytes @ 0x34
  1909  000094                     	ds	4
  1910  000098                     PWM_DutyCycleCCP2@WantedDutyCycle:
  1911                           	opt callstack 0
  1912  000098                     PWM_DutyCycleCCP1@WantedDutyCycle:
  1913                           	opt callstack 0
  1914                           
  1915                           ; 1 bytes @ 0x38
  1916  000098                     	ds	1
  1917  000099                     PWM_DutyCycleCCP2@PWMDutyValue:
  1918                           	opt callstack 0
  1919  000099                     PWM_DutyCycleCCP1@PWMDutyValue:
  1920                           	opt callstack 0
  1921                           
  1922                           ; 2 bytes @ 0x39
  1923  000099                     	ds	2
  1924  00009B                     moverHaciaX@coordXDecenas:
  1925                           	opt callstack 0
  1926                           
  1927                           ; 1 bytes @ 0x3B
  1928  00009B                     	ds	1
  1929  00009C                     moverHaciaX@coordXUnidades:
  1930                           	opt callstack 0
  1931                           
  1932                           ; 1 bytes @ 0x3C
  1933  00009C                     	ds	1
  1934  00009D                     ??_moverHaciaX:
  1935                           
  1936                           ; 1 bytes @ 0x3D
  1937  00009D                     	ds	2
  1938  00009F                     moverHaciaX@coordXCentenas:
  1939                           	opt callstack 0
  1940                           
  1941                           ; 1 bytes @ 0x3F
  1942  00009F                     	ds	1
  1943  0000A0                     main@tamanoarray:
  1944                           	opt callstack 0
  1945                           
  1946                           ; 1 bytes @ 0x40
  1947  0000A0                     	ds	2
  1948  0000A2                     main@pActMenu:
  1949                           	opt callstack 0
  1950                           
  1951                           ; 2 bytes @ 0x42
  1952  0000A2                     	ds	2
  1953  0000A4                     main@activarmenu:
  1954                           	opt callstack 0
  1955                           
  1956                           ; 5 bytes @ 0x44
  1957  0000A4                     	ds	5
  1958  0000A9                     main@n1:
  1959                           	opt callstack 0
  1960                           
  1961                           ; 1 bytes @ 0x49
  1962  0000A9                     	ds	1
  1963  0000AA                     main@n2:
  1964                           	opt callstack 0
  1965                           
  1966                           ; 1 bytes @ 0x4A
  1967  0000AA                     	ds	1
  1968  0000AB                     main@n3:
  1969                           	opt callstack 0
  1970                           
  1971                           ; 1 bytes @ 0x4B
  1972  0000AB                     	ds	1
  1973  0000AC                     main@decision:
  1974                           	opt callstack 0
  1975                           
  1976                           ; 1 bytes @ 0x4C
  1977  0000AC                     	ds	1
  1978  0000AD                     main@opcionsel:
  1979                           	opt callstack 0
  1980                           
  1981                           ; 1 bytes @ 0x4D
  1982  0000AD                     	ds	1
  1983                           
  1984                           	psect	cstackCOMRAM
  1985  000001                     __pcstackCOMRAM:
  1986                           	opt callstack 0
  1987  000001                     ?i2___xxtofl:
  1988                           	opt callstack 0
  1989  000001                     i2send@enviarpc:
  1990                           	opt callstack 0
  1991  000001                     i2___xxtofl@val:
  1992                           	opt callstack 0
  1993                           
  1994                           ; 4 bytes @ 0x0
  1995  000001                     	ds	1
  1996  000002                     i2printf@PointString:
  1997                           	opt callstack 0
  1998                           
  1999                           ; 2 bytes @ 0x1
  2000  000002                     	ds	2
  2001  000004                     ??i2_printf:
  2002                           
  2003                           ; 1 bytes @ 0x3
  2004  000004                     	ds	1
  2005  000005                     ??i2___xxtofl:
  2006                           
  2007                           ; 1 bytes @ 0x4
  2008  000005                     	ds	1
  2009  000006                     i2printf@i:
  2010                           	opt callstack 0
  2011                           
  2012                           ; 1 bytes @ 0x5
  2013  000006                     	ds	3
  2014  000009                     i2___xxtofl@sign:
  2015                           	opt callstack 0
  2016                           
  2017                           ; 1 bytes @ 0x8
  2018  000009                     	ds	1
  2019  00000A                     i2___xxtofl@exp:
  2020                           	opt callstack 0
  2021                           
  2022                           ; 1 bytes @ 0x9
  2023  00000A                     	ds	1
  2024  00000B                     i2___xxtofl@arg:
  2025                           	opt callstack 0
  2026                           
  2027                           ; 4 bytes @ 0xA
  2028  00000B                     	ds	4
  2029  00000F                     ?i2___flmul:
  2030                           	opt callstack 0
  2031  00000F                     i2___flmul@b:
  2032                           	opt callstack 0
  2033                           
  2034                           ; 4 bytes @ 0xE
  2035  00000F                     	ds	4
  2036  000013                     i2___flmul@a:
  2037                           	opt callstack 0
  2038                           
  2039                           ; 4 bytes @ 0x12
  2040  000013                     	ds	4
  2041  000017                     ??i2___flmul:
  2042                           
  2043                           ; 1 bytes @ 0x16
  2044  000017                     	ds	4
  2045  00001B                     i2___flmul@sign:
  2046                           	opt callstack 0
  2047                           
  2048                           ; 1 bytes @ 0x1A
  2049  00001B                     	ds	1
  2050  00001C                     i2___flmul@grs:
  2051                           	opt callstack 0
  2052                           
  2053                           ; 4 bytes @ 0x1B
  2054  00001C                     	ds	4
  2055  000020                     i2___flmul@aexp:
  2056                           	opt callstack 0
  2057                           
  2058                           ; 1 bytes @ 0x1F
  2059  000020                     	ds	1
  2060  000021                     i2___flmul@bexp:
  2061                           	opt callstack 0
  2062                           
  2063                           ; 1 bytes @ 0x20
  2064  000021                     	ds	1
  2065  000022                     i2___flmul@prod:
  2066                           	opt callstack 0
  2067                           
  2068                           ; 4 bytes @ 0x21
  2069  000022                     	ds	4
  2070  000026                     i2___flmul@temp:
  2071                           	opt callstack 0
  2072                           
  2073                           ; 2 bytes @ 0x25
  2074  000026                     	ds	2
  2075  000028                     ?i2___fltol:
  2076                           	opt callstack 0
  2077  000028                     i2___fltol@f1:
  2078                           	opt callstack 0
  2079                           
  2080                           ; 4 bytes @ 0x27
  2081  000028                     	ds	4
  2082  00002C                     ??i2___fltol:
  2083                           
  2084                           ; 1 bytes @ 0x2B
  2085  00002C                     	ds	4
  2086  000030                     i2___fltol@sign1:
  2087                           	opt callstack 0
  2088                           
  2089                           ; 1 bytes @ 0x2F
  2090  000030                     	ds	1
  2091  000031                     i2___fltol@exp1:
  2092                           	opt callstack 0
  2093                           
  2094                           ; 1 bytes @ 0x30
  2095  000031                     	ds	1
  2096  000032                     ??i2_PWM_DutyCycleCCP2:
  2097  000032                     ??i2_PWM_DutyCycleCCP1:
  2098                           
  2099                           ; 1 bytes @ 0x31
  2100  000032                     	ds	2
  2101  000034                     i2_PWM_DutyCycleCCP2$2480:
  2102                           	opt callstack 0
  2103  000034                     i2_PWM_DutyCycleCCP1$2481:
  2104                           	opt callstack 0
  2105                           
  2106                           ; 4 bytes @ 0x33
  2107  000034                     	ds	4
  2108  000038                     i2PWM_DutyCycleCCP2@WantedDutyCycle:
  2109                           	opt callstack 0
  2110  000038                     i2PWM_DutyCycleCCP1@WantedDutyCycle:
  2111                           	opt callstack 0
  2112                           
  2113                           ; 1 bytes @ 0x37
  2114  000038                     	ds	1
  2115  000039                     i2PWM_DutyCycleCCP2@PWMDutyValue:
  2116                           	opt callstack 0
  2117  000039                     i2PWM_DutyCycleCCP1@PWMDutyValue:
  2118                           	opt callstack 0
  2119                           
  2120                           ; 2 bytes @ 0x38
  2121  000039                     	ds	2
  2122  00003B                     ??_high_isr:
  2123                           
  2124                           ; 1 bytes @ 0x3A
  2125  00003B                     	ds	6
  2126                           
  2127 ;;
  2128 ;;Main: autosize = 0, tempsize = 0, incstack = 0, save=0
  2129 ;;
  2130 ;; *************** function _main *****************
  2131 ;; Defined at:
  2132 ;;		line 41 in file "main.c"
  2133 ;; Parameters:    Size  Location     Type
  2134 ;;		None
  2135 ;; Auto vars:     Size  Location     Type
  2136 ;;  decision        1   76[BANK0 ] unsigned char 
  2137 ;;  n3              1   75[BANK0 ] unsigned char 
  2138 ;;  n2              1   74[BANK0 ] unsigned char 
  2139 ;;  n1              1   73[BANK0 ] unsigned char 
  2140 ;;  opcionsel       1   77[BANK0 ] unsigned char 
  2141 ;;  activarmenu     5   68[BANK0 ] unsigned char [5]
  2142 ;;  pActMenu        2   66[BANK0 ] PTR unsigned char 
  2143 ;;		 -> main@activarmenu(5), 
  2144 ;;  desechable      1    0        unsigned char 
  2145 ;;  tamanoarray     1   64[BANK0 ] unsigned char 
  2146 ;; Return value:  Size  Location     Type
  2147 ;;                  1    wreg      void 
  2148 ;; Registers used:
  2149 ;;		wreg, fsr2l, fsr2h, status,2, status,0, tblptrl, tblptrh, tblptru, prodl, prodh, cstack
  2150 ;; Tracked objects:
  2151 ;;		On entry : 0/0
  2152 ;;		On exit  : 0/0
  2153 ;;		Unchanged: 0/0
  2154 ;; Data sizes:     COMRAM   BANK0   BANK1   BANK2   BANK3   BANK4   BANK5   BANK6   BANK7
  2155 ;;      Params:         0       0       0       0       0       0       0       0       0
  2156 ;;      Locals:         0      14       0       0       0       0       0       0       0
  2157 ;;      Temps:          0       0       0       0       0       0       0       0       0
  2158 ;;      Totals:         0      14       0       0       0       0       0       0       0
  2159 ;;Total ram usage:       14 bytes
  2160 ;; Hardware stack levels required when called:    9
  2161 ;; This function calls:
  2162 ;;		_PWM_CCP1_init
  2163 ;;		_PWM_CCP2_init
  2164 ;;		_PWM_DutyCycleCCP1
  2165 ;;		_PWM_DutyCycleCCP2
  2166 ;;		_UARTinit
  2167 ;;		_borrarTodasCoordenadas
  2168 ;;		_habilitarIntTMR0
  2169 ;;		_habilitarIntTMR1
  2170 ;;		_imprimirCoordenadas
  2171 ;;		_interruptsEnable
  2172 ;;		_introducirCoordNueva
  2173 ;;		_modificarCoordenada
  2174 ;;		_motorXinit
  2175 ;;		_motorYinit
  2176 ;;		_moverHaciaX
  2177 ;;		_portInit
  2178 ;;		_printf
  2179 ;;		_receive
  2180 ;;		_receiveNum
  2181 ;;		_scanf
  2182 ;;		_tmr0Init
  2183 ;;		_tmr1Init
  2184 ;; This function is called by:
  2185 ;;		Startup code after reset
  2186 ;; This function uses a non-reentrant model
  2187 ;;
  2188                           
  2189                           	psect	text0
  2190  000B9C                     __ptext0:
  2191                           	opt callstack 0
  2192  000B9C                     _main:
  2193                           	opt callstack 22
  2194  000B9C                     
  2195                           ;main.c: 43:     portInit();
  2196  000B9C  EC0F  F00F         	call	_portInit	;wreg free
  2197                           
  2198                           ;main.c: 44:     UARTinit();
  2199  000BA0  ECD2  F00E         	call	_UARTinit	;wreg free
  2200                           
  2201                           ;main.c: 45:     PWM_CCP2_init();
  2202  000BA4  ECA8  F00E         	call	_PWM_CCP2_init	;wreg free
  2203                           
  2204                           ;main.c: 46:     PWM_CCP1_init();
  2205  000BA8  EC97  F00E         	call	_PWM_CCP1_init	;wreg free
  2206  000BAC                     
  2207                           ;main.c: 47:     PWM_DutyCycleCCP2(0);
  2208  000BAC  0E00               	movlw	0
  2209  000BAE  EC5C  F00B         	call	_PWM_DutyCycleCCP2
  2210  000BB2                     
  2211                           ;main.c: 48:     PWM_DutyCycleCCP1(0);
  2212  000BB2  0E00               	movlw	0
  2213  000BB4  ECBA  F00B         	call	_PWM_DutyCycleCCP1
  2214  000BB8                     
  2215                           ;main.c: 49:     motorXinit();
  2216  000BB8  EC08  F00F         	call	_motorXinit	;wreg free
  2217  000BBC                     
  2218                           ;main.c: 50:     motorYinit();
  2219  000BBC  EC01  F00F         	call	_motorYinit	;wreg free
  2220                           
  2221                           ;main.c: 51:     tmr0Init();
  2222  000BC0  ECEB  F00E         	call	_tmr0Init	;wreg free
  2223                           
  2224                           ;main.c: 52:     tmr1Init();
  2225  000BC4  ECC5  F00E         	call	_tmr1Init	;wreg free
  2226  000BC8                     
  2227                           ;main.c: 53:     interruptsEnable();
  2228  000BC8  EC14  F00F         	call	_interruptsEnable	;wreg free
  2229  000BCC                     
  2230                           ;main.c: 54:     habilitarIntTMR0();
  2231  000BCC  EC1A  F00F         	call	_habilitarIntTMR0	;wreg free
  2232  000BD0                     
  2233                           ;main.c: 55:     habilitarIntTMR1();
  2234  000BD0  EC18  F00F         	call	_habilitarIntTMR1	;wreg free
  2235                           
  2236                           ;main.c: 59:     unsigned char activarmenu[5];;main.c: 60:     activarmenu[4] = ((void*)
      +                          0);
  2237  000BD4  0E00               	movlw	0
  2238  000BD6  0100               	movlb	0	; () banked
  2239  000BD8  6FA8               	movwf	(main@activarmenu+4)& (0+255),b
  2240  000BDA                     
  2241                           ; BSR set to: 0
  2242                           ;main.c: 61:     unsigned char *pActMenu = (unsigned char *) &activarmenu;
  2243  000BDA  0EA4               	movlw	low main@activarmenu
  2244  000BDC  6FA2               	movwf	main@pActMenu& (0+255),b
  2245  000BDE  0E00               	movlw	high main@activarmenu
  2246  000BE0  6FA3               	movwf	(main@pActMenu+1)& (0+255),b
  2247  000BE2                     
  2248                           ; BSR set to: 0
  2249  000BE2  ECB7  F00E         	call	_receive	;wreg free
  2250  000BE6                     
  2251                           ;main.c: 65:     printf("Escribe la palabra 'Menu' o 'menu' para acceder al menu\n");
  2252  000BE6  0EA6               	movlw	low STR_23
  2253  000BE8  0100               	movlb	0	; () banked
  2254  000BEA  6F62               	movwf	printf@PointString& (0+255),b
  2255  000BEC  0E7C               	movlw	high STR_23
  2256  000BEE  6F63               	movwf	(printf@PointString+1)& (0+255),b
  2257  000BF0  ECE2  F00D         	call	_printf	;wreg free
  2258  000BF4                     l3044:
  2259                           
  2260                           ;main.c: 68:         scanf(pActMenu, tamanoarray = (sizeof (activarmenu) - 1));
  2261  000BF4  C0A2  F062         	movff	main@pActMenu,scanf@guardarscan
  2262  000BF8  C0A3  F063         	movff	main@pActMenu+1,scanf@guardarscan+1
  2263  000BFC  0E04               	movlw	4
  2264  000BFE  0100               	movlb	0	; () banked
  2265  000C00  6FA0               	movwf	main@tamanoarray& (0+255),b
  2266  000C02  C0A0  F064         	movff	main@tamanoarray,scanf@numcaracteres
  2267  000C06  EC50  F00E         	call	_scanf	;wreg free
  2268  000C0A                     
  2269                           ;main.c: 69:         if ((activarmenu[0] == 'M' || activarmenu[0] == 'm') && activarmenu
      +                          [1] == 'e' && activarmenu[2] == 'n' && activarmenu[3] == 'u') {
  2270  000C0A  0E4D               	movlw	77
  2271  000C0C  0100               	movlb	0	; () banked
  2272  000C0E  19A4               	xorwf	main@activarmenu& (0+255),w,b
  2273  000C10  B4D8               	btfsc	status,2,c
  2274  000C12  EF0D  F006         	goto	u2321
  2275  000C16  EF0F  F006         	goto	u2320
  2276  000C1A                     u2321:
  2277  000C1A  EF18  F006         	goto	l3050
  2278  000C1E                     u2320:
  2279  000C1E                     
  2280                           ; BSR set to: 0
  2281  000C1E  0E6D               	movlw	109
  2282  000C20  19A4               	xorwf	main@activarmenu& (0+255),w,b
  2283  000C22  A4D8               	btfss	status,2,c
  2284  000C24  EF16  F006         	goto	u2331
  2285  000C28  EF18  F006         	goto	u2330
  2286  000C2C                     u2331:
  2287  000C2C  EF1C  F007         	goto	l3118
  2288  000C30                     u2330:
  2289  000C30                     l3050:
  2290                           
  2291                           ; BSR set to: 0
  2292  000C30  0E65               	movlw	101
  2293  000C32  19A5               	xorwf	(main@activarmenu+1)& (0+255),w,b
  2294  000C34  A4D8               	btfss	status,2,c
  2295  000C36  EF1F  F006         	goto	u2341
  2296  000C3A  EF21  F006         	goto	u2340
  2297  000C3E                     u2341:
  2298  000C3E  EF1C  F007         	goto	l3118
  2299  000C42                     u2340:
  2300  000C42                     
  2301                           ; BSR set to: 0
  2302  000C42  0E6E               	movlw	110
  2303  000C44  19A6               	xorwf	(main@activarmenu+2)& (0+255),w,b
  2304  000C46  A4D8               	btfss	status,2,c
  2305  000C48  EF28  F006         	goto	u2351
  2306  000C4C  EF2A  F006         	goto	u2350
  2307  000C50                     u2351:
  2308  000C50  EF1C  F007         	goto	l3118
  2309  000C54                     u2350:
  2310  000C54                     
  2311                           ; BSR set to: 0
  2312  000C54  0E75               	movlw	117
  2313  000C56  19A7               	xorwf	(main@activarmenu+3)& (0+255),w,b
  2314  000C58  A4D8               	btfss	status,2,c
  2315  000C5A  EF31  F006         	goto	u2361
  2316  000C5E  EF33  F006         	goto	u2360
  2317  000C62                     u2361:
  2318  000C62  EF1C  F007         	goto	l3118
  2319  000C66                     u2360:
  2320  000C66                     
  2321                           ; BSR set to: 0
  2322                           ;main.c: 71:             printf("(0)Ayuda sobre como funciona el programa (1)Introducir 
      +                          coordenada nueva (2)Imprimir las coordenadas recibidas (3)Ir a home\n"
  2323  000C66  0E5D               	movlw	low STR_24
  2324  000C68  6F62               	movwf	printf@PointString& (0+255),b
  2325  000C6A  0E7A               	movlw	high STR_24
  2326  000C6C  6F63               	movwf	(printf@PointString+1)& (0+255),b
  2327  000C6E  ECE2  F00D         	call	_printf	;wreg free
  2328  000C72                     l3058:
  2329                           
  2330                           ;main.c: 73:             uint8_t opcionsel = receive();
  2331  000C72  ECB7  F00E         	call	_receive	;wreg free
  2332  000C76  0100               	movlb	0	; () banked
  2333  000C78  6FAD               	movwf	main@opcionsel& (0+255),b
  2334                           
  2335                           ;main.c: 74:             while (opcionsel > 57 || opcionsel < 48) {
  2336  000C7A  EF47  F006         	goto	l3064
  2337  000C7E                     l3060:
  2338                           
  2339                           ; BSR set to: 0
  2340                           ;main.c: 75:                 printf("Eleccion no valida vuelva a intentar");
  2341  000C7E  0E8E               	movlw	low STR_25
  2342  000C80  6F62               	movwf	printf@PointString& (0+255),b
  2343  000C82  0E7E               	movlw	high STR_25
  2344  000C84  6F63               	movwf	(printf@PointString+1)& (0+255),b
  2345  000C86  ECE2  F00D         	call	_printf	;wreg free
  2346  000C8A  EF39  F006         	goto	l3058
  2347  000C8E                     l3064:
  2348                           
  2349                           ; BSR set to: 0
  2350                           ;main.c: 74:             while (opcionsel > 57 || opcionsel < 48) {
  2351  000C8E  0E3A               	movlw	58
  2352  000C90  61AD               	cpfslt	main@opcionsel& (0+255),b
  2353  000C92  EF4D  F006         	goto	u2371
  2354  000C96  EF4F  F006         	goto	u2370
  2355  000C9A                     u2371:
  2356  000C9A  EF3F  F006         	goto	l3060
  2357  000C9E                     u2370:
  2358  000C9E                     
  2359                           ; BSR set to: 0
  2360  000C9E  0E2F               	movlw	47
  2361  000CA0  65AD               	cpfsgt	main@opcionsel& (0+255),b
  2362  000CA2  EF55  F006         	goto	u2381
  2363  000CA6  EF57  F006         	goto	u2380
  2364  000CAA                     u2381:
  2365  000CAA  EF3F  F006         	goto	l3060
  2366  000CAE                     u2380:
  2367  000CAE                     
  2368                           ; BSR set to: 0
  2369                           ;main.c: 78:             if (opcionsel == '0') {
  2370  000CAE  0E30               	movlw	48
  2371  000CB0  19AD               	xorwf	main@opcionsel& (0+255),w,b
  2372  000CB2  A4D8               	btfss	status,2,c
  2373  000CB4  EF5E  F006         	goto	u2391
  2374  000CB8  EF60  F006         	goto	u2390
  2375  000CBC                     u2391:
  2376  000CBC  EF66  F006         	goto	l3072
  2377  000CC0                     u2390:
  2378  000CC0                     
  2379                           ; BSR set to: 0
  2380                           ;main.c: 79:                 printf("Funcionamiento del SPARC:");
  2381  000CC0  0E34               	movlw	low STR_26
  2382  000CC2  6F62               	movwf	printf@PointString& (0+255),b
  2383  000CC4  0E7F               	movlw	high STR_26
  2384  000CC6  6F63               	movwf	(printf@PointString+1)& (0+255),b
  2385  000CC8  ECE2  F00D         	call	_printf	;wreg free
  2386  000CCC                     l3072:
  2387                           
  2388                           ;main.c: 81:             if (opcionsel == '1') {
  2389  000CCC  0E31               	movlw	49
  2390  000CCE  0100               	movlb	0	; () banked
  2391  000CD0  19AD               	xorwf	main@opcionsel& (0+255),w,b
  2392  000CD2  A4D8               	btfss	status,2,c
  2393  000CD4  EF6E  F006         	goto	u2401
  2394  000CD8  EF70  F006         	goto	u2400
  2395  000CDC                     u2401:
  2396  000CDC  EF72  F006         	goto	l3076
  2397  000CE0                     u2400:
  2398  000CE0                     
  2399                           ; BSR set to: 0
  2400                           ;main.c: 82:                 introducirCoordNueva();
  2401  000CE0  EC41  F004         	call	_introducirCoordNueva	;wreg free
  2402  000CE4                     l3076:
  2403                           
  2404                           ;main.c: 84:             if (opcionsel == '2') {
  2405  000CE4  0E32               	movlw	50
  2406  000CE6  0100               	movlb	0	; () banked
  2407  000CE8  19AD               	xorwf	main@opcionsel& (0+255),w,b
  2408  000CEA  A4D8               	btfss	status,2,c
  2409  000CEC  EF7A  F006         	goto	u2411
  2410  000CF0  EF7C  F006         	goto	u2410
  2411  000CF4                     u2411:
  2412  000CF4  EF84  F006         	goto	l3082
  2413  000CF8                     u2410:
  2414  000CF8                     
  2415                           ; BSR set to: 0
  2416                           ;main.c: 85:                 printf("Elegiste la opcion de imprimir coordenadas\n");
  2417  000CF8  0E0E               	movlw	low STR_27
  2418  000CFA  6F62               	movwf	printf@PointString& (0+255),b
  2419  000CFC  0E7E               	movlw	high STR_27
  2420  000CFE  6F63               	movwf	(printf@PointString+1)& (0+255),b
  2421  000D00  ECE2  F00D         	call	_printf	;wreg free
  2422  000D04                     
  2423                           ;main.c: 86:                 imprimirCoordenadas();
  2424  000D04  ECDC  F008         	call	_imprimirCoordenadas	;wreg free
  2425  000D08                     l3082:
  2426                           
  2427                           ;main.c: 88:             if (opcionsel == '3') {
  2428  000D08  0E33               	movlw	51
  2429  000D0A  0100               	movlb	0	; () banked
  2430  000D0C  19AD               	xorwf	main@opcionsel& (0+255),w,b
  2431  000D0E  A4D8               	btfss	status,2,c
  2432  000D10  EF8C  F006         	goto	u2421
  2433  000D14  EF8E  F006         	goto	u2420
  2434  000D18                     u2421:
  2435  000D18  EFA7  F006         	goto	l3088
  2436  000D1C                     u2420:
  2437  000D1C                     
  2438                           ; BSR set to: 0
  2439                           ;main.c: 89:                 printf("Has elegido ir a home\n");
  2440  000D1C  0E4E               	movlw	low STR_28
  2441  000D1E  6F62               	movwf	printf@PointString& (0+255),b
  2442  000D20  0E7F               	movlw	high STR_28
  2443  000D22  6F63               	movwf	(printf@PointString+1)& (0+255),b
  2444  000D24  ECE2  F00D         	call	_printf	;wreg free
  2445                           
  2446                           ;main.c: 90:                 unsigned char n1, n2, n3;;main.c: 91:                 n1 = 
      +                          receiveNum();
  2447  000D28  EC74  F00D         	call	_receiveNum	;wreg free
  2448  000D2C  0100               	movlb	0	; () banked
  2449  000D2E  6FA9               	movwf	main@n1& (0+255),b
  2450                           
  2451                           ;main.c: 92:                 n2 = receiveNum();
  2452  000D30  EC74  F00D         	call	_receiveNum	;wreg free
  2453  000D34  0100               	movlb	0	; () banked
  2454  000D36  6FAA               	movwf	main@n2& (0+255),b
  2455                           
  2456                           ;main.c: 93:                 n3 = receiveNum();
  2457  000D38  EC74  F00D         	call	_receiveNum	;wreg free
  2458  000D3C  0100               	movlb	0	; () banked
  2459  000D3E  6FAB               	movwf	main@n3& (0+255),b
  2460  000D40                     
  2461                           ; BSR set to: 0
  2462                           ;main.c: 95:                 moverHaciaX(n1, n2, n3);
  2463  000D40  C0AA  F09B         	movff	main@n2,moverHaciaX@coordXDecenas
  2464  000D44  C0AB  F09C         	movff	main@n3,moverHaciaX@coordXUnidades
  2465  000D48  51A9               	movf	main@n1& (0+255),w,b
  2466  000D4A  EC81  F00A         	call	_moverHaciaX
  2467  000D4E                     l3088:
  2468                           
  2469                           ;main.c: 97:             if (opcionsel == '4') {
  2470  000D4E  0E34               	movlw	52
  2471  000D50  0100               	movlb	0	; () banked
  2472  000D52  19AD               	xorwf	main@opcionsel& (0+255),w,b
  2473  000D54  A4D8               	btfss	status,2,c
  2474  000D56  EFAF  F006         	goto	u2431
  2475  000D5A  EFB1  F006         	goto	u2430
  2476  000D5E                     u2431:
  2477  000D5E  EFB3  F006         	goto	l3092
  2478  000D62                     u2430:
  2479  000D62                     
  2480                           ; BSR set to: 0
  2481                           ;main.c: 98:                 modificarCoordenada();
  2482  000D62  ECFD  F00A         	call	_modificarCoordenada	;wreg free
  2483  000D66                     l3092:
  2484                           
  2485                           ;main.c: 100:             if (opcionsel == '5') {
  2486  000D66  0E35               	movlw	53
  2487  000D68  0100               	movlb	0	; () banked
  2488  000D6A  19AD               	xorwf	main@opcionsel& (0+255),w,b
  2489  000D6C  A4D8               	btfss	status,2,c
  2490  000D6E  EFBB  F006         	goto	u2441
  2491  000D72  EFBD  F006         	goto	u2440
  2492  000D76                     u2441:
  2493  000D76  EFC3  F006         	goto	l3096
  2494  000D7A                     u2440:
  2495  000D7A                     
  2496                           ; BSR set to: 0
  2497                           ;main.c: 101:                 printf("Entrase al 5");
  2498  000D7A  0EB2               	movlw	low STR_29
  2499  000D7C  6F62               	movwf	printf@PointString& (0+255),b
  2500  000D7E  0E7F               	movlw	high STR_29
  2501  000D80  6F63               	movwf	(printf@PointString+1)& (0+255),b
  2502  000D82  ECE2  F00D         	call	_printf	;wreg free
  2503  000D86                     l3096:
  2504                           
  2505                           ;main.c: 103:             if (opcionsel == '6') {
  2506  000D86  0E36               	movlw	54
  2507  000D88  0100               	movlb	0	; () banked
  2508  000D8A  19AD               	xorwf	main@opcionsel& (0+255),w,b
  2509  000D8C  A4D8               	btfss	status,2,c
  2510  000D8E  EFCB  F006         	goto	u2451
  2511  000D92  EFCD  F006         	goto	u2450
  2512  000D96                     u2451:
  2513  000D96  EFEA  F006         	goto	l3106
  2514  000D9A                     u2450:
  2515  000D9A                     
  2516                           ; BSR set to: 0
  2517                           ;main.c: 104:                 printf("Vas a borrar todas las coordenadas, seguro? (1) Si
      +                           (0)No");
  2518  000D9A  0EDF               	movlw	low STR_30
  2519  000D9C  6F62               	movwf	printf@PointString& (0+255),b
  2520  000D9E  0E7C               	movlw	high STR_30
  2521  000DA0  6F63               	movwf	(printf@PointString+1)& (0+255),b
  2522  000DA2  ECE2  F00D         	call	_printf	;wreg free
  2523                           
  2524                           ;main.c: 105:                 uint8_t decision = receiveNum();
  2525  000DA6  EC74  F00D         	call	_receiveNum	;wreg free
  2526  000DAA  0100               	movlb	0	; () banked
  2527  000DAC  6FAC               	movwf	main@decision& (0+255),b
  2528  000DAE                     
  2529                           ; BSR set to: 0
  2530                           ;main.c: 106:                 if (decision == '1') {
  2531  000DAE  0E31               	movlw	49
  2532  000DB0  19AC               	xorwf	main@decision& (0+255),w,b
  2533  000DB2  A4D8               	btfss	status,2,c
  2534  000DB4  EFDE  F006         	goto	u2461
  2535  000DB8  EFE0  F006         	goto	u2460
  2536  000DBC                     u2461:
  2537  000DBC  EFE4  F006         	goto	l3104
  2538  000DC0                     u2460:
  2539  000DC0                     
  2540                           ; BSR set to: 0
  2541                           ;main.c: 107:                     borrarTodasCoordenadas();
  2542  000DC0  EC18  F00C         	call	_borrarTodasCoordenadas	;wreg free
  2543                           
  2544                           ;main.c: 108:                 } else printf("Regresando al menu");
  2545  000DC4  EFEA  F006         	goto	l3106
  2546  000DC8                     l3104:
  2547                           
  2548                           ; BSR set to: 0
  2549  000DC8  0E65               	movlw	low STR_31
  2550  000DCA  6F62               	movwf	printf@PointString& (0+255),b
  2551  000DCC  0E7F               	movlw	high STR_31
  2552  000DCE  6F63               	movwf	(printf@PointString+1)& (0+255),b
  2553  000DD0  ECE2  F00D         	call	_printf	;wreg free
  2554  000DD4                     l3106:
  2555                           
  2556                           ;main.c: 110:             if (opcionsel == '7') {
  2557  000DD4  0E37               	movlw	55
  2558  000DD6  0100               	movlb	0	; () banked
  2559  000DD8  19AD               	xorwf	main@opcionsel& (0+255),w,b
  2560  000DDA  A4D8               	btfss	status,2,c
  2561  000DDC  EFF2  F006         	goto	u2471
  2562  000DE0  EFF4  F006         	goto	u2470
  2563  000DE4                     u2471:
  2564  000DE4  EFFA  F006         	goto	l3110
  2565  000DE8                     u2470:
  2566  000DE8                     
  2567                           ; BSR set to: 0
  2568                           ;main.c: 111:                 printf("Entrase al 7");
  2569  000DE8  0EBF               	movlw	low STR_32
  2570  000DEA  6F62               	movwf	printf@PointString& (0+255),b
  2571  000DEC  0E7F               	movlw	high STR_32
  2572  000DEE  6F63               	movwf	(printf@PointString+1)& (0+255),b
  2573  000DF0  ECE2  F00D         	call	_printf	;wreg free
  2574  000DF4                     l3110:
  2575                           
  2576                           ;main.c: 113:             if (opcionsel == '8') {
  2577  000DF4  0E38               	movlw	56
  2578  000DF6  0100               	movlb	0	; () banked
  2579  000DF8  19AD               	xorwf	main@opcionsel& (0+255),w,b
  2580  000DFA  A4D8               	btfss	status,2,c
  2581  000DFC  EF02  F007         	goto	u2481
  2582  000E00  EF04  F007         	goto	u2480
  2583  000E04                     u2481:
  2584  000E04  EF0A  F007         	goto	l3114
  2585  000E08                     u2480:
  2586  000E08                     
  2587                           ; BSR set to: 0
  2588                           ;main.c: 114:                 printf("Entrase al 8");
  2589  000E08  0ECC               	movlw	low STR_33
  2590  000E0A  6F62               	movwf	printf@PointString& (0+255),b
  2591  000E0C  0E7F               	movlw	high STR_33
  2592  000E0E  6F63               	movwf	(printf@PointString+1)& (0+255),b
  2593  000E10  ECE2  F00D         	call	_printf	;wreg free
  2594  000E14                     l3114:
  2595                           
  2596                           ;main.c: 116:             if (opcionsel == '9') {
  2597  000E14  0E39               	movlw	57
  2598  000E16  0100               	movlb	0	; () banked
  2599  000E18  19AD               	xorwf	main@opcionsel& (0+255),w,b
  2600  000E1A  A4D8               	btfss	status,2,c
  2601  000E1C  EF12  F007         	goto	u2491
  2602  000E20  EF14  F007         	goto	u2490
  2603  000E24                     u2491:
  2604  000E24  EFFA  F005         	goto	l3044
  2605  000E28                     u2490:
  2606  000E28                     
  2607                           ; BSR set to: 0
  2608                           ;main.c: 117:                 printf("Entrase al 9");
  2609  000E28  0ED9               	movlw	low STR_34
  2610  000E2A  6F62               	movwf	printf@PointString& (0+255),b
  2611  000E2C  0E7F               	movlw	high STR_34
  2612  000E2E  6F63               	movwf	(printf@PointString+1)& (0+255),b
  2613  000E30  ECE2  F00D         	call	_printf	;wreg free
  2614  000E34  EFFA  F005         	goto	l3044
  2615  000E38                     l3118:
  2616                           
  2617                           ; BSR set to: 0
  2618  000E38  0EA2               	movlw	low STR_35
  2619  000E3A  6F62               	movwf	printf@PointString& (0+255),b
  2620  000E3C  0E7B               	movlw	high STR_35
  2621  000E3E  6F63               	movwf	(printf@PointString+1)& (0+255),b
  2622  000E40  ECE2  F00D         	call	_printf	;wreg free
  2623  000E44  EFFA  F005         	goto	l3044
  2624  000E48  EF14  F000         	goto	start
  2625  000E4C                     __end_of_main:
  2626                           	opt callstack 0
  2627                           
  2628 ;; *************** function _tmr1Init *****************
  2629 ;; Defined at:
  2630 ;;		line 7 in file "Timers.c"
  2631 ;; Parameters:    Size  Location     Type
  2632 ;;		None
  2633 ;; Auto vars:     Size  Location     Type
  2634 ;;		None
  2635 ;; Return value:  Size  Location     Type
  2636 ;;                  1    wreg      void 
  2637 ;; Registers used:
  2638 ;;		wreg, status,2
  2639 ;; Tracked objects:
  2640 ;;		On entry : 0/0
  2641 ;;		On exit  : 0/0
  2642 ;;		Unchanged: 0/0
  2643 ;; Data sizes:     COMRAM   BANK0   BANK1   BANK2   BANK3   BANK4   BANK5   BANK6   BANK7
  2644 ;;      Params:         0       0       0       0       0       0       0       0       0
  2645 ;;      Locals:         0       0       0       0       0       0       0       0       0
  2646 ;;      Temps:          0       0       0       0       0       0       0       0       0
  2647 ;;      Totals:         0       0       0       0       0       0       0       0       0
  2648 ;;Total ram usage:        0 bytes
  2649 ;; Hardware stack levels used:    1
  2650 ;; Hardware stack levels required when called:    4
  2651 ;; This function calls:
  2652 ;;		Nothing
  2653 ;; This function is called by:
  2654 ;;		_main
  2655 ;; This function uses a non-reentrant model
  2656 ;;
  2657                           
  2658                           	psect	text1
  2659  001D8A                     __ptext1:
  2660                           	opt callstack 0
  2661  001D8A                     _tmr1Init:
  2662                           	opt callstack 26
  2663  001D8A                     
  2664                           ;Timers.c: 9:     T1CONbits.TMR1ON = 0;
  2665  001D8A  90CD               	bcf	205,0,c	;volatile
  2666                           
  2667                           ;Timers.c: 10:     T1CONbits.RD16 = 1;
  2668  001D8C  8ECD               	bsf	205,7,c	;volatile
  2669                           
  2670                           ;Timers.c: 11:     T1CONbits.T1OSCEN = 0;
  2671  001D8E  96CD               	bcf	205,3,c	;volatile
  2672                           
  2673                           ;Timers.c: 12:     T1CONbits.T1RUN = 1;
  2674  001D90  8CCD               	bsf	205,6,c	;volatile
  2675                           
  2676                           ;Timers.c: 13:     T1CONbits.TMR1CS = 1;
  2677  001D92  82CD               	bsf	205,1,c	;volatile
  2678                           
  2679                           ;Timers.c: 14:     T1CONbits.T1SYNC = 1;
  2680  001D94  84CD               	bsf	205,2,c	;volatile
  2681                           
  2682                           ;Timers.c: 15:     TRISCbits.RC0 = 1;
  2683  001D96  8094               	bsf	148,0,c	;volatile
  2684  001D98                     
  2685                           ;Timers.c: 16:     TMR1 = 0;
  2686  001D98  0E00               	movlw	0
  2687  001D9A  6ECF               	movwf	207,c	;volatile
  2688  001D9C  0E00               	movlw	0
  2689  001D9E  6ECE               	movwf	206,c	;volatile
  2690  001DA0                     
  2691                           ;Timers.c: 17:     T1CONbits.TMR1ON = 1;
  2692  001DA0  80CD               	bsf	205,0,c	;volatile
  2693  001DA2  0012               	return		;funcret
  2694  001DA4                     __end_of_tmr1Init:
  2695                           	opt callstack 0
  2696                           
  2697 ;; *************** function _tmr0Init *****************
  2698 ;; Defined at:
  2699 ;;		line 20 in file "Timers.c"
  2700 ;; Parameters:    Size  Location     Type
  2701 ;;		None
  2702 ;; Auto vars:     Size  Location     Type
  2703 ;;		None
  2704 ;; Return value:  Size  Location     Type
  2705 ;;                  1    wreg      void 
  2706 ;; Registers used:
  2707 ;;		wreg, status,2
  2708 ;; Tracked objects:
  2709 ;;		On entry : 0/0
  2710 ;;		On exit  : 0/0
  2711 ;;		Unchanged: 0/0
  2712 ;; Data sizes:     COMRAM   BANK0   BANK1   BANK2   BANK3   BANK4   BANK5   BANK6   BANK7
  2713 ;;      Params:         0       0       0       0       0       0       0       0       0
  2714 ;;      Locals:         0       0       0       0       0       0       0       0       0
  2715 ;;      Temps:          0       0       0       0       0       0       0       0       0
  2716 ;;      Totals:         0       0       0       0       0       0       0       0       0
  2717 ;;Total ram usage:        0 bytes
  2718 ;; Hardware stack levels used:    1
  2719 ;; Hardware stack levels required when called:    4
  2720 ;; This function calls:
  2721 ;;		Nothing
  2722 ;; This function is called by:
  2723 ;;		_main
  2724 ;; This function uses a non-reentrant model
  2725 ;;
  2726                           
  2727                           	psect	text2
  2728  001DD6                     __ptext2:
  2729                           	opt callstack 0
  2730  001DD6                     _tmr0Init:
  2731                           	opt callstack 26
  2732  001DD6                     
  2733                           ;Timers.c: 22:     T0CONbits.TMR0ON = 0;
  2734  001DD6  9ED5               	bcf	213,7,c	;volatile
  2735                           
  2736                           ;Timers.c: 23:     T0CONbits.T08BIT = 0;
  2737  001DD8  9CD5               	bcf	213,6,c	;volatile
  2738                           
  2739                           ;Timers.c: 24:     T0CONbits.T0CS = 1;
  2740  001DDA  8AD5               	bsf	213,5,c	;volatile
  2741                           
  2742                           ;Timers.c: 25:     T0CONbits.T0SE = 0;
  2743  001DDC  98D5               	bcf	213,4,c	;volatile
  2744                           
  2745                           ;Timers.c: 26:     TRISAbits.RA4 = 1;
  2746  001DDE  8892               	bsf	146,4,c	;volatile
  2747  001DE0                     
  2748                           ;Timers.c: 27:     TMR0 = 0;
  2749  001DE0  0E00               	movlw	0
  2750  001DE2  6ED7               	movwf	215,c	;volatile
  2751  001DE4  0E00               	movlw	0
  2752  001DE6  6ED6               	movwf	214,c	;volatile
  2753  001DE8                     
  2754                           ;Timers.c: 28:     T0CONbits.TMR0ON = 1;
  2755  001DE8  8ED5               	bsf	213,7,c	;volatile
  2756  001DEA  0012               	return		;funcret
  2757  001DEC                     __end_of_tmr0Init:
  2758                           	opt callstack 0
  2759                           
  2760 ;; *************** function _scanf *****************
  2761 ;; Defined at:
  2762 ;;		line 15 in file "Comunicacion.c"
  2763 ;; Parameters:    Size  Location     Type
  2764 ;;  guardarscan     2    2[BANK0 ] PTR unsigned char 
  2765 ;;		 -> main@activarmenu(5), 
  2766 ;;  numcaractere    1    4[BANK0 ] unsigned char 
  2767 ;; Auto vars:     Size  Location     Type
  2768 ;;  i               1    5[BANK0 ] unsigned char 
  2769 ;; Return value:  Size  Location     Type
  2770 ;;                  1    wreg      void 
  2771 ;; Registers used:
  2772 ;;		wreg, fsr2l, fsr2h, status,2, status,0, cstack
  2773 ;; Tracked objects:
  2774 ;;		On entry : 0/0
  2775 ;;		On exit  : 0/0
  2776 ;;		Unchanged: 0/0
  2777 ;; Data sizes:     COMRAM   BANK0   BANK1   BANK2   BANK3   BANK4   BANK5   BANK6   BANK7
  2778 ;;      Params:         0       3       0       0       0       0       0       0       0
  2779 ;;      Locals:         0       1       0       0       0       0       0       0       0
  2780 ;;      Temps:          0       0       0       0       0       0       0       0       0
  2781 ;;      Totals:         0       4       0       0       0       0       0       0       0
  2782 ;;Total ram usage:        4 bytes
  2783 ;; Hardware stack levels used:    1
  2784 ;; Hardware stack levels required when called:    5
  2785 ;; This function calls:
  2786 ;;		_receive
  2787 ;; This function is called by:
  2788 ;;		_main
  2789 ;; This function uses a non-reentrant model
  2790 ;;
  2791                           
  2792                           	psect	text3
  2793  001CA0                     __ptext3:
  2794                           	opt callstack 0
  2795  001CA0                     _scanf:
  2796                           	opt callstack 25
  2797  001CA0                     
  2798                           ;Comunicacion.c: 16:     for (unsigned char i = 0; i < numcaracteres; i++) {
  2799  001CA0  0E00               	movlw	0
  2800  001CA2  0100               	movlb	0	; () banked
  2801  001CA4  6F65               	movwf	scanf@i& (0+255),b
  2802  001CA6  EF60  F00E         	goto	l2834
  2803  001CAA                     l2830:
  2804                           
  2805                           ; BSR set to: 0
  2806                           ;Comunicacion.c: 17:         guardarscan[i] = receive();
  2807  001CAA  5165               	movf	scanf@i& (0+255),w,b
  2808  001CAC  2562               	addwf	scanf@guardarscan& (0+255),w,b
  2809  001CAE  6ED9               	movwf	fsr2l,c
  2810  001CB0  0E00               	movlw	0
  2811  001CB2  2163               	addwfc	(scanf@guardarscan+1)& (0+255),w,b
  2812  001CB4  6EDA               	movwf	fsr2h,c
  2813  001CB6  ECB7  F00E         	call	_receive	;wreg free
  2814  001CBA  6EDF               	movwf	indf2,c
  2815  001CBC                     
  2816                           ;Comunicacion.c: 18:     }
  2817  001CBC  0100               	movlb	0	; () banked
  2818  001CBE  2B65               	incf	scanf@i& (0+255),f,b
  2819  001CC0                     l2834:
  2820                           
  2821                           ; BSR set to: 0
  2822  001CC0  5164               	movf	scanf@numcaracteres& (0+255),w,b
  2823  001CC2  5D65               	subwf	scanf@i& (0+255),w,b
  2824  001CC4  A0D8               	btfss	status,0,c
  2825  001CC6  EF67  F00E         	goto	u2161
  2826  001CCA  EF69  F00E         	goto	u2160
  2827  001CCE                     u2161:
  2828  001CCE  EF55  F00E         	goto	l2830
  2829  001CD2                     u2160:
  2830  001CD2                     
  2831                           ; BSR set to: 0
  2832  001CD2  0012               	return		;funcret
  2833  001CD4                     __end_of_scanf:
  2834                           	opt callstack 0
  2835                           
  2836 ;; *************** function _receive *****************
  2837 ;; Defined at:
  2838 ;;		line 21 in file "UART.c"
  2839 ;; Parameters:    Size  Location     Type
  2840 ;;		None
  2841 ;; Auto vars:     Size  Location     Type
  2842 ;;  recibido        1    1[BANK0 ] unsigned char 
  2843 ;; Return value:  Size  Location     Type
  2844 ;;                  1    wreg      unsigned char 
  2845 ;; Registers used:
  2846 ;;		wreg, status,2
  2847 ;; Tracked objects:
  2848 ;;		On entry : 0/0
  2849 ;;		On exit  : 0/0
  2850 ;;		Unchanged: 0/0
  2851 ;; Data sizes:     COMRAM   BANK0   BANK1   BANK2   BANK3   BANK4   BANK5   BANK6   BANK7
  2852 ;;      Params:         0       0       0       0       0       0       0       0       0
  2853 ;;      Locals:         0       1       0       0       0       0       0       0       0
  2854 ;;      Temps:          0       0       0       0       0       0       0       0       0
  2855 ;;      Totals:         0       1       0       0       0       0       0       0       0
  2856 ;;Total ram usage:        1 bytes
  2857 ;; Hardware stack levels used:    1
  2858 ;; Hardware stack levels required when called:    4
  2859 ;; This function calls:
  2860 ;;		Nothing
  2861 ;; This function is called by:
  2862 ;;		_scanf
  2863 ;;		_main
  2864 ;; This function uses a non-reentrant model
  2865 ;;
  2866                           
  2867                           	psect	text4
  2868  001D6E                     __ptext4:
  2869                           	opt callstack 0
  2870  001D6E                     _receive:
  2871                           	opt callstack 25
  2872  001D6E                     l43:
  2873                           
  2874                           ;UART.c: 23:     while (PIR1bits.RCIF == 0) {
  2875  001D6E  AA9E               	btfss	158,5,c	;volatile
  2876  001D70  EFBC  F00E         	goto	u1701
  2877  001D74  EFBE  F00E         	goto	u1700
  2878  001D78                     u1701:
  2879  001D78  EFB7  F00E         	goto	l43
  2880  001D7C                     u1700:
  2881  001D7C                     
  2882                           ;UART.c: 26:     recibido = RCREG1;
  2883  001D7C  CFAE F061          	movff	4014,receive@recibido	;volatile
  2884  001D80                     
  2885                           ;UART.c: 27:     RCREG1 = 0;
  2886  001D80  0E00               	movlw	0
  2887  001D82  6EAE               	movwf	174,c	;volatile
  2888                           
  2889                           ;UART.c: 29:     return recibido;
  2890  001D84  0100               	movlb	0	; () banked
  2891  001D86  5161               	movf	receive@recibido& (0+255),w,b
  2892  001D88                     
  2893                           ; BSR set to: 0
  2894  001D88  0012               	return		;funcret
  2895  001D8A                     __end_of_receive:
  2896                           	opt callstack 0
  2897                           
  2898 ;; *************** function _portInit *****************
  2899 ;; Defined at:
  2900 ;;		line 11 in file "Gpio.c"
  2901 ;; Parameters:    Size  Location     Type
  2902 ;;		None
  2903 ;; Auto vars:     Size  Location     Type
  2904 ;;		None
  2905 ;; Return value:  Size  Location     Type
  2906 ;;                  1    wreg      void 
  2907 ;; Registers used:
  2908 ;;		wreg, status,2
  2909 ;; Tracked objects:
  2910 ;;		On entry : 0/0
  2911 ;;		On exit  : 0/0
  2912 ;;		Unchanged: 0/0
  2913 ;; Data sizes:     COMRAM   BANK0   BANK1   BANK2   BANK3   BANK4   BANK5   BANK6   BANK7
  2914 ;;      Params:         0       0       0       0       0       0       0       0       0
  2915 ;;      Locals:         0       0       0       0       0       0       0       0       0
  2916 ;;      Temps:          0       0       0       0       0       0       0       0       0
  2917 ;;      Totals:         0       0       0       0       0       0       0       0       0
  2918 ;;Total ram usage:        0 bytes
  2919 ;; Hardware stack levels used:    1
  2920 ;; Hardware stack levels required when called:    4
  2921 ;; This function calls:
  2922 ;;		Nothing
  2923 ;; This function is called by:
  2924 ;;		_main
  2925 ;; This function uses a non-reentrant model
  2926 ;;
  2927                           
  2928                           	psect	text5
  2929  001E1E                     __ptext5:
  2930                           	opt callstack 0
  2931  001E1E                     _portInit:
  2932                           	opt callstack 26
  2933  001E1E                     
  2934                           ;Gpio.c: 12:     LATDbits.LATD3 = 0;
  2935  001E1E  0E0F               	movlw	15
  2936  001E20  12C1               	iorwf	193,f,c	;volatile
  2937                           
  2938                           ;Gpio.c: 13:     LATCbits.LATC2 = 0;
  2939  001E22  0E70               	movlw	112
  2940  001E24  6ED3               	movwf	211,c	;volatile
  2941  001E26  0012               	return		;funcret
  2942  001E28                     __end_of_portInit:
  2943                           	opt callstack 0
  2944                           
  2945 ;; *************** function _moverHaciaX *****************
  2946 ;; Defined at:
  2947 ;;		line 36 in file "MotoresXY.c"
  2948 ;; Parameters:    Size  Location     Type
  2949 ;;  coordXCenten    1    wreg     unsigned char 
  2950 ;;  coordXDecena    1   59[BANK0 ] unsigned char 
  2951 ;;  coordXUnidad    1   60[BANK0 ] unsigned char 
  2952 ;; Auto vars:     Size  Location     Type
  2953 ;;  coordXCenten    1   63[BANK0 ] unsigned char 
  2954 ;; Return value:  Size  Location     Type
  2955 ;;                  1    wreg      void 
  2956 ;; Registers used:
  2957 ;;		wreg, status,2, status,0, tblptrl, tblptrh, tblptru, prodl, prodh, cstack
  2958 ;; Tracked objects:
  2959 ;;		On entry : 0/0
  2960 ;;		On exit  : 0/0
  2961 ;;		Unchanged: 0/0
  2962 ;; Data sizes:     COMRAM   BANK0   BANK1   BANK2   BANK3   BANK4   BANK5   BANK6   BANK7
  2963 ;;      Params:         0       2       0       0       0       0       0       0       0
  2964 ;;      Locals:         0       1       0       0       0       0       0       0       0
  2965 ;;      Temps:          0       2       0       0       0       0       0       0       0
  2966 ;;      Totals:         0       5       0       0       0       0       0       0       0
  2967 ;;Total ram usage:        5 bytes
  2968 ;; Hardware stack levels used:    1
  2969 ;; Hardware stack levels required when called:    6
  2970 ;; This function calls:
  2971 ;;		_PWM_DutyCycleCCP1
  2972 ;;		_PWM_DutyCycleCCP2
  2973 ;;		___wmul
  2974 ;;		_abs
  2975 ;;		_printf
  2976 ;;		_send
  2977 ;;		_setNumPasosX
  2978 ;; This function is called by:
  2979 ;;		_main
  2980 ;; This function uses a non-reentrant model
  2981 ;;
  2982                           
  2983                           	psect	text6
  2984  001502                     __ptext6:
  2985                           	opt callstack 0
  2986  001502                     _moverHaciaX:
  2987                           	opt callstack 24
  2988                           
  2989                           ;incstack = 0
  2990                           ;moverHaciaX@coordXCentenas stored from wreg
  2991  001502  0100               	movlb	0	; () banked
  2992  001504  6F9F               	movwf	moverHaciaX@coordXCentenas& (0+255),b
  2993  001506                     l2904:
  2994                           
  2995                           ;MotoresXY.c: 37:     while (sparcEnMovimiento == 1) {
  2996  001506  0100               	movlb	0	; () banked
  2997  001508  05F6               	decf	_sparcEnMovimiento& (0+255),w,b
  2998  00150A  B4D8               	btfsc	status,2,c
  2999  00150C  EF8A  F00A         	goto	u2201
  3000  001510  EF8C  F00A         	goto	u2200
  3001  001514                     u2201:
  3002  001514  EF83  F00A         	goto	l2904
  3003  001518                     u2200:
  3004  001518                     
  3005                           ; BSR set to: 0
  3006                           ;MotoresXY.c: 41:     coordinates.xWanted = ((coordXCentenas - 48)*100)+((coordXDecenas 
      +                          - 48)*10)+(coordXUnidades - 48);
  3007  001518  519F               	movf	moverHaciaX@coordXCentenas& (0+255),w,b
  3008  00151A  0D64               	mullw	100
  3009  00151C  CFF3 F09D          	movff	prodl,??_moverHaciaX
  3010  001520  CFF4 F09E          	movff	prodh,??_moverHaciaX+1
  3011  001524  519B               	movf	moverHaciaX@coordXDecenas& (0+255),w,b
  3012  001526  0D0A               	mullw	10
  3013  001528  50F3               	movf	243,w,c
  3014  00152A  279D               	addwf	??_moverHaciaX& (0+255),f,b
  3015  00152C  50F4               	movf	244,w,c
  3016  00152E  239E               	addwfc	(??_moverHaciaX+1)& (0+255),f,b
  3017  001530  519C               	movf	moverHaciaX@coordXUnidades& (0+255),w,b
  3018  001532  279D               	addwf	??_moverHaciaX& (0+255),f,b
  3019  001534  0E00               	movlw	0
  3020  001536  239E               	addwfc	(??_moverHaciaX+1)& (0+255),f,b
  3021  001538  0E30               	movlw	48
  3022  00153A  259D               	addwf	??_moverHaciaX& (0+255),w,b
  3023  00153C  6FEA               	movwf	_coordinates& (0+255),b
  3024  00153E  0EEB               	movlw	235
  3025  001540  219E               	addwfc	(??_moverHaciaX+1)& (0+255),w,b
  3026  001542  6FEB               	movwf	(_coordinates+1)& (0+255),b
  3027  001544                     
  3028                           ; BSR set to: 0
  3029                           ;MotoresXY.c: 42:     xToAdvance = (abs(coordinates.xWanted - CurrentPosX))*5;
  3030  001544  51F2               	movf	_CurrentPosX& (0+255),w,b
  3031  001546  5DEA               	subwf	_coordinates& (0+255),w,b
  3032  001548  6F61               	movwf	abs@a& (0+255),b
  3033  00154A  51F3               	movf	(_CurrentPosX+1)& (0+255),w,b
  3034  00154C  59EB               	subwfb	(_coordinates+1)& (0+255),w,b
  3035  00154E  6F62               	movwf	(abs@a+1)& (0+255),b
  3036  001550  EC14  F00E         	call	_abs	;wreg free
  3037  001554  C061  F065         	movff	?_abs,___wmul@multiplier
  3038  001558  C062  F066         	movff	?_abs+1,___wmul@multiplier+1
  3039  00155C  0E00               	movlw	0
  3040  00155E  0100               	movlb	0	; () banked
  3041  001560  6F68               	movwf	(___wmul@multiplicand+1)& (0+255),b
  3042  001562  0E05               	movlw	5
  3043  001564  6F67               	movwf	___wmul@multiplicand& (0+255),b
  3044  001566  EC83  F00E         	call	___wmul	;wreg free
  3045  00156A  C065  F0F4         	movff	?___wmul,_xToAdvance
  3046  00156E  C066  F0F5         	movff	?___wmul+1,_xToAdvance+1
  3047  001572                     
  3048                           ;MotoresXY.c: 43:     printf("xToAdvance is:");
  3049  001572  0E78               	movlw	low STR_20
  3050  001574  0100               	movlb	0	; () banked
  3051  001576  6F62               	movwf	printf@PointString& (0+255),b
  3052  001578  0E7F               	movlw	high STR_20
  3053  00157A  6F63               	movwf	(printf@PointString+1)& (0+255),b
  3054  00157C  ECE2  F00D         	call	_printf	;wreg free
  3055  001580                     
  3056                           ;MotoresXY.c: 44:     send(xToAdvance);
  3057  001580  0100               	movlb	0	; () banked
  3058  001582  51F4               	movf	_xToAdvance& (0+255),w,b
  3059  001584  ECDF  F00E         	call	_send
  3060  001588                     
  3061                           ;MotoresXY.c: 45:     send('\n');
  3062  001588  0E0A               	movlw	10
  3063  00158A  ECDF  F00E         	call	_send
  3064  00158E                     
  3065                           ;MotoresXY.c: 46:     if (coordinates.xWanted > CurrentPosX) {
  3066  00158E  0100               	movlb	0	; () banked
  3067  001590  51EA               	movf	_coordinates& (0+255),w,b
  3068  001592  5DF2               	subwf	_CurrentPosX& (0+255),w,b
  3069  001594  51EB               	movf	(_coordinates+1)& (0+255),w,b
  3070  001596  59F3               	subwfb	(_CurrentPosX+1)& (0+255),w,b
  3071  001598  B0D8               	btfsc	status,0,c
  3072  00159A  EFD1  F00A         	goto	u2211
  3073  00159E  EFD3  F00A         	goto	u2210
  3074  0015A2                     u2211:
  3075  0015A2  EFD6  F00A         	goto	l2920
  3076  0015A6                     u2210:
  3077  0015A6                     
  3078                           ; BSR set to: 0
  3079                           ;MotoresXY.c: 47:         LATDbits.LATD3 = 1;
  3080  0015A6  868C               	bsf	140,3,c	;volatile
  3081                           
  3082                           ;MotoresXY.c: 48:     } else if (coordinates.xWanted < CurrentPosX) {
  3083  0015A8  EFE2  F00A         	goto	l2924
  3084  0015AC                     l2920:
  3085                           
  3086                           ; BSR set to: 0
  3087  0015AC  51F2               	movf	_CurrentPosX& (0+255),w,b
  3088  0015AE  5DEA               	subwf	_coordinates& (0+255),w,b
  3089  0015B0  51F3               	movf	(_CurrentPosX+1)& (0+255),w,b
  3090  0015B2  59EB               	subwfb	(_coordinates+1)& (0+255),w,b
  3091  0015B4  B0D8               	btfsc	status,0,c
  3092  0015B6  EFDF  F00A         	goto	u2221
  3093  0015BA  EFE1  F00A         	goto	u2220
  3094  0015BE                     u2221:
  3095  0015BE  EFE2  F00A         	goto	l2924
  3096  0015C2                     u2220:
  3097  0015C2                     
  3098                           ; BSR set to: 0
  3099                           ;MotoresXY.c: 49:         LATDbits.LATD3 = 0;
  3100  0015C2  968C               	bcf	140,3,c	;volatile
  3101  0015C4                     l2924:
  3102                           
  3103                           ; BSR set to: 0
  3104                           ;MotoresXY.c: 51:     if (coordinates.xWanted != CurrentPosX) {
  3105  0015C4  51F2               	movf	_CurrentPosX& (0+255),w,b
  3106  0015C6  19EA               	xorwf	_coordinates& (0+255),w,b
  3107  0015C8  E109               	bnz	u2230
  3108  0015CA  51F3               	movf	(_CurrentPosX+1)& (0+255),w,b
  3109  0015CC  19EB               	xorwf	(_coordinates+1)& (0+255),w,b
  3110  0015CE  B4D8               	btfsc	status,2,c
  3111  0015D0  EFEC  F00A         	goto	u2231
  3112  0015D4  EFEE  F00A         	goto	u2230
  3113  0015D8                     u2231:
  3114  0015D8  EFFC  F00A         	goto	l310
  3115  0015DC                     u2230:
  3116  0015DC                     
  3117                           ; BSR set to: 0
  3118                           ;MotoresXY.c: 52:         sparcEnMovimiento = 1;
  3119  0015DC  0E01               	movlw	1
  3120  0015DE  6FF6               	movwf	_sparcEnMovimiento& (0+255),b
  3121  0015E0                     
  3122                           ; BSR set to: 0
  3123                           ;MotoresXY.c: 53:         setNumPasosX(xToAdvance);
  3124  0015E0  C0F4  F061         	movff	_xToAdvance,setNumPasosX@numPasosX
  3125  0015E4  C0F5  F062         	movff	_xToAdvance+1,setNumPasosX@numPasosX+1
  3126  0015E8  EC35  F00E         	call	_setNumPasosX	;wreg free
  3127  0015EC                     
  3128                           ;MotoresXY.c: 54:         PWM_DutyCycleCCP2(0);
  3129  0015EC  0E00               	movlw	0
  3130  0015EE  EC5C  F00B         	call	_PWM_DutyCycleCCP2
  3131  0015F2                     
  3132                           ;MotoresXY.c: 55:         PWM_DutyCycleCCP1(50);
  3133  0015F2  0E32               	movlw	50
  3134  0015F4  ECBA  F00B         	call	_PWM_DutyCycleCCP1
  3135  0015F8                     l310:
  3136  0015F8  0012               	return		;funcret
  3137  0015FA                     __end_of_moverHaciaX:
  3138                           	opt callstack 0
  3139                           
  3140 ;; *************** function _setNumPasosX *****************
  3141 ;; Defined at:
  3142 ;;		line 31 in file "Timers.c"
  3143 ;; Parameters:    Size  Location     Type
  3144 ;;  numPasosX       2    1[BANK0 ] unsigned int 
  3145 ;; Auto vars:     Size  Location     Type
  3146 ;;  resultado       2    3[BANK0 ] unsigned int 
  3147 ;; Return value:  Size  Location     Type
  3148 ;;                  1    wreg      void 
  3149 ;; Registers used:
  3150 ;;		wreg, status,2, status,0
  3151 ;; Tracked objects:
  3152 ;;		On entry : 0/0
  3153 ;;		On exit  : 0/0
  3154 ;;		Unchanged: 0/0
  3155 ;; Data sizes:     COMRAM   BANK0   BANK1   BANK2   BANK3   BANK4   BANK5   BANK6   BANK7
  3156 ;;      Params:         0       2       0       0       0       0       0       0       0
  3157 ;;      Locals:         0       2       0       0       0       0       0       0       0
  3158 ;;      Temps:          0       0       0       0       0       0       0       0       0
  3159 ;;      Totals:         0       4       0       0       0       0       0       0       0
  3160 ;;Total ram usage:        4 bytes
  3161 ;; Hardware stack levels used:    1
  3162 ;; Hardware stack levels required when called:    4
  3163 ;; This function calls:
  3164 ;;		Nothing
  3165 ;; This function is called by:
  3166 ;;		_moverHaciaX
  3167 ;; This function uses a non-reentrant model
  3168 ;;
  3169                           
  3170                           	psect	text7
  3171  001C6A                     __ptext7:
  3172                           	opt callstack 0
  3173  001C6A                     _setNumPasosX:
  3174                           	opt callstack 25
  3175  001C6A                     
  3176                           ;Timers.c: 32:     if (numPasosX > 0) {
  3177  001C6A  0100               	movlb	0	; () banked
  3178  001C6C  5161               	movf	setNumPasosX@numPasosX& (0+255),w,b
  3179  001C6E  1162               	iorwf	(setNumPasosX@numPasosX+1)& (0+255),w,b
  3180  001C70  B4D8               	btfsc	status,2,c
  3181  001C72  EF3D  F00E         	goto	u1711
  3182  001C76  EF3F  F00E         	goto	u1710
  3183  001C7A                     u1711:
  3184  001C7A  EF4D  F00E         	goto	l198
  3185  001C7E                     u1710:
  3186  001C7E                     
  3187                           ; BSR set to: 0
  3188                           ;Timers.c: 33:         unsigned int resultado = (65537 - numPasosX);
  3189  001C7E  5161               	movf	setNumPasosX@numPasosX& (0+255),w,b
  3190  001C80  0801               	sublw	1
  3191  001C82  6F63               	movwf	setNumPasosX@resultado& (0+255),b
  3192  001C84  5162               	movf	(setNumPasosX@numPasosX+1)& (0+255),w,b
  3193  001C86  A0D8               	btfss	status,0,c
  3194  001C88  2AE8               	incf	wreg,f,c
  3195  001C8A  0800               	sublw	0
  3196  001C8C  6F64               	movwf	(setNumPasosX@resultado+1)& (0+255),b
  3197  001C8E                     
  3198                           ; BSR set to: 0
  3199                           ;Timers.c: 34:         TMR1H = (resultado >> 8);
  3200  001C8E  5164               	movf	(setNumPasosX@resultado+1)& (0+255),w,b
  3201  001C90  6ECF               	movwf	207,c	;volatile
  3202  001C92                     
  3203                           ; BSR set to: 0
  3204                           ;Timers.c: 35:         TMR1L = resultado;
  3205  001C92  C063  FFCE         	movff	setNumPasosX@resultado,4046	;volatile
  3206                           
  3207                           ;Timers.c: 36:     } else {
  3208  001C96  EF4F  F00E         	goto	l200
  3209  001C9A                     l198:
  3210                           
  3211                           ; BSR set to: 0
  3212                           ;Timers.c: 37:         TMR1H = (65535 >> 8);
  3213  001C9A  68CF               	setf	207,c	;volatile
  3214                           
  3215                           ;Timers.c: 38:         TMR1L = 65535;
  3216  001C9C  68CE               	setf	206,c	;volatile
  3217  001C9E                     l200:
  3218                           
  3219                           ; BSR set to: 0
  3220  001C9E  0012               	return		;funcret
  3221  001CA0                     __end_of_setNumPasosX:
  3222                           	opt callstack 0
  3223                           
  3224 ;; *************** function _abs *****************
  3225 ;; Defined at:
  3226 ;;		line 1 in file "C:\Program Files (x86)\Microchip\xc8\v2.10\pic\sources\c99\common\abs.c"
  3227 ;; Parameters:    Size  Location     Type
  3228 ;;  a               2    1[BANK0 ] int 
  3229 ;; Auto vars:     Size  Location     Type
  3230 ;;		None
  3231 ;; Return value:  Size  Location     Type
  3232 ;;                  2    1[BANK0 ] int 
  3233 ;; Registers used:
  3234 ;;		wreg, status,2, status,0
  3235 ;; Tracked objects:
  3236 ;;		On entry : 0/0
  3237 ;;		On exit  : 0/0
  3238 ;;		Unchanged: 0/0
  3239 ;; Data sizes:     COMRAM   BANK0   BANK1   BANK2   BANK3   BANK4   BANK5   BANK6   BANK7
  3240 ;;      Params:         0       2       0       0       0       0       0       0       0
  3241 ;;      Locals:         0       0       0       0       0       0       0       0       0
  3242 ;;      Temps:          0       2       0       0       0       0       0       0       0
  3243 ;;      Totals:         0       4       0       0       0       0       0       0       0
  3244 ;;Total ram usage:        4 bytes
  3245 ;; Hardware stack levels used:    1
  3246 ;; Hardware stack levels required when called:    4
  3247 ;; This function calls:
  3248 ;;		Nothing
  3249 ;; This function is called by:
  3250 ;;		_moverHaciaX
  3251 ;;		_moverHaciaY
  3252 ;; This function uses a non-reentrant model
  3253 ;;
  3254                           
  3255                           	psect	text8
  3256  001C28                     __ptext8:
  3257                           	opt callstack 0
  3258  001C28                     _abs:
  3259                           	opt callstack 25
  3260  001C28  0100               	movlb	0	; () banked
  3261  001C2A  BF62               	btfsc	(abs@a+1)& (0+255),7,b
  3262  001C2C  EF22  F00E         	goto	u1780
  3263  001C30  5162               	movf	(abs@a+1)& (0+255),w,b
  3264  001C32  E106               	bnz	u1781
  3265  001C34  0561               	decf	abs@a& (0+255),w,b
  3266  001C36  B0D8               	btfsc	status,0,c
  3267  001C38  EF20  F00E         	goto	u1781
  3268  001C3C  EF22  F00E         	goto	u1780
  3269  001C40                     u1781:
  3270  001C40  EF30  F00E         	goto	l1129
  3271  001C44                     u1780:
  3272  001C44                     
  3273                           ; BSR set to: 0
  3274  001C44  C061  F063         	movff	abs@a,??_abs
  3275  001C48  C062  F064         	movff	abs@a+1,??_abs+1
  3276  001C4C  1F63               	comf	??_abs& (0+255),f,b
  3277  001C4E  1F64               	comf	(??_abs+1)& (0+255),f,b
  3278  001C50  4B63               	infsnz	??_abs& (0+255),f,b
  3279  001C52  2B64               	incf	(??_abs+1)& (0+255),f,b
  3280  001C54  C063  F061         	movff	??_abs,?_abs
  3281  001C58  C064  F062         	movff	??_abs+1,?_abs+1
  3282  001C5C  EF34  F00E         	goto	l1132
  3283  001C60                     l1129:
  3284                           
  3285                           ; BSR set to: 0
  3286  001C60  C061  F061         	movff	abs@a,?_abs
  3287  001C64  C062  F062         	movff	abs@a+1,?_abs+1
  3288  001C68                     l1132:
  3289                           
  3290                           ; BSR set to: 0
  3291  001C68  0012               	return		;funcret
  3292  001C6A                     __end_of_abs:
  3293                           	opt callstack 0
  3294                           
  3295 ;; *************** function ___wmul *****************
  3296 ;; Defined at:
  3297 ;;		line 15 in file "C:\Program Files (x86)\Microchip\xc8\v2.10\pic\sources\c99\common\Umul16.c"
  3298 ;; Parameters:    Size  Location     Type
  3299 ;;  multiplier      2    5[BANK0 ] unsigned int 
  3300 ;;  multiplicand    2    7[BANK0 ] unsigned int 
  3301 ;; Auto vars:     Size  Location     Type
  3302 ;;  product         2    9[BANK0 ] unsigned int 
  3303 ;; Return value:  Size  Location     Type
  3304 ;;                  2    5[BANK0 ] unsigned int 
  3305 ;; Registers used:
  3306 ;;		wreg, status,2, status,0, prodl, prodh
  3307 ;; Tracked objects:
  3308 ;;		On entry : 0/0
  3309 ;;		On exit  : 0/0
  3310 ;;		Unchanged: 0/0
  3311 ;; Data sizes:     COMRAM   BANK0   BANK1   BANK2   BANK3   BANK4   BANK5   BANK6   BANK7
  3312 ;;      Params:         0       4       0       0       0       0       0       0       0
  3313 ;;      Locals:         0       2       0       0       0       0       0       0       0
  3314 ;;      Temps:          0       0       0       0       0       0       0       0       0
  3315 ;;      Totals:         0       6       0       0       0       0       0       0       0
  3316 ;;Total ram usage:        6 bytes
  3317 ;; Hardware stack levels used:    1
  3318 ;; Hardware stack levels required when called:    4
  3319 ;; This function calls:
  3320 ;;		Nothing
  3321 ;; This function is called by:
  3322 ;;		_moverHaciaX
  3323 ;;		_moverHaciaY
  3324 ;; This function uses a non-reentrant model
  3325 ;;
  3326                           
  3327                           	psect	text9
  3328  001D06                     __ptext9:
  3329                           	opt callstack 0
  3330  001D06                     ___wmul:
  3331                           	opt callstack 25
  3332  001D06  0100               	movlb	0	; () banked
  3333  001D08  5165               	movf	___wmul@multiplier& (0+255),w,b
  3334  001D0A  0367               	mulwf	___wmul@multiplicand& (0+255),b
  3335  001D0C  CFF3 F069          	movff	prodl,___wmul@product
  3336  001D10  CFF4 F06A          	movff	prodh,___wmul@product+1
  3337  001D14  5165               	movf	___wmul@multiplier& (0+255),w,b
  3338  001D16  0368               	mulwf	(___wmul@multiplicand+1)& (0+255),b
  3339  001D18  50F3               	movf	243,w,c
  3340  001D1A  276A               	addwf	(___wmul@product+1)& (0+255),f,b
  3341  001D1C  5166               	movf	(___wmul@multiplier+1)& (0+255),w,b
  3342  001D1E  0367               	mulwf	___wmul@multiplicand& (0+255),b
  3343  001D20  50F3               	movf	243,w,c
  3344  001D22  276A               	addwf	(___wmul@product+1)& (0+255),f,b
  3345  001D24                     
  3346                           ; BSR set to: 0
  3347  001D24  C069  F065         	movff	___wmul@product,?___wmul
  3348  001D28  C06A  F066         	movff	___wmul@product+1,?___wmul+1
  3349  001D2C                     
  3350                           ; BSR set to: 0
  3351  001D2C  0012               	return		;funcret
  3352  001D2E                     __end_of___wmul:
  3353                           	opt callstack 0
  3354                           
  3355 ;; *************** function _PWM_DutyCycleCCP2 *****************
  3356 ;; Defined at:
  3357 ;;		line 16 in file "PWMCCP2.c"
  3358 ;; Parameters:    Size  Location     Type
  3359 ;;  WantedDutyCy    1    wreg     unsigned char 
  3360 ;; Auto vars:     Size  Location     Type
  3361 ;;  WantedDutyCy    1   56[BANK0 ] unsigned char 
  3362 ;;  PWMDutyValue    2   57[BANK0 ] unsigned int 
  3363 ;; Return value:  Size  Location     Type
  3364 ;;                  1    wreg      void 
  3365 ;; Registers used:
  3366 ;;		wreg, status,2, status,0, prodl, prodh, cstack
  3367 ;; Tracked objects:
  3368 ;;		On entry : 0/0
  3369 ;;		On exit  : 0/0
  3370 ;;		Unchanged: 0/0
  3371 ;; Data sizes:     COMRAM   BANK0   BANK1   BANK2   BANK3   BANK4   BANK5   BANK6   BANK7
  3372 ;;      Params:         0       0       0       0       0       0       0       0       0
  3373 ;;      Locals:         0       7       0       0       0       0       0       0       0
  3374 ;;      Temps:          0       2       0       0       0       0       0       0       0
  3375 ;;      Totals:         0       9       0       0       0       0       0       0       0
  3376 ;;Total ram usage:        9 bytes
  3377 ;; Hardware stack levels used:    1
  3378 ;; Hardware stack levels required when called:    5
  3379 ;; This function calls:
  3380 ;;		___flmul
  3381 ;;		___fltol
  3382 ;;		___xxtofl
  3383 ;; This function is called by:
  3384 ;;		_moverHaciaX
  3385 ;;		_main
  3386 ;;		_moverHaciaY
  3387 ;; This function uses a non-reentrant model
  3388 ;;
  3389                           
  3390                           	psect	text10
  3391  0016B8                     __ptext10:
  3392                           	opt callstack 0
  3393  0016B8                     _PWM_DutyCycleCCP2:
  3394                           	opt callstack 24
  3395                           
  3396                           ; BSR set to: 0
  3397                           ;incstack = 0
  3398                           ;PWM_DutyCycleCCP2@WantedDutyCycle stored from wreg
  3399  0016B8  0100               	movlb	0	; () banked
  3400  0016BA  6F98               	movwf	PWM_DutyCycleCCP2@WantedDutyCycle& (0+255),b
  3401  0016BC                     
  3402                           ;PWMCCP2.c: 18:     unsigned int PWMDutyValue;;PWMCCP2.c: 19:     PWMDutyValue = (Wanted
      +                          DutyCycle * 0.01)*1000;
  3403  0016BC  0E0A               	movlw	10
  3404  0016BE  0100               	movlb	0	; () banked
  3405  0016C0  6F73               	movwf	___flmul@a& (0+255),b
  3406  0016C2  0ED7               	movlw	215
  3407  0016C4  6F74               	movwf	(___flmul@a+1)& (0+255),b
  3408  0016C6  0E23               	movlw	35
  3409  0016C8  6F75               	movwf	(___flmul@a+2)& (0+255),b
  3410  0016CA  0E3C               	movlw	60
  3411  0016CC  6F76               	movwf	(___flmul@a+3)& (0+255),b
  3412  0016CE  5198               	movf	PWM_DutyCycleCCP2@WantedDutyCycle& (0+255),w,b
  3413  0016D0  6F61               	movwf	___xxtofl@val& (0+255),b
  3414  0016D2  6B62               	clrf	(___xxtofl@val+1)& (0+255),b
  3415  0016D4  6B63               	clrf	(___xxtofl@val+2)& (0+255),b
  3416  0016D6  6B64               	clrf	(___xxtofl@val+3)& (0+255),b
  3417  0016D8  0E01               	movlw	1
  3418  0016DA  EC26  F007         	call	___xxtofl
  3419  0016DE  C061  F06F         	movff	?___xxtofl,___flmul@b
  3420  0016E2  C062  F070         	movff	?___xxtofl+1,___flmul@b+1
  3421  0016E6  C063  F071         	movff	?___xxtofl+2,___flmul@b+2
  3422  0016EA  C064  F072         	movff	?___xxtofl+3,___flmul@b+3
  3423  0016EE  EC16  F000         	call	___flmul	;wreg free
  3424  0016F2  C06F  F094         	movff	?___flmul,_PWM_DutyCycleCCP2$2402
  3425  0016F6  C070  F095         	movff	?___flmul+1,_PWM_DutyCycleCCP2$2402+1
  3426  0016FA  C071  F096         	movff	?___flmul+2,_PWM_DutyCycleCCP2$2402+2
  3427  0016FE  C072  F097         	movff	?___flmul+3,_PWM_DutyCycleCCP2$2402+3
  3428                           
  3429                           ;PWMCCP2.c: 18:     unsigned int PWMDutyValue;;PWMCCP2.c: 19:     PWMDutyValue = (Wanted
      +                          DutyCycle * 0.01)*1000;
  3430  001702  0E00               	movlw	0
  3431  001704  0100               	movlb	0	; () banked
  3432  001706  6F73               	movwf	___flmul@a& (0+255),b
  3433  001708  0E00               	movlw	0
  3434  00170A  6F74               	movwf	(___flmul@a+1)& (0+255),b
  3435  00170C  0E7A               	movlw	122
  3436  00170E  6F75               	movwf	(___flmul@a+2)& (0+255),b
  3437  001710  0E44               	movlw	68
  3438  001712  6F76               	movwf	(___flmul@a+3)& (0+255),b
  3439  001714  C094  F06F         	movff	_PWM_DutyCycleCCP2$2402,___flmul@b
  3440  001718  C095  F070         	movff	_PWM_DutyCycleCCP2$2402+1,___flmul@b+1
  3441  00171C  C096  F071         	movff	_PWM_DutyCycleCCP2$2402+2,___flmul@b+2
  3442  001720  C097  F072         	movff	_PWM_DutyCycleCCP2$2402+3,___flmul@b+3
  3443  001724  EC16  F000         	call	___flmul	;wreg free
  3444  001728  C06F  F088         	movff	?___flmul,___fltol@f1
  3445  00172C  C070  F089         	movff	?___flmul+1,___fltol@f1+1
  3446  001730  C071  F08A         	movff	?___flmul+2,___fltol@f1+2
  3447  001734  C072  F08B         	movff	?___flmul+3,___fltol@f1+3
  3448  001738  EC7A  F009         	call	___fltol	;wreg free
  3449  00173C  C088  F099         	movff	?___fltol,PWM_DutyCycleCCP2@PWMDutyValue
  3450  001740  C089  F09A         	movff	?___fltol+1,PWM_DutyCycleCCP2@PWMDutyValue+1
  3451  001744                     
  3452                           ;PWMCCP2.c: 21:     CCP2CONbits.DC2B = (PWMDutyValue & 0x03);
  3453  001744  C099  F092         	movff	PWM_DutyCycleCCP2@PWMDutyValue,??_PWM_DutyCycleCCP2
  3454  001748  0E03               	movlw	3
  3455  00174A  0100               	movlb	0	; () banked
  3456  00174C  1792               	andwf	??_PWM_DutyCycleCCP2& (0+255),f,b
  3457  00174E  3B92               	swapf	??_PWM_DutyCycleCCP2& (0+255),f,b
  3458  001750  50BA               	movf	186,w,c	;volatile
  3459  001752  1992               	xorwf	??_PWM_DutyCycleCCP2& (0+255),w,b
  3460  001754  0BCF               	andlw	-49
  3461  001756  1992               	xorwf	??_PWM_DutyCycleCCP2& (0+255),w,b
  3462  001758  6EBA               	movwf	186,c	;volatile
  3463  00175A                     
  3464                           ; BSR set to: 0
  3465                           ;PWMCCP2.c: 22:     CCPR2L = ((PWMDutyValue >> 2)&0xFF);
  3466  00175A  C099  F092         	movff	PWM_DutyCycleCCP2@PWMDutyValue,??_PWM_DutyCycleCCP2
  3467  00175E  C09A  F093         	movff	PWM_DutyCycleCCP2@PWMDutyValue+1,??_PWM_DutyCycleCCP2+1
  3468  001762  90D8               	bcf	status,0,c
  3469  001764  3393               	rrcf	(??_PWM_DutyCycleCCP2+1)& (0+255),f,b
  3470  001766  3392               	rrcf	??_PWM_DutyCycleCCP2& (0+255),f,b
  3471  001768  90D8               	bcf	status,0,c
  3472  00176A  3393               	rrcf	(??_PWM_DutyCycleCCP2+1)& (0+255),f,b
  3473  00176C  3392               	rrcf	??_PWM_DutyCycleCCP2& (0+255),f,b
  3474  00176E  5192               	movf	??_PWM_DutyCycleCCP2& (0+255),w,b
  3475  001770  6EBB               	movwf	187,c	;volatile
  3476  001772                     
  3477                           ; BSR set to: 0
  3478  001772  0012               	return		;funcret
  3479  001774                     __end_of_PWM_DutyCycleCCP2:
  3480                           	opt callstack 0
  3481                           
  3482 ;; *************** function _PWM_DutyCycleCCP1 *****************
  3483 ;; Defined at:
  3484 ;;		line 17 in file "PWMCCP1.c"
  3485 ;; Parameters:    Size  Location     Type
  3486 ;;  WantedDutyCy    1    wreg     unsigned char 
  3487 ;; Auto vars:     Size  Location     Type
  3488 ;;  WantedDutyCy    1   56[BANK0 ] unsigned char 
  3489 ;;  PWMDutyValue    2   57[BANK0 ] unsigned int 
  3490 ;; Return value:  Size  Location     Type
  3491 ;;                  1    wreg      void 
  3492 ;; Registers used:
  3493 ;;		wreg, status,2, status,0, prodl, prodh, cstack
  3494 ;; Tracked objects:
  3495 ;;		On entry : 0/0
  3496 ;;		On exit  : 0/0
  3497 ;;		Unchanged: 0/0
  3498 ;; Data sizes:     COMRAM   BANK0   BANK1   BANK2   BANK3   BANK4   BANK5   BANK6   BANK7
  3499 ;;      Params:         0       0       0       0       0       0       0       0       0
  3500 ;;      Locals:         0       7       0       0       0       0       0       0       0
  3501 ;;      Temps:          0       2       0       0       0       0       0       0       0
  3502 ;;      Totals:         0       9       0       0       0       0       0       0       0
  3503 ;;Total ram usage:        9 bytes
  3504 ;; Hardware stack levels used:    1
  3505 ;; Hardware stack levels required when called:    5
  3506 ;; This function calls:
  3507 ;;		___flmul
  3508 ;;		___fltol
  3509 ;;		___xxtofl
  3510 ;; This function is called by:
  3511 ;;		_moverHaciaX
  3512 ;;		_main
  3513 ;;		_moverHaciaY
  3514 ;; This function uses a non-reentrant model
  3515 ;;
  3516                           
  3517                           	psect	text11
  3518  001774                     __ptext11:
  3519                           	opt callstack 0
  3520  001774                     _PWM_DutyCycleCCP1:
  3521                           	opt callstack 24
  3522                           
  3523                           ; BSR set to: 0
  3524                           ;incstack = 0
  3525                           ;PWM_DutyCycleCCP1@WantedDutyCycle stored from wreg
  3526  001774  0100               	movlb	0	; () banked
  3527  001776  6F98               	movwf	PWM_DutyCycleCCP1@WantedDutyCycle& (0+255),b
  3528  001778                     
  3529                           ;PWMCCP1.c: 19:     unsigned int PWMDutyValue;;PWMCCP1.c: 20:     PWMDutyValue = (Wanted
      +                          DutyCycle * 0.01)*1000;
  3530  001778  0E0A               	movlw	10
  3531  00177A  0100               	movlb	0	; () banked
  3532  00177C  6F73               	movwf	___flmul@a& (0+255),b
  3533  00177E  0ED7               	movlw	215
  3534  001780  6F74               	movwf	(___flmul@a+1)& (0+255),b
  3535  001782  0E23               	movlw	35
  3536  001784  6F75               	movwf	(___flmul@a+2)& (0+255),b
  3537  001786  0E3C               	movlw	60
  3538  001788  6F76               	movwf	(___flmul@a+3)& (0+255),b
  3539  00178A  5198               	movf	PWM_DutyCycleCCP1@WantedDutyCycle& (0+255),w,b
  3540  00178C  6F61               	movwf	___xxtofl@val& (0+255),b
  3541  00178E  6B62               	clrf	(___xxtofl@val+1)& (0+255),b
  3542  001790  6B63               	clrf	(___xxtofl@val+2)& (0+255),b
  3543  001792  6B64               	clrf	(___xxtofl@val+3)& (0+255),b
  3544  001794  0E01               	movlw	1
  3545  001796  EC26  F007         	call	___xxtofl
  3546  00179A  C061  F06F         	movff	?___xxtofl,___flmul@b
  3547  00179E  C062  F070         	movff	?___xxtofl+1,___flmul@b+1
  3548  0017A2  C063  F071         	movff	?___xxtofl+2,___flmul@b+2
  3549  0017A6  C064  F072         	movff	?___xxtofl+3,___flmul@b+3
  3550  0017AA  EC16  F000         	call	___flmul	;wreg free
  3551  0017AE  C06F  F094         	movff	?___flmul,_PWM_DutyCycleCCP1$2403
  3552  0017B2  C070  F095         	movff	?___flmul+1,_PWM_DutyCycleCCP1$2403+1
  3553  0017B6  C071  F096         	movff	?___flmul+2,_PWM_DutyCycleCCP1$2403+2
  3554  0017BA  C072  F097         	movff	?___flmul+3,_PWM_DutyCycleCCP1$2403+3
  3555                           
  3556                           ;PWMCCP1.c: 19:     unsigned int PWMDutyValue;;PWMCCP1.c: 20:     PWMDutyValue = (Wanted
      +                          DutyCycle * 0.01)*1000;
  3557  0017BE  0E00               	movlw	0
  3558  0017C0  0100               	movlb	0	; () banked
  3559  0017C2  6F73               	movwf	___flmul@a& (0+255),b
  3560  0017C4  0E00               	movlw	0
  3561  0017C6  6F74               	movwf	(___flmul@a+1)& (0+255),b
  3562  0017C8  0E7A               	movlw	122
  3563  0017CA  6F75               	movwf	(___flmul@a+2)& (0+255),b
  3564  0017CC  0E44               	movlw	68
  3565  0017CE  6F76               	movwf	(___flmul@a+3)& (0+255),b
  3566  0017D0  C094  F06F         	movff	_PWM_DutyCycleCCP1$2403,___flmul@b
  3567  0017D4  C095  F070         	movff	_PWM_DutyCycleCCP1$2403+1,___flmul@b+1
  3568  0017D8  C096  F071         	movff	_PWM_DutyCycleCCP1$2403+2,___flmul@b+2
  3569  0017DC  C097  F072         	movff	_PWM_DutyCycleCCP1$2403+3,___flmul@b+3
  3570  0017E0  EC16  F000         	call	___flmul	;wreg free
  3571  0017E4  C06F  F088         	movff	?___flmul,___fltol@f1
  3572  0017E8  C070  F089         	movff	?___flmul+1,___fltol@f1+1
  3573  0017EC  C071  F08A         	movff	?___flmul+2,___fltol@f1+2
  3574  0017F0  C072  F08B         	movff	?___flmul+3,___fltol@f1+3
  3575  0017F4  EC7A  F009         	call	___fltol	;wreg free
  3576  0017F8  C088  F099         	movff	?___fltol,PWM_DutyCycleCCP1@PWMDutyValue
  3577  0017FC  C089  F09A         	movff	?___fltol+1,PWM_DutyCycleCCP1@PWMDutyValue+1
  3578  001800                     
  3579                           ;PWMCCP1.c: 22:     CCP1CONbits.DC1B = (PWMDutyValue & 0x03);
  3580  001800  C099  F092         	movff	PWM_DutyCycleCCP1@PWMDutyValue,??_PWM_DutyCycleCCP1
  3581  001804  0E03               	movlw	3
  3582  001806  0100               	movlb	0	; () banked
  3583  001808  1792               	andwf	??_PWM_DutyCycleCCP1& (0+255),f,b
  3584  00180A  3B92               	swapf	??_PWM_DutyCycleCCP1& (0+255),f,b
  3585  00180C  50BD               	movf	189,w,c	;volatile
  3586  00180E  1992               	xorwf	??_PWM_DutyCycleCCP1& (0+255),w,b
  3587  001810  0BCF               	andlw	-49
  3588  001812  1992               	xorwf	??_PWM_DutyCycleCCP1& (0+255),w,b
  3589  001814  6EBD               	movwf	189,c	;volatile
  3590  001816                     
  3591                           ; BSR set to: 0
  3592                           ;PWMCCP1.c: 23:     CCPR1L = ((PWMDutyValue >> 2)&0xFF);
  3593  001816  C099  F092         	movff	PWM_DutyCycleCCP1@PWMDutyValue,??_PWM_DutyCycleCCP1
  3594  00181A  C09A  F093         	movff	PWM_DutyCycleCCP1@PWMDutyValue+1,??_PWM_DutyCycleCCP1+1
  3595  00181E  90D8               	bcf	status,0,c
  3596  001820  3393               	rrcf	(??_PWM_DutyCycleCCP1+1)& (0+255),f,b
  3597  001822  3392               	rrcf	??_PWM_DutyCycleCCP1& (0+255),f,b
  3598  001824  90D8               	bcf	status,0,c
  3599  001826  3393               	rrcf	(??_PWM_DutyCycleCCP1+1)& (0+255),f,b
  3600  001828  3392               	rrcf	??_PWM_DutyCycleCCP1& (0+255),f,b
  3601  00182A  5192               	movf	??_PWM_DutyCycleCCP1& (0+255),w,b
  3602  00182C  6EBE               	movwf	190,c	;volatile
  3603  00182E                     
  3604                           ; BSR set to: 0
  3605  00182E  0012               	return		;funcret
  3606  001830                     __end_of_PWM_DutyCycleCCP1:
  3607                           	opt callstack 0
  3608                           
  3609 ;; *************** function ___xxtofl *****************
  3610 ;; Defined at:
  3611 ;;		line 10 in file "C:\Program Files (x86)\Microchip\xc8\v2.10\pic\sources\c99\common\xxtofl.c"
  3612 ;; Parameters:    Size  Location     Type
  3613 ;;  sign            1    wreg     unsigned char 
  3614 ;;  val             4    1[BANK0 ] long 
  3615 ;; Auto vars:     Size  Location     Type
  3616 ;;  sign            1    9[BANK0 ] unsigned char 
  3617 ;;  arg             4   11[BANK0 ] unsigned long 
  3618 ;;  exp             1   10[BANK0 ] unsigned char 
  3619 ;; Return value:  Size  Location     Type
  3620 ;;                  4    1[BANK0 ] unsigned char 
  3621 ;; Registers used:
  3622 ;;		wreg, status,2, status,0
  3623 ;; Tracked objects:
  3624 ;;		On entry : 0/0
  3625 ;;		On exit  : 0/0
  3626 ;;		Unchanged: 0/0
  3627 ;; Data sizes:     COMRAM   BANK0   BANK1   BANK2   BANK3   BANK4   BANK5   BANK6   BANK7
  3628 ;;      Params:         0       4       0       0       0       0       0       0       0
  3629 ;;      Locals:         0       6       0       0       0       0       0       0       0
  3630 ;;      Temps:          0       4       0       0       0       0       0       0       0
  3631 ;;      Totals:         0      14       0       0       0       0       0       0       0
  3632 ;;Total ram usage:       14 bytes
  3633 ;; Hardware stack levels used:    1
  3634 ;; Hardware stack levels required when called:    4
  3635 ;; This function calls:
  3636 ;;		Nothing
  3637 ;; This function is called by:
  3638 ;;		_PWM_DutyCycleCCP2
  3639 ;;		_PWM_DutyCycleCCP1
  3640 ;; This function uses a non-reentrant model
  3641 ;;
  3642                           
  3643                           	psect	text12
  3644  000E4C                     __ptext12:
  3645                           	opt callstack 0
  3646  000E4C                     ___xxtofl:
  3647                           	opt callstack 24
  3648                           
  3649                           ; BSR set to: 0
  3650                           ;incstack = 0
  3651                           ;___xxtofl@sign stored from wreg
  3652  000E4C  0100               	movlb	0	; () banked
  3653  000E4E  6F69               	movwf	___xxtofl@sign& (0+255),b
  3654  000E50  0100               	movlb	0	; () banked
  3655  000E52  5169               	movf	___xxtofl@sign& (0+255),w,b
  3656  000E54  B4D8               	btfsc	status,2,c
  3657  000E56  EF2F  F007         	goto	u1601
  3658  000E5A  EF31  F007         	goto	u1600
  3659  000E5E                     u1601:
  3660  000E5E  EF53  F007         	goto	l1109
  3661  000E62                     u1600:
  3662  000E62                     
  3663                           ; BSR set to: 0
  3664  000E62  BF64               	btfsc	(___xxtofl@val+3)& (0+255),7,b
  3665  000E64  EF38  F007         	goto	u1610
  3666  000E68  EF36  F007         	goto	u1611
  3667  000E6C                     u1611:
  3668  000E6C  EF53  F007         	goto	l1109
  3669  000E70                     u1610:
  3670  000E70                     
  3671                           ; BSR set to: 0
  3672  000E70  C061  F065         	movff	___xxtofl@val,??___xxtofl
  3673  000E74  C062  F066         	movff	___xxtofl@val+1,??___xxtofl+1
  3674  000E78  C063  F067         	movff	___xxtofl@val+2,??___xxtofl+2
  3675  000E7C  C064  F068         	movff	___xxtofl@val+3,??___xxtofl+3
  3676  000E80  1F65               	comf	??___xxtofl& (0+255),f,b
  3677  000E82  1F66               	comf	(??___xxtofl+1)& (0+255),f,b
  3678  000E84  1F67               	comf	(??___xxtofl+2)& (0+255),f,b
  3679  000E86  1F68               	comf	(??___xxtofl+3)& (0+255),f,b
  3680  000E88  2B65               	incf	??___xxtofl& (0+255),f,b
  3681  000E8A  0E00               	movlw	0
  3682  000E8C  2366               	addwfc	(??___xxtofl+1)& (0+255),f,b
  3683  000E8E  2367               	addwfc	(??___xxtofl+2)& (0+255),f,b
  3684  000E90  2368               	addwfc	(??___xxtofl+3)& (0+255),f,b
  3685  000E92  C065  F06B         	movff	??___xxtofl,___xxtofl@arg
  3686  000E96  C066  F06C         	movff	??___xxtofl+1,___xxtofl@arg+1
  3687  000E9A  C067  F06D         	movff	??___xxtofl+2,___xxtofl@arg+2
  3688  000E9E  C068  F06E         	movff	??___xxtofl+3,___xxtofl@arg+3
  3689  000EA2  EF5B  F007         	goto	l2366
  3690  000EA6                     l1109:
  3691                           
  3692                           ; BSR set to: 0
  3693  000EA6  C061  F06B         	movff	___xxtofl@val,___xxtofl@arg
  3694  000EAA  C062  F06C         	movff	___xxtofl@val+1,___xxtofl@arg+1
  3695  000EAE  C063  F06D         	movff	___xxtofl@val+2,___xxtofl@arg+2
  3696  000EB2  C064  F06E         	movff	___xxtofl@val+3,___xxtofl@arg+3
  3697  000EB6                     l2366:
  3698                           
  3699                           ; BSR set to: 0
  3700  000EB6  5161               	movf	___xxtofl@val& (0+255),w,b
  3701  000EB8  1162               	iorwf	(___xxtofl@val+1)& (0+255),w,b
  3702  000EBA  1163               	iorwf	(___xxtofl@val+2)& (0+255),w,b
  3703  000EBC  1164               	iorwf	(___xxtofl@val+3)& (0+255),w,b
  3704  000EBE  A4D8               	btfss	status,2,c
  3705  000EC0  EF64  F007         	goto	u1621
  3706  000EC4  EF66  F007         	goto	u1620
  3707  000EC8                     u1621:
  3708  000EC8  EF70  F007         	goto	l2372
  3709  000ECC                     u1620:
  3710  000ECC                     
  3711                           ; BSR set to: 0
  3712  000ECC  0E00               	movlw	0
  3713  000ECE  6F61               	movwf	?___xxtofl& (0+255),b
  3714  000ED0  0E00               	movlw	0
  3715  000ED2  6F62               	movwf	(?___xxtofl+1)& (0+255),b
  3716  000ED4  0E00               	movlw	0
  3717  000ED6  6F63               	movwf	(?___xxtofl+2)& (0+255),b
  3718  000ED8  0E00               	movlw	0
  3719  000EDA  6F64               	movwf	(?___xxtofl+3)& (0+255),b
  3720  000EDC  EF01  F008         	goto	l1112
  3721  000EE0                     l2372:
  3722                           
  3723                           ; BSR set to: 0
  3724  000EE0  0E96               	movlw	150
  3725  000EE2  6F6A               	movwf	___xxtofl@exp& (0+255),b
  3726  000EE4  EF7A  F007         	goto	l2376
  3727  000EE8                     l2374:
  3728                           
  3729                           ; BSR set to: 0
  3730  000EE8  2B6A               	incf	___xxtofl@exp& (0+255),f,b
  3731  000EEA  90D8               	bcf	status,0,c
  3732  000EEC  336E               	rrcf	(___xxtofl@arg+3)& (0+255),f,b
  3733  000EEE  336D               	rrcf	(___xxtofl@arg+2)& (0+255),f,b
  3734  000EF0  336C               	rrcf	(___xxtofl@arg+1)& (0+255),f,b
  3735  000EF2  336B               	rrcf	___xxtofl@arg& (0+255),f,b
  3736  000EF4                     l2376:
  3737                           
  3738                           ; BSR set to: 0
  3739  000EF4  0E00               	movlw	0
  3740  000EF6  156B               	andwf	___xxtofl@arg& (0+255),w,b
  3741  000EF8  6F65               	movwf	??___xxtofl& (0+255),b
  3742  000EFA  0E00               	movlw	0
  3743  000EFC  156C               	andwf	(___xxtofl@arg+1)& (0+255),w,b
  3744  000EFE  6F66               	movwf	(??___xxtofl+1)& (0+255),b
  3745  000F00  0E00               	movlw	0
  3746  000F02  156D               	andwf	(___xxtofl@arg+2)& (0+255),w,b
  3747  000F04  6F67               	movwf	(??___xxtofl+2)& (0+255),b
  3748  000F06  0EFE               	movlw	254
  3749  000F08  156E               	andwf	(___xxtofl@arg+3)& (0+255),w,b
  3750  000F0A  6F68               	movwf	(??___xxtofl+3)& (0+255),b
  3751  000F0C  5165               	movf	??___xxtofl& (0+255),w,b
  3752  000F0E  1166               	iorwf	(??___xxtofl+1)& (0+255),w,b
  3753  000F10  1167               	iorwf	(??___xxtofl+2)& (0+255),w,b
  3754  000F12  1168               	iorwf	(??___xxtofl+3)& (0+255),w,b
  3755  000F14  A4D8               	btfss	status,2,c
  3756  000F16  EF8F  F007         	goto	u1631
  3757  000F1A  EF91  F007         	goto	u1630
  3758  000F1E                     u1631:
  3759  000F1E  EF74  F007         	goto	l2374
  3760  000F22                     u1630:
  3761  000F22  EF9F  F007         	goto	l1116
  3762  000F26                     l2378:
  3763                           
  3764                           ; BSR set to: 0
  3765  000F26  2B6A               	incf	___xxtofl@exp& (0+255),f,b
  3766  000F28                     
  3767                           ; BSR set to: 0
  3768  000F28  0E01               	movlw	1
  3769  000F2A  276B               	addwf	___xxtofl@arg& (0+255),f,b
  3770  000F2C  0E00               	movlw	0
  3771  000F2E  236C               	addwfc	(___xxtofl@arg+1)& (0+255),f,b
  3772  000F30  236D               	addwfc	(___xxtofl@arg+2)& (0+255),f,b
  3773  000F32  236E               	addwfc	(___xxtofl@arg+3)& (0+255),f,b
  3774  000F34                     
  3775                           ; BSR set to: 0
  3776  000F34  90D8               	bcf	status,0,c
  3777  000F36  336E               	rrcf	(___xxtofl@arg+3)& (0+255),f,b
  3778  000F38  336D               	rrcf	(___xxtofl@arg+2)& (0+255),f,b
  3779  000F3A  336C               	rrcf	(___xxtofl@arg+1)& (0+255),f,b
  3780  000F3C  336B               	rrcf	___xxtofl@arg& (0+255),f,b
  3781  000F3E                     l1116:
  3782                           
  3783                           ; BSR set to: 0
  3784  000F3E  0E00               	movlw	0
  3785  000F40  156B               	andwf	___xxtofl@arg& (0+255),w,b
  3786  000F42  6F65               	movwf	??___xxtofl& (0+255),b
  3787  000F44  0E00               	movlw	0
  3788  000F46  156C               	andwf	(___xxtofl@arg+1)& (0+255),w,b
  3789  000F48  6F66               	movwf	(??___xxtofl+1)& (0+255),b
  3790  000F4A  0E00               	movlw	0
  3791  000F4C  156D               	andwf	(___xxtofl@arg+2)& (0+255),w,b
  3792  000F4E  6F67               	movwf	(??___xxtofl+2)& (0+255),b
  3793  000F50  0EFF               	movlw	255
  3794  000F52  156E               	andwf	(___xxtofl@arg+3)& (0+255),w,b
  3795  000F54  6F68               	movwf	(??___xxtofl+3)& (0+255),b
  3796  000F56  5165               	movf	??___xxtofl& (0+255),w,b
  3797  000F58  1166               	iorwf	(??___xxtofl+1)& (0+255),w,b
  3798  000F5A  1167               	iorwf	(??___xxtofl+2)& (0+255),w,b
  3799  000F5C  1168               	iorwf	(??___xxtofl+3)& (0+255),w,b
  3800  000F5E  A4D8               	btfss	status,2,c
  3801  000F60  EFB4  F007         	goto	u1641
  3802  000F64  EFB6  F007         	goto	u1640
  3803  000F68                     u1641:
  3804  000F68  EF93  F007         	goto	l2378
  3805  000F6C                     u1640:
  3806  000F6C  EFBE  F007         	goto	l2386
  3807  000F70                     l2384:
  3808                           
  3809                           ; BSR set to: 0
  3810  000F70  076A               	decf	___xxtofl@exp& (0+255),f,b
  3811  000F72  90D8               	bcf	status,0,c
  3812  000F74  376B               	rlcf	___xxtofl@arg& (0+255),f,b
  3813  000F76  376C               	rlcf	(___xxtofl@arg+1)& (0+255),f,b
  3814  000F78  376D               	rlcf	(___xxtofl@arg+2)& (0+255),f,b
  3815  000F7A  376E               	rlcf	(___xxtofl@arg+3)& (0+255),f,b
  3816  000F7C                     l2386:
  3817                           
  3818                           ; BSR set to: 0
  3819  000F7C  BF6D               	btfsc	(___xxtofl@arg+2)& (0+255),7,b
  3820  000F7E  EFC3  F007         	goto	u1651
  3821  000F82  EFC5  F007         	goto	u1650
  3822  000F86                     u1651:
  3823  000F86  EFCD  F007         	goto	l1123
  3824  000F8A                     u1650:
  3825  000F8A                     
  3826                           ; BSR set to: 0
  3827  000F8A  0E02               	movlw	2
  3828  000F8C  616A               	cpfslt	___xxtofl@exp& (0+255),b
  3829  000F8E  EFCB  F007         	goto	u1661
  3830  000F92  EFCD  F007         	goto	u1660
  3831  000F96                     u1661:
  3832  000F96  EFB8  F007         	goto	l2384
  3833  000F9A                     u1660:
  3834  000F9A                     l1123:
  3835                           
  3836                           ; BSR set to: 0
  3837  000F9A  B16A               	btfsc	___xxtofl@exp& (0+255),0,b
  3838  000F9C  EFD2  F007         	goto	u1671
  3839  000FA0  EFD4  F007         	goto	u1670
  3840  000FA4                     u1671:
  3841  000FA4  EFD5  F007         	goto	l2392
  3842  000FA8                     u1670:
  3843  000FA8                     
  3844                           ; BSR set to: 0
  3845  000FA8  9F6D               	bcf	(___xxtofl@arg+2)& (0+255),7,b
  3846  000FAA                     l2392:
  3847                           
  3848                           ; BSR set to: 0
  3849  000FAA  90D8               	bcf	status,0,c
  3850  000FAC  336A               	rrcf	___xxtofl@exp& (0+255),f,b
  3851  000FAE                     
  3852                           ; BSR set to: 0
  3853  000FAE  C06A  F065         	movff	___xxtofl@exp,??___xxtofl
  3854  000FB2  6B66               	clrf	(??___xxtofl+1)& (0+255),b
  3855  000FB4  6B67               	clrf	(??___xxtofl+2)& (0+255),b
  3856  000FB6  6B68               	clrf	(??___xxtofl+3)& (0+255),b
  3857  000FB8  C065  F068         	movff	??___xxtofl,??___xxtofl+3
  3858  000FBC  6B67               	clrf	(??___xxtofl+2)& (0+255),b
  3859  000FBE  6B66               	clrf	(??___xxtofl+1)& (0+255),b
  3860  000FC0  6B65               	clrf	??___xxtofl& (0+255),b
  3861  000FC2  5165               	movf	??___xxtofl& (0+255),w,b
  3862  000FC4  136B               	iorwf	___xxtofl@arg& (0+255),f,b
  3863  000FC6  5166               	movf	(??___xxtofl+1)& (0+255),w,b
  3864  000FC8  136C               	iorwf	(___xxtofl@arg+1)& (0+255),f,b
  3865  000FCA  5167               	movf	(??___xxtofl+2)& (0+255),w,b
  3866  000FCC  136D               	iorwf	(___xxtofl@arg+2)& (0+255),f,b
  3867  000FCE  5168               	movf	(??___xxtofl+3)& (0+255),w,b
  3868  000FD0  136E               	iorwf	(___xxtofl@arg+3)& (0+255),f,b
  3869  000FD2                     
  3870                           ; BSR set to: 0
  3871  000FD2  5169               	movf	___xxtofl@sign& (0+255),w,b
  3872  000FD4  B4D8               	btfsc	status,2,c
  3873  000FD6  EFEF  F007         	goto	u1681
  3874  000FDA  EFF1  F007         	goto	u1680
  3875  000FDE                     u1681:
  3876  000FDE  EFF9  F007         	goto	l2402
  3877  000FE2                     u1680:
  3878  000FE2                     
  3879                           ; BSR set to: 0
  3880  000FE2  BF64               	btfsc	(___xxtofl@val+3)& (0+255),7,b
  3881  000FE4  EFF8  F007         	goto	u1690
  3882  000FE8  EFF6  F007         	goto	u1691
  3883  000FEC                     u1691:
  3884  000FEC  EFF9  F007         	goto	l2402
  3885  000FF0                     u1690:
  3886  000FF0                     
  3887                           ; BSR set to: 0
  3888  000FF0  8F6E               	bsf	(___xxtofl@arg+3)& (0+255),7,b
  3889  000FF2                     l2402:
  3890                           
  3891                           ; BSR set to: 0
  3892  000FF2  C06B  F061         	movff	___xxtofl@arg,?___xxtofl
  3893  000FF6  C06C  F062         	movff	___xxtofl@arg+1,?___xxtofl+1
  3894  000FFA  C06D  F063         	movff	___xxtofl@arg+2,?___xxtofl+2
  3895  000FFE  C06E  F064         	movff	___xxtofl@arg+3,?___xxtofl+3
  3896  001002                     l1112:
  3897                           
  3898                           ; BSR set to: 0
  3899  001002  0012               	return		;funcret
  3900  001004                     __end_of___xxtofl:
  3901                           	opt callstack 0
  3902                           
  3903 ;; *************** function ___fltol *****************
  3904 ;; Defined at:
  3905 ;;		line 43 in file "C:\Program Files (x86)\Microchip\xc8\v2.10\pic\sources\c99\common\fltol.c"
  3906 ;; Parameters:    Size  Location     Type
  3907 ;;  f1              4   40[BANK0 ] unsigned char 
  3908 ;; Auto vars:     Size  Location     Type
  3909 ;;  exp1            1   49[BANK0 ] unsigned char 
  3910 ;;  sign1           1   48[BANK0 ] unsigned char 
  3911 ;; Return value:  Size  Location     Type
  3912 ;;                  4   40[BANK0 ] long 
  3913 ;; Registers used:
  3914 ;;		wreg, status,2, status,0
  3915 ;; Tracked objects:
  3916 ;;		On entry : 0/0
  3917 ;;		On exit  : 0/0
  3918 ;;		Unchanged: 0/0
  3919 ;; Data sizes:     COMRAM   BANK0   BANK1   BANK2   BANK3   BANK4   BANK5   BANK6   BANK7
  3920 ;;      Params:         0       4       0       0       0       0       0       0       0
  3921 ;;      Locals:         0       2       0       0       0       0       0       0       0
  3922 ;;      Temps:          0       4       0       0       0       0       0       0       0
  3923 ;;      Totals:         0      10       0       0       0       0       0       0       0
  3924 ;;Total ram usage:       10 bytes
  3925 ;; Hardware stack levels used:    1
  3926 ;; Hardware stack levels required when called:    4
  3927 ;; This function calls:
  3928 ;;		Nothing
  3929 ;; This function is called by:
  3930 ;;		_PWM_DutyCycleCCP2
  3931 ;;		_PWM_DutyCycleCCP1
  3932 ;; This function uses a non-reentrant model
  3933 ;;
  3934                           
  3935                           	psect	text13
  3936  0012F4                     __ptext13:
  3937                           	opt callstack 0
  3938  0012F4                     ___fltol:
  3939                           	opt callstack 24
  3940  0012F4  0100               	movlb	0	; () banked
  3941  0012F6  358A               	rlcf	(___fltol@f1+2)& (0+255),w,b
  3942  0012F8  358B               	rlcf	(___fltol@f1+3)& (0+255),w,b
  3943  0012FA  6F91               	movwf	___fltol@exp1& (0+255),b
  3944  0012FC  5191               	movf	___fltol@exp1& (0+255),w,b
  3945  0012FE  A4D8               	btfss	status,2,c
  3946  001300  EF84  F009         	goto	u1531
  3947  001304  EF86  F009         	goto	u1530
  3948  001308                     u1531:
  3949  001308  EF90  F009         	goto	l2322
  3950  00130C                     u1530:
  3951  00130C                     l2318:
  3952                           
  3953                           ; BSR set to: 0
  3954  00130C  0E00               	movlw	0
  3955  00130E  6F88               	movwf	?___fltol& (0+255),b
  3956  001310  0E00               	movlw	0
  3957  001312  6F89               	movwf	(?___fltol+1)& (0+255),b
  3958  001314  0E00               	movlw	0
  3959  001316  6F8A               	movwf	(?___fltol+2)& (0+255),b
  3960  001318  0E00               	movlw	0
  3961  00131A  6F8B               	movwf	(?___fltol+3)& (0+255),b
  3962  00131C  EFFD  F009         	goto	l751
  3963  001320                     l2322:
  3964                           
  3965                           ; BSR set to: 0
  3966  001320  C088  F08C         	movff	___fltol@f1,??___fltol
  3967  001324  C089  F08D         	movff	___fltol@f1+1,??___fltol+1
  3968  001328  C08A  F08E         	movff	___fltol@f1+2,??___fltol+2
  3969  00132C  C08B  F08F         	movff	___fltol@f1+3,??___fltol+3
  3970  001330  0E20               	movlw	32
  3971  001332  EFA0  F009         	goto	u1540
  3972  001336                     u1545:
  3973  001336  90D8               	bcf	status,0,c
  3974  001338  338F               	rrcf	(??___fltol+3)& (0+255),f,b
  3975  00133A  338E               	rrcf	(??___fltol+2)& (0+255),f,b
  3976  00133C  338D               	rrcf	(??___fltol+1)& (0+255),f,b
  3977  00133E  338C               	rrcf	??___fltol& (0+255),f,b
  3978  001340                     u1540:
  3979  001340  2EE8               	decfsz	wreg,f,c
  3980  001342  EF9B  F009         	goto	u1545
  3981  001346  518C               	movf	??___fltol& (0+255),w,b
  3982  001348  6F90               	movwf	___fltol@sign1& (0+255),b
  3983  00134A                     
  3984                           ; BSR set to: 0
  3985  00134A  8F8A               	bsf	(___fltol@f1+2)& (0+255),7,b
  3986  00134C                     
  3987                           ; BSR set to: 0
  3988  00134C  0EFF               	movlw	255
  3989  00134E  1788               	andwf	___fltol@f1& (0+255),f,b
  3990  001350  0EFF               	movlw	255
  3991  001352  1789               	andwf	(___fltol@f1+1)& (0+255),f,b
  3992  001354  0EFF               	movlw	255
  3993  001356  178A               	andwf	(___fltol@f1+2)& (0+255),f,b
  3994  001358  0E00               	movlw	0
  3995  00135A  178B               	andwf	(___fltol@f1+3)& (0+255),f,b
  3996  00135C                     
  3997                           ; BSR set to: 0
  3998  00135C  0E96               	movlw	150
  3999  00135E  5F91               	subwf	___fltol@exp1& (0+255),f,b
  4000  001360                     
  4001                           ; BSR set to: 0
  4002  001360  BF91               	btfsc	___fltol@exp1& (0+255),7,b
  4003  001362  EFB7  F009         	goto	u1550
  4004  001366  EFB5  F009         	goto	u1551
  4005  00136A                     u1551:
  4006  00136A  EFCD  F009         	goto	l2342
  4007  00136E                     u1550:
  4008  00136E                     
  4009                           ; BSR set to: 0
  4010  00136E  5191               	movf	___fltol@exp1& (0+255),w,b
  4011  001370  0A80               	xorlw	128
  4012  001372  0F97               	addlw	151
  4013  001374  B0D8               	btfsc	status,0,c
  4014  001376  EFBF  F009         	goto	u1561
  4015  00137A  EFC1  F009         	goto	u1560
  4016  00137E                     u1561:
  4017  00137E  EFC3  F009         	goto	l2338
  4018  001382                     u1560:
  4019  001382  EF86  F009         	goto	l2318
  4020  001386                     l2338:
  4021                           
  4022                           ; BSR set to: 0
  4023  001386  90D8               	bcf	status,0,c
  4024  001388  338B               	rrcf	(___fltol@f1+3)& (0+255),f,b
  4025  00138A  338A               	rrcf	(___fltol@f1+2)& (0+255),f,b
  4026  00138C  3389               	rrcf	(___fltol@f1+1)& (0+255),f,b
  4027  00138E  3388               	rrcf	___fltol@f1& (0+255),f,b
  4028  001390                     
  4029                           ; BSR set to: 0
  4030  001390  3F91               	incfsz	___fltol@exp1& (0+255),f,b
  4031  001392  EFC3  F009         	goto	l2338
  4032  001396  EFE5  F009         	goto	l2352
  4033  00139A                     l2342:
  4034                           
  4035                           ; BSR set to: 0
  4036  00139A  0E1F               	movlw	31
  4037  00139C  6591               	cpfsgt	___fltol@exp1& (0+255),b
  4038  00139E  EFD3  F009         	goto	u1571
  4039  0013A2  EFD5  F009         	goto	u1570
  4040  0013A6                     u1571:
  4041  0013A6  EFDD  F009         	goto	l2350
  4042  0013AA                     u1570:
  4043  0013AA  EF86  F009         	goto	l2318
  4044  0013AE                     l2348:
  4045                           
  4046                           ; BSR set to: 0
  4047  0013AE  90D8               	bcf	status,0,c
  4048  0013B0  3788               	rlcf	___fltol@f1& (0+255),f,b
  4049  0013B2  3789               	rlcf	(___fltol@f1+1)& (0+255),f,b
  4050  0013B4  378A               	rlcf	(___fltol@f1+2)& (0+255),f,b
  4051  0013B6  378B               	rlcf	(___fltol@f1+3)& (0+255),f,b
  4052  0013B8  0791               	decf	___fltol@exp1& (0+255),f,b
  4053  0013BA                     l2350:
  4054                           
  4055                           ; BSR set to: 0
  4056  0013BA  5191               	movf	___fltol@exp1& (0+255),w,b
  4057  0013BC  A4D8               	btfss	status,2,c
  4058  0013BE  EFE3  F009         	goto	u1581
  4059  0013C2  EFE5  F009         	goto	u1580
  4060  0013C6                     u1581:
  4061  0013C6  EFD7  F009         	goto	l2348
  4062  0013CA                     u1580:
  4063  0013CA                     l2352:
  4064                           
  4065                           ; BSR set to: 0
  4066  0013CA  5190               	movf	___fltol@sign1& (0+255),w,b
  4067  0013CC  B4D8               	btfsc	status,2,c
  4068  0013CE  EFEB  F009         	goto	u1591
  4069  0013D2  EFED  F009         	goto	u1590
  4070  0013D6                     u1591:
  4071  0013D6  EFF5  F009         	goto	l2356
  4072  0013DA                     u1590:
  4073  0013DA                     
  4074                           ; BSR set to: 0
  4075  0013DA  1F8B               	comf	(___fltol@f1+3)& (0+255),f,b
  4076  0013DC  1F8A               	comf	(___fltol@f1+2)& (0+255),f,b
  4077  0013DE  1F89               	comf	(___fltol@f1+1)& (0+255),f,b
  4078  0013E0  6D88               	negf	___fltol@f1& (0+255),b
  4079  0013E2  0E00               	movlw	0
  4080  0013E4  2389               	addwfc	(___fltol@f1+1)& (0+255),f,b
  4081  0013E6  238A               	addwfc	(___fltol@f1+2)& (0+255),f,b
  4082  0013E8  238B               	addwfc	(___fltol@f1+3)& (0+255),f,b
  4083  0013EA                     l2356:
  4084                           
  4085                           ; BSR set to: 0
  4086  0013EA  C088  F088         	movff	___fltol@f1,?___fltol
  4087  0013EE  C089  F089         	movff	___fltol@f1+1,?___fltol+1
  4088  0013F2  C08A  F08A         	movff	___fltol@f1+2,?___fltol+2
  4089  0013F6  C08B  F08B         	movff	___fltol@f1+3,?___fltol+3
  4090  0013FA                     l751:
  4091                           
  4092                           ; BSR set to: 0
  4093  0013FA  0012               	return		;funcret
  4094  0013FC                     __end_of___fltol:
  4095                           	opt callstack 0
  4096                           
  4097 ;; *************** function ___flmul *****************
  4098 ;; Defined at:
  4099 ;;		line 8 in file "C:\Program Files (x86)\Microchip\xc8\v2.10\pic\sources\c99\common\sprcmul.c"
  4100 ;; Parameters:    Size  Location     Type
  4101 ;;  b               4   15[BANK0 ] long 
  4102 ;;  a               4   19[BANK0 ] long 
  4103 ;; Auto vars:     Size  Location     Type
  4104 ;;  prod            4   34[BANK0 ] struct .
  4105 ;;  grs             4   28[BANK0 ] unsigned long 
  4106 ;;  temp            2   38[BANK0 ] struct .
  4107 ;;  bexp            1   33[BANK0 ] unsigned char 
  4108 ;;  aexp            1   32[BANK0 ] unsigned char 
  4109 ;;  sign            1   27[BANK0 ] unsigned char 
  4110 ;; Return value:  Size  Location     Type
  4111 ;;                  4   15[BANK0 ] unsigned char 
  4112 ;; Registers used:
  4113 ;;		wreg, status,2, status,0, prodl, prodh
  4114 ;; Tracked objects:
  4115 ;;		On entry : 0/0
  4116 ;;		On exit  : 0/0
  4117 ;;		Unchanged: 0/0
  4118 ;; Data sizes:     COMRAM   BANK0   BANK1   BANK2   BANK3   BANK4   BANK5   BANK6   BANK7
  4119 ;;      Params:         0       8       0       0       0       0       0       0       0
  4120 ;;      Locals:         0      13       0       0       0       0       0       0       0
  4121 ;;      Temps:          0       4       0       0       0       0       0       0       0
  4122 ;;      Totals:         0      25       0       0       0       0       0       0       0
  4123 ;;Total ram usage:       25 bytes
  4124 ;; Hardware stack levels used:    1
  4125 ;; Hardware stack levels required when called:    4
  4126 ;; This function calls:
  4127 ;;		Nothing
  4128 ;; This function is called by:
  4129 ;;		_PWM_DutyCycleCCP2
  4130 ;;		_PWM_DutyCycleCCP1
  4131 ;; This function uses a non-reentrant model
  4132 ;;
  4133                           
  4134                           	psect	text14
  4135  00002C                     __ptext14:
  4136                           	opt callstack 0
  4137  00002C                     ___flmul:
  4138                           	opt callstack 24
  4139  00002C  0100               	movlb	0	; () banked
  4140  00002E  5172               	movf	(___flmul@b+3)& (0+255),w,b
  4141  000030  0B80               	andlw	128
  4142  000032  6F7B               	movwf	___flmul@sign& (0+255),b
  4143  000034  5172               	movf	(___flmul@b+3)& (0+255),w,b
  4144  000036  2572               	addwf	(___flmul@b+3)& (0+255),w,b
  4145  000038  6F81               	movwf	___flmul@bexp& (0+255),b
  4146  00003A                     
  4147                           ; BSR set to: 0
  4148  00003A  AF71               	btfss	(___flmul@b+2)& (0+255),7,b
  4149  00003C  EF22  F000         	goto	u1341
  4150  000040  EF24  F000         	goto	u1340
  4151  000044                     u1341:
  4152  000044  EF25  F000         	goto	l2192
  4153  000048                     u1340:
  4154  000048                     
  4155                           ; BSR set to: 0
  4156  000048  8181               	bsf	___flmul@bexp& (0+255),0,b
  4157  00004A                     l2192:
  4158                           
  4159                           ; BSR set to: 0
  4160  00004A  5181               	movf	___flmul@bexp& (0+255),w,b
  4161  00004C  B4D8               	btfsc	status,2,c
  4162  00004E  EF2B  F000         	goto	u1351
  4163  000052  EF2D  F000         	goto	u1350
  4164  000056                     u1351:
  4165  000056  EF40  F000         	goto	l2200
  4166  00005A                     u1350:
  4167  00005A                     
  4168                           ; BSR set to: 0
  4169  00005A  2981               	incf	___flmul@bexp& (0+255),w,b
  4170  00005C  A4D8               	btfss	status,2,c
  4171  00005E  EF33  F000         	goto	u1361
  4172  000062  EF35  F000         	goto	u1360
  4173  000066                     u1361:
  4174  000066  EF3D  F000         	goto	l2198
  4175  00006A                     u1360:
  4176  00006A                     
  4177                           ; BSR set to: 0
  4178  00006A  0E00               	movlw	0
  4179  00006C  6F6F               	movwf	___flmul@b& (0+255),b
  4180  00006E  0E00               	movlw	0
  4181  000070  6F70               	movwf	(___flmul@b+1)& (0+255),b
  4182  000072  0E00               	movlw	0
  4183  000074  6F71               	movwf	(___flmul@b+2)& (0+255),b
  4184  000076  0E00               	movlw	0
  4185  000078  6F72               	movwf	(___flmul@b+3)& (0+255),b
  4186  00007A                     l2198:
  4187                           
  4188                           ; BSR set to: 0
  4189  00007A  8F71               	bsf	(___flmul@b+2)& (0+255),7,b
  4190  00007C  EF48  F000         	goto	l2202
  4191  000080                     l2200:
  4192                           
  4193                           ; BSR set to: 0
  4194  000080  0E00               	movlw	0
  4195  000082  6F6F               	movwf	___flmul@b& (0+255),b
  4196  000084  0E00               	movlw	0
  4197  000086  6F70               	movwf	(___flmul@b+1)& (0+255),b
  4198  000088  0E00               	movlw	0
  4199  00008A  6F71               	movwf	(___flmul@b+2)& (0+255),b
  4200  00008C  0E00               	movlw	0
  4201  00008E  6F72               	movwf	(___flmul@b+3)& (0+255),b
  4202  000090                     l2202:
  4203                           
  4204                           ; BSR set to: 0
  4205  000090  5176               	movf	(___flmul@a+3)& (0+255),w,b
  4206  000092  0B80               	andlw	128
  4207  000094  1B7B               	xorwf	___flmul@sign& (0+255),f,b
  4208  000096                     
  4209                           ; BSR set to: 0
  4210  000096  5176               	movf	(___flmul@a+3)& (0+255),w,b
  4211  000098  2576               	addwf	(___flmul@a+3)& (0+255),w,b
  4212  00009A  6F80               	movwf	___flmul@aexp& (0+255),b
  4213  00009C                     
  4214                           ; BSR set to: 0
  4215  00009C  AF75               	btfss	(___flmul@a+2)& (0+255),7,b
  4216  00009E  EF53  F000         	goto	u1371
  4217  0000A2  EF55  F000         	goto	u1370
  4218  0000A6                     u1371:
  4219  0000A6  EF56  F000         	goto	l2210
  4220  0000AA                     u1370:
  4221  0000AA                     
  4222                           ; BSR set to: 0
  4223  0000AA  8180               	bsf	___flmul@aexp& (0+255),0,b
  4224  0000AC                     l2210:
  4225                           
  4226                           ; BSR set to: 0
  4227  0000AC  5180               	movf	___flmul@aexp& (0+255),w,b
  4228  0000AE  B4D8               	btfsc	status,2,c
  4229  0000B0  EF5C  F000         	goto	u1381
  4230  0000B4  EF5E  F000         	goto	u1380
  4231  0000B8                     u1381:
  4232  0000B8  EF71  F000         	goto	l2218
  4233  0000BC                     u1380:
  4234  0000BC                     
  4235                           ; BSR set to: 0
  4236  0000BC  2980               	incf	___flmul@aexp& (0+255),w,b
  4237  0000BE  A4D8               	btfss	status,2,c
  4238  0000C0  EF64  F000         	goto	u1391
  4239  0000C4  EF66  F000         	goto	u1390
  4240  0000C8                     u1391:
  4241  0000C8  EF6E  F000         	goto	l2216
  4242  0000CC                     u1390:
  4243  0000CC                     
  4244                           ; BSR set to: 0
  4245  0000CC  0E00               	movlw	0
  4246  0000CE  6F73               	movwf	___flmul@a& (0+255),b
  4247  0000D0  0E00               	movlw	0
  4248  0000D2  6F74               	movwf	(___flmul@a+1)& (0+255),b
  4249  0000D4  0E00               	movlw	0
  4250  0000D6  6F75               	movwf	(___flmul@a+2)& (0+255),b
  4251  0000D8  0E00               	movlw	0
  4252  0000DA  6F76               	movwf	(___flmul@a+3)& (0+255),b
  4253  0000DC                     l2216:
  4254                           
  4255                           ; BSR set to: 0
  4256  0000DC  8F75               	bsf	(___flmul@a+2)& (0+255),7,b
  4257  0000DE  EF79  F000         	goto	l1068
  4258  0000E2                     l2218:
  4259                           
  4260                           ; BSR set to: 0
  4261  0000E2  0E00               	movlw	0
  4262  0000E4  6F73               	movwf	___flmul@a& (0+255),b
  4263  0000E6  0E00               	movlw	0
  4264  0000E8  6F74               	movwf	(___flmul@a+1)& (0+255),b
  4265  0000EA  0E00               	movlw	0
  4266  0000EC  6F75               	movwf	(___flmul@a+2)& (0+255),b
  4267  0000EE  0E00               	movlw	0
  4268  0000F0  6F76               	movwf	(___flmul@a+3)& (0+255),b
  4269  0000F2                     l1068:
  4270                           
  4271                           ; BSR set to: 0
  4272  0000F2  5180               	movf	___flmul@aexp& (0+255),w,b
  4273  0000F4  B4D8               	btfsc	status,2,c
  4274  0000F6  EF7F  F000         	goto	u1401
  4275  0000FA  EF81  F000         	goto	u1400
  4276  0000FE                     u1401:
  4277  0000FE  EF89  F000         	goto	l2222
  4278  000102                     u1400:
  4279  000102                     
  4280                           ; BSR set to: 0
  4281  000102  5181               	movf	___flmul@bexp& (0+255),w,b
  4282  000104  A4D8               	btfss	status,2,c
  4283  000106  EF87  F000         	goto	u1411
  4284  00010A  EF89  F000         	goto	u1410
  4285  00010E                     u1411:
  4286  00010E  EF93  F000         	goto	l2226
  4287  000112                     u1410:
  4288  000112                     l2222:
  4289                           
  4290                           ; BSR set to: 0
  4291  000112  0E00               	movlw	0
  4292  000114  6F6F               	movwf	?___flmul& (0+255),b
  4293  000116  0E00               	movlw	0
  4294  000118  6F70               	movwf	(?___flmul+1)& (0+255),b
  4295  00011A  0E00               	movlw	0
  4296  00011C  6F71               	movwf	(?___flmul+2)& (0+255),b
  4297  00011E  0E00               	movlw	0
  4298  000120  6F72               	movwf	(?___flmul+3)& (0+255),b
  4299  000122  EF2B  F002         	goto	l1072
  4300  000126                     l2226:
  4301                           
  4302                           ; BSR set to: 0
  4303  000126  5175               	movf	(___flmul@a+2)& (0+255),w,b
  4304  000128  036F               	mulwf	___flmul@b& (0+255),b
  4305  00012A  CFF3 F086          	movff	prodl,___flmul@temp
  4306  00012E  CFF4 F087          	movff	prodh,___flmul@temp+1
  4307  000132                     
  4308                           ; BSR set to: 0
  4309  000132  5186               	movf	___flmul@temp& (0+255),w,b
  4310  000134  6F7C               	movwf	___flmul@grs& (0+255),b
  4311  000136  6B7D               	clrf	(___flmul@grs+1)& (0+255),b
  4312  000138  6B7E               	clrf	(___flmul@grs+2)& (0+255),b
  4313  00013A  6B7F               	clrf	(___flmul@grs+3)& (0+255),b
  4314  00013C                     
  4315                           ; BSR set to: 0
  4316  00013C  5187               	movf	(___flmul@temp+1)& (0+255),w,b
  4317  00013E  6F82               	movwf	___flmul@prod& (0+255),b
  4318  000140  6B83               	clrf	(___flmul@prod+1)& (0+255),b
  4319  000142  6B84               	clrf	(___flmul@prod+2)& (0+255),b
  4320  000144  6B85               	clrf	(___flmul@prod+3)& (0+255),b
  4321  000146  5174               	movf	(___flmul@a+1)& (0+255),w,b
  4322  000148  0370               	mulwf	(___flmul@b+1)& (0+255),b
  4323  00014A  CFF3 F086          	movff	prodl,___flmul@temp
  4324  00014E  CFF4 F087          	movff	prodh,___flmul@temp+1
  4325  000152                     
  4326                           ; BSR set to: 0
  4327  000152  5186               	movf	___flmul@temp& (0+255),w,b
  4328  000154  277C               	addwf	___flmul@grs& (0+255),f,b
  4329  000156  0E00               	movlw	0
  4330  000158  237D               	addwfc	(___flmul@grs+1)& (0+255),f,b
  4331  00015A  237E               	addwfc	(___flmul@grs+2)& (0+255),f,b
  4332  00015C  237F               	addwfc	(___flmul@grs+3)& (0+255),f,b
  4333  00015E                     
  4334                           ; BSR set to: 0
  4335  00015E  5187               	movf	(___flmul@temp+1)& (0+255),w,b
  4336  000160  2782               	addwf	___flmul@prod& (0+255),f,b
  4337  000162  0E00               	movlw	0
  4338  000164  2383               	addwfc	(___flmul@prod+1)& (0+255),f,b
  4339  000166  2384               	addwfc	(___flmul@prod+2)& (0+255),f,b
  4340  000168  2385               	addwfc	(___flmul@prod+3)& (0+255),f,b
  4341  00016A  5173               	movf	___flmul@a& (0+255),w,b
  4342  00016C  0371               	mulwf	(___flmul@b+2)& (0+255),b
  4343  00016E  CFF3 F086          	movff	prodl,___flmul@temp
  4344  000172  CFF4 F087          	movff	prodh,___flmul@temp+1
  4345  000176                     
  4346                           ; BSR set to: 0
  4347  000176  5186               	movf	___flmul@temp& (0+255),w,b
  4348  000178  277C               	addwf	___flmul@grs& (0+255),f,b
  4349  00017A  0E00               	movlw	0
  4350  00017C  237D               	addwfc	(___flmul@grs+1)& (0+255),f,b
  4351  00017E  237E               	addwfc	(___flmul@grs+2)& (0+255),f,b
  4352  000180  237F               	addwfc	(___flmul@grs+3)& (0+255),f,b
  4353  000182                     
  4354                           ; BSR set to: 0
  4355  000182  5187               	movf	(___flmul@temp+1)& (0+255),w,b
  4356  000184  2782               	addwf	___flmul@prod& (0+255),f,b
  4357  000186  0E00               	movlw	0
  4358  000188  2383               	addwfc	(___flmul@prod+1)& (0+255),f,b
  4359  00018A  2384               	addwfc	(___flmul@prod+2)& (0+255),f,b
  4360  00018C  2385               	addwfc	(___flmul@prod+3)& (0+255),f,b
  4361  00018E                     
  4362                           ; BSR set to: 0
  4363  00018E  C07E  F07F         	movff	___flmul@grs+2,___flmul@grs+3
  4364  000192  C07D  F07E         	movff	___flmul@grs+1,___flmul@grs+2
  4365  000196  C07C  F07D         	movff	___flmul@grs,___flmul@grs+1
  4366  00019A  6B7C               	clrf	___flmul@grs& (0+255),b
  4367  00019C                     
  4368                           ; BSR set to: 0
  4369  00019C  5173               	movf	___flmul@a& (0+255),w,b
  4370  00019E  0370               	mulwf	(___flmul@b+1)& (0+255),b
  4371  0001A0  CFF3 F086          	movff	prodl,___flmul@temp
  4372  0001A4  CFF4 F087          	movff	prodh,___flmul@temp+1
  4373  0001A8                     
  4374                           ; BSR set to: 0
  4375  0001A8  5186               	movf	___flmul@temp& (0+255),w,b
  4376  0001AA  277C               	addwf	___flmul@grs& (0+255),f,b
  4377  0001AC  5187               	movf	(___flmul@temp+1)& (0+255),w,b
  4378  0001AE  237D               	addwfc	(___flmul@grs+1)& (0+255),f,b
  4379  0001B0  0E00               	movlw	0
  4380  0001B2  237E               	addwfc	(___flmul@grs+2)& (0+255),f,b
  4381  0001B4  0E00               	movlw	0
  4382  0001B6  237F               	addwfc	(___flmul@grs+3)& (0+255),f,b
  4383  0001B8                     
  4384                           ; BSR set to: 0
  4385  0001B8  5174               	movf	(___flmul@a+1)& (0+255),w,b
  4386  0001BA  036F               	mulwf	___flmul@b& (0+255),b
  4387  0001BC  CFF3 F086          	movff	prodl,___flmul@temp
  4388  0001C0  CFF4 F087          	movff	prodh,___flmul@temp+1
  4389  0001C4                     
  4390                           ; BSR set to: 0
  4391  0001C4  5186               	movf	___flmul@temp& (0+255),w,b
  4392  0001C6  277C               	addwf	___flmul@grs& (0+255),f,b
  4393  0001C8  5187               	movf	(___flmul@temp+1)& (0+255),w,b
  4394  0001CA  237D               	addwfc	(___flmul@grs+1)& (0+255),f,b
  4395  0001CC  0E00               	movlw	0
  4396  0001CE  237E               	addwfc	(___flmul@grs+2)& (0+255),f,b
  4397  0001D0  0E00               	movlw	0
  4398  0001D2  237F               	addwfc	(___flmul@grs+3)& (0+255),f,b
  4399  0001D4                     
  4400                           ; BSR set to: 0
  4401  0001D4  C07E  F07F         	movff	___flmul@grs+2,___flmul@grs+3
  4402  0001D8  C07D  F07E         	movff	___flmul@grs+1,___flmul@grs+2
  4403  0001DC  C07C  F07D         	movff	___flmul@grs,___flmul@grs+1
  4404  0001E0  6B7C               	clrf	___flmul@grs& (0+255),b
  4405  0001E2  5173               	movf	___flmul@a& (0+255),w,b
  4406  0001E4  036F               	mulwf	___flmul@b& (0+255),b
  4407  0001E6  CFF3 F086          	movff	prodl,___flmul@temp
  4408  0001EA  CFF4 F087          	movff	prodh,___flmul@temp+1
  4409  0001EE                     
  4410                           ; BSR set to: 0
  4411  0001EE  5186               	movf	___flmul@temp& (0+255),w,b
  4412  0001F0  277C               	addwf	___flmul@grs& (0+255),f,b
  4413  0001F2  5187               	movf	(___flmul@temp+1)& (0+255),w,b
  4414  0001F4  237D               	addwfc	(___flmul@grs+1)& (0+255),f,b
  4415  0001F6  0E00               	movlw	0
  4416  0001F8  237E               	addwfc	(___flmul@grs+2)& (0+255),f,b
  4417  0001FA  0E00               	movlw	0
  4418  0001FC  237F               	addwfc	(___flmul@grs+3)& (0+255),f,b
  4419  0001FE                     
  4420                           ; BSR set to: 0
  4421  0001FE  5175               	movf	(___flmul@a+2)& (0+255),w,b
  4422  000200  0370               	mulwf	(___flmul@b+1)& (0+255),b
  4423  000202  CFF3 F086          	movff	prodl,___flmul@temp
  4424  000206  CFF4 F087          	movff	prodh,___flmul@temp+1
  4425  00020A  5186               	movf	___flmul@temp& (0+255),w,b
  4426  00020C  2782               	addwf	___flmul@prod& (0+255),f,b
  4427  00020E  5187               	movf	(___flmul@temp+1)& (0+255),w,b
  4428  000210  2383               	addwfc	(___flmul@prod+1)& (0+255),f,b
  4429  000212  0E00               	movlw	0
  4430  000214  2384               	addwfc	(___flmul@prod+2)& (0+255),f,b
  4431  000216  0E00               	movlw	0
  4432  000218  2385               	addwfc	(___flmul@prod+3)& (0+255),f,b
  4433  00021A                     
  4434                           ; BSR set to: 0
  4435  00021A  5174               	movf	(___flmul@a+1)& (0+255),w,b
  4436  00021C  0371               	mulwf	(___flmul@b+2)& (0+255),b
  4437  00021E  CFF3 F086          	movff	prodl,___flmul@temp
  4438  000222  CFF4 F087          	movff	prodh,___flmul@temp+1
  4439  000226                     
  4440                           ; BSR set to: 0
  4441  000226  5186               	movf	___flmul@temp& (0+255),w,b
  4442  000228  2782               	addwf	___flmul@prod& (0+255),f,b
  4443  00022A  5187               	movf	(___flmul@temp+1)& (0+255),w,b
  4444  00022C  2383               	addwfc	(___flmul@prod+1)& (0+255),f,b
  4445  00022E  0E00               	movlw	0
  4446  000230  2384               	addwfc	(___flmul@prod+2)& (0+255),f,b
  4447  000232  0E00               	movlw	0
  4448  000234  2385               	addwfc	(___flmul@prod+3)& (0+255),f,b
  4449  000236  5175               	movf	(___flmul@a+2)& (0+255),w,b
  4450  000238  0371               	mulwf	(___flmul@b+2)& (0+255),b
  4451  00023A  CFF3 F086          	movff	prodl,___flmul@temp
  4452  00023E  CFF4 F087          	movff	prodh,___flmul@temp+1
  4453  000242                     
  4454                           ; BSR set to: 0
  4455  000242  5186               	movf	___flmul@temp& (0+255),w,b
  4456  000244  6F77               	movwf	??___flmul& (0+255),b
  4457  000246  5187               	movf	(___flmul@temp+1)& (0+255),w,b
  4458  000248  6F78               	movwf	(??___flmul+1)& (0+255),b
  4459  00024A  6B79               	clrf	(??___flmul+2)& (0+255),b
  4460  00024C  6B7A               	clrf	(??___flmul+3)& (0+255),b
  4461  00024E  C079  F07A         	movff	??___flmul+2,??___flmul+3
  4462  000252  C078  F079         	movff	??___flmul+1,??___flmul+2
  4463  000256  C077  F078         	movff	??___flmul,??___flmul+1
  4464  00025A  6B77               	clrf	??___flmul& (0+255),b
  4465  00025C  5177               	movf	??___flmul& (0+255),w,b
  4466  00025E  2782               	addwf	___flmul@prod& (0+255),f,b
  4467  000260  5178               	movf	(??___flmul+1)& (0+255),w,b
  4468  000262  2383               	addwfc	(___flmul@prod+1)& (0+255),f,b
  4469  000264  5179               	movf	(??___flmul+2)& (0+255),w,b
  4470  000266  2384               	addwfc	(___flmul@prod+2)& (0+255),f,b
  4471  000268  517A               	movf	(??___flmul+3)& (0+255),w,b
  4472  00026A  2385               	addwfc	(___flmul@prod+3)& (0+255),f,b
  4473  00026C                     
  4474                           ; BSR set to: 0
  4475  00026C  C07C  F077         	movff	___flmul@grs,??___flmul
  4476  000270  C07D  F078         	movff	___flmul@grs+1,??___flmul+1
  4477  000274  C07E  F079         	movff	___flmul@grs+2,??___flmul+2
  4478  000278  C07F  F07A         	movff	___flmul@grs+3,??___flmul+3
  4479  00027C  0E19               	movlw	25
  4480  00027E  EF46  F001         	goto	u1420
  4481  000282                     u1425:
  4482  000282  90D8               	bcf	status,0,c
  4483  000284  337A               	rrcf	(??___flmul+3)& (0+255),f,b
  4484  000286  3379               	rrcf	(??___flmul+2)& (0+255),f,b
  4485  000288  3378               	rrcf	(??___flmul+1)& (0+255),f,b
  4486  00028A  3377               	rrcf	??___flmul& (0+255),f,b
  4487  00028C                     u1420:
  4488  00028C  2EE8               	decfsz	wreg,f,c
  4489  00028E  EF41  F001         	goto	u1425
  4490  000292  5177               	movf	??___flmul& (0+255),w,b
  4491  000294  2782               	addwf	___flmul@prod& (0+255),f,b
  4492  000296  5178               	movf	(??___flmul+1)& (0+255),w,b
  4493  000298  2383               	addwfc	(___flmul@prod+1)& (0+255),f,b
  4494  00029A  5179               	movf	(??___flmul+2)& (0+255),w,b
  4495  00029C  2384               	addwfc	(___flmul@prod+2)& (0+255),f,b
  4496  00029E  517A               	movf	(??___flmul+3)& (0+255),w,b
  4497  0002A0  2385               	addwfc	(___flmul@prod+3)& (0+255),f,b
  4498  0002A2                     
  4499                           ; BSR set to: 0
  4500  0002A2  C07E  F07F         	movff	___flmul@grs+2,___flmul@grs+3
  4501  0002A6  C07D  F07E         	movff	___flmul@grs+1,___flmul@grs+2
  4502  0002AA  C07C  F07D         	movff	___flmul@grs,___flmul@grs+1
  4503  0002AE  6B7C               	clrf	___flmul@grs& (0+255),b
  4504  0002B0                     
  4505                           ; BSR set to: 0
  4506  0002B0  5180               	movf	___flmul@aexp& (0+255),w,b
  4507  0002B2  C081  F077         	movff	___flmul@bexp,??___flmul
  4508  0002B6  6B78               	clrf	(??___flmul+1)& (0+255),b
  4509  0002B8  2777               	addwf	??___flmul& (0+255),f,b
  4510  0002BA  0E00               	movlw	0
  4511  0002BC  2378               	addwfc	(??___flmul+1)& (0+255),f,b
  4512  0002BE  0E82               	movlw	130
  4513  0002C0  2577               	addwf	??___flmul& (0+255),w,b
  4514  0002C2  6F86               	movwf	___flmul@temp& (0+255),b
  4515  0002C4  0EFF               	movlw	255
  4516  0002C6  2178               	addwfc	(??___flmul+1)& (0+255),w,b
  4517  0002C8  6F87               	movwf	(___flmul@temp+1)& (0+255),b
  4518  0002CA  EF7C  F001         	goto	l2274
  4519  0002CE                     l2268:
  4520                           
  4521                           ; BSR set to: 0
  4522  0002CE  90D8               	bcf	status,0,c
  4523  0002D0  3782               	rlcf	___flmul@prod& (0+255),f,b
  4524  0002D2  3783               	rlcf	(___flmul@prod+1)& (0+255),f,b
  4525  0002D4  3784               	rlcf	(___flmul@prod+2)& (0+255),f,b
  4526  0002D6  3785               	rlcf	(___flmul@prod+3)& (0+255),f,b
  4527  0002D8                     
  4528                           ; BSR set to: 0
  4529  0002D8  AF7F               	btfss	(___flmul@grs+3)& (0+255),7,b
  4530  0002DA  EF71  F001         	goto	u1431
  4531  0002DE  EF73  F001         	goto	u1430
  4532  0002E2                     u1431:
  4533  0002E2  EF74  F001         	goto	l1075
  4534  0002E6                     u1430:
  4535  0002E6                     
  4536                           ; BSR set to: 0
  4537  0002E6  8182               	bsf	___flmul@prod& (0+255),0,b
  4538  0002E8                     l1075:
  4539                           
  4540                           ; BSR set to: 0
  4541  0002E8  90D8               	bcf	status,0,c
  4542  0002EA  377C               	rlcf	___flmul@grs& (0+255),f,b
  4543  0002EC  377D               	rlcf	(___flmul@grs+1)& (0+255),f,b
  4544  0002EE  377E               	rlcf	(___flmul@grs+2)& (0+255),f,b
  4545  0002F0  377F               	rlcf	(___flmul@grs+3)& (0+255),f,b
  4546  0002F2  0786               	decf	___flmul@temp& (0+255),f,b
  4547  0002F4  A0D8               	btfss	status,0,c
  4548  0002F6  0787               	decf	(___flmul@temp+1)& (0+255),f,b
  4549  0002F8                     l2274:
  4550                           
  4551                           ; BSR set to: 0
  4552  0002F8  AF84               	btfss	(___flmul@prod+2)& (0+255),7,b
  4553  0002FA  EF81  F001         	goto	u1441
  4554  0002FE  EF83  F001         	goto	u1440
  4555  000302                     u1441:
  4556  000302  EF67  F001         	goto	l2268
  4557  000306                     u1440:
  4558  000306                     
  4559                           ; BSR set to: 0
  4560  000306  0E00               	movlw	0
  4561  000308  6F80               	movwf	___flmul@aexp& (0+255),b
  4562  00030A                     
  4563                           ; BSR set to: 0
  4564  00030A  AF7F               	btfss	(___flmul@grs+3)& (0+255),7,b
  4565  00030C  EF8A  F001         	goto	u1451
  4566  000310  EF8C  F001         	goto	u1450
  4567  000314                     u1451:
  4568  000314  EFB0  F001         	goto	l1077
  4569  000318                     u1450:
  4570  000318                     
  4571                           ; BSR set to: 0
  4572  000318  0EFF               	movlw	255
  4573  00031A  157C               	andwf	___flmul@grs& (0+255),w,b
  4574  00031C  6F77               	movwf	??___flmul& (0+255),b
  4575  00031E  0EFF               	movlw	255
  4576  000320  157D               	andwf	(___flmul@grs+1)& (0+255),w,b
  4577  000322  6F78               	movwf	(??___flmul+1)& (0+255),b
  4578  000324  0EFF               	movlw	255
  4579  000326  157E               	andwf	(___flmul@grs+2)& (0+255),w,b
  4580  000328  6F79               	movwf	(??___flmul+2)& (0+255),b
  4581  00032A  0E7F               	movlw	127
  4582  00032C  157F               	andwf	(___flmul@grs+3)& (0+255),w,b
  4583  00032E  6F7A               	movwf	(??___flmul+3)& (0+255),b
  4584  000330  5177               	movf	??___flmul& (0+255),w,b
  4585  000332  1178               	iorwf	(??___flmul+1)& (0+255),w,b
  4586  000334  1179               	iorwf	(??___flmul+2)& (0+255),w,b
  4587  000336  117A               	iorwf	(??___flmul+3)& (0+255),w,b
  4588  000338  B4D8               	btfsc	status,2,c
  4589  00033A  EFA1  F001         	goto	u1461
  4590  00033E  EFA3  F001         	goto	u1460
  4591  000342                     u1461:
  4592  000342  EFA7  F001         	goto	l1078
  4593  000346                     u1460:
  4594  000346                     l2282:
  4595                           
  4596                           ; BSR set to: 0
  4597  000346  0E01               	movlw	1
  4598  000348  6F80               	movwf	___flmul@aexp& (0+255),b
  4599  00034A  EFB0  F001         	goto	l1077
  4600  00034E                     l1078:
  4601                           
  4602                           ; BSR set to: 0
  4603  00034E  A182               	btfss	___flmul@prod& (0+255),0,b
  4604  000350  EFAC  F001         	goto	u1471
  4605  000354  EFAE  F001         	goto	u1470
  4606  000358                     u1471:
  4607  000358  EFB0  F001         	goto	l1077
  4608  00035C                     u1470:
  4609  00035C  EFA3  F001         	goto	l2282
  4610  000360                     l1077:
  4611                           
  4612                           ; BSR set to: 0
  4613  000360  5180               	movf	___flmul@aexp& (0+255),w,b
  4614  000362  B4D8               	btfsc	status,2,c
  4615  000364  EFB6  F001         	goto	u1481
  4616  000368  EFB8  F001         	goto	u1480
  4617  00036C                     u1481:
  4618  00036C  EFDC  F001         	goto	l2294
  4619  000370                     u1480:
  4620  000370                     
  4621                           ; BSR set to: 0
  4622  000370  0E01               	movlw	1
  4623  000372  2782               	addwf	___flmul@prod& (0+255),f,b
  4624  000374  0E00               	movlw	0
  4625  000376  2383               	addwfc	(___flmul@prod+1)& (0+255),f,b
  4626  000378  2384               	addwfc	(___flmul@prod+2)& (0+255),f,b
  4627  00037A  2385               	addwfc	(___flmul@prod+3)& (0+255),f,b
  4628  00037C                     
  4629                           ; BSR set to: 0
  4630  00037C  A185               	btfss	(___flmul@prod+3)& (0+255),0,b
  4631  00037E  EFC3  F001         	goto	u1491
  4632  000382  EFC5  F001         	goto	u1490
  4633  000386                     u1491:
  4634  000386  EFDC  F001         	goto	l2294
  4635  00038A                     u1490:
  4636  00038A                     
  4637                           ; BSR set to: 0
  4638  00038A  C082  F077         	movff	___flmul@prod,??___flmul
  4639  00038E  C083  F078         	movff	___flmul@prod+1,??___flmul+1
  4640  000392  C084  F079         	movff	___flmul@prod+2,??___flmul+2
  4641  000396  C085  F07A         	movff	___flmul@prod+3,??___flmul+3
  4642  00039A  357A               	rlcf	(??___flmul+3)& (0+255),w,b
  4643  00039C  337A               	rrcf	(??___flmul+3)& (0+255),f,b
  4644  00039E  3379               	rrcf	(??___flmul+2)& (0+255),f,b
  4645  0003A0  3378               	rrcf	(??___flmul+1)& (0+255),f,b
  4646  0003A2  3377               	rrcf	??___flmul& (0+255),f,b
  4647  0003A4  C077  F082         	movff	??___flmul,___flmul@prod
  4648  0003A8  C078  F083         	movff	??___flmul+1,___flmul@prod+1
  4649  0003AC  C079  F084         	movff	??___flmul+2,___flmul@prod+2
  4650  0003B0  C07A  F085         	movff	??___flmul+3,___flmul@prod+3
  4651  0003B4                     
  4652                           ; BSR set to: 0
  4653  0003B4  4B86               	infsnz	___flmul@temp& (0+255),f,b
  4654  0003B6  2B87               	incf	(___flmul@temp+1)& (0+255),f,b
  4655  0003B8                     l2294:
  4656                           
  4657                           ; BSR set to: 0
  4658  0003B8  BF87               	btfsc	(___flmul@temp+1)& (0+255),7,b
  4659  0003BA  EFE7  F001         	goto	u1501
  4660  0003BE  5187               	movf	(___flmul@temp+1)& (0+255),w,b
  4661  0003C0  E108               	bnz	u1500
  4662  0003C2  2986               	incf	___flmul@temp& (0+255),w,b
  4663  0003C4  A0D8               	btfss	status,0,c
  4664  0003C6  EFE7  F001         	goto	u1501
  4665  0003CA  EFE9  F001         	goto	u1500
  4666  0003CE                     u1501:
  4667  0003CE  EFF3  F001         	goto	l2298
  4668  0003D2                     u1500:
  4669  0003D2                     
  4670                           ; BSR set to: 0
  4671  0003D2  0E00               	movlw	0
  4672  0003D4  6F82               	movwf	___flmul@prod& (0+255),b
  4673  0003D6  0E00               	movlw	0
  4674  0003D8  6F83               	movwf	(___flmul@prod+1)& (0+255),b
  4675  0003DA  0E80               	movlw	128
  4676  0003DC  6F84               	movwf	(___flmul@prod+2)& (0+255),b
  4677  0003DE  0E7F               	movlw	127
  4678  0003E0  6F85               	movwf	(___flmul@prod+3)& (0+255),b
  4679  0003E2  EF21  F002         	goto	l2310
  4680  0003E6                     l2298:
  4681                           
  4682                           ; BSR set to: 0
  4683  0003E6  BF87               	btfsc	(___flmul@temp+1)& (0+255),7,b
  4684  0003E8  EF00  F002         	goto	u1510
  4685  0003EC  5187               	movf	(___flmul@temp+1)& (0+255),w,b
  4686  0003EE  E106               	bnz	u1511
  4687  0003F0  0586               	decf	___flmul@temp& (0+255),w,b
  4688  0003F2  B0D8               	btfsc	status,0,c
  4689  0003F4  EFFE  F001         	goto	u1511
  4690  0003F8  EF00  F002         	goto	u1510
  4691  0003FC                     u1511:
  4692  0003FC  EF0C  F002         	goto	l1085
  4693  000400                     u1510:
  4694  000400                     
  4695                           ; BSR set to: 0
  4696  000400  0E00               	movlw	0
  4697  000402  6F82               	movwf	___flmul@prod& (0+255),b
  4698  000404  0E00               	movlw	0
  4699  000406  6F83               	movwf	(___flmul@prod+1)& (0+255),b
  4700  000408  0E00               	movlw	0
  4701  00040A  6F84               	movwf	(___flmul@prod+2)& (0+255),b
  4702  00040C  0E00               	movlw	0
  4703  00040E  6F85               	movwf	(___flmul@prod+3)& (0+255),b
  4704  000410  0E00               	movlw	0
  4705  000412  6F7B               	movwf	___flmul@sign& (0+255),b
  4706  000414  EF21  F002         	goto	l2310
  4707  000418                     l1085:
  4708                           
  4709                           ; BSR set to: 0
  4710  000418  C086  F081         	movff	___flmul@temp,___flmul@bexp
  4711  00041C                     
  4712                           ; BSR set to: 0
  4713  00041C  0EFF               	movlw	255
  4714  00041E  1782               	andwf	___flmul@prod& (0+255),f,b
  4715  000420  0EFF               	movlw	255
  4716  000422  1783               	andwf	(___flmul@prod+1)& (0+255),f,b
  4717  000424  0E7F               	movlw	127
  4718  000426  1784               	andwf	(___flmul@prod+2)& (0+255),f,b
  4719  000428  0E00               	movlw	0
  4720  00042A  1785               	andwf	(___flmul@prod+3)& (0+255),f,b
  4721  00042C                     
  4722                           ; BSR set to: 0
  4723  00042C  A181               	btfss	___flmul@bexp& (0+255),0,b
  4724  00042E  EF1B  F002         	goto	u1521
  4725  000432  EF1D  F002         	goto	u1520
  4726  000436                     u1521:
  4727  000436  EF1E  F002         	goto	l2308
  4728  00043A                     u1520:
  4729  00043A                     
  4730                           ; BSR set to: 0
  4731  00043A  8F84               	bsf	(___flmul@prod+2)& (0+255),7,b
  4732  00043C                     l2308:
  4733                           
  4734                           ; BSR set to: 0
  4735  00043C  90D8               	bcf	status,0,c
  4736  00043E  3181               	rrcf	___flmul@bexp& (0+255),w,b
  4737  000440  6F85               	movwf	(___flmul@prod+3)& (0+255),b
  4738  000442                     l2310:
  4739                           
  4740                           ; BSR set to: 0
  4741  000442  517B               	movf	___flmul@sign& (0+255),w,b
  4742  000444  1385               	iorwf	(___flmul@prod+3)& (0+255),f,b
  4743  000446                     
  4744                           ; BSR set to: 0
  4745  000446  C082  F06F         	movff	___flmul@prod,?___flmul
  4746  00044A  C083  F070         	movff	___flmul@prod+1,?___flmul+1
  4747  00044E  C084  F071         	movff	___flmul@prod+2,?___flmul+2
  4748  000452  C085  F072         	movff	___flmul@prod+3,?___flmul+3
  4749  000456                     l1072:
  4750                           
  4751                           ; BSR set to: 0
  4752  000456  0012               	return		;funcret
  4753  000458                     __end_of___flmul:
  4754                           	opt callstack 0
  4755                           
  4756 ;; *************** function _motorYinit *****************
  4757 ;; Defined at:
  4758 ;;		line 26 in file "Gpio.c"
  4759 ;; Parameters:    Size  Location     Type
  4760 ;;		None
  4761 ;; Auto vars:     Size  Location     Type
  4762 ;;		None
  4763 ;; Return value:  Size  Location     Type
  4764 ;;                  1    wreg      void 
  4765 ;; Registers used:
  4766 ;;		None
  4767 ;; Tracked objects:
  4768 ;;		On entry : 0/0
  4769 ;;		On exit  : 0/0
  4770 ;;		Unchanged: 0/0
  4771 ;; Data sizes:     COMRAM   BANK0   BANK1   BANK2   BANK3   BANK4   BANK5   BANK6   BANK7
  4772 ;;      Params:         0       0       0       0       0       0       0       0       0
  4773 ;;      Locals:         0       0       0       0       0       0       0       0       0
  4774 ;;      Temps:          0       0       0       0       0       0       0       0       0
  4775 ;;      Totals:         0       0       0       0       0       0       0       0       0
  4776 ;;Total ram usage:        0 bytes
  4777 ;; Hardware stack levels used:    1
  4778 ;; Hardware stack levels required when called:    4
  4779 ;; This function calls:
  4780 ;;		Nothing
  4781 ;; This function is called by:
  4782 ;;		_main
  4783 ;; This function uses a non-reentrant model
  4784 ;;
  4785                           
  4786                           	psect	text15
  4787  001E02                     __ptext15:
  4788                           	opt callstack 0
  4789  001E02                     _motorYinit:
  4790                           	opt callstack 26
  4791  001E02  9095               	bcf	149,0,c	;volatile
  4792  001E04  9295               	bcf	149,1,c	;volatile
  4793  001E06  9294               	bcf	148,1,c	;volatile
  4794  001E08  908C               	bcf	140,0,c	;volatile
  4795  001E0A  928C               	bcf	140,1,c	;volatile
  4796  001E0C  928B               	bcf	139,1,c	;volatile
  4797  001E0E  0012               	return		;funcret
  4798  001E10                     __end_of_motorYinit:
  4799                           	opt callstack 0
  4800                           
  4801 ;; *************** function _motorXinit *****************
  4802 ;; Defined at:
  4803 ;;		line 16 in file "Gpio.c"
  4804 ;; Parameters:    Size  Location     Type
  4805 ;;		None
  4806 ;; Auto vars:     Size  Location     Type
  4807 ;;		None
  4808 ;; Return value:  Size  Location     Type
  4809 ;;                  1    wreg      void 
  4810 ;; Registers used:
  4811 ;;		None
  4812 ;; Tracked objects:
  4813 ;;		On entry : 0/0
  4814 ;;		On exit  : 0/0
  4815 ;;		Unchanged: 0/0
  4816 ;; Data sizes:     COMRAM   BANK0   BANK1   BANK2   BANK3   BANK4   BANK5   BANK6   BANK7
  4817 ;;      Params:         0       0       0       0       0       0       0       0       0
  4818 ;;      Locals:         0       0       0       0       0       0       0       0       0
  4819 ;;      Temps:          0       0       0       0       0       0       0       0       0
  4820 ;;      Totals:         0       0       0       0       0       0       0       0       0
  4821 ;;Total ram usage:        0 bytes
  4822 ;; Hardware stack levels used:    1
  4823 ;; Hardware stack levels required when called:    4
  4824 ;; This function calls:
  4825 ;;		Nothing
  4826 ;; This function is called by:
  4827 ;;		_main
  4828 ;; This function uses a non-reentrant model
  4829 ;;
  4830                           
  4831                           	psect	text16
  4832  001E10                     __ptext16:
  4833                           	opt callstack 0
  4834  001E10                     _motorXinit:
  4835                           	opt callstack 26
  4836  001E10                     
  4837                           ;Gpio.c: 18: 
  4838  001E10  9495               	bcf	149,2,c	;volatile
  4839                           
  4840                           ;Gpio.c: 19: 
  4841  001E12  9695               	bcf	149,3,c	;volatile
  4842                           
  4843                           ;Gpio.c: 20: 
  4844  001E14  9494               	bcf	148,2,c	;volatile
  4845                           
  4846                           ;Gpio.c: 21: 
  4847  001E16  948C               	bcf	140,2,c	;volatile
  4848                           
  4849                           ;Gpio.c: 22: 
  4850  001E18  968C               	bcf	140,3,c	;volatile
  4851                           
  4852                           ;Gpio.c: 23:     TRISDbits.RD0 = 0;
  4853  001E1A  948B               	bcf	139,2,c	;volatile
  4854  001E1C  0012               	return		;funcret
  4855  001E1E                     __end_of_motorXinit:
  4856                           	opt callstack 0
  4857                           
  4858 ;; *************** function _modificarCoordenada *****************
  4859 ;; Defined at:
  4860 ;;		line 81 in file "FuncionesMenu.c"
  4861 ;; Parameters:    Size  Location     Type
  4862 ;;		None
  4863 ;; Auto vars:     Size  Location     Type
  4864 ;;  modCoord        1   25[BANK0 ] unsigned char 
  4865 ;;  coordenadaNu    1   24[BANK0 ] unsigned char 
  4866 ;; Return value:  Size  Location     Type
  4867 ;;                  1    wreg      void 
  4868 ;; Registers used:
  4869 ;;		wreg, fsr2l, fsr2h, status,2, status,0, tblptrl, tblptrh, tblptru, prodl, prodh, cstack
  4870 ;; Tracked objects:
  4871 ;;		On entry : 0/0
  4872 ;;		On exit  : 0/0
  4873 ;;		Unchanged: 0/0
  4874 ;; Data sizes:     COMRAM   BANK0   BANK1   BANK2   BANK3   BANK4   BANK5   BANK6   BANK7
  4875 ;;      Params:         0       0       0       0       0       0       0       0       0
  4876 ;;      Locals:         0       2       0       0       0       0       0       0       0
  4877 ;;      Temps:          0       7       0       0       0       0       0       0       0
  4878 ;;      Totals:         0       9       0       0       0       0       0       0       0
  4879 ;;Total ram usage:        9 bytes
  4880 ;; Hardware stack levels used:    1
  4881 ;; Hardware stack levels required when called:    8
  4882 ;; This function calls:
  4883 ;;		_imprimirCoordenadas
  4884 ;;		_introducirCoordNueva
  4885 ;;		_printf
  4886 ;;		_receiveNum
  4887 ;;		_send
  4888 ;; This function is called by:
  4889 ;;		_main
  4890 ;; This function uses a non-reentrant model
  4891 ;;
  4892                           
  4893                           	psect	text17
  4894  0015FA                     __ptext17:
  4895                           	opt callstack 0
  4896  0015FA                     _modificarCoordenada:
  4897                           	opt callstack 22
  4898  0015FA                     
  4899                           ;FuncionesMenu.c: 82:     habilitarModCoord = 1;
  4900  0015FA  0E01               	movlw	1
  4901  0015FC  0100               	movlb	0	; () banked
  4902  0015FE  6FF7               	movwf	_habilitarModCoord& (0+255),b
  4903                           
  4904                           ;FuncionesMenu.c: 83:     uint8_t modCoord, coordenadaNuevaCopia;;FuncionesMenu.c: 84:  
      +                             habilitarModCoord = 1;
  4905  001600  0E01               	movlw	1
  4906  001602  6FF7               	movwf	_habilitarModCoord& (0+255),b
  4907  001604                     
  4908                           ; BSR set to: 0
  4909                           ;FuncionesMenu.c: 85:     imprimirCoordenadas();
  4910  001604  ECDC  F008         	call	_imprimirCoordenadas	;wreg free
  4911  001608                     
  4912                           ;FuncionesMenu.c: 86:     printf("Cual de estas coordenadas quieres modificar?\n");
  4913  001608  0EE0               	movlw	low STR_14
  4914  00160A  0100               	movlb	0	; () banked
  4915  00160C  6F62               	movwf	printf@PointString& (0+255),b
  4916  00160E  0E7D               	movlw	high STR_14
  4917  001610  6F63               	movwf	(printf@PointString+1)& (0+255),b
  4918  001612  ECE2  F00D         	call	_printf	;wreg free
  4919  001616                     
  4920                           ;FuncionesMenu.c: 87:     modCoord = receiveNum();
  4921  001616  EC74  F00D         	call	_receiveNum	;wreg free
  4922  00161A  0100               	movlb	0	; () banked
  4923  00161C  6F79               	movwf	modificarCoordenada@modCoord& (0+255),b
  4924                           
  4925                           ;FuncionesMenu.c: 88:     while ((modCoord - 48) >= coordenadaNueva) {
  4926  00161E  EF22  F00B         	goto	l2866
  4927  001622                     l2864:
  4928                           
  4929                           ; BSR set to: 0
  4930                           ;FuncionesMenu.c: 89:         printf("Error, estas queriendo modificar una coordenada qu
      +                          e aun no agregas\n");
  4931  001622  0EED               	movlw	low STR_15
  4932  001624  6F62               	movwf	printf@PointString& (0+255),b
  4933  001626  0E7B               	movlw	high STR_15
  4934  001628  6F63               	movwf	(printf@PointString+1)& (0+255),b
  4935  00162A  ECE2  F00D         	call	_printf	;wreg free
  4936                           
  4937                           ;FuncionesMenu.c: 90:         printf("Cual coordenada quieres modificar, elige valores v
      +                          alidos?\n");
  4938  00162E  0E31               	movlw	low STR_16
  4939  001630  0100               	movlb	0	; () banked
  4940  001632  6F62               	movwf	printf@PointString& (0+255),b
  4941  001634  0E7C               	movlw	high STR_16
  4942  001636  6F63               	movwf	(printf@PointString+1)& (0+255),b
  4943  001638  ECE2  F00D         	call	_printf	;wreg free
  4944                           
  4945                           ;FuncionesMenu.c: 91:         modCoord = receiveNum();
  4946  00163C  EC74  F00D         	call	_receiveNum	;wreg free
  4947  001640  0100               	movlb	0	; () banked
  4948  001642  6F79               	movwf	modificarCoordenada@modCoord& (0+255),b
  4949  001644                     l2866:
  4950                           
  4951                           ; BSR set to: 0
  4952                           ;FuncionesMenu.c: 88:     while ((modCoord - 48) >= coordenadaNueva) {
  4953  001644  51F8               	movf	_coordenadaNueva& (0+255),w,b
  4954  001646  6F71               	movwf	??_modificarCoordenada& (0+255),b
  4955  001648  6B72               	clrf	(??_modificarCoordenada+1)& (0+255),b
  4956  00164A  0ED0               	movlw	208
  4957  00164C  6F73               	movwf	(??_modificarCoordenada+2)& (0+255),b
  4958  00164E  0EFF               	movlw	255
  4959  001650  6F74               	movwf	(??_modificarCoordenada+3)& (0+255),b
  4960  001652  5179               	movf	modificarCoordenada@modCoord& (0+255),w,b
  4961  001654  6F75               	movwf	(??_modificarCoordenada+4)& (0+255),b
  4962  001656  6B76               	clrf	(??_modificarCoordenada+5)& (0+255),b
  4963  001658  5173               	movf	(??_modificarCoordenada+2)& (0+255),w,b
  4964  00165A  2775               	addwf	(??_modificarCoordenada+4)& (0+255),f,b
  4965  00165C  5174               	movf	(??_modificarCoordenada+3)& (0+255),w,b
  4966  00165E  2376               	addwfc	(??_modificarCoordenada+5)& (0+255),f,b
  4967  001660  5171               	movf	??_modificarCoordenada& (0+255),w,b
  4968  001662  5D75               	subwf	(??_modificarCoordenada+4)& (0+255),w,b
  4969  001664  5176               	movf	(??_modificarCoordenada+5)& (0+255),w,b
  4970  001666  0A80               	xorlw	128
  4971  001668  6F77               	movwf	(??_modificarCoordenada+6)& (0+255),b
  4972  00166A  5172               	movf	(??_modificarCoordenada+1)& (0+255),w,b
  4973  00166C  0A80               	xorlw	128
  4974  00166E  5977               	subwfb	(??_modificarCoordenada+6)& (0+255),w,b
  4975  001670  B0D8               	btfsc	status,0,c
  4976  001672  EF3D  F00B         	goto	u2181
  4977  001676  EF3F  F00B         	goto	u2180
  4978  00167A                     u2181:
  4979  00167A  EF11  F00B         	goto	l2864
  4980  00167E                     u2180:
  4981  00167E                     
  4982                           ; BSR set to: 0
  4983                           ;FuncionesMenu.c: 93:     printf("Vas a modificar la coordenada ");
  4984  00167E  0E15               	movlw	low STR_17
  4985  001680  6F62               	movwf	printf@PointString& (0+255),b
  4986  001682  0E7F               	movlw	high STR_17
  4987  001684  6F63               	movwf	(printf@PointString+1)& (0+255),b
  4988  001686  ECE2  F00D         	call	_printf	;wreg free
  4989  00168A                     
  4990                           ;FuncionesMenu.c: 94:     send(modCoord);
  4991  00168A  0100               	movlb	0	; () banked
  4992  00168C  5179               	movf	modificarCoordenada@modCoord& (0+255),w,b
  4993  00168E  ECDF  F00E         	call	_send
  4994  001692                     
  4995                           ;FuncionesMenu.c: 95:     send('\n');
  4996  001692  0E0A               	movlw	10
  4997  001694  ECDF  F00E         	call	_send
  4998  001698                     
  4999                           ;FuncionesMenu.c: 96:     modCoord = modCoord - 48;
  5000  001698  0100               	movlb	0	; () banked
  5001  00169A  5179               	movf	modificarCoordenada@modCoord& (0+255),w,b
  5002  00169C  0FD0               	addlw	208
  5003  00169E  6F79               	movwf	modificarCoordenada@modCoord& (0+255),b
  5004  0016A0                     
  5005                           ; BSR set to: 0
  5006                           ;FuncionesMenu.c: 97:     coordenadaNuevaCopia = coordenadaNueva;
  5007  0016A0  C0F8  F078         	movff	_coordenadaNueva,modificarCoordenada@coordenadaNuevaCopia
  5008  0016A4                     
  5009                           ; BSR set to: 0
  5010                           ;FuncionesMenu.c: 98:     coordenadaNueva = modCoord;
  5011  0016A4  C079  F0F8         	movff	modificarCoordenada@modCoord,_coordenadaNueva
  5012  0016A8                     
  5013                           ; BSR set to: 0
  5014                           ;FuncionesMenu.c: 99:     introducirCoordNueva();
  5015  0016A8  EC41  F004         	call	_introducirCoordNueva	;wreg free
  5016  0016AC                     
  5017                           ;FuncionesMenu.c: 100:     coordenadaNueva = coordenadaNuevaCopia;
  5018  0016AC  C078  F0F8         	movff	modificarCoordenada@coordenadaNuevaCopia,_coordenadaNueva
  5019  0016B0                     
  5020                           ;FuncionesMenu.c: 101:     habilitarModCoord = 0;
  5021  0016B0  0E00               	movlw	0
  5022  0016B2  0100               	movlb	0	; () banked
  5023  0016B4  6FF7               	movwf	_habilitarModCoord& (0+255),b
  5024  0016B6                     
  5025                           ; BSR set to: 0
  5026  0016B6  0012               	return		;funcret
  5027  0016B8                     __end_of_modificarCoordenada:
  5028                           	opt callstack 0
  5029                           
  5030 ;; *************** function _introducirCoordNueva *****************
  5031 ;; Defined at:
  5032 ;;		line 8 in file "FuncionesMenu.c"
  5033 ;; Parameters:    Size  Location     Type
  5034 ;;		None
  5035 ;; Auto vars:     Size  Location     Type
  5036 ;;  validarCoord    2   15[BANK0 ] unsigned short 
  5037 ;;  validarCoord    2   13[BANK0 ] unsigned short 
  5038 ;; Return value:  Size  Location     Type
  5039 ;;                  1    wreg      void 
  5040 ;; Registers used:
  5041 ;;		wreg, fsr2l, fsr2h, status,2, status,0, tblptrl, tblptrh, tblptru, prodl, prodh, cstack
  5042 ;; Tracked objects:
  5043 ;;		On entry : 0/0
  5044 ;;		On exit  : 0/0
  5045 ;;		Unchanged: 0/0
  5046 ;; Data sizes:     COMRAM   BANK0   BANK1   BANK2   BANK3   BANK4   BANK5   BANK6   BANK7
  5047 ;;      Params:         0       0       0       0       0       0       0       0       0
  5048 ;;      Locals:         0       4       0       0       0       0       0       0       0
  5049 ;;      Temps:          0       5       0       0       0       0       0       0       0
  5050 ;;      Totals:         0       9       0       0       0       0       0       0       0
  5051 ;;Total ram usage:        9 bytes
  5052 ;; Hardware stack levels used:    1
  5053 ;; Hardware stack levels required when called:    7
  5054 ;; This function calls:
  5055 ;;		_printf
  5056 ;;		_receiveNum
  5057 ;;		_send
  5058 ;; This function is called by:
  5059 ;;		_modificarCoordenada
  5060 ;;		_main
  5061 ;; This function uses a non-reentrant model
  5062 ;;
  5063                           
  5064                           	psect	text18
  5065  000882                     __ptext18:
  5066                           	opt callstack 0
  5067  000882                     _introducirCoordNueva:
  5068                           	opt callstack 22
  5069  000882                     
  5070                           ;FuncionesMenu.c: 10:     uint16_t validarCoordY = 0;
  5071  000882  0E00               	movlw	0
  5072  000884  0100               	movlb	0	; () banked
  5073  000886  6F70               	movwf	(introducirCoordNueva@validarCoordY+1)& (0+255),b
  5074  000888  0E00               	movlw	0
  5075  00088A  6F6F               	movwf	introducirCoordNueva@validarCoordY& (0+255),b
  5076  00088C                     
  5077                           ; BSR set to: 0
  5078                           ;FuncionesMenu.c: 11:     if ((coordenadaNueva < 10) || (habilitarModCoord == 1)) {
  5079  00088C  0E09               	movlw	9
  5080  00088E  65F8               	cpfsgt	_coordenadaNueva& (0+255),b
  5081  000890  EF4C  F004         	goto	u1721
  5082  000894  EF4E  F004         	goto	u1720
  5083  000898                     u1721:
  5084  000898  EF56  F004         	goto	l2438
  5085  00089C                     u1720:
  5086  00089C                     
  5087                           ; BSR set to: 0
  5088  00089C  05F7               	decf	_habilitarModCoord& (0+255),w,b
  5089  00089E  A4D8               	btfss	status,2,c
  5090  0008A0  EF54  F004         	goto	u1731
  5091  0008A4  EF56  F004         	goto	u1730
  5092  0008A8                     u1731:
  5093  0008A8  EFC7  F005         	goto	l2500
  5094  0008AC                     u1730:
  5095  0008AC                     l2438:
  5096                           
  5097                           ;FuncionesMenu.c: 13:         printf("Introduce en el siguiente orden las variables a us
      +                          ar (no uses las comas): coordX,coordY,# de veces a presionar Z");
  5098  0008AC  0E31               	movlw	low STR_2
  5099  0008AE  0100               	movlb	0	; () banked
  5100  0008B0  6F62               	movwf	printf@PointString& (0+255),b
  5101  0008B2  0E7B               	movlw	high STR_2
  5102  0008B4  6F63               	movwf	(printf@PointString+1)& (0+255),b
  5103  0008B6  ECE2  F00D         	call	_printf	;wreg free
  5104  0008BA                     
  5105                           ;FuncionesMenu.c: 14:         coordXCentenas[coordenadaNueva] = receiveNum();
  5106  0008BA  0EE0               	movlw	low _coordXCentenas
  5107  0008BC  0100               	movlb	0	; () banked
  5108  0008BE  25F8               	addwf	_coordenadaNueva& (0+255),w,b
  5109  0008C0  6ED9               	movwf	fsr2l,c
  5110  0008C2  6ADA               	clrf	fsr2h,c
  5111  0008C4  0E00               	movlw	high _coordXCentenas
  5112  0008C6  22DA               	addwfc	fsr2h,f,c
  5113  0008C8  EC74  F00D         	call	_receiveNum	;wreg free
  5114  0008CC  6EDF               	movwf	indf2,c
  5115  0008CE                     
  5116                           ;FuncionesMenu.c: 15:         coordXDecenas[coordenadaNueva] = receiveNum();
  5117  0008CE  0ED6               	movlw	low _coordXDecenas
  5118  0008D0  0100               	movlb	0	; () banked
  5119  0008D2  25F8               	addwf	_coordenadaNueva& (0+255),w,b
  5120  0008D4  6ED9               	movwf	fsr2l,c
  5121  0008D6  6ADA               	clrf	fsr2h,c
  5122  0008D8  0E00               	movlw	high _coordXDecenas
  5123  0008DA  22DA               	addwfc	fsr2h,f,c
  5124  0008DC  EC74  F00D         	call	_receiveNum	;wreg free
  5125  0008E0  6EDF               	movwf	indf2,c
  5126  0008E2                     
  5127                           ;FuncionesMenu.c: 16:         coordXUnidades[coordenadaNueva] = receiveNum();
  5128  0008E2  0ECC               	movlw	low _coordXUnidades
  5129  0008E4  0100               	movlb	0	; () banked
  5130  0008E6  25F8               	addwf	_coordenadaNueva& (0+255),w,b
  5131  0008E8  6ED9               	movwf	fsr2l,c
  5132  0008EA  6ADA               	clrf	fsr2h,c
  5133  0008EC  0E00               	movlw	high _coordXUnidades
  5134  0008EE  22DA               	addwfc	fsr2h,f,c
  5135  0008F0  EC74  F00D         	call	_receiveNum	;wreg free
  5136  0008F4  6EDF               	movwf	indf2,c
  5137  0008F6                     
  5138                           ;FuncionesMenu.c: 17:         printf("Recibi coordX");
  5139  0008F6  0E96               	movlw	low STR_3
  5140  0008F8  0100               	movlb	0	; () banked
  5141  0008FA  6F62               	movwf	printf@PointString& (0+255),b
  5142  0008FC  0E7F               	movlw	high STR_3
  5143  0008FE  6F63               	movwf	(printf@PointString+1)& (0+255),b
  5144  000900  ECE2  F00D         	call	_printf	;wreg free
  5145                           
  5146                           ;FuncionesMenu.c: 18:         coordYCentenas[coordenadaNueva] = receiveNum();
  5147  000904  0EC2               	movlw	low _coordYCentenas
  5148  000906  0100               	movlb	0	; () banked
  5149  000908  25F8               	addwf	_coordenadaNueva& (0+255),w,b
  5150  00090A  6ED9               	movwf	fsr2l,c
  5151  00090C  6ADA               	clrf	fsr2h,c
  5152  00090E  0E00               	movlw	high _coordYCentenas
  5153  000910  22DA               	addwfc	fsr2h,f,c
  5154  000912  EC74  F00D         	call	_receiveNum	;wreg free
  5155  000916  6EDF               	movwf	indf2,c
  5156                           
  5157                           ;FuncionesMenu.c: 19:         coordYDecenas[coordenadaNueva] = receiveNum();
  5158  000918  0EB8               	movlw	low _coordYDecenas
  5159  00091A  0100               	movlb	0	; () banked
  5160  00091C  25F8               	addwf	_coordenadaNueva& (0+255),w,b
  5161  00091E  6ED9               	movwf	fsr2l,c
  5162  000920  6ADA               	clrf	fsr2h,c
  5163  000922  0E00               	movlw	high _coordYDecenas
  5164  000924  22DA               	addwfc	fsr2h,f,c
  5165  000926  EC74  F00D         	call	_receiveNum	;wreg free
  5166  00092A  6EDF               	movwf	indf2,c
  5167                           
  5168                           ;FuncionesMenu.c: 20:         coordYUnidades[coordenadaNueva] = receiveNum();
  5169  00092C  0EAE               	movlw	low _coordYUnidades
  5170  00092E  0100               	movlb	0	; () banked
  5171  000930  25F8               	addwf	_coordenadaNueva& (0+255),w,b
  5172  000932  6ED9               	movwf	fsr2l,c
  5173  000934  6ADA               	clrf	fsr2h,c
  5174  000936  0E00               	movlw	high _coordYUnidades
  5175  000938  22DA               	addwfc	fsr2h,f,c
  5176  00093A  EC74  F00D         	call	_receiveNum	;wreg free
  5177  00093E  6EDF               	movwf	indf2,c
  5178  000940                     
  5179                           ;FuncionesMenu.c: 21:         printf("Recibi coordY");
  5180  000940  0EA4               	movlw	low STR_4
  5181  000942  0100               	movlb	0	; () banked
  5182  000944  6F62               	movwf	printf@PointString& (0+255),b
  5183  000946  0E7F               	movlw	high STR_4
  5184  000948  6F63               	movwf	(printf@PointString+1)& (0+255),b
  5185  00094A  ECE2  F00D         	call	_printf	;wreg free
  5186  00094E                     
  5187                           ;FuncionesMenu.c: 22:         presionarZCentenas[coordenadaNueva] = receiveNum();
  5188  00094E  0E4B               	movlw	low _presionarZCentenas
  5189  000950  0100               	movlb	0	; () banked
  5190  000952  25F8               	addwf	_coordenadaNueva& (0+255),w,b
  5191  000954  6ED9               	movwf	fsr2l,c
  5192  000956  6ADA               	clrf	fsr2h,c
  5193  000958  0E00               	movlw	high _presionarZCentenas
  5194  00095A  22DA               	addwfc	fsr2h,f,c
  5195  00095C  EC74  F00D         	call	_receiveNum	;wreg free
  5196  000960  6EDF               	movwf	indf2,c
  5197  000962                     
  5198                           ;FuncionesMenu.c: 23:         presionarZDecenas[coordenadaNueva] = receiveNum();
  5199  000962  0E41               	movlw	low _presionarZDecenas
  5200  000964  0100               	movlb	0	; () banked
  5201  000966  25F8               	addwf	_coordenadaNueva& (0+255),w,b
  5202  000968  6ED9               	movwf	fsr2l,c
  5203  00096A  6ADA               	clrf	fsr2h,c
  5204  00096C  0E00               	movlw	high _presionarZDecenas
  5205  00096E  22DA               	addwfc	fsr2h,f,c
  5206  000970  EC74  F00D         	call	_receiveNum	;wreg free
  5207  000974  6EDF               	movwf	indf2,c
  5208  000976                     
  5209                           ;FuncionesMenu.c: 24:         presionarZUnidades[coordenadaNueva] = receiveNum();
  5210  000976  0E00               	movlw	low _presionarZUnidades
  5211  000978  0100               	movlb	0	; () banked
  5212  00097A  25F8               	addwf	_coordenadaNueva& (0+255),w,b
  5213  00097C  6ED9               	movwf	fsr2l,c
  5214  00097E  6ADA               	clrf	fsr2h,c
  5215  000980  0E01               	movlw	high _presionarZUnidades
  5216  000982  22DA               	addwfc	fsr2h,f,c
  5217  000984  EC74  F00D         	call	_receiveNum	;wreg free
  5218  000988  6EDF               	movwf	indf2,c
  5219                           
  5220                           ;FuncionesMenu.c: 25:         printf("Recibi # de veces a presionar Z\n");
  5221  00098A  0EB3               	movlw	low STR_5
  5222  00098C  0100               	movlb	0	; () banked
  5223  00098E  6F62               	movwf	printf@PointString& (0+255),b
  5224  000990  0E7E               	movlw	high STR_5
  5225  000992  6F63               	movwf	(printf@PointString+1)& (0+255),b
  5226  000994  ECE2  F00D         	call	_printf	;wreg free
  5227  000998                     
  5228                           ;FuncionesMenu.c: 26:         validarCoordX = ((coordXCentenas[coordenadaNueva] - 48)*10
      +                          0)+((coordXDecenas[coordenadaNueva] - 48)*10)+(coordXUnidades[coordenadaNueva] - 48);
  5229  000998  0EE0               	movlw	low _coordXCentenas
  5230  00099A  0100               	movlb	0	; () banked
  5231  00099C  25F8               	addwf	_coordenadaNueva& (0+255),w,b
  5232  00099E  6ED9               	movwf	fsr2l,c
  5233  0009A0  6ADA               	clrf	fsr2h,c
  5234  0009A2  0E00               	movlw	high _coordXCentenas
  5235  0009A4  22DA               	addwfc	fsr2h,f,c
  5236  0009A6  50DF               	movf	indf2,w,c
  5237  0009A8  6F68               	movwf	??_introducirCoordNueva& (0+255),b
  5238  0009AA  5168               	movf	??_introducirCoordNueva& (0+255),w,b
  5239  0009AC  0D64               	mullw	100
  5240  0009AE  CFF3 F069          	movff	prodl,??_introducirCoordNueva+1
  5241  0009B2  CFF4 F06A          	movff	prodh,??_introducirCoordNueva+2
  5242  0009B6  0ED6               	movlw	low _coordXDecenas
  5243  0009B8  25F8               	addwf	_coordenadaNueva& (0+255),w,b
  5244  0009BA  6ED9               	movwf	fsr2l,c
  5245  0009BC  6ADA               	clrf	fsr2h,c
  5246  0009BE  0E00               	movlw	high _coordXDecenas
  5247  0009C0  22DA               	addwfc	fsr2h,f,c
  5248  0009C2  50DF               	movf	indf2,w,c
  5249  0009C4  6F6B               	movwf	(??_introducirCoordNueva+3)& (0+255),b
  5250  0009C6  516B               	movf	(??_introducirCoordNueva+3)& (0+255),w,b
  5251  0009C8  0D0A               	mullw	10
  5252  0009CA  50F3               	movf	243,w,c
  5253  0009CC  2769               	addwf	(??_introducirCoordNueva+1)& (0+255),f,b
  5254  0009CE  50F4               	movf	244,w,c
  5255  0009D0  236A               	addwfc	(??_introducirCoordNueva+2)& (0+255),f,b
  5256  0009D2  0ECC               	movlw	low _coordXUnidades
  5257  0009D4  25F8               	addwf	_coordenadaNueva& (0+255),w,b
  5258  0009D6  6ED9               	movwf	fsr2l,c
  5259  0009D8  6ADA               	clrf	fsr2h,c
  5260  0009DA  0E00               	movlw	high _coordXUnidades
  5261  0009DC  22DA               	addwfc	fsr2h,f,c
  5262  0009DE  50DF               	movf	indf2,w,c
  5263  0009E0  6F6C               	movwf	(??_introducirCoordNueva+4)& (0+255),b
  5264  0009E2  516C               	movf	(??_introducirCoordNueva+4)& (0+255),w,b
  5265  0009E4  2769               	addwf	(??_introducirCoordNueva+1)& (0+255),f,b
  5266  0009E6  0E00               	movlw	0
  5267  0009E8  236A               	addwfc	(??_introducirCoordNueva+2)& (0+255),f,b
  5268  0009EA  0E30               	movlw	48
  5269  0009EC  2569               	addwf	(??_introducirCoordNueva+1)& (0+255),w,b
  5270  0009EE  6F6D               	movwf	introducirCoordNueva@validarCoordX& (0+255),b
  5271  0009F0  0EEB               	movlw	235
  5272  0009F2  216A               	addwfc	(??_introducirCoordNueva+2)& (0+255),w,b
  5273  0009F4  6F6E               	movwf	(introducirCoordNueva@validarCoordX+1)& (0+255),b
  5274  0009F6                     
  5275                           ; BSR set to: 0
  5276                           ;FuncionesMenu.c: 27:         validarCoordY = ((coordYCentenas[coordenadaNueva] - 48)*10
      +                          0)+((coordYDecenas[coordenadaNueva] - 48)*10)+(coordYUnidades[coordenadaNueva] - 48);
  5277  0009F6  0EC2               	movlw	low _coordYCentenas
  5278  0009F8  25F8               	addwf	_coordenadaNueva& (0+255),w,b
  5279  0009FA  6ED9               	movwf	fsr2l,c
  5280  0009FC  6ADA               	clrf	fsr2h,c
  5281  0009FE  0E00               	movlw	high _coordYCentenas
  5282  000A00  22DA               	addwfc	fsr2h,f,c
  5283  000A02  50DF               	movf	indf2,w,c
  5284  000A04  6F68               	movwf	??_introducirCoordNueva& (0+255),b
  5285  000A06  5168               	movf	??_introducirCoordNueva& (0+255),w,b
  5286  000A08  0D64               	mullw	100
  5287  000A0A  CFF3 F069          	movff	prodl,??_introducirCoordNueva+1
  5288  000A0E  CFF4 F06A          	movff	prodh,??_introducirCoordNueva+2
  5289  000A12  0EB8               	movlw	low _coordYDecenas
  5290  000A14  25F8               	addwf	_coordenadaNueva& (0+255),w,b
  5291  000A16  6ED9               	movwf	fsr2l,c
  5292  000A18  6ADA               	clrf	fsr2h,c
  5293  000A1A  0E00               	movlw	high _coordYDecenas
  5294  000A1C  22DA               	addwfc	fsr2h,f,c
  5295  000A1E  50DF               	movf	indf2,w,c
  5296  000A20  6F6B               	movwf	(??_introducirCoordNueva+3)& (0+255),b
  5297  000A22  516B               	movf	(??_introducirCoordNueva+3)& (0+255),w,b
  5298  000A24  0D0A               	mullw	10
  5299  000A26  50F3               	movf	243,w,c
  5300  000A28  2769               	addwf	(??_introducirCoordNueva+1)& (0+255),f,b
  5301  000A2A  50F4               	movf	244,w,c
  5302  000A2C  236A               	addwfc	(??_introducirCoordNueva+2)& (0+255),f,b
  5303  000A2E  0EAE               	movlw	low _coordYUnidades
  5304  000A30  25F8               	addwf	_coordenadaNueva& (0+255),w,b
  5305  000A32  6ED9               	movwf	fsr2l,c
  5306  000A34  6ADA               	clrf	fsr2h,c
  5307  000A36  0E00               	movlw	high _coordYUnidades
  5308  000A38  22DA               	addwfc	fsr2h,f,c
  5309  000A3A  50DF               	movf	indf2,w,c
  5310  000A3C  6F6C               	movwf	(??_introducirCoordNueva+4)& (0+255),b
  5311  000A3E  516C               	movf	(??_introducirCoordNueva+4)& (0+255),w,b
  5312  000A40  2769               	addwf	(??_introducirCoordNueva+1)& (0+255),f,b
  5313  000A42  0E00               	movlw	0
  5314  000A44  236A               	addwfc	(??_introducirCoordNueva+2)& (0+255),f,b
  5315  000A46  0E30               	movlw	48
  5316  000A48  2569               	addwf	(??_introducirCoordNueva+1)& (0+255),w,b
  5317  000A4A  6F6F               	movwf	introducirCoordNueva@validarCoordY& (0+255),b
  5318  000A4C  0EEB               	movlw	235
  5319  000A4E  216A               	addwfc	(??_introducirCoordNueva+2)& (0+255),w,b
  5320  000A50  6F70               	movwf	(introducirCoordNueva@validarCoordY+1)& (0+255),b
  5321  000A52                     
  5322                           ; BSR set to: 0
  5323                           ;FuncionesMenu.c: 28:         if ((validarCoordX > 300) || (validarCoordY > 300)) {
  5324  000A52  0E2D               	movlw	45
  5325  000A54  5D6D               	subwf	introducirCoordNueva@validarCoordX& (0+255),w,b
  5326  000A56  0E01               	movlw	1
  5327  000A58  596E               	subwfb	(introducirCoordNueva@validarCoordX+1)& (0+255),w,b
  5328  000A5A  B0D8               	btfsc	status,0,c
  5329  000A5C  EF32  F005         	goto	u1741
  5330  000A60  EF34  F005         	goto	u1740
  5331  000A64                     u1741:
  5332  000A64  EF3F  F005         	goto	l2464
  5333  000A68                     u1740:
  5334  000A68                     
  5335                           ; BSR set to: 0
  5336  000A68  0E2D               	movlw	45
  5337  000A6A  5D6F               	subwf	introducirCoordNueva@validarCoordY& (0+255),w,b
  5338  000A6C  0E01               	movlw	1
  5339  000A6E  5970               	subwfb	(introducirCoordNueva@validarCoordY+1)& (0+255),w,b
  5340  000A70  A0D8               	btfss	status,0,c
  5341  000A72  EF3D  F005         	goto	u1751
  5342  000A76  EF3F  F005         	goto	u1750
  5343  000A7A                     u1751:
  5344  000A7A  EF47  F005         	goto	l2466
  5345  000A7E                     u1750:
  5346  000A7E                     l2464:
  5347                           
  5348                           ; BSR set to: 0
  5349                           ;FuncionesMenu.c: 29:             printf("Metiste una coordenada invalida\n");
  5350  000A7E  0ED4               	movlw	low STR_6
  5351  000A80  6F62               	movwf	printf@PointString& (0+255),b
  5352  000A82  0E7E               	movlw	high STR_6
  5353  000A84  6F63               	movwf	(printf@PointString+1)& (0+255),b
  5354  000A86  ECE2  F00D         	call	_printf	;wreg free
  5355                           
  5356                           ;FuncionesMenu.c: 30:             goto corregirCoord;
  5357  000A8A  EF56  F004         	goto	l2438
  5358  000A8E                     l2466:
  5359                           
  5360                           ; BSR set to: 0
  5361                           ;FuncionesMenu.c: 32:         printf("Coordenada recibida, lo que recibimos fue:");
  5362  000A8E  0E3A               	movlw	low STR_7
  5363  000A90  6F62               	movwf	printf@PointString& (0+255),b
  5364  000A92  0E7E               	movlw	high STR_7
  5365  000A94  6F63               	movwf	(printf@PointString+1)& (0+255),b
  5366  000A96  ECE2  F00D         	call	_printf	;wreg free
  5367  000A9A                     
  5368                           ;FuncionesMenu.c: 33:         send(coordXCentenas[coordenadaNueva]);
  5369  000A9A  0EE0               	movlw	low _coordXCentenas
  5370  000A9C  0100               	movlb	0	; () banked
  5371  000A9E  25F8               	addwf	_coordenadaNueva& (0+255),w,b
  5372  000AA0  6ED9               	movwf	fsr2l,c
  5373  000AA2  6ADA               	clrf	fsr2h,c
  5374  000AA4  0E00               	movlw	high _coordXCentenas
  5375  000AA6  22DA               	addwfc	fsr2h,f,c
  5376  000AA8  50DF               	movf	indf2,w,c
  5377  000AAA  ECDF  F00E         	call	_send
  5378  000AAE                     
  5379                           ;FuncionesMenu.c: 34:         send(coordXDecenas[coordenadaNueva]);
  5380  000AAE  0ED6               	movlw	low _coordXDecenas
  5381  000AB0  0100               	movlb	0	; () banked
  5382  000AB2  25F8               	addwf	_coordenadaNueva& (0+255),w,b
  5383  000AB4  6ED9               	movwf	fsr2l,c
  5384  000AB6  6ADA               	clrf	fsr2h,c
  5385  000AB8  0E00               	movlw	high _coordXDecenas
  5386  000ABA  22DA               	addwfc	fsr2h,f,c
  5387  000ABC  50DF               	movf	indf2,w,c
  5388  000ABE  ECDF  F00E         	call	_send
  5389  000AC2                     
  5390                           ;FuncionesMenu.c: 35:         send(coordXUnidades[coordenadaNueva]);
  5391  000AC2  0ECC               	movlw	low _coordXUnidades
  5392  000AC4  0100               	movlb	0	; () banked
  5393  000AC6  25F8               	addwf	_coordenadaNueva& (0+255),w,b
  5394  000AC8  6ED9               	movwf	fsr2l,c
  5395  000ACA  6ADA               	clrf	fsr2h,c
  5396  000ACC  0E00               	movlw	high _coordXUnidades
  5397  000ACE  22DA               	addwfc	fsr2h,f,c
  5398  000AD0  50DF               	movf	indf2,w,c
  5399  000AD2  ECDF  F00E         	call	_send
  5400  000AD6                     
  5401                           ;FuncionesMenu.c: 36:         send(',');
  5402  000AD6  0E2C               	movlw	44
  5403  000AD8  ECDF  F00E         	call	_send
  5404  000ADC                     
  5405                           ;FuncionesMenu.c: 37:         send(coordYCentenas[coordenadaNueva]);
  5406  000ADC  0EC2               	movlw	low _coordYCentenas
  5407  000ADE  0100               	movlb	0	; () banked
  5408  000AE0  25F8               	addwf	_coordenadaNueva& (0+255),w,b
  5409  000AE2  6ED9               	movwf	fsr2l,c
  5410  000AE4  6ADA               	clrf	fsr2h,c
  5411  000AE6  0E00               	movlw	high _coordYCentenas
  5412  000AE8  22DA               	addwfc	fsr2h,f,c
  5413  000AEA  50DF               	movf	indf2,w,c
  5414  000AEC  ECDF  F00E         	call	_send
  5415  000AF0                     
  5416                           ;FuncionesMenu.c: 38:         send(coordYDecenas[coordenadaNueva]);
  5417  000AF0  0EB8               	movlw	low _coordYDecenas
  5418  000AF2  0100               	movlb	0	; () banked
  5419  000AF4  25F8               	addwf	_coordenadaNueva& (0+255),w,b
  5420  000AF6  6ED9               	movwf	fsr2l,c
  5421  000AF8  6ADA               	clrf	fsr2h,c
  5422  000AFA  0E00               	movlw	high _coordYDecenas
  5423  000AFC  22DA               	addwfc	fsr2h,f,c
  5424  000AFE  50DF               	movf	indf2,w,c
  5425  000B00  ECDF  F00E         	call	_send
  5426  000B04                     
  5427                           ;FuncionesMenu.c: 39:         send(coordYUnidades[coordenadaNueva]);
  5428  000B04  0EAE               	movlw	low _coordYUnidades
  5429  000B06  0100               	movlb	0	; () banked
  5430  000B08  25F8               	addwf	_coordenadaNueva& (0+255),w,b
  5431  000B0A  6ED9               	movwf	fsr2l,c
  5432  000B0C  6ADA               	clrf	fsr2h,c
  5433  000B0E  0E00               	movlw	high _coordYUnidades
  5434  000B10  22DA               	addwfc	fsr2h,f,c
  5435  000B12  50DF               	movf	indf2,w,c
  5436  000B14  ECDF  F00E         	call	_send
  5437  000B18                     
  5438                           ;FuncionesMenu.c: 40:         send(',');
  5439  000B18  0E2C               	movlw	44
  5440  000B1A  ECDF  F00E         	call	_send
  5441  000B1E                     
  5442                           ;FuncionesMenu.c: 41:         send(presionarZCentenas[coordenadaNueva]);
  5443  000B1E  0E4B               	movlw	low _presionarZCentenas
  5444  000B20  0100               	movlb	0	; () banked
  5445  000B22  25F8               	addwf	_coordenadaNueva& (0+255),w,b
  5446  000B24  6ED9               	movwf	fsr2l,c
  5447  000B26  6ADA               	clrf	fsr2h,c
  5448  000B28  0E00               	movlw	high _presionarZCentenas
  5449  000B2A  22DA               	addwfc	fsr2h,f,c
  5450  000B2C  50DF               	movf	indf2,w,c
  5451  000B2E  ECDF  F00E         	call	_send
  5452  000B32                     
  5453                           ;FuncionesMenu.c: 42:         send(presionarZDecenas[coordenadaNueva]);
  5454  000B32  0E41               	movlw	low _presionarZDecenas
  5455  000B34  0100               	movlb	0	; () banked
  5456  000B36  25F8               	addwf	_coordenadaNueva& (0+255),w,b
  5457  000B38  6ED9               	movwf	fsr2l,c
  5458  000B3A  6ADA               	clrf	fsr2h,c
  5459  000B3C  0E00               	movlw	high _presionarZDecenas
  5460  000B3E  22DA               	addwfc	fsr2h,f,c
  5461  000B40  50DF               	movf	indf2,w,c
  5462  000B42  ECDF  F00E         	call	_send
  5463  000B46                     
  5464                           ;FuncionesMenu.c: 43:         send(presionarZUnidades[coordenadaNueva]);
  5465  000B46  0E00               	movlw	low _presionarZUnidades
  5466  000B48  0100               	movlb	0	; () banked
  5467  000B4A  25F8               	addwf	_coordenadaNueva& (0+255),w,b
  5468  000B4C  6ED9               	movwf	fsr2l,c
  5469  000B4E  6ADA               	clrf	fsr2h,c
  5470  000B50  0E01               	movlw	high _presionarZUnidades
  5471  000B52  22DA               	addwfc	fsr2h,f,c
  5472  000B54  50DF               	movf	indf2,w,c
  5473  000B56  ECDF  F00E         	call	_send
  5474  000B5A                     
  5475                           ;FuncionesMenu.c: 44:         send('.');
  5476  000B5A  0E2E               	movlw	46
  5477  000B5C  ECDF  F00E         	call	_send
  5478  000B60                     
  5479                           ;FuncionesMenu.c: 45:         if (habilitarModCoord == 0) {
  5480  000B60  0100               	movlb	0	; () banked
  5481  000B62  51F7               	movf	_habilitarModCoord& (0+255),w,b
  5482  000B64  A4D8               	btfss	status,2,c
  5483  000B66  EFB7  F005         	goto	u1761
  5484  000B6A  EFB9  F005         	goto	u1760
  5485  000B6E                     u1761:
  5486  000B6E  EFCD  F005         	goto	l245
  5487  000B72                     u1760:
  5488  000B72                     
  5489                           ; BSR set to: 0
  5490                           ;FuncionesMenu.c: 46:             printf("Has agregado este numero de coordenadas:");
  5491  000B72  0E65               	movlw	low STR_8
  5492  000B74  6F62               	movwf	printf@PointString& (0+255),b
  5493  000B76  0E7E               	movlw	high STR_8
  5494  000B78  6F63               	movwf	(printf@PointString+1)& (0+255),b
  5495  000B7A  ECE2  F00D         	call	_printf	;wreg free
  5496  000B7E                     
  5497                           ;FuncionesMenu.c: 47:             coordenadaNueva++;
  5498  000B7E  0100               	movlb	0	; () banked
  5499  000B80  2BF8               	incf	_coordenadaNueva& (0+255),f,b
  5500  000B82                     
  5501                           ; BSR set to: 0
  5502                           ;FuncionesMenu.c: 48:             send(coordenadaNueva + 48);
  5503  000B82  51F8               	movf	_coordenadaNueva& (0+255),w,b
  5504  000B84  0F30               	addlw	48
  5505  000B86  ECDF  F00E         	call	_send
  5506  000B8A  EFCD  F005         	goto	l245
  5507  000B8E                     l2500:
  5508                           
  5509                           ; BSR set to: 0
  5510                           ;FuncionesMenu.c: 51:         printf("Ya estan las 10 coordenadas llenas, no puedes agre
      +                          gar mas");
  5511  000B8E  0E6C               	movlw	low STR_9
  5512  000B90  6F62               	movwf	printf@PointString& (0+255),b
  5513  000B92  0E7C               	movlw	high STR_9
  5514  000B94  6F63               	movwf	(printf@PointString+1)& (0+255),b
  5515  000B96  ECE2  F00D         	call	_printf	;wreg free
  5516  000B9A                     l245:
  5517  000B9A  0012               	return		;funcret
  5518  000B9C                     __end_of_introducirCoordNueva:
  5519                           	opt callstack 0
  5520                           
  5521 ;; *************** function _receiveNum *****************
  5522 ;; Defined at:
  5523 ;;		line 21 in file "Comunicacion.c"
  5524 ;; Parameters:    Size  Location     Type
  5525 ;;		None
  5526 ;; Auto vars:     Size  Location     Type
  5527 ;;  recibido        1    7[BANK0 ] unsigned char 
  5528 ;; Return value:  Size  Location     Type
  5529 ;;                  1    wreg      unsigned char 
  5530 ;; Registers used:
  5531 ;;		wreg, status,2, status,0, tblptrl, tblptrh, tblptru, cstack
  5532 ;; Tracked objects:
  5533 ;;		On entry : 0/0
  5534 ;;		On exit  : 0/0
  5535 ;;		Unchanged: 0/0
  5536 ;; Data sizes:     COMRAM   BANK0   BANK1   BANK2   BANK3   BANK4   BANK5   BANK6   BANK7
  5537 ;;      Params:         0       0       0       0       0       0       0       0       0
  5538 ;;      Locals:         0       1       0       0       0       0       0       0       0
  5539 ;;      Temps:          0       0       0       0       0       0       0       0       0
  5540 ;;      Totals:         0       1       0       0       0       0       0       0       0
  5541 ;;Total ram usage:        1 bytes
  5542 ;; Hardware stack levels used:    1
  5543 ;; Hardware stack levels required when called:    6
  5544 ;; This function calls:
  5545 ;;		_printf
  5546 ;; This function is called by:
  5547 ;;		_introducirCoordNueva
  5548 ;;		_modificarCoordenada
  5549 ;;		_main
  5550 ;; This function uses a non-reentrant model
  5551 ;;
  5552                           
  5553                           	psect	text19
  5554  001AE8                     __ptext19:
  5555                           	opt callstack 0
  5556  001AE8                     _receiveNum:
  5557                           	opt callstack 24
  5558  001AE8                     
  5559                           ;Comunicacion.c: 22:     unsigned char recibido = 0;
  5560  001AE8  0E00               	movlw	0
  5561  001AEA  0100               	movlb	0	; () banked
  5562  001AEC  6F67               	movwf	receiveNum@recibido& (0+255),b
  5563                           
  5564                           ;Comunicacion.c: 23:     while(recibido>57 || recibido<48) {
  5565  001AEE  EF9B  F00D         	goto	l2178
  5566  001AF2                     l162:
  5567                           
  5568                           ;Comunicacion.c: 24:         while (PIR1bits.RCIF == 0) {
  5569  001AF2  AA9E               	btfss	158,5,c	;volatile
  5570  001AF4  EF7E  F00D         	goto	u1291
  5571  001AF8  EF80  F00D         	goto	u1290
  5572  001AFC                     u1291:
  5573  001AFC  EF79  F00D         	goto	l162
  5574  001B00                     u1290:
  5575  001B00                     
  5576                           ;Comunicacion.c: 27:         recibido = RCREG1;
  5577  001B00  CFAE F067          	movff	4014,receiveNum@recibido	;volatile
  5578  001B04                     
  5579                           ;Comunicacion.c: 28:         RCREG1 = 0;
  5580  001B04  0E00               	movlw	0
  5581  001B06  6EAE               	movwf	174,c	;volatile
  5582  001B08                     
  5583                           ;Comunicacion.c: 29:         if(recibido>57 || recibido<48){
  5584  001B08  0E3A               	movlw	58
  5585  001B0A  0100               	movlb	0	; () banked
  5586  001B0C  6167               	cpfslt	receiveNum@recibido& (0+255),b
  5587  001B0E  EF8B  F00D         	goto	u1301
  5588  001B12  EF8D  F00D         	goto	u1300
  5589  001B16                     u1301:
  5590  001B16  EF95  F00D         	goto	l2176
  5591  001B1A                     u1300:
  5592  001B1A                     
  5593                           ; BSR set to: 0
  5594  001B1A  0E30               	movlw	48
  5595  001B1C  6167               	cpfslt	receiveNum@recibido& (0+255),b
  5596  001B1E  EF93  F00D         	goto	u1311
  5597  001B22  EF95  F00D         	goto	u1310
  5598  001B26                     u1311:
  5599  001B26  EF9B  F00D         	goto	l2178
  5600  001B2A                     u1310:
  5601  001B2A                     l2176:
  5602                           
  5603                           ; BSR set to: 0
  5604                           ;Comunicacion.c: 30:             printf("Solo puedes introducir numeros, prueba de nuevo
      +                          ");
  5605  001B2A  0EB0               	movlw	low STR_1
  5606  001B2C  6F62               	movwf	printf@PointString& (0+255),b
  5607  001B2E  0E7D               	movlw	high STR_1
  5608  001B30  6F63               	movwf	(printf@PointString+1)& (0+255),b
  5609  001B32  ECE2  F00D         	call	_printf	;wreg free
  5610  001B36                     l2178:
  5611                           
  5612                           ;Comunicacion.c: 23:     while(recibido>57 || recibido<48) {
  5613  001B36  0E3A               	movlw	58
  5614  001B38  0100               	movlb	0	; () banked
  5615  001B3A  6167               	cpfslt	receiveNum@recibido& (0+255),b
  5616  001B3C  EFA2  F00D         	goto	u1321
  5617  001B40  EFA4  F00D         	goto	u1320
  5618  001B44                     u1321:
  5619  001B44  EF79  F00D         	goto	l162
  5620  001B48                     u1320:
  5621  001B48                     
  5622                           ; BSR set to: 0
  5623  001B48  0E2F               	movlw	47
  5624  001B4A  6567               	cpfsgt	receiveNum@recibido& (0+255),b
  5625  001B4C  EFAA  F00D         	goto	u1331
  5626  001B50  EFAC  F00D         	goto	u1330
  5627  001B54                     u1331:
  5628  001B54  EF79  F00D         	goto	l162
  5629  001B58                     u1330:
  5630  001B58                     
  5631                           ; BSR set to: 0
  5632                           ;Comunicacion.c: 32:     }return recibido;
  5633  001B58  5167               	movf	receiveNum@recibido& (0+255),w,b
  5634  001B5A                     
  5635                           ; BSR set to: 0
  5636  001B5A  0012               	return		;funcret
  5637  001B5C                     __end_of_receiveNum:
  5638                           	opt callstack 0
  5639                           
  5640 ;; *************** function _imprimirCoordenadas *****************
  5641 ;; Defined at:
  5642 ;;		line 55 in file "FuncionesMenu.c"
  5643 ;; Parameters:    Size  Location     Type
  5644 ;;		None
  5645 ;; Auto vars:     Size  Location     Type
  5646 ;;  impresionCoo    1    8[BANK0 ] unsigned char 
  5647 ;;  numCoordenad    1    7[BANK0 ] unsigned char 
  5648 ;; Return value:  Size  Location     Type
  5649 ;;                  1    wreg      void 
  5650 ;; Registers used:
  5651 ;;		wreg, fsr2l, fsr2h, status,2, status,0, tblptrl, tblptrh, tblptru, cstack
  5652 ;; Tracked objects:
  5653 ;;		On entry : 0/0
  5654 ;;		On exit  : 0/0
  5655 ;;		Unchanged: 0/0
  5656 ;; Data sizes:     COMRAM   BANK0   BANK1   BANK2   BANK3   BANK4   BANK5   BANK6   BANK7
  5657 ;;      Params:         0       0       0       0       0       0       0       0       0
  5658 ;;      Locals:         0       2       0       0       0       0       0       0       0
  5659 ;;      Temps:          0       0       0       0       0       0       0       0       0
  5660 ;;      Totals:         0       2       0       0       0       0       0       0       0
  5661 ;;Total ram usage:        2 bytes
  5662 ;; Hardware stack levels used:    1
  5663 ;; Hardware stack levels required when called:    6
  5664 ;; This function calls:
  5665 ;;		_printf
  5666 ;;		_send
  5667 ;; This function is called by:
  5668 ;;		_modificarCoordenada
  5669 ;;		_main
  5670 ;; This function uses a non-reentrant model
  5671 ;;
  5672                           
  5673                           	psect	text20
  5674  0011B8                     __ptext20:
  5675                           	opt callstack 0
  5676  0011B8                     _imprimirCoordenadas:
  5677                           	opt callstack 23
  5678  0011B8                     
  5679                           ;FuncionesMenu.c: 57:     numCoordenadas = coordenadaNueva + 48;
  5680  0011B8  0100               	movlb	0	; () banked
  5681  0011BA  51F8               	movf	_coordenadaNueva& (0+255),w,b
  5682  0011BC  0F30               	addlw	48
  5683  0011BE  6F67               	movwf	imprimirCoordenadas@numCoordenadas& (0+255),b
  5684  0011C0                     
  5685                           ; BSR set to: 0
  5686                           ;FuncionesMenu.c: 58:     printf("Agregaste: ");
  5687  0011C0  0EE6               	movlw	low STR_10
  5688  0011C2  6F62               	movwf	printf@PointString& (0+255),b
  5689  0011C4  0E7F               	movlw	high STR_10
  5690  0011C6  6F63               	movwf	(printf@PointString+1)& (0+255),b
  5691  0011C8  ECE2  F00D         	call	_printf	;wreg free
  5692  0011CC                     
  5693                           ;FuncionesMenu.c: 59:     send(numCoordenadas);
  5694  0011CC  0100               	movlb	0	; () banked
  5695  0011CE  5167               	movf	imprimirCoordenadas@numCoordenadas& (0+255),w,b
  5696  0011D0  ECDF  F00E         	call	_send
  5697  0011D4                     
  5698                           ;FuncionesMenu.c: 60:     printf(" coordenadas, las cuales son: \n");
  5699  0011D4  0EF5               	movlw	low STR_11
  5700  0011D6  0100               	movlb	0	; () banked
  5701  0011D8  6F62               	movwf	printf@PointString& (0+255),b
  5702  0011DA  0E7E               	movlw	high STR_11
  5703  0011DC  6F63               	movwf	(printf@PointString+1)& (0+255),b
  5704  0011DE  ECE2  F00D         	call	_printf	;wreg free
  5705  0011E2                     
  5706                           ;FuncionesMenu.c: 61:     for (uint8_t impresionCoordenada = 0; impresionCoordenada < co
      +                          ordenadaNueva; impresionCoordenada++) {
  5707  0011E2  0E00               	movlw	0
  5708  0011E4  0100               	movlb	0	; () banked
  5709  0011E6  6F68               	movwf	imprimirCoordenadas@impresionCoordenada& (0+255),b
  5710  0011E8  EF70  F009         	goto	l2548
  5711  0011EC                     l2514:
  5712                           
  5713                           ; BSR set to: 0
  5714                           ;FuncionesMenu.c: 62:         printf("Coordenada ");
  5715  0011EC  0EF2               	movlw	low STR_12
  5716  0011EE  6F62               	movwf	printf@PointString& (0+255),b
  5717  0011F0  0E7F               	movlw	high STR_12
  5718  0011F2  6F63               	movwf	(printf@PointString+1)& (0+255),b
  5719  0011F4  ECE2  F00D         	call	_printf	;wreg free
  5720  0011F8                     
  5721                           ;FuncionesMenu.c: 63:         send(impresionCoordenada + 48);
  5722  0011F8  0100               	movlb	0	; () banked
  5723  0011FA  5168               	movf	imprimirCoordenadas@impresionCoordenada& (0+255),w,b
  5724  0011FC  0F30               	addlw	48
  5725  0011FE  ECDF  F00E         	call	_send
  5726  001202                     
  5727                           ;FuncionesMenu.c: 64:         printf(": ");
  5728  001202  0EEF               	movlw	low (STR_10+9)
  5729  001204  0100               	movlb	0	; () banked
  5730  001206  6F62               	movwf	printf@PointString& (0+255),b
  5731  001208  0E7F               	movlw	high (STR_10+9)
  5732  00120A  6F63               	movwf	(printf@PointString+1)& (0+255),b
  5733  00120C  ECE2  F00D         	call	_printf	;wreg free
  5734  001210                     
  5735                           ;FuncionesMenu.c: 65:         send(coordXCentenas[impresionCoordenada]);
  5736  001210  0EE0               	movlw	low _coordXCentenas
  5737  001212  0100               	movlb	0	; () banked
  5738  001214  2568               	addwf	imprimirCoordenadas@impresionCoordenada& (0+255),w,b
  5739  001216  6ED9               	movwf	fsr2l,c
  5740  001218  6ADA               	clrf	fsr2h,c
  5741  00121A  0E00               	movlw	high _coordXCentenas
  5742  00121C  22DA               	addwfc	fsr2h,f,c
  5743  00121E  50DF               	movf	indf2,w,c
  5744  001220  ECDF  F00E         	call	_send
  5745  001224                     
  5746                           ;FuncionesMenu.c: 66:         send(coordXDecenas[impresionCoordenada]);
  5747  001224  0ED6               	movlw	low _coordXDecenas
  5748  001226  0100               	movlb	0	; () banked
  5749  001228  2568               	addwf	imprimirCoordenadas@impresionCoordenada& (0+255),w,b
  5750  00122A  6ED9               	movwf	fsr2l,c
  5751  00122C  6ADA               	clrf	fsr2h,c
  5752  00122E  0E00               	movlw	high _coordXDecenas
  5753  001230  22DA               	addwfc	fsr2h,f,c
  5754  001232  50DF               	movf	indf2,w,c
  5755  001234  ECDF  F00E         	call	_send
  5756  001238                     
  5757                           ;FuncionesMenu.c: 67:         send(coordXUnidades[impresionCoordenada]);
  5758  001238  0ECC               	movlw	low _coordXUnidades
  5759  00123A  0100               	movlb	0	; () banked
  5760  00123C  2568               	addwf	imprimirCoordenadas@impresionCoordenada& (0+255),w,b
  5761  00123E  6ED9               	movwf	fsr2l,c
  5762  001240  6ADA               	clrf	fsr2h,c
  5763  001242  0E00               	movlw	high _coordXUnidades
  5764  001244  22DA               	addwfc	fsr2h,f,c
  5765  001246  50DF               	movf	indf2,w,c
  5766  001248  ECDF  F00E         	call	_send
  5767  00124C                     
  5768                           ;FuncionesMenu.c: 68:         send(',');
  5769  00124C  0E2C               	movlw	44
  5770  00124E  ECDF  F00E         	call	_send
  5771  001252                     
  5772                           ;FuncionesMenu.c: 69:         send(coordYCentenas[impresionCoordenada]);
  5773  001252  0EC2               	movlw	low _coordYCentenas
  5774  001254  0100               	movlb	0	; () banked
  5775  001256  2568               	addwf	imprimirCoordenadas@impresionCoordenada& (0+255),w,b
  5776  001258  6ED9               	movwf	fsr2l,c
  5777  00125A  6ADA               	clrf	fsr2h,c
  5778  00125C  0E00               	movlw	high _coordYCentenas
  5779  00125E  22DA               	addwfc	fsr2h,f,c
  5780  001260  50DF               	movf	indf2,w,c
  5781  001262  ECDF  F00E         	call	_send
  5782  001266                     
  5783                           ;FuncionesMenu.c: 70:         send(coordYDecenas[impresionCoordenada]);
  5784  001266  0EB8               	movlw	low _coordYDecenas
  5785  001268  0100               	movlb	0	; () banked
  5786  00126A  2568               	addwf	imprimirCoordenadas@impresionCoordenada& (0+255),w,b
  5787  00126C  6ED9               	movwf	fsr2l,c
  5788  00126E  6ADA               	clrf	fsr2h,c
  5789  001270  0E00               	movlw	high _coordYDecenas
  5790  001272  22DA               	addwfc	fsr2h,f,c
  5791  001274  50DF               	movf	indf2,w,c
  5792  001276  ECDF  F00E         	call	_send
  5793  00127A                     
  5794                           ;FuncionesMenu.c: 71:         send(coordYUnidades[impresionCoordenada]);
  5795  00127A  0EAE               	movlw	low _coordYUnidades
  5796  00127C  0100               	movlb	0	; () banked
  5797  00127E  2568               	addwf	imprimirCoordenadas@impresionCoordenada& (0+255),w,b
  5798  001280  6ED9               	movwf	fsr2l,c
  5799  001282  6ADA               	clrf	fsr2h,c
  5800  001284  0E00               	movlw	high _coordYUnidades
  5801  001286  22DA               	addwfc	fsr2h,f,c
  5802  001288  50DF               	movf	indf2,w,c
  5803  00128A  ECDF  F00E         	call	_send
  5804  00128E                     
  5805                           ;FuncionesMenu.c: 72:         send(',');
  5806  00128E  0E2C               	movlw	44
  5807  001290  ECDF  F00E         	call	_send
  5808  001294                     
  5809                           ;FuncionesMenu.c: 73:         send(presionarZCentenas[impresionCoordenada]);
  5810  001294  0E4B               	movlw	low _presionarZCentenas
  5811  001296  0100               	movlb	0	; () banked
  5812  001298  2568               	addwf	imprimirCoordenadas@impresionCoordenada& (0+255),w,b
  5813  00129A  6ED9               	movwf	fsr2l,c
  5814  00129C  6ADA               	clrf	fsr2h,c
  5815  00129E  0E00               	movlw	high _presionarZCentenas
  5816  0012A0  22DA               	addwfc	fsr2h,f,c
  5817  0012A2  50DF               	movf	indf2,w,c
  5818  0012A4  ECDF  F00E         	call	_send
  5819  0012A8                     
  5820                           ;FuncionesMenu.c: 74:         send(presionarZDecenas[impresionCoordenada]);
  5821  0012A8  0E41               	movlw	low _presionarZDecenas
  5822  0012AA  0100               	movlb	0	; () banked
  5823  0012AC  2568               	addwf	imprimirCoordenadas@impresionCoordenada& (0+255),w,b
  5824  0012AE  6ED9               	movwf	fsr2l,c
  5825  0012B0  6ADA               	clrf	fsr2h,c
  5826  0012B2  0E00               	movlw	high _presionarZDecenas
  5827  0012B4  22DA               	addwfc	fsr2h,f,c
  5828  0012B6  50DF               	movf	indf2,w,c
  5829  0012B8  ECDF  F00E         	call	_send
  5830  0012BC                     
  5831                           ;FuncionesMenu.c: 75:         send(presionarZUnidades[impresionCoordenada]);
  5832  0012BC  0E00               	movlw	low _presionarZUnidades
  5833  0012BE  0100               	movlb	0	; () banked
  5834  0012C0  2568               	addwf	imprimirCoordenadas@impresionCoordenada& (0+255),w,b
  5835  0012C2  6ED9               	movwf	fsr2l,c
  5836  0012C4  6ADA               	clrf	fsr2h,c
  5837  0012C6  0E01               	movlw	high _presionarZUnidades
  5838  0012C8  22DA               	addwfc	fsr2h,f,c
  5839  0012CA  50DF               	movf	indf2,w,c
  5840  0012CC  ECDF  F00E         	call	_send
  5841  0012D0                     
  5842                           ;FuncionesMenu.c: 76:         send('.');
  5843  0012D0  0E2E               	movlw	46
  5844  0012D2  ECDF  F00E         	call	_send
  5845  0012D6                     
  5846                           ;FuncionesMenu.c: 77:         send('\n');
  5847  0012D6  0E0A               	movlw	10
  5848  0012D8  ECDF  F00E         	call	_send
  5849  0012DC                     
  5850                           ;FuncionesMenu.c: 78:     }
  5851  0012DC  0100               	movlb	0	; () banked
  5852  0012DE  2B68               	incf	imprimirCoordenadas@impresionCoordenada& (0+255),f,b
  5853  0012E0                     l2548:
  5854                           
  5855                           ; BSR set to: 0
  5856  0012E0  51F8               	movf	_coordenadaNueva& (0+255),w,b
  5857  0012E2  5D68               	subwf	imprimirCoordenadas@impresionCoordenada& (0+255),w,b
  5858  0012E4  A0D8               	btfss	status,0,c
  5859  0012E6  EF77  F009         	goto	u1771
  5860  0012EA  EF79  F009         	goto	u1770
  5861  0012EE                     u1771:
  5862  0012EE  EFF6  F008         	goto	l2514
  5863  0012F2                     u1770:
  5864  0012F2                     
  5865                           ; BSR set to: 0
  5866  0012F2  0012               	return		;funcret
  5867  0012F4                     __end_of_imprimirCoordenadas:
  5868                           	opt callstack 0
  5869                           
  5870 ;; *************** function _interruptsEnable *****************
  5871 ;; Defined at:
  5872 ;;		line 5 in file "Interrupciones.c"
  5873 ;; Parameters:    Size  Location     Type
  5874 ;;		None
  5875 ;; Auto vars:     Size  Location     Type
  5876 ;;		None
  5877 ;; Return value:  Size  Location     Type
  5878 ;;                  1    wreg      void 
  5879 ;; Registers used:
  5880 ;;		None
  5881 ;; Tracked objects:
  5882 ;;		On entry : 0/0
  5883 ;;		On exit  : 0/0
  5884 ;;		Unchanged: 0/0
  5885 ;; Data sizes:     COMRAM   BANK0   BANK1   BANK2   BANK3   BANK4   BANK5   BANK6   BANK7
  5886 ;;      Params:         0       0       0       0       0       0       0       0       0
  5887 ;;      Locals:         0       0       0       0       0       0       0       0       0
  5888 ;;      Temps:          0       0       0       0       0       0       0       0       0
  5889 ;;      Totals:         0       0       0       0       0       0       0       0       0
  5890 ;;Total ram usage:        0 bytes
  5891 ;; Hardware stack levels used:    1
  5892 ;; Hardware stack levels required when called:    4
  5893 ;; This function calls:
  5894 ;;		Nothing
  5895 ;; This function is called by:
  5896 ;;		_main
  5897 ;; This function uses a non-reentrant model
  5898 ;;
  5899                           
  5900                           	psect	text21
  5901  001E28                     __ptext21:
  5902                           	opt callstack 0
  5903  001E28                     _interruptsEnable:
  5904                           	opt callstack 26
  5905  001E28                     
  5906                           ;Interrupciones.c: 7:     RCONbits.IPEN = 0;
  5907  001E28  9ED0               	bcf	208,7,c	;volatile
  5908                           
  5909                           ;Interrupciones.c: 8:     INTCONbits.PEIE = 1;
  5910  001E2A  8CF2               	bsf	242,6,c	;volatile
  5911                           
  5912                           ;Interrupciones.c: 9:     INTCONbits.GIE = 1;
  5913  001E2C  8EF2               	bsf	242,7,c	;volatile
  5914  001E2E  0012               	return		;funcret
  5915  001E30                     __end_of_interruptsEnable:
  5916                           	opt callstack 0
  5917                           
  5918 ;; *************** function _habilitarIntTMR1 *****************
  5919 ;; Defined at:
  5920 ;;		line 42 in file "Interrupciones.c"
  5921 ;; Parameters:    Size  Location     Type
  5922 ;;		None
  5923 ;; Auto vars:     Size  Location     Type
  5924 ;;		None
  5925 ;; Return value:  Size  Location     Type
  5926 ;;                  1    wreg      void 
  5927 ;; Registers used:
  5928 ;;		None
  5929 ;; Tracked objects:
  5930 ;;		On entry : 0/0
  5931 ;;		On exit  : 0/0
  5932 ;;		Unchanged: 0/0
  5933 ;; Data sizes:     COMRAM   BANK0   BANK1   BANK2   BANK3   BANK4   BANK5   BANK6   BANK7
  5934 ;;      Params:         0       0       0       0       0       0       0       0       0
  5935 ;;      Locals:         0       0       0       0       0       0       0       0       0
  5936 ;;      Temps:          0       0       0       0       0       0       0       0       0
  5937 ;;      Totals:         0       0       0       0       0       0       0       0       0
  5938 ;;Total ram usage:        0 bytes
  5939 ;; Hardware stack levels used:    1
  5940 ;; Hardware stack levels required when called:    4
  5941 ;; This function calls:
  5942 ;;		Nothing
  5943 ;; This function is called by:
  5944 ;;		_main
  5945 ;; This function uses a non-reentrant model
  5946 ;;
  5947                           
  5948                           	psect	text22
  5949  001E30                     __ptext22:
  5950                           	opt callstack 0
  5951  001E30                     _habilitarIntTMR1:
  5952                           	opt callstack 26
  5953  001E30                     
  5954                           ;Interrupciones.c: 43:     PIE1bits.TMR1IE = 1;
  5955  001E30  809D               	bsf	157,0,c	;volatile
  5956  001E32  0012               	return		;funcret
  5957  001E34                     __end_of_habilitarIntTMR1:
  5958                           	opt callstack 0
  5959                           
  5960 ;; *************** function _habilitarIntTMR0 *****************
  5961 ;; Defined at:
  5962 ;;		line 38 in file "Interrupciones.c"
  5963 ;; Parameters:    Size  Location     Type
  5964 ;;		None
  5965 ;; Auto vars:     Size  Location     Type
  5966 ;;		None
  5967 ;; Return value:  Size  Location     Type
  5968 ;;                  1    wreg      void 
  5969 ;; Registers used:
  5970 ;;		None
  5971 ;; Tracked objects:
  5972 ;;		On entry : 0/0
  5973 ;;		On exit  : 0/0
  5974 ;;		Unchanged: 0/0
  5975 ;; Data sizes:     COMRAM   BANK0   BANK1   BANK2   BANK3   BANK4   BANK5   BANK6   BANK7
  5976 ;;      Params:         0       0       0       0       0       0       0       0       0
  5977 ;;      Locals:         0       0       0       0       0       0       0       0       0
  5978 ;;      Temps:          0       0       0       0       0       0       0       0       0
  5979 ;;      Totals:         0       0       0       0       0       0       0       0       0
  5980 ;;Total ram usage:        0 bytes
  5981 ;; Hardware stack levels used:    1
  5982 ;; Hardware stack levels required when called:    4
  5983 ;; This function calls:
  5984 ;;		Nothing
  5985 ;; This function is called by:
  5986 ;;		_main
  5987 ;; This function uses a non-reentrant model
  5988 ;;
  5989                           
  5990                           	psect	text23
  5991  001E34                     __ptext23:
  5992                           	opt callstack 0
  5993  001E34                     _habilitarIntTMR0:
  5994                           	opt callstack 26
  5995  001E34                     
  5996                           ;Interrupciones.c: 39:     INTCONbits.TMR0IE = 1;
  5997  001E34  8AF2               	bsf	242,5,c	;volatile
  5998  001E36  0012               	return		;funcret
  5999  001E38                     __end_of_habilitarIntTMR0:
  6000                           	opt callstack 0
  6001                           
  6002 ;; *************** function _borrarTodasCoordenadas *****************
  6003 ;; Defined at:
  6004 ;;		line 104 in file "FuncionesMenu.c"
  6005 ;; Parameters:    Size  Location     Type
  6006 ;;		None
  6007 ;; Auto vars:     Size  Location     Type
  6008 ;;  impresionCoo    1    7[BANK0 ] unsigned char 
  6009 ;; Return value:  Size  Location     Type
  6010 ;;                  1    wreg      void 
  6011 ;; Registers used:
  6012 ;;		wreg, fsr2l, fsr2h, status,2, status,0, tblptrl, tblptrh, tblptru, cstack
  6013 ;; Tracked objects:
  6014 ;;		On entry : 0/0
  6015 ;;		On exit  : 0/0
  6016 ;;		Unchanged: 0/0
  6017 ;; Data sizes:     COMRAM   BANK0   BANK1   BANK2   BANK3   BANK4   BANK5   BANK6   BANK7
  6018 ;;      Params:         0       0       0       0       0       0       0       0       0
  6019 ;;      Locals:         0       1       0       0       0       0       0       0       0
  6020 ;;      Temps:          0       0       0       0       0       0       0       0       0
  6021 ;;      Totals:         0       1       0       0       0       0       0       0       0
  6022 ;;Total ram usage:        1 bytes
  6023 ;; Hardware stack levels used:    1
  6024 ;; Hardware stack levels required when called:    6
  6025 ;; This function calls:
  6026 ;;		_printf
  6027 ;; This function is called by:
  6028 ;;		_main
  6029 ;; This function uses a non-reentrant model
  6030 ;;
  6031                           
  6032                           	psect	text24
  6033  001830                     __ptext24:
  6034                           	opt callstack 0
  6035  001830                     _borrarTodasCoordenadas:
  6036                           	opt callstack 24
  6037  001830                     
  6038                           ;FuncionesMenu.c: 105:     for (uint8_t impresionCoordenada = 0; impresionCoordenada < 1
      +                          0; impresionCoordenada++) {
  6039  001830  0E00               	movlw	0
  6040  001832  0100               	movlb	0	; () banked
  6041  001834  6F67               	movwf	borrarTodasCoordenadas@impresionCoordenada& (0+255),b
  6042  001836                     l2892:
  6043                           
  6044                           ; BSR set to: 0
  6045                           ;FuncionesMenu.c: 106:         coordXCentenas[impresionCoordenada] = 0;
  6046  001836  0EE0               	movlw	low _coordXCentenas
  6047  001838  2567               	addwf	borrarTodasCoordenadas@impresionCoordenada& (0+255),w,b
  6048  00183A  6ED9               	movwf	fsr2l,c
  6049  00183C  6ADA               	clrf	fsr2h,c
  6050  00183E  0E00               	movlw	high _coordXCentenas
  6051  001840  22DA               	addwfc	fsr2h,f,c
  6052  001842  0E00               	movlw	0
  6053  001844  6EDF               	movwf	indf2,c
  6054                           
  6055                           ;FuncionesMenu.c: 107:         coordXDecenas[impresionCoordenada] = 0;
  6056  001846  0ED6               	movlw	low _coordXDecenas
  6057  001848  2567               	addwf	borrarTodasCoordenadas@impresionCoordenada& (0+255),w,b
  6058  00184A  6ED9               	movwf	fsr2l,c
  6059  00184C  6ADA               	clrf	fsr2h,c
  6060  00184E  0E00               	movlw	high _coordXDecenas
  6061  001850  22DA               	addwfc	fsr2h,f,c
  6062  001852  0E00               	movlw	0
  6063  001854  6EDF               	movwf	indf2,c
  6064                           
  6065                           ;FuncionesMenu.c: 108:         coordXUnidades[impresionCoordenada] = 0;
  6066  001856  0ECC               	movlw	low _coordXUnidades
  6067  001858  2567               	addwf	borrarTodasCoordenadas@impresionCoordenada& (0+255),w,b
  6068  00185A  6ED9               	movwf	fsr2l,c
  6069  00185C  6ADA               	clrf	fsr2h,c
  6070  00185E  0E00               	movlw	high _coordXUnidades
  6071  001860  22DA               	addwfc	fsr2h,f,c
  6072  001862  0E00               	movlw	0
  6073  001864  6EDF               	movwf	indf2,c
  6074                           
  6075                           ;FuncionesMenu.c: 109:         coordYCentenas[impresionCoordenada] = 0;
  6076  001866  0EC2               	movlw	low _coordYCentenas
  6077  001868  2567               	addwf	borrarTodasCoordenadas@impresionCoordenada& (0+255),w,b
  6078  00186A  6ED9               	movwf	fsr2l,c
  6079  00186C  6ADA               	clrf	fsr2h,c
  6080  00186E  0E00               	movlw	high _coordYCentenas
  6081  001870  22DA               	addwfc	fsr2h,f,c
  6082  001872  0E00               	movlw	0
  6083  001874  6EDF               	movwf	indf2,c
  6084                           
  6085                           ;FuncionesMenu.c: 110:         coordYDecenas[impresionCoordenada] = 0;
  6086  001876  0EB8               	movlw	low _coordYDecenas
  6087  001878  2567               	addwf	borrarTodasCoordenadas@impresionCoordenada& (0+255),w,b
  6088  00187A  6ED9               	movwf	fsr2l,c
  6089  00187C  6ADA               	clrf	fsr2h,c
  6090  00187E  0E00               	movlw	high _coordYDecenas
  6091  001880  22DA               	addwfc	fsr2h,f,c
  6092  001882  0E00               	movlw	0
  6093  001884  6EDF               	movwf	indf2,c
  6094                           
  6095                           ;FuncionesMenu.c: 111:         coordYUnidades[impresionCoordenada] = 0;
  6096  001886  0EAE               	movlw	low _coordYUnidades
  6097  001888  2567               	addwf	borrarTodasCoordenadas@impresionCoordenada& (0+255),w,b
  6098  00188A  6ED9               	movwf	fsr2l,c
  6099  00188C  6ADA               	clrf	fsr2h,c
  6100  00188E  0E00               	movlw	high _coordYUnidades
  6101  001890  22DA               	addwfc	fsr2h,f,c
  6102  001892  0E00               	movlw	0
  6103  001894  6EDF               	movwf	indf2,c
  6104                           
  6105                           ;FuncionesMenu.c: 112:         presionarZCentenas[impresionCoordenada] = 0;
  6106  001896  0E4B               	movlw	low _presionarZCentenas
  6107  001898  2567               	addwf	borrarTodasCoordenadas@impresionCoordenada& (0+255),w,b
  6108  00189A  6ED9               	movwf	fsr2l,c
  6109  00189C  6ADA               	clrf	fsr2h,c
  6110  00189E  0E00               	movlw	high _presionarZCentenas
  6111  0018A0  22DA               	addwfc	fsr2h,f,c
  6112  0018A2  0E00               	movlw	0
  6113  0018A4  6EDF               	movwf	indf2,c
  6114                           
  6115                           ;FuncionesMenu.c: 113:         presionarZDecenas[impresionCoordenada] = 0;
  6116  0018A6  0E41               	movlw	low _presionarZDecenas
  6117  0018A8  2567               	addwf	borrarTodasCoordenadas@impresionCoordenada& (0+255),w,b
  6118  0018AA  6ED9               	movwf	fsr2l,c
  6119  0018AC  6ADA               	clrf	fsr2h,c
  6120  0018AE  0E00               	movlw	high _presionarZDecenas
  6121  0018B0  22DA               	addwfc	fsr2h,f,c
  6122  0018B2  0E00               	movlw	0
  6123  0018B4  6EDF               	movwf	indf2,c
  6124                           
  6125                           ;FuncionesMenu.c: 114:         presionarZUnidades[impresionCoordenada] = 0;
  6126  0018B6  0E00               	movlw	low _presionarZUnidades
  6127  0018B8  2567               	addwf	borrarTodasCoordenadas@impresionCoordenada& (0+255),w,b
  6128  0018BA  6ED9               	movwf	fsr2l,c
  6129  0018BC  6ADA               	clrf	fsr2h,c
  6130  0018BE  0E01               	movlw	high _presionarZUnidades
  6131  0018C0  22DA               	addwfc	fsr2h,f,c
  6132  0018C2  0E00               	movlw	0
  6133  0018C4  6EDF               	movwf	indf2,c
  6134  0018C6                     
  6135                           ; BSR set to: 0
  6136                           ;FuncionesMenu.c: 115:     }
  6137  0018C6  2B67               	incf	borrarTodasCoordenadas@impresionCoordenada& (0+255),f,b
  6138  0018C8                     
  6139                           ; BSR set to: 0
  6140  0018C8  0E09               	movlw	9
  6141  0018CA  6567               	cpfsgt	borrarTodasCoordenadas@impresionCoordenada& (0+255),b
  6142  0018CC  EF6A  F00C         	goto	u2191
  6143  0018D0  EF6C  F00C         	goto	u2190
  6144  0018D4                     u2191:
  6145  0018D4  EF1B  F00C         	goto	l2892
  6146  0018D8                     u2190:
  6147  0018D8                     
  6148                           ; BSR set to: 0
  6149                           ;FuncionesMenu.c: 116:     coordenadaNueva = 0;
  6150  0018D8  0E00               	movlw	0
  6151  0018DA  6FF8               	movwf	_coordenadaNueva& (0+255),b
  6152  0018DC                     
  6153                           ; BSR set to: 0
  6154                           ;FuncionesMenu.c: 117:     printf("Listo, todas las coordenadas han sido borradas\n");
  6155  0018DC  0E80               	movlw	low STR_18
  6156  0018DE  6F62               	movwf	printf@PointString& (0+255),b
  6157  0018E0  0E7D               	movlw	high STR_18
  6158  0018E2  6F63               	movwf	(printf@PointString+1)& (0+255),b
  6159  0018E4  ECE2  F00D         	call	_printf	;wreg free
  6160  0018E8  0012               	return		;funcret
  6161  0018EA                     __end_of_borrarTodasCoordenadas:
  6162                           	opt callstack 0
  6163                           
  6164 ;; *************** function _printf *****************
  6165 ;; Defined at:
  6166 ;;		line 6 in file "Comunicacion.c"
  6167 ;; Parameters:    Size  Location     Type
  6168 ;;  PointString     2    2[BANK0 ] PTR unsigned char 
  6169 ;;		 -> STR_35(75), STR_34(13), STR_33(13), STR_32(13), 
  6170 ;;		 -> STR_31(19), STR_30(57), STR_29(13), STR_28(23), 
  6171 ;;		 -> STR_27(44), STR_26(26), STR_25(37), STR_24(212), 
  6172 ;;		 -> STR_23(57), STR_22(52), STR_21(52), STR_20(15), 
  6173 ;;		 -> STR_19(15), STR_18(48), STR_17(31), STR_16(59), 
  6174 ;;		 -> STR_15(68), STR_14(46), STR_13(3), STR_12(12), 
  6175 ;;		 -> STR_11(32), STR_10(12), STR_9(58), STR_8(41), 
  6176 ;;		 -> STR_7(43), STR_6(33), STR_5(33), STR_4(14), 
  6177 ;;		 -> STR_3(14), STR_2(113), STR_1(48), 
  6178 ;; Auto vars:     Size  Location     Type
  6179 ;;  i               1    6[BANK0 ] unsigned char 
  6180 ;; Return value:  Size  Location     Type
  6181 ;;                  1    wreg      void 
  6182 ;; Registers used:
  6183 ;;		wreg, status,2, status,0, tblptrl, tblptrh, tblptru, cstack
  6184 ;; Tracked objects:
  6185 ;;		On entry : 0/0
  6186 ;;		On exit  : 0/0
  6187 ;;		Unchanged: 0/0
  6188 ;; Data sizes:     COMRAM   BANK0   BANK1   BANK2   BANK3   BANK4   BANK5   BANK6   BANK7
  6189 ;;      Params:         0       2       0       0       0       0       0       0       0
  6190 ;;      Locals:         0       1       0       0       0       0       0       0       0
  6191 ;;      Temps:          0       2       0       0       0       0       0       0       0
  6192 ;;      Totals:         0       5       0       0       0       0       0       0       0
  6193 ;;Total ram usage:        5 bytes
  6194 ;; Hardware stack levels used:    1
  6195 ;; Hardware stack levels required when called:    5
  6196 ;; This function calls:
  6197 ;;		_send
  6198 ;; This function is called by:
  6199 ;;		_receiveNum
  6200 ;;		_introducirCoordNueva
  6201 ;;		_imprimirCoordenadas
  6202 ;;		_modificarCoordenada
  6203 ;;		_borrarTodasCoordenadas
  6204 ;;		_moverHaciaX
  6205 ;;		_main
  6206 ;;		_moverHaciaY
  6207 ;; This function uses a non-reentrant model
  6208 ;;
  6209                           
  6210                           	psect	text25
  6211  001BC4                     __ptext25:
  6212                           	opt callstack 0
  6213  001BC4                     _printf:
  6214                           	opt callstack 24
  6215  001BC4                     
  6216                           ;Comunicacion.c: 7:     for (unsigned char i = 0; i < 255; i++) {
  6217  001BC4  0E00               	movlw	0
  6218  001BC6  0100               	movlb	0	; () banked
  6219  001BC8  6F66               	movwf	printf@i& (0+255),b
  6220  001BCA                     l2156:
  6221                           
  6222                           ; BSR set to: 0
  6223                           ;Comunicacion.c: 8:         if (PointString[i] == ((void*)0)) {
  6224  001BCA  5166               	movf	printf@i& (0+255),w,b
  6225  001BCC  2562               	addwf	printf@PointString& (0+255),w,b
  6226  001BCE  6F64               	movwf	??_printf& (0+255),b
  6227  001BD0  0E00               	movlw	0
  6228  001BD2  2163               	addwfc	(printf@PointString+1)& (0+255),w,b
  6229  001BD4  6F65               	movwf	(??_printf+1)& (0+255),b
  6230  001BD6  C064  FFF6         	movff	??_printf,tblptrl
  6231  001BDA  C065  FFF7         	movff	??_printf+1,tblptrh
  6232  001BDE                     	if	0	;tblptru may be non-zero
  6233  001BDE                     	endif
  6234  001BDE                     	if	0	;tblptru may be non-zero
  6235  001BDE                     	endif
  6236  001BDE  0008               	tblrd		*
  6237  001BE0  50F5               	movf	tablat,w,c
  6238  001BE2  0900               	iorlw	0
  6239  001BE4  A4D8               	btfss	status,2,c
  6240  001BE6  EFF7  F00D         	goto	u1271
  6241  001BEA  EFF9  F00D         	goto	u1270
  6242  001BEE                     u1271:
  6243  001BEE  EFFB  F00D         	goto	l2162
  6244  001BF2                     u1270:
  6245  001BF2  EF13  F00E         	goto	l151
  6246  001BF6                     l2162:
  6247                           
  6248                           ; BSR set to: 0
  6249                           ;Comunicacion.c: 11:             send(PointString[i]);
  6250  001BF6  5166               	movf	printf@i& (0+255),w,b
  6251  001BF8  2562               	addwf	printf@PointString& (0+255),w,b
  6252  001BFA  6F64               	movwf	??_printf& (0+255),b
  6253  001BFC  0E00               	movlw	0
  6254  001BFE  2163               	addwfc	(printf@PointString+1)& (0+255),w,b
  6255  001C00  6F65               	movwf	(??_printf+1)& (0+255),b
  6256  001C02  C064  FFF6         	movff	??_printf,tblptrl
  6257  001C06  C065  FFF7         	movff	??_printf+1,tblptrh
  6258  001C0A                     	if	0	;tblptru may be non-zero
  6259  001C0A                     	endif
  6260  001C0A                     	if	0	;tblptru may be non-zero
  6261  001C0A                     	endif
  6262  001C0A  0008               	tblrd		*
  6263  001C0C  50F5               	movf	tablat,w,c
  6264  001C0E  ECDF  F00E         	call	_send
  6265  001C12                     
  6266                           ;Comunicacion.c: 12:     }
  6267  001C12  0100               	movlb	0	; () banked
  6268  001C14  2B66               	incf	printf@i& (0+255),f,b
  6269  001C16                     
  6270                           ; BSR set to: 0
  6271  001C16  2966               	incf	printf@i& (0+255),w,b
  6272  001C18  A4D8               	btfss	status,2,c
  6273  001C1A  EF11  F00E         	goto	u1281
  6274  001C1E  EF13  F00E         	goto	u1280
  6275  001C22                     u1281:
  6276  001C22  EFE5  F00D         	goto	l2156
  6277  001C26                     u1280:
  6278  001C26                     l151:
  6279                           
  6280                           ; BSR set to: 0
  6281  001C26  0012               	return		;funcret
  6282  001C28                     __end_of_printf:
  6283                           	opt callstack 0
  6284                           
  6285 ;; *************** function _send *****************
  6286 ;; Defined at:
  6287 ;;		line 32 in file "UART.c"
  6288 ;; Parameters:    Size  Location     Type
  6289 ;;  enviarpc        1    wreg     unsigned char 
  6290 ;; Auto vars:     Size  Location     Type
  6291 ;;  enviarpc        1    1[BANK0 ] unsigned char 
  6292 ;; Return value:  Size  Location     Type
  6293 ;;                  1    wreg      void 
  6294 ;; Registers used:
  6295 ;;		wreg
  6296 ;; Tracked objects:
  6297 ;;		On entry : 0/0
  6298 ;;		On exit  : 0/0
  6299 ;;		Unchanged: 0/0
  6300 ;; Data sizes:     COMRAM   BANK0   BANK1   BANK2   BANK3   BANK4   BANK5   BANK6   BANK7
  6301 ;;      Params:         0       0       0       0       0       0       0       0       0
  6302 ;;      Locals:         0       1       0       0       0       0       0       0       0
  6303 ;;      Temps:          0       0       0       0       0       0       0       0       0
  6304 ;;      Totals:         0       1       0       0       0       0       0       0       0
  6305 ;;Total ram usage:        1 bytes
  6306 ;; Hardware stack levels used:    1
  6307 ;; Hardware stack levels required when called:    4
  6308 ;; This function calls:
  6309 ;;		Nothing
  6310 ;; This function is called by:
  6311 ;;		_printf
  6312 ;;		_introducirCoordNueva
  6313 ;;		_imprimirCoordenadas
  6314 ;;		_modificarCoordenada
  6315 ;;		_moverHaciaX
  6316 ;;		_moverHaciaY
  6317 ;; This function uses a non-reentrant model
  6318 ;;
  6319                           
  6320                           	psect	text26
  6321  001DBE                     __ptext26:
  6322                           	opt callstack 0
  6323  001DBE                     _send:
  6324                           	opt callstack 24
  6325                           
  6326                           ; BSR set to: 0
  6327                           ;incstack = 0
  6328                           ;send@enviarpc stored from wreg
  6329  001DBE  0100               	movlb	0	; () banked
  6330  001DC0  6F61               	movwf	send@enviarpc& (0+255),b
  6331  001DC2                     l49:
  6332                           
  6333                           ;UART.c: 33:     while (TXSTA1bits.TRMT == 0) {
  6334  001DC2  A2AC               	btfss	172,1,c	;volatile
  6335  001DC4  EFE6  F00E         	goto	u1261
  6336  001DC8  EFE8  F00E         	goto	u1260
  6337  001DCC                     u1261:
  6338  001DCC  EFE1  F00E         	goto	l49
  6339  001DD0                     u1260:
  6340  001DD0                     
  6341                           ;UART.c: 36:     TXREG1 = enviarpc;
  6342  001DD0  C061  FFAD         	movff	send@enviarpc,4013	;volatile
  6343  001DD4  0012               	return		;funcret
  6344  001DD6                     __end_of_send:
  6345                           	opt callstack 0
  6346                           
  6347 ;; *************** function _UARTinit *****************
  6348 ;; Defined at:
  6349 ;;		line 5 in file "UART.c"
  6350 ;; Parameters:    Size  Location     Type
  6351 ;;		None
  6352 ;; Auto vars:     Size  Location     Type
  6353 ;;		None
  6354 ;; Return value:  Size  Location     Type
  6355 ;;                  1    wreg      void 
  6356 ;; Registers used:
  6357 ;;		wreg, status,2
  6358 ;; Tracked objects:
  6359 ;;		On entry : 0/0
  6360 ;;		On exit  : 0/0
  6361 ;;		Unchanged: 0/0
  6362 ;; Data sizes:     COMRAM   BANK0   BANK1   BANK2   BANK3   BANK4   BANK5   BANK6   BANK7
  6363 ;;      Params:         0       0       0       0       0       0       0       0       0
  6364 ;;      Locals:         0       0       0       0       0       0       0       0       0
  6365 ;;      Temps:          0       0       0       0       0       0       0       0       0
  6366 ;;      Totals:         0       0       0       0       0       0       0       0       0
  6367 ;;Total ram usage:        0 bytes
  6368 ;; Hardware stack levels used:    1
  6369 ;; Hardware stack levels required when called:    4
  6370 ;; This function calls:
  6371 ;;		Nothing
  6372 ;; This function is called by:
  6373 ;;		_main
  6374 ;; This function uses a non-reentrant model
  6375 ;;
  6376                           
  6377                           	psect	text27
  6378  001DA4                     __ptext27:
  6379                           	opt callstack 0
  6380  001DA4                     _UARTinit:
  6381                           	opt callstack 26
  6382  001DA4                     
  6383                           ;UART.c: 6:     TRISCbits.RC6 = 1;
  6384  001DA4  8C94               	bsf	148,6,c	;volatile
  6385                           
  6386                           ;UART.c: 7:     TRISCbits.RC7 = 1;
  6387  001DA6  8E94               	bsf	148,7,c	;volatile
  6388  001DA8                     
  6389                           ;UART.c: 9:     SPBRG = 16;
  6390  001DA8  0E10               	movlw	16
  6391  001DAA  6EAF               	movwf	175,c	;volatile
  6392  001DAC                     
  6393                           ;UART.c: 10:     TXSTA1bits.BRGH = 1;
  6394  001DAC  84AC               	bsf	172,2,c	;volatile
  6395  001DAE                     
  6396                           ;UART.c: 11:     BAUDCONbits.BRG16 = 1;
  6397  001DAE  86B8               	bsf	184,3,c	;volatile
  6398  001DB0                     
  6399                           ;UART.c: 13:     TXSTA1bits.TX9 = 0;
  6400  001DB0  9CAC               	bcf	172,6,c	;volatile
  6401  001DB2                     
  6402                           ;UART.c: 14:     TXSTA1bits.TXEN = 1;
  6403  001DB2  8AAC               	bsf	172,5,c	;volatile
  6404  001DB4                     
  6405                           ;UART.c: 15:     TXSTA1bits.SYNC = 0;
  6406  001DB4  98AC               	bcf	172,4,c	;volatile
  6407  001DB6                     
  6408                           ;UART.c: 16:     RCSTA1bits.SPEN = 1;
  6409  001DB6  8EAB               	bsf	171,7,c	;volatile
  6410  001DB8                     
  6411                           ;UART.c: 17:     RCSTA1bits.RX9 = 0;
  6412  001DB8  9CAB               	bcf	171,6,c	;volatile
  6413  001DBA                     
  6414                           ;UART.c: 18:     RCSTA1bits.CREN = 1;
  6415  001DBA  88AB               	bsf	171,4,c	;volatile
  6416  001DBC  0012               	return		;funcret
  6417  001DBE                     __end_of_UARTinit:
  6418                           	opt callstack 0
  6419                           
  6420 ;; *************** function _PWM_CCP2_init *****************
  6421 ;; Defined at:
  6422 ;;		line 4 in file "PWMCCP2.c"
  6423 ;; Parameters:    Size  Location     Type
  6424 ;;		None
  6425 ;; Auto vars:     Size  Location     Type
  6426 ;;		None
  6427 ;; Return value:  Size  Location     Type
  6428 ;;                  1    wreg      void 
  6429 ;; Registers used:
  6430 ;;		wreg, status,2
  6431 ;; Tracked objects:
  6432 ;;		On entry : 0/0
  6433 ;;		On exit  : 0/0
  6434 ;;		Unchanged: 0/0
  6435 ;; Data sizes:     COMRAM   BANK0   BANK1   BANK2   BANK3   BANK4   BANK5   BANK6   BANK7
  6436 ;;      Params:         0       0       0       0       0       0       0       0       0
  6437 ;;      Locals:         0       0       0       0       0       0       0       0       0
  6438 ;;      Temps:          0       0       0       0       0       0       0       0       0
  6439 ;;      Totals:         0       0       0       0       0       0       0       0       0
  6440 ;;Total ram usage:        0 bytes
  6441 ;; Hardware stack levels used:    1
  6442 ;; Hardware stack levels required when called:    4
  6443 ;; This function calls:
  6444 ;;		Nothing
  6445 ;; This function is called by:
  6446 ;;		_main
  6447 ;; This function uses a non-reentrant model
  6448 ;;
  6449                           
  6450                           	psect	text28
  6451  001D50                     __ptext28:
  6452                           	opt callstack 0
  6453  001D50                     _PWM_CCP2_init:
  6454                           	opt callstack 26
  6455  001D50                     
  6456                           ;PWMCCP2.c: 5:     TRISCbits.RC1 = 0;
  6457  001D50  9294               	bcf	148,1,c	;volatile
  6458  001D52                     
  6459                           ;PWMCCP2.c: 6:     CCP2CONbits.CCP2M = 0b1111;
  6460  001D52  0E0F               	movlw	15
  6461  001D54  12BA               	iorwf	186,f,c	;volatile
  6462                           
  6463                           ;PWMCCP2.c: 8:     PR2 = 249;
  6464  001D56  0EF9               	movlw	249
  6465  001D58  6ECB               	movwf	203,c	;volatile
  6466                           
  6467                           ;PWMCCP2.c: 9:     T2CONbits.T2CKPS = 0b11;
  6468  001D5A  0E03               	movlw	3
  6469  001D5C  12CA               	iorwf	202,f,c	;volatile
  6470                           
  6471                           ;PWMCCP2.c: 11:     CCP2CONbits.DC2B = 0;
  6472  001D5E  0ECF               	movlw	-49
  6473  001D60  16BA               	andwf	186,f,c	;volatile
  6474                           
  6475                           ;PWMCCP2.c: 12:     CCPR2L = 0;
  6476  001D62  0E00               	movlw	0
  6477  001D64  6EBB               	movwf	187,c	;volatile
  6478                           
  6479                           ;PWMCCP2.c: 13:     TMR2 = 0;
  6480  001D66  0E00               	movlw	0
  6481  001D68  6ECC               	movwf	204,c	;volatile
  6482  001D6A                     
  6483                           ;PWMCCP2.c: 14:     T2CONbits.TMR2ON = 1;
  6484  001D6A  84CA               	bsf	202,2,c	;volatile
  6485  001D6C  0012               	return		;funcret
  6486  001D6E                     __end_of_PWM_CCP2_init:
  6487                           	opt callstack 0
  6488                           
  6489 ;; *************** function _PWM_CCP1_init *****************
  6490 ;; Defined at:
  6491 ;;		line 5 in file "PWMCCP1.c"
  6492 ;; Parameters:    Size  Location     Type
  6493 ;;		None
  6494 ;; Auto vars:     Size  Location     Type
  6495 ;;		None
  6496 ;; Return value:  Size  Location     Type
  6497 ;;                  1    wreg      void 
  6498 ;; Registers used:
  6499 ;;		wreg, status,2
  6500 ;; Tracked objects:
  6501 ;;		On entry : 0/0
  6502 ;;		On exit  : 0/0
  6503 ;;		Unchanged: 0/0
  6504 ;; Data sizes:     COMRAM   BANK0   BANK1   BANK2   BANK3   BANK4   BANK5   BANK6   BANK7
  6505 ;;      Params:         0       0       0       0       0       0       0       0       0
  6506 ;;      Locals:         0       0       0       0       0       0       0       0       0
  6507 ;;      Temps:          0       0       0       0       0       0       0       0       0
  6508 ;;      Totals:         0       0       0       0       0       0       0       0       0
  6509 ;;Total ram usage:        0 bytes
  6510 ;; Hardware stack levels used:    1
  6511 ;; Hardware stack levels required when called:    4
  6512 ;; This function calls:
  6513 ;;		Nothing
  6514 ;; This function is called by:
  6515 ;;		_main
  6516 ;; This function uses a non-reentrant model
  6517 ;;
  6518                           
  6519                           	psect	text29
  6520  001D2E                     __ptext29:
  6521                           	opt callstack 0
  6522  001D2E                     _PWM_CCP1_init:
  6523                           	opt callstack 26
  6524  001D2E                     
  6525                           ;PWMCCP1.c: 6:     TRISCbits.RC2 = 0;
  6526  001D2E  9494               	bcf	148,2,c	;volatile
  6527  001D30                     
  6528                           ;PWMCCP1.c: 7:     CCP1CONbits.CCP1M = 0b1100;
  6529  001D30  50BD               	movf	189,w,c	;volatile
  6530  001D32  0BF0               	andlw	-16
  6531  001D34  090C               	iorlw	12
  6532  001D36  6EBD               	movwf	189,c	;volatile
  6533                           
  6534                           ;PWMCCP1.c: 9:     PR2 = 249;
  6535  001D38  0EF9               	movlw	249
  6536  001D3A  6ECB               	movwf	203,c	;volatile
  6537                           
  6538                           ;PWMCCP1.c: 10:     T2CONbits.T2CKPS = 0b11;
  6539  001D3C  0E03               	movlw	3
  6540  001D3E  12CA               	iorwf	202,f,c	;volatile
  6541                           
  6542                           ;PWMCCP1.c: 12:     CCP1CONbits.DC1B = 0;
  6543  001D40  0ECF               	movlw	-49
  6544  001D42  16BD               	andwf	189,f,c	;volatile
  6545                           
  6546                           ;PWMCCP1.c: 13:     CCPR1L = 0;
  6547  001D44  0E00               	movlw	0
  6548  001D46  6EBE               	movwf	190,c	;volatile
  6549                           
  6550                           ;PWMCCP1.c: 14:     TMR2 = 0;
  6551  001D48  0E00               	movlw	0
  6552  001D4A  6ECC               	movwf	204,c	;volatile
  6553  001D4C                     
  6554                           ;PWMCCP1.c: 15:     T2CONbits.TMR2ON = 1;
  6555  001D4C  84CA               	bsf	202,2,c	;volatile
  6556  001D4E  0012               	return		;funcret
  6557  001D50                     __end_of_PWM_CCP1_init:
  6558                           	opt callstack 0
  6559                           
  6560 ;; *************** function _low_isr *****************
  6561 ;; Defined at:
  6562 ;;		line 36 in file "main.c"
  6563 ;; Parameters:    Size  Location     Type
  6564 ;;		None
  6565 ;; Auto vars:     Size  Location     Type
  6566 ;;		None
  6567 ;; Return value:  Size  Location     Type
  6568 ;;                  1    wreg      void 
  6569 ;; Registers used:
  6570 ;;		None
  6571 ;; Tracked objects:
  6572 ;;		On entry : 0/0
  6573 ;;		On exit  : 0/0
  6574 ;;		Unchanged: 0/0
  6575 ;; Data sizes:     COMRAM   BANK0   BANK1   BANK2   BANK3   BANK4   BANK5   BANK6   BANK7
  6576 ;;      Params:         0       0       0       0       0       0       0       0       0
  6577 ;;      Locals:         0       0       0       0       0       0       0       0       0
  6578 ;;      Temps:          0       1       0       0       0       0       0       0       0
  6579 ;;      Totals:         0       1       0       0       0       0       0       0       0
  6580 ;;Total ram usage:        1 bytes
  6581 ;; Hardware stack levels used:    1
  6582 ;; Hardware stack levels required when called:    3
  6583 ;; This function calls:
  6584 ;;		Nothing
  6585 ;; This function is called by:
  6586 ;;		Interrupt level 1
  6587 ;; This function uses a non-reentrant model
  6588 ;;
  6589                           
  6590                           	psect	intcodelo
  6591  000018                     __pintcodelo:
  6592                           	opt callstack 0
  6593  000018                     _low_isr:
  6594                           	opt callstack 22
  6595                           
  6596                           ;incstack = 0
  6597  000018  8059               	bsf	int$flags,0,c	;set compiler interrupt flag (level 1)
  6598  00001A  CFE0 F060          	movff	bsr,??_low_isr
  6599  00001E                     
  6600                           ;main.c: 37:     __nop();
  6601  00001E  F000               	nop	
  6602  000020  C060  FFE0         	movff	??_low_isr,bsr
  6603  000024  9059               	bcf	int$flags,0,c	;clear compiler interrupt flag (level 1)
  6604  000026  0010               	retfie	
  6605  000028                     __end_of_low_isr:
  6606                           	opt callstack 0
  6607                           
  6608 ;; *************** function _high_isr *****************
  6609 ;; Defined at:
  6610 ;;		line 18 in file "main.c"
  6611 ;; Parameters:    Size  Location     Type
  6612 ;;		None
  6613 ;; Auto vars:     Size  Location     Type
  6614 ;;		None
  6615 ;; Return value:  Size  Location     Type
  6616 ;;                  1    wreg      void 
  6617 ;; Registers used:
  6618 ;;		wreg, status,2, status,0, tblptrl, tblptrh, tblptru, prodl, prodh, cstack
  6619 ;; Tracked objects:
  6620 ;;		On entry : 0/0
  6621 ;;		On exit  : 0/0
  6622 ;;		Unchanged: 0/0
  6623 ;; Data sizes:     COMRAM   BANK0   BANK1   BANK2   BANK3   BANK4   BANK5   BANK6   BANK7
  6624 ;;      Params:         0       0       0       0       0       0       0       0       0
  6625 ;;      Locals:         0       0       0       0       0       0       0       0       0
  6626 ;;      Temps:          6       0       0       0       0       0       0       0       0
  6627 ;;      Totals:         6       0       0       0       0       0       0       0       0
  6628 ;;Total ram usage:        6 bytes
  6629 ;; Hardware stack levels used:    1
  6630 ;; Hardware stack levels required when called:    2
  6631 ;; This function calls:
  6632 ;;		i2_PWM_DutyCycleCCP1
  6633 ;;		i2_PWM_DutyCycleCCP2
  6634 ;;		i2_printf
  6635 ;; This function is called by:
  6636 ;;		Interrupt level 2
  6637 ;; This function uses a non-reentrant model
  6638 ;;
  6639                           
  6640                           	psect	intcode
  6641  000008                     __pintcode:
  6642                           	opt callstack 0
  6643  000008                     _high_isr:
  6644                           	opt callstack 22
  6645                           
  6646                           ;incstack = 0
  6647  000008  8259               	bsf	int$flags,1,c	;set compiler interrupt flag (level 2)
  6648  00000A  ED29  F00D         	call	int_func,f	;refresh shadow registers
  6649                           
  6650                           	psect	intcode_body
  6651  001A52                     __pintcode_body:
  6652                           	opt callstack 22
  6653  001A52                     int_func:
  6654                           	opt callstack 22
  6655  001A52  0006               	pop		; remove dummy address from shadow register refresh
  6656  001A54  CFF3 F03B          	movff	prodl,??_high_isr
  6657  001A58  CFF4 F03C          	movff	prodh,??_high_isr+1
  6658  001A5C  CFF6 F03D          	movff	tblptrl,??_high_isr+2
  6659  001A60  CFF7 F03E          	movff	tblptrh,??_high_isr+3
  6660  001A64  CFF8 F03F          	movff	tblptru,??_high_isr+4
  6661  001A68  CFF5 F040          	movff	tablat,??_high_isr+5
  6662  001A6C                     
  6663                           ;main.c: 19:     if (INTCONbits.TMR0IF == 1) {
  6664  001A6C  A4F2               	btfss	242,2,c	;volatile
  6665  001A6E  EF3B  F00D         	goto	i2u230_41
  6666  001A72  EF3D  F00D         	goto	i2u230_40
  6667  001A76                     i2u230_41:
  6668  001A76  EF4E  F00D         	goto	i2l3008
  6669  001A7A                     i2u230_40:
  6670  001A7A                     
  6671                           ;main.c: 20:         PWM_DutyCycleCCP2(0);
  6672  001A7A  0E00               	movlw	0
  6673  001A7C  EC75  F00C         	call	i2_PWM_DutyCycleCCP2
  6674  001A80                     
  6675                           ;main.c: 21:         CurrentPosY = coordinates.yWanted;
  6676  001A80  C0EC  F055         	movff	_coordinates+2,_CurrentPosY
  6677  001A84  C0ED  F056         	movff	_coordinates+3,_CurrentPosY+1
  6678  001A88                     
  6679                           ;main.c: 22:         printf("Interrupcion TMR0, llegaste a coordenada deseada Y\n");
  6680  001A88  0E4C               	movlw	low STR_21
  6681  001A8A  6E02               	movwf	i2printf@PointString^0,c
  6682  001A8C  0E7D               	movlw	high STR_21
  6683  001A8E  6E03               	movwf	(i2printf@PointString+1)^0,c
  6684  001A90  ECAE  F00D         	call	i2_printf	;wreg free
  6685  001A94                     
  6686                           ;main.c: 23:         sparcEnMovimiento = 0;
  6687  001A94  0E00               	movlw	0
  6688  001A96  0100               	movlb	0	; () banked
  6689  001A98  6FF6               	movwf	_sparcEnMovimiento& (0+255),b
  6690  001A9A                     
  6691                           ; BSR set to: 0
  6692                           ;main.c: 24:         INTCONbits.TMR0IF = 0;
  6693  001A9A  94F2               	bcf	242,2,c	;volatile
  6694  001A9C                     i2l3008:
  6695                           
  6696                           ;main.c: 26:     if (PIR1bits.TMR1IF == 1) {
  6697  001A9C  A09E               	btfss	158,0,c	;volatile
  6698  001A9E  EF53  F00D         	goto	i2u231_41
  6699  001AA2  EF55  F00D         	goto	i2u231_40
  6700  001AA6                     i2u231_41:
  6701  001AA6  EF66  F00D         	goto	i2l401
  6702  001AAA                     i2u231_40:
  6703  001AAA                     
  6704                           ;main.c: 27:         PWM_DutyCycleCCP1(0);
  6705  001AAA  0E00               	movlw	0
  6706  001AAC  ECCF  F00C         	call	i2_PWM_DutyCycleCCP1
  6707  001AB0                     
  6708                           ;main.c: 28:         CurrentPosX = coordinates.xWanted;
  6709  001AB0  C0EA  F0F2         	movff	_coordinates,_CurrentPosX
  6710  001AB4  C0EB  F0F3         	movff	_coordinates+1,_CurrentPosX+1
  6711  001AB8                     
  6712                           ;main.c: 29:         printf("Interrupcion TMR1, llegaste a coordenada deseada X\n");
  6713  001AB8  0E18               	movlw	low STR_22
  6714  001ABA  6E02               	movwf	i2printf@PointString^0,c
  6715  001ABC  0E7D               	movlw	high STR_22
  6716  001ABE  6E03               	movwf	(i2printf@PointString+1)^0,c
  6717  001AC0  ECAE  F00D         	call	i2_printf	;wreg free
  6718  001AC4                     
  6719                           ;main.c: 30:         sparcEnMovimiento = 0;
  6720  001AC4  0E00               	movlw	0
  6721  001AC6  0100               	movlb	0	; () banked
  6722  001AC8  6FF6               	movwf	_sparcEnMovimiento& (0+255),b
  6723  001ACA                     
  6724                           ; BSR set to: 0
  6725                           ;main.c: 31:         PIR1bits.TMR1IF = 0;
  6726  001ACA  909E               	bcf	158,0,c	;volatile
  6727  001ACC                     i2l401:
  6728  001ACC  C040  FFF5         	movff	??_high_isr+5,tablat
  6729  001AD0  C03F  FFF8         	movff	??_high_isr+4,tblptru
  6730  001AD4  C03E  FFF7         	movff	??_high_isr+3,tblptrh
  6731  001AD8  C03D  FFF6         	movff	??_high_isr+2,tblptrl
  6732  001ADC  C03C  FFF4         	movff	??_high_isr+1,prodh
  6733  001AE0  C03B  FFF3         	movff	??_high_isr,prodl
  6734  001AE4  9259               	bcf	int$flags,1,c	;clear compiler interrupt flag (level 2)
  6735  001AE6  0011               	retfie		f
  6736  001AE8                     __end_of_high_isr:
  6737                           	opt callstack 0
  6738                           
  6739 ;; *************** function i2_printf *****************
  6740 ;; Defined at:
  6741 ;;		line 6 in file "Comunicacion.c"
  6742 ;; Parameters:    Size  Location     Type
  6743 ;;  PointString     2    1[COMRAM] PTR unsigned char 
  6744 ;;		 -> STR_35(75), STR_34(13), STR_33(13), STR_32(13), 
  6745 ;;		 -> STR_31(19), STR_30(57), STR_29(13), STR_28(23), 
  6746 ;;		 -> STR_27(44), STR_26(26), STR_25(37), STR_24(212), 
  6747 ;;		 -> STR_23(57), STR_22(52), STR_21(52), STR_20(15), 
  6748 ;;		 -> STR_19(15), STR_18(48), STR_17(31), STR_16(59), 
  6749 ;;		 -> STR_15(68), STR_14(46), STR_13(3), STR_12(12), 
  6750 ;;		 -> STR_11(32), STR_10(12), STR_9(58), STR_8(41), 
  6751 ;;		 -> STR_7(43), STR_6(33), STR_5(33), STR_4(14), 
  6752 ;;		 -> STR_3(14), STR_2(113), STR_1(48), 
  6753 ;; Auto vars:     Size  Location     Type
  6754 ;;  printf          1    5[COMRAM] unsigned char 
  6755 ;; Return value:  Size  Location     Type
  6756 ;;                  1    wreg      void 
  6757 ;; Registers used:
  6758 ;;		wreg, status,2, status,0, tblptrl, tblptrh, tblptru, cstack
  6759 ;; Tracked objects:
  6760 ;;		On entry : 0/0
  6761 ;;		On exit  : 0/0
  6762 ;;		Unchanged: 0/0
  6763 ;; Data sizes:     COMRAM   BANK0   BANK1   BANK2   BANK3   BANK4   BANK5   BANK6   BANK7
  6764 ;;      Params:         2       0       0       0       0       0       0       0       0
  6765 ;;      Locals:         1       0       0       0       0       0       0       0       0
  6766 ;;      Temps:          2       0       0       0       0       0       0       0       0
  6767 ;;      Totals:         5       0       0       0       0       0       0       0       0
  6768 ;;Total ram usage:        5 bytes
  6769 ;; Hardware stack levels used:    1
  6770 ;; Hardware stack levels required when called:    1
  6771 ;; This function calls:
  6772 ;;		i2_send
  6773 ;; This function is called by:
  6774 ;;		_high_isr
  6775 ;; This function uses a non-reentrant model
  6776 ;;
  6777                           
  6778                           	psect	text32
  6779  001B5C                     __ptext32:
  6780                           	opt callstack 0
  6781  001B5C                     i2_printf:
  6782                           	opt callstack 22
  6783  001B5C                     
  6784                           ;Comunicacion.c: 7:     for (unsigned char i = 0; i < 255; i++) {
  6785  001B5C  0E00               	movlw	0
  6786  001B5E  6E06               	movwf	i2printf@i^0,c
  6787  001B60                     i2l2948:
  6788  001B60  2806               	incf	i2printf@i^0,w,c
  6789  001B62  A4D8               	btfss	status,2,c
  6790  001B64  EFB6  F00D         	goto	i2u224_41
  6791  001B68  EFB8  F00D         	goto	i2u224_40
  6792  001B6C                     i2u224_41:
  6793  001B6C  EFBA  F00D         	goto	i2l2952
  6794  001B70                     i2u224_40:
  6795  001B70  EFE1  F00D         	goto	i2l151
  6796  001B74                     i2l2952:
  6797                           
  6798                           ;Comunicacion.c: 8:         if (PointString[i] == ((void*)0)) {
  6799  001B74  5006               	movf	i2printf@i^0,w,c
  6800  001B76  2402               	addwf	i2printf@PointString^0,w,c
  6801  001B78  6E04               	movwf	??i2_printf^0,c
  6802  001B7A  0E00               	movlw	0
  6803  001B7C  2003               	addwfc	(i2printf@PointString+1)^0,w,c
  6804  001B7E  6E05               	movwf	(??i2_printf+1)^0,c
  6805  001B80  C004  FFF6         	movff	??i2_printf,tblptrl
  6806  001B84  C005  FFF7         	movff	??i2_printf+1,tblptrh
  6807  001B88                     	if	0	;tblptru may be non-zero
  6808  001B88                     	endif
  6809  001B88                     	if	0	;tblptru may be non-zero
  6810  001B88                     	endif
  6811  001B88  0008               	tblrd		*
  6812  001B8A  50F5               	movf	tablat,w,c
  6813  001B8C  0900               	iorlw	0
  6814  001B8E  A4D8               	btfss	status,2,c
  6815  001B90  EFCC  F00D         	goto	i2u225_41
  6816  001B94  EFCE  F00D         	goto	i2u225_40
  6817  001B98                     i2u225_41:
  6818  001B98  EFD0  F00D         	goto	i2l2958
  6819  001B9C                     i2u225_40:
  6820  001B9C  EFE1  F00D         	goto	i2l151
  6821  001BA0                     i2l2958:
  6822                           
  6823                           ;Comunicacion.c: 11:             send(PointString[i]);
  6824  001BA0  5006               	movf	i2printf@i^0,w,c
  6825  001BA2  2402               	addwf	i2printf@PointString^0,w,c
  6826  001BA4  6E04               	movwf	??i2_printf^0,c
  6827  001BA6  0E00               	movlw	0
  6828  001BA8  2003               	addwfc	(i2printf@PointString+1)^0,w,c
  6829  001BAA  6E05               	movwf	(??i2_printf+1)^0,c
  6830  001BAC  C004  FFF6         	movff	??i2_printf,tblptrl
  6831  001BB0  C005  FFF7         	movff	??i2_printf+1,tblptrh
  6832  001BB4                     	if	0	;tblptru may be non-zero
  6833  001BB4                     	endif
  6834  001BB4                     	if	0	;tblptru may be non-zero
  6835  001BB4                     	endif
  6836  001BB4  0008               	tblrd		*
  6837  001BB6  50F5               	movf	tablat,w,c
  6838  001BB8  ECF6  F00E         	call	i2_send
  6839  001BBC                     
  6840                           ;Comunicacion.c: 12:     }
  6841  001BBC  2A06               	incf	i2printf@i^0,f,c
  6842  001BBE  EFB0  F00D         	goto	i2l2948
  6843  001BC2                     i2l151:
  6844  001BC2  0012               	return		;funcret
  6845  001BC4                     __end_ofi2_printf:
  6846                           	opt callstack 0
  6847                           
  6848 ;; *************** function i2_send *****************
  6849 ;; Defined at:
  6850 ;;		line 32 in file "UART.c"
  6851 ;; Parameters:    Size  Location     Type
  6852 ;;  enviarpc        1    wreg     unsigned char 
  6853 ;; Auto vars:     Size  Location     Type
  6854 ;;  enviarpc        1    0[COMRAM] unsigned char 
  6855 ;; Return value:  Size  Location     Type
  6856 ;;                  1    wreg      void 
  6857 ;; Registers used:
  6858 ;;		wreg
  6859 ;; Tracked objects:
  6860 ;;		On entry : 0/0
  6861 ;;		On exit  : 0/0
  6862 ;;		Unchanged: 0/0
  6863 ;; Data sizes:     COMRAM   BANK0   BANK1   BANK2   BANK3   BANK4   BANK5   BANK6   BANK7
  6864 ;;      Params:         0       0       0       0       0       0       0       0       0
  6865 ;;      Locals:         1       0       0       0       0       0       0       0       0
  6866 ;;      Temps:          0       0       0       0       0       0       0       0       0
  6867 ;;      Totals:         1       0       0       0       0       0       0       0       0
  6868 ;;Total ram usage:        1 bytes
  6869 ;; Hardware stack levels used:    1
  6870 ;; This function calls:
  6871 ;;		Nothing
  6872 ;; This function is called by:
  6873 ;;		i2_printf
  6874 ;; This function uses a non-reentrant model
  6875 ;;
  6876                           
  6877                           	psect	text33
  6878  001DEC                     __ptext33:
  6879                           	opt callstack 0
  6880  001DEC                     i2_send:
  6881                           	opt callstack 22
  6882                           
  6883                           ;incstack = 0
  6884                           ;i2send@enviarpc stored from wreg
  6885  001DEC  6E01               	movwf	i2send@enviarpc^0,c
  6886  001DEE                     i2l49:
  6887                           
  6888                           ;UART.c: 33:     while (TXSTA1bits.TRMT == 0) {
  6889  001DEE  A2AC               	btfss	172,1,c	;volatile
  6890  001DF0  EFFC  F00E         	goto	i2u179_41
  6891  001DF4  EFFE  F00E         	goto	i2u179_40
  6892  001DF8                     i2u179_41:
  6893  001DF8  EFF7  F00E         	goto	i2l49
  6894  001DFC                     i2u179_40:
  6895  001DFC                     
  6896                           ;UART.c: 36:     TXREG1 = enviarpc;
  6897  001DFC  C001  FFAD         	movff	i2send@enviarpc,4013	;volatile
  6898  001E00  0012               	return		;funcret
  6899  001E02                     __end_ofi2_send:
  6900                           	opt callstack 0
  6901                           
  6902 ;; *************** function i2_PWM_DutyCycleCCP2 *****************
  6903 ;; Defined at:
  6904 ;;		line 16 in file "PWMCCP2.c"
  6905 ;; Parameters:    Size  Location     Type
  6906 ;;  WantedDutyCy    1    wreg     unsigned char 
  6907 ;; Auto vars:     Size  Location     Type
  6908 ;;  WantedDutyCy    1   55[COMRAM] unsigned char 
  6909 ;;  PWM_DutyCycl    2   56[COMRAM] unsigned int 
  6910 ;; Return value:  Size  Location     Type
  6911 ;;                  1    wreg      void 
  6912 ;; Registers used:
  6913 ;;		wreg, status,2, status,0, prodl, prodh, cstack
  6914 ;; Tracked objects:
  6915 ;;		On entry : 0/0
  6916 ;;		On exit  : 0/0
  6917 ;;		Unchanged: 0/0
  6918 ;; Data sizes:     COMRAM   BANK0   BANK1   BANK2   BANK3   BANK4   BANK5   BANK6   BANK7
  6919 ;;      Params:         0       0       0       0       0       0       0       0       0
  6920 ;;      Locals:         7       0       0       0       0       0       0       0       0
  6921 ;;      Temps:          2       0       0       0       0       0       0       0       0
  6922 ;;      Totals:         9       0       0       0       0       0       0       0       0
  6923 ;;Total ram usage:        9 bytes
  6924 ;; Hardware stack levels used:    1
  6925 ;; Hardware stack levels required when called:    1
  6926 ;; This function calls:
  6927 ;;		i2___flmul
  6928 ;;		i2___fltol
  6929 ;;		i2___xxtofl
  6930 ;; This function is called by:
  6931 ;;		_high_isr
  6932 ;; This function uses a non-reentrant model
  6933 ;;
  6934                           
  6935                           	psect	text34
  6936  0018EA                     __ptext34:
  6937                           	opt callstack 0
  6938  0018EA                     i2_PWM_DutyCycleCCP2:
  6939                           	opt callstack 22
  6940                           
  6941                           ;incstack = 0
  6942                           ;i2PWM_DutyCycleCCP2@WantedDutyCycle stored from wreg
  6943  0018EA  6E38               	movwf	i2PWM_DutyCycleCCP2@WantedDutyCycle^0,c
  6944  0018EC                     
  6945                           ;PWMCCP2.c: 18:     unsigned int PWMDutyValue;;PWMCCP2.c: 19:     PWMDutyValue = (Wanted
      +                          DutyCycle * 0.01)*1000;
  6946  0018EC  0E0A               	movlw	10
  6947  0018EE  6E13               	movwf	i2___flmul@a^0,c
  6948  0018F0  0ED7               	movlw	215
  6949  0018F2  6E14               	movwf	(i2___flmul@a+1)^0,c
  6950  0018F4  0E23               	movlw	35
  6951  0018F6  6E15               	movwf	(i2___flmul@a+2)^0,c
  6952  0018F8  0E3C               	movlw	60
  6953  0018FA  6E16               	movwf	(i2___flmul@a+3)^0,c
  6954  0018FC  5038               	movf	i2PWM_DutyCycleCCP2@WantedDutyCycle^0,w,c
  6955  0018FE  6E01               	movwf	i2___xxtofl@val^0,c
  6956  001900  6A02               	clrf	(i2___xxtofl@val+1)^0,c
  6957  001902  6A03               	clrf	(i2___xxtofl@val+2)^0,c
  6958  001904  6A04               	clrf	(i2___xxtofl@val+3)^0,c
  6959  001906  0E01               	movlw	1
  6960  001908  EC02  F008         	call	i2___xxtofl
  6961  00190C  C001  F00F         	movff	?i2___xxtofl,i2___flmul@b
  6962  001910  C002  F010         	movff	?i2___xxtofl+1,i2___flmul@b+1
  6963  001914  C003  F011         	movff	?i2___xxtofl+2,i2___flmul@b+2
  6964  001918  C004  F012         	movff	?i2___xxtofl+3,i2___flmul@b+3
  6965  00191C  EC2C  F002         	call	i2___flmul	;wreg free
  6966  001920  C00F  F034         	movff	?i2___flmul,i2_PWM_DutyCycleCCP2$2480
  6967  001924  C010  F035         	movff	?i2___flmul+1,i2_PWM_DutyCycleCCP2$2480+1
  6968  001928  C011  F036         	movff	?i2___flmul+2,i2_PWM_DutyCycleCCP2$2480+2
  6969  00192C  C012  F037         	movff	?i2___flmul+3,i2_PWM_DutyCycleCCP2$2480+3
  6970                           
  6971                           ;PWMCCP2.c: 18:     unsigned int PWMDutyValue;;PWMCCP2.c: 19:     PWMDutyValue = (Wanted
      +                          DutyCycle * 0.01)*1000;
  6972  001930  0E00               	movlw	0
  6973  001932  6E13               	movwf	i2___flmul@a^0,c
  6974  001934  0E00               	movlw	0
  6975  001936  6E14               	movwf	(i2___flmul@a+1)^0,c
  6976  001938  0E7A               	movlw	122
  6977  00193A  6E15               	movwf	(i2___flmul@a+2)^0,c
  6978  00193C  0E44               	movlw	68
  6979  00193E  6E16               	movwf	(i2___flmul@a+3)^0,c
  6980  001940  C034  F00F         	movff	i2_PWM_DutyCycleCCP2$2480,i2___flmul@b
  6981  001944  C035  F010         	movff	i2_PWM_DutyCycleCCP2$2480+1,i2___flmul@b+1
  6982  001948  C036  F011         	movff	i2_PWM_DutyCycleCCP2$2480+2,i2___flmul@b+2
  6983  00194C  C037  F012         	movff	i2_PWM_DutyCycleCCP2$2480+3,i2___flmul@b+3
  6984  001950  EC2C  F002         	call	i2___flmul	;wreg free
  6985  001954  C00F  F028         	movff	?i2___flmul,i2___fltol@f1
  6986  001958  C010  F029         	movff	?i2___flmul+1,i2___fltol@f1+1
  6987  00195C  C011  F02A         	movff	?i2___flmul+2,i2___fltol@f1+2
  6988  001960  C012  F02B         	movff	?i2___flmul+3,i2___fltol@f1+3
  6989  001964  ECFE  F009         	call	i2___fltol	;wreg free
  6990  001968  C028  F039         	movff	?i2___fltol,i2PWM_DutyCycleCCP2@PWMDutyValue
  6991  00196C  C029  F03A         	movff	?i2___fltol+1,i2PWM_DutyCycleCCP2@PWMDutyValue+1
  6992  001970                     
  6993                           ;PWMCCP2.c: 21:     CCP2CONbits.DC2B = (PWMDutyValue & 0x03);
  6994  001970  C039  F032         	movff	i2PWM_DutyCycleCCP2@PWMDutyValue,??i2_PWM_DutyCycleCCP2
  6995  001974  0E03               	movlw	3
  6996  001976  1632               	andwf	??i2_PWM_DutyCycleCCP2^0,f,c
  6997  001978  3A32               	swapf	??i2_PWM_DutyCycleCCP2^0,f,c
  6998  00197A  50BA               	movf	186,w,c	;volatile
  6999  00197C  1832               	xorwf	??i2_PWM_DutyCycleCCP2^0,w,c
  7000  00197E  0BCF               	andlw	-49
  7001  001980  1832               	xorwf	??i2_PWM_DutyCycleCCP2^0,w,c
  7002  001982  6EBA               	movwf	186,c	;volatile
  7003  001984                     
  7004                           ;PWMCCP2.c: 22:     CCPR2L = ((PWMDutyValue >> 2)&0xFF);
  7005  001984  C039  F032         	movff	i2PWM_DutyCycleCCP2@PWMDutyValue,??i2_PWM_DutyCycleCCP2
  7006  001988  C03A  F033         	movff	i2PWM_DutyCycleCCP2@PWMDutyValue+1,??i2_PWM_DutyCycleCCP2+1
  7007  00198C  90D8               	bcf	status,0,c
  7008  00198E  3233               	rrcf	(??i2_PWM_DutyCycleCCP2+1)^0,f,c
  7009  001990  3232               	rrcf	??i2_PWM_DutyCycleCCP2^0,f,c
  7010  001992  90D8               	bcf	status,0,c
  7011  001994  3233               	rrcf	(??i2_PWM_DutyCycleCCP2+1)^0,f,c
  7012  001996  3232               	rrcf	??i2_PWM_DutyCycleCCP2^0,f,c
  7013  001998  5032               	movf	??i2_PWM_DutyCycleCCP2^0,w,c
  7014  00199A  6EBB               	movwf	187,c	;volatile
  7015  00199C  0012               	return		;funcret
  7016  00199E                     __end_ofi2_PWM_DutyCycleCCP2:
  7017                           	opt callstack 0
  7018                           
  7019 ;; *************** function i2_PWM_DutyCycleCCP1 *****************
  7020 ;; Defined at:
  7021 ;;		line 17 in file "PWMCCP1.c"
  7022 ;; Parameters:    Size  Location     Type
  7023 ;;  WantedDutyCy    1    wreg     unsigned char 
  7024 ;; Auto vars:     Size  Location     Type
  7025 ;;  WantedDutyCy    1   55[COMRAM] unsigned char 
  7026 ;;  PWM_DutyCycl    2   56[COMRAM] unsigned int 
  7027 ;; Return value:  Size  Location     Type
  7028 ;;                  1    wreg      void 
  7029 ;; Registers used:
  7030 ;;		wreg, status,2, status,0, prodl, prodh, cstack
  7031 ;; Tracked objects:
  7032 ;;		On entry : 0/0
  7033 ;;		On exit  : 0/0
  7034 ;;		Unchanged: 0/0
  7035 ;; Data sizes:     COMRAM   BANK0   BANK1   BANK2   BANK3   BANK4   BANK5   BANK6   BANK7
  7036 ;;      Params:         0       0       0       0       0       0       0       0       0
  7037 ;;      Locals:         7       0       0       0       0       0       0       0       0
  7038 ;;      Temps:          2       0       0       0       0       0       0       0       0
  7039 ;;      Totals:         9       0       0       0       0       0       0       0       0
  7040 ;;Total ram usage:        9 bytes
  7041 ;; Hardware stack levels used:    1
  7042 ;; Hardware stack levels required when called:    1
  7043 ;; This function calls:
  7044 ;;		i2___flmul
  7045 ;;		i2___fltol
  7046 ;;		i2___xxtofl
  7047 ;; This function is called by:
  7048 ;;		_high_isr
  7049 ;; This function uses a non-reentrant model
  7050 ;;
  7051                           
  7052                           	psect	text35
  7053  00199E                     __ptext35:
  7054                           	opt callstack 0
  7055  00199E                     i2_PWM_DutyCycleCCP1:
  7056                           	opt callstack 22
  7057                           
  7058                           ;incstack = 0
  7059                           ;i2PWM_DutyCycleCCP1@WantedDutyCycle stored from wreg
  7060  00199E  6E38               	movwf	i2PWM_DutyCycleCCP1@WantedDutyCycle^0,c
  7061  0019A0                     
  7062                           ;PWMCCP1.c: 19:     unsigned int PWMDutyValue;;PWMCCP1.c: 20:     PWMDutyValue = (Wanted
      +                          DutyCycle * 0.01)*1000;
  7063  0019A0  0E0A               	movlw	10
  7064  0019A2  6E13               	movwf	i2___flmul@a^0,c
  7065  0019A4  0ED7               	movlw	215
  7066  0019A6  6E14               	movwf	(i2___flmul@a+1)^0,c
  7067  0019A8  0E23               	movlw	35
  7068  0019AA  6E15               	movwf	(i2___flmul@a+2)^0,c
  7069  0019AC  0E3C               	movlw	60
  7070  0019AE  6E16               	movwf	(i2___flmul@a+3)^0,c
  7071  0019B0  5038               	movf	i2PWM_DutyCycleCCP1@WantedDutyCycle^0,w,c
  7072  0019B2  6E01               	movwf	i2___xxtofl@val^0,c
  7073  0019B4  6A02               	clrf	(i2___xxtofl@val+1)^0,c
  7074  0019B6  6A03               	clrf	(i2___xxtofl@val+2)^0,c
  7075  0019B8  6A04               	clrf	(i2___xxtofl@val+3)^0,c
  7076  0019BA  0E01               	movlw	1
  7077  0019BC  EC02  F008         	call	i2___xxtofl
  7078  0019C0  C001  F00F         	movff	?i2___xxtofl,i2___flmul@b
  7079  0019C4  C002  F010         	movff	?i2___xxtofl+1,i2___flmul@b+1
  7080  0019C8  C003  F011         	movff	?i2___xxtofl+2,i2___flmul@b+2
  7081  0019CC  C004  F012         	movff	?i2___xxtofl+3,i2___flmul@b+3
  7082  0019D0  EC2C  F002         	call	i2___flmul	;wreg free
  7083  0019D4  C00F  F034         	movff	?i2___flmul,i2_PWM_DutyCycleCCP1$2481
  7084  0019D8  C010  F035         	movff	?i2___flmul+1,i2_PWM_DutyCycleCCP1$2481+1
  7085  0019DC  C011  F036         	movff	?i2___flmul+2,i2_PWM_DutyCycleCCP1$2481+2
  7086  0019E0  C012  F037         	movff	?i2___flmul+3,i2_PWM_DutyCycleCCP1$2481+3
  7087                           
  7088                           ;PWMCCP1.c: 19:     unsigned int PWMDutyValue;;PWMCCP1.c: 20:     PWMDutyValue = (Wanted
      +                          DutyCycle * 0.01)*1000;
  7089  0019E4  0E00               	movlw	0
  7090  0019E6  6E13               	movwf	i2___flmul@a^0,c
  7091  0019E8  0E00               	movlw	0
  7092  0019EA  6E14               	movwf	(i2___flmul@a+1)^0,c
  7093  0019EC  0E7A               	movlw	122
  7094  0019EE  6E15               	movwf	(i2___flmul@a+2)^0,c
  7095  0019F0  0E44               	movlw	68
  7096  0019F2  6E16               	movwf	(i2___flmul@a+3)^0,c
  7097  0019F4  C034  F00F         	movff	i2_PWM_DutyCycleCCP1$2481,i2___flmul@b
  7098  0019F8  C035  F010         	movff	i2_PWM_DutyCycleCCP1$2481+1,i2___flmul@b+1
  7099  0019FC  C036  F011         	movff	i2_PWM_DutyCycleCCP1$2481+2,i2___flmul@b+2
  7100  001A00  C037  F012         	movff	i2_PWM_DutyCycleCCP1$2481+3,i2___flmul@b+3
  7101  001A04  EC2C  F002         	call	i2___flmul	;wreg free
  7102  001A08  C00F  F028         	movff	?i2___flmul,i2___fltol@f1
  7103  001A0C  C010  F029         	movff	?i2___flmul+1,i2___fltol@f1+1
  7104  001A10  C011  F02A         	movff	?i2___flmul+2,i2___fltol@f1+2
  7105  001A14  C012  F02B         	movff	?i2___flmul+3,i2___fltol@f1+3
  7106  001A18  ECFE  F009         	call	i2___fltol	;wreg free
  7107  001A1C  C028  F039         	movff	?i2___fltol,i2PWM_DutyCycleCCP1@PWMDutyValue
  7108  001A20  C029  F03A         	movff	?i2___fltol+1,i2PWM_DutyCycleCCP1@PWMDutyValue+1
  7109  001A24                     
  7110                           ;PWMCCP1.c: 22:     CCP1CONbits.DC1B = (PWMDutyValue & 0x03);
  7111  001A24  C039  F032         	movff	i2PWM_DutyCycleCCP1@PWMDutyValue,??i2_PWM_DutyCycleCCP1
  7112  001A28  0E03               	movlw	3
  7113  001A2A  1632               	andwf	??i2_PWM_DutyCycleCCP1^0,f,c
  7114  001A2C  3A32               	swapf	??i2_PWM_DutyCycleCCP1^0,f,c
  7115  001A2E  50BD               	movf	189,w,c	;volatile
  7116  001A30  1832               	xorwf	??i2_PWM_DutyCycleCCP1^0,w,c
  7117  001A32  0BCF               	andlw	-49
  7118  001A34  1832               	xorwf	??i2_PWM_DutyCycleCCP1^0,w,c
  7119  001A36  6EBD               	movwf	189,c	;volatile
  7120  001A38                     
  7121                           ;PWMCCP1.c: 23:     CCPR1L = ((PWMDutyValue >> 2)&0xFF);
  7122  001A38  C039  F032         	movff	i2PWM_DutyCycleCCP1@PWMDutyValue,??i2_PWM_DutyCycleCCP1
  7123  001A3C  C03A  F033         	movff	i2PWM_DutyCycleCCP1@PWMDutyValue+1,??i2_PWM_DutyCycleCCP1+1
  7124  001A40  90D8               	bcf	status,0,c
  7125  001A42  3233               	rrcf	(??i2_PWM_DutyCycleCCP1+1)^0,f,c
  7126  001A44  3232               	rrcf	??i2_PWM_DutyCycleCCP1^0,f,c
  7127  001A46  90D8               	bcf	status,0,c
  7128  001A48  3233               	rrcf	(??i2_PWM_DutyCycleCCP1+1)^0,f,c
  7129  001A4A  3232               	rrcf	??i2_PWM_DutyCycleCCP1^0,f,c
  7130  001A4C  5032               	movf	??i2_PWM_DutyCycleCCP1^0,w,c
  7131  001A4E  6EBE               	movwf	190,c	;volatile
  7132  001A50  0012               	return		;funcret
  7133  001A52                     __end_ofi2_PWM_DutyCycleCCP1:
  7134                           	opt callstack 0
  7135                           
  7136 ;; *************** function i2___xxtofl *****************
  7137 ;; Defined at:
  7138 ;;		line 10 in file "C:\Program Files (x86)\Microchip\xc8\v2.10\pic\sources\c99\common\xxtofl.c"
  7139 ;; Parameters:    Size  Location     Type
  7140 ;;  sign            1    wreg     unsigned char 
  7141 ;;  val             4    0[COMRAM] long 
  7142 ;; Auto vars:     Size  Location     Type
  7143 ;;  sign            1    8[COMRAM] unsigned char 
  7144 ;;  __xxtofl        4   10[COMRAM] unsigned long 
  7145 ;;  __xxtofl        1    9[COMRAM] unsigned char 
  7146 ;; Return value:  Size  Location     Type
  7147 ;;                  4    0[COMRAM] unsigned char 
  7148 ;; Registers used:
  7149 ;;		wreg, status,2, status,0
  7150 ;; Tracked objects:
  7151 ;;		On entry : 0/0
  7152 ;;		On exit  : 0/0
  7153 ;;		Unchanged: 0/0
  7154 ;; Data sizes:     COMRAM   BANK0   BANK1   BANK2   BANK3   BANK4   BANK5   BANK6   BANK7
  7155 ;;      Params:         4       0       0       0       0       0       0       0       0
  7156 ;;      Locals:         6       0       0       0       0       0       0       0       0
  7157 ;;      Temps:          4       0       0       0       0       0       0       0       0
  7158 ;;      Totals:        14       0       0       0       0       0       0       0       0
  7159 ;;Total ram usage:       14 bytes
  7160 ;; Hardware stack levels used:    1
  7161 ;; This function calls:
  7162 ;;		Nothing
  7163 ;; This function is called by:
  7164 ;;		i2_PWM_DutyCycleCCP2
  7165 ;;		i2_PWM_DutyCycleCCP1
  7166 ;; This function uses a non-reentrant model
  7167 ;;
  7168                           
  7169                           	psect	text36
  7170  001004                     __ptext36:
  7171                           	opt callstack 0
  7172  001004                     i2___xxtofl:
  7173                           	opt callstack 22
  7174                           
  7175                           ;incstack = 0
  7176                           ;i2___xxtofl@sign stored from wreg
  7177  001004  6E09               	movwf	i2___xxtofl@sign^0,c
  7178  001006  5009               	movf	i2___xxtofl@sign^0,w,c
  7179  001008  B4D8               	btfsc	status,2,c
  7180  00100A  EF09  F008         	goto	i2u206_41
  7181  00100E  EF0B  F008         	goto	i2u206_40
  7182  001012                     i2u206_41:
  7183  001012  EF2D  F008         	goto	i2l1109
  7184  001016                     i2u206_40:
  7185  001016  BE04               	btfsc	(i2___xxtofl@val+3)^0,7,c
  7186  001018  EF12  F008         	goto	i2u207_40
  7187  00101C  EF10  F008         	goto	i2u207_41
  7188  001020                     i2u207_41:
  7189  001020  EF2D  F008         	goto	i2l1109
  7190  001024                     i2u207_40:
  7191  001024  C001  F005         	movff	i2___xxtofl@val,??i2___xxtofl
  7192  001028  C002  F006         	movff	i2___xxtofl@val+1,??i2___xxtofl+1
  7193  00102C  C003  F007         	movff	i2___xxtofl@val+2,??i2___xxtofl+2
  7194  001030  C004  F008         	movff	i2___xxtofl@val+3,??i2___xxtofl+3
  7195  001034  1E05               	comf	??i2___xxtofl^0,f,c
  7196  001036  1E06               	comf	(??i2___xxtofl+1)^0,f,c
  7197  001038  1E07               	comf	(??i2___xxtofl+2)^0,f,c
  7198  00103A  1E08               	comf	(??i2___xxtofl+3)^0,f,c
  7199  00103C  2A05               	incf	??i2___xxtofl^0,f,c
  7200  00103E  0E00               	movlw	0
  7201  001040  2206               	addwfc	(??i2___xxtofl+1)^0,f,c
  7202  001042  2207               	addwfc	(??i2___xxtofl+2)^0,f,c
  7203  001044  2208               	addwfc	(??i2___xxtofl+3)^0,f,c
  7204  001046  C005  F00B         	movff	??i2___xxtofl,i2___xxtofl@arg
  7205  00104A  C006  F00C         	movff	??i2___xxtofl+1,i2___xxtofl@arg+1
  7206  00104E  C007  F00D         	movff	??i2___xxtofl+2,i2___xxtofl@arg+2
  7207  001052  C008  F00E         	movff	??i2___xxtofl+3,i2___xxtofl@arg+3
  7208  001056  EF35  F008         	goto	i2l2744
  7209  00105A                     i2l1109:
  7210  00105A  C001  F00B         	movff	i2___xxtofl@val,i2___xxtofl@arg
  7211  00105E  C002  F00C         	movff	i2___xxtofl@val+1,i2___xxtofl@arg+1
  7212  001062  C003  F00D         	movff	i2___xxtofl@val+2,i2___xxtofl@arg+2
  7213  001066  C004  F00E         	movff	i2___xxtofl@val+3,i2___xxtofl@arg+3
  7214  00106A                     i2l2744:
  7215  00106A  5001               	movf	i2___xxtofl@val^0,w,c
  7216  00106C  1002               	iorwf	(i2___xxtofl@val+1)^0,w,c
  7217  00106E  1003               	iorwf	(i2___xxtofl@val+2)^0,w,c
  7218  001070  1004               	iorwf	(i2___xxtofl@val+3)^0,w,c
  7219  001072  A4D8               	btfss	status,2,c
  7220  001074  EF3E  F008         	goto	i2u208_41
  7221  001078  EF40  F008         	goto	i2u208_40
  7222  00107C                     i2u208_41:
  7223  00107C  EF4A  F008         	goto	i2l2750
  7224  001080                     i2u208_40:
  7225  001080  0E00               	movlw	0
  7226  001082  6E01               	movwf	?i2___xxtofl^0,c
  7227  001084  0E00               	movlw	0
  7228  001086  6E02               	movwf	(?i2___xxtofl+1)^0,c
  7229  001088  0E00               	movlw	0
  7230  00108A  6E03               	movwf	(?i2___xxtofl+2)^0,c
  7231  00108C  0E00               	movlw	0
  7232  00108E  6E04               	movwf	(?i2___xxtofl+3)^0,c
  7233  001090  EFDB  F008         	goto	i2l1112
  7234  001094                     i2l2750:
  7235  001094  0E96               	movlw	150
  7236  001096  6E0A               	movwf	i2___xxtofl@exp^0,c
  7237  001098  EF54  F008         	goto	i2l2754
  7238  00109C                     i2l2752:
  7239  00109C  2A0A               	incf	i2___xxtofl@exp^0,f,c
  7240  00109E  90D8               	bcf	status,0,c
  7241  0010A0  320E               	rrcf	(i2___xxtofl@arg+3)^0,f,c
  7242  0010A2  320D               	rrcf	(i2___xxtofl@arg+2)^0,f,c
  7243  0010A4  320C               	rrcf	(i2___xxtofl@arg+1)^0,f,c
  7244  0010A6  320B               	rrcf	i2___xxtofl@arg^0,f,c
  7245  0010A8                     i2l2754:
  7246  0010A8  0E00               	movlw	0
  7247  0010AA  140B               	andwf	i2___xxtofl@arg^0,w,c
  7248  0010AC  6E05               	movwf	??i2___xxtofl^0,c
  7249  0010AE  0E00               	movlw	0
  7250  0010B0  140C               	andwf	(i2___xxtofl@arg+1)^0,w,c
  7251  0010B2  6E06               	movwf	(??i2___xxtofl+1)^0,c
  7252  0010B4  0E00               	movlw	0
  7253  0010B6  140D               	andwf	(i2___xxtofl@arg+2)^0,w,c
  7254  0010B8  6E07               	movwf	(??i2___xxtofl+2)^0,c
  7255  0010BA  0EFE               	movlw	254
  7256  0010BC  140E               	andwf	(i2___xxtofl@arg+3)^0,w,c
  7257  0010BE  6E08               	movwf	(??i2___xxtofl+3)^0,c
  7258  0010C0  5005               	movf	??i2___xxtofl^0,w,c
  7259  0010C2  1006               	iorwf	(??i2___xxtofl+1)^0,w,c
  7260  0010C4  1007               	iorwf	(??i2___xxtofl+2)^0,w,c
  7261  0010C6  1008               	iorwf	(??i2___xxtofl+3)^0,w,c
  7262  0010C8  A4D8               	btfss	status,2,c
  7263  0010CA  EF69  F008         	goto	i2u209_41
  7264  0010CE  EF6B  F008         	goto	i2u209_40
  7265  0010D2                     i2u209_41:
  7266  0010D2  EF4E  F008         	goto	i2l2752
  7267  0010D6                     i2u209_40:
  7268  0010D6  EF79  F008         	goto	i2l1116
  7269  0010DA                     i2l2756:
  7270  0010DA  2A0A               	incf	i2___xxtofl@exp^0,f,c
  7271  0010DC  0E01               	movlw	1
  7272  0010DE  260B               	addwf	i2___xxtofl@arg^0,f,c
  7273  0010E0  0E00               	movlw	0
  7274  0010E2  220C               	addwfc	(i2___xxtofl@arg+1)^0,f,c
  7275  0010E4  220D               	addwfc	(i2___xxtofl@arg+2)^0,f,c
  7276  0010E6  220E               	addwfc	(i2___xxtofl@arg+3)^0,f,c
  7277  0010E8  90D8               	bcf	status,0,c
  7278  0010EA  320E               	rrcf	(i2___xxtofl@arg+3)^0,f,c
  7279  0010EC  320D               	rrcf	(i2___xxtofl@arg+2)^0,f,c
  7280  0010EE  320C               	rrcf	(i2___xxtofl@arg+1)^0,f,c
  7281  0010F0  320B               	rrcf	i2___xxtofl@arg^0,f,c
  7282  0010F2                     i2l1116:
  7283  0010F2  0E00               	movlw	0
  7284  0010F4  140B               	andwf	i2___xxtofl@arg^0,w,c
  7285  0010F6  6E05               	movwf	??i2___xxtofl^0,c
  7286  0010F8  0E00               	movlw	0
  7287  0010FA  140C               	andwf	(i2___xxtofl@arg+1)^0,w,c
  7288  0010FC  6E06               	movwf	(??i2___xxtofl+1)^0,c
  7289  0010FE  0E00               	movlw	0
  7290  001100  140D               	andwf	(i2___xxtofl@arg+2)^0,w,c
  7291  001102  6E07               	movwf	(??i2___xxtofl+2)^0,c
  7292  001104  0EFF               	movlw	255
  7293  001106  140E               	andwf	(i2___xxtofl@arg+3)^0,w,c
  7294  001108  6E08               	movwf	(??i2___xxtofl+3)^0,c
  7295  00110A  5005               	movf	??i2___xxtofl^0,w,c
  7296  00110C  1006               	iorwf	(??i2___xxtofl+1)^0,w,c
  7297  00110E  1007               	iorwf	(??i2___xxtofl+2)^0,w,c
  7298  001110  1008               	iorwf	(??i2___xxtofl+3)^0,w,c
  7299  001112  A4D8               	btfss	status,2,c
  7300  001114  EF8E  F008         	goto	i2u210_41
  7301  001118  EF90  F008         	goto	i2u210_40
  7302  00111C                     i2u210_41:
  7303  00111C  EF6D  F008         	goto	i2l2756
  7304  001120                     i2u210_40:
  7305  001120  EF98  F008         	goto	i2l2764
  7306  001124                     i2l2762:
  7307  001124  060A               	decf	i2___xxtofl@exp^0,f,c
  7308  001126  90D8               	bcf	status,0,c
  7309  001128  360B               	rlcf	i2___xxtofl@arg^0,f,c
  7310  00112A  360C               	rlcf	(i2___xxtofl@arg+1)^0,f,c
  7311  00112C  360D               	rlcf	(i2___xxtofl@arg+2)^0,f,c
  7312  00112E  360E               	rlcf	(i2___xxtofl@arg+3)^0,f,c
  7313  001130                     i2l2764:
  7314  001130  BE0D               	btfsc	(i2___xxtofl@arg+2)^0,7,c
  7315  001132  EF9D  F008         	goto	i2u211_41
  7316  001136  EF9F  F008         	goto	i2u211_40
  7317  00113A                     i2u211_41:
  7318  00113A  EFA7  F008         	goto	i2l1123
  7319  00113E                     i2u211_40:
  7320  00113E  0E02               	movlw	2
  7321  001140  600A               	cpfslt	i2___xxtofl@exp^0,c
  7322  001142  EFA5  F008         	goto	i2u212_41
  7323  001146  EFA7  F008         	goto	i2u212_40
  7324  00114A                     i2u212_41:
  7325  00114A  EF92  F008         	goto	i2l2762
  7326  00114E                     i2u212_40:
  7327  00114E                     i2l1123:
  7328  00114E  B00A               	btfsc	i2___xxtofl@exp^0,0,c
  7329  001150  EFAC  F008         	goto	i2u213_41
  7330  001154  EFAE  F008         	goto	i2u213_40
  7331  001158                     i2u213_41:
  7332  001158  EFAF  F008         	goto	i2l2770
  7333  00115C                     i2u213_40:
  7334  00115C  9E0D               	bcf	(i2___xxtofl@arg+2)^0,7,c
  7335  00115E                     i2l2770:
  7336  00115E  90D8               	bcf	status,0,c
  7337  001160  320A               	rrcf	i2___xxtofl@exp^0,f,c
  7338  001162  C00A  F005         	movff	i2___xxtofl@exp,??i2___xxtofl
  7339  001166  6A06               	clrf	(??i2___xxtofl+1)^0,c
  7340  001168  6A07               	clrf	(??i2___xxtofl+2)^0,c
  7341  00116A  6A08               	clrf	(??i2___xxtofl+3)^0,c
  7342  00116C  C005  F008         	movff	??i2___xxtofl,??i2___xxtofl+3
  7343  001170  6A07               	clrf	(??i2___xxtofl+2)^0,c
  7344  001172  6A06               	clrf	(??i2___xxtofl+1)^0,c
  7345  001174  6A05               	clrf	??i2___xxtofl^0,c
  7346  001176  5005               	movf	??i2___xxtofl^0,w,c
  7347  001178  120B               	iorwf	i2___xxtofl@arg^0,f,c
  7348  00117A  5006               	movf	(??i2___xxtofl+1)^0,w,c
  7349  00117C  120C               	iorwf	(i2___xxtofl@arg+1)^0,f,c
  7350  00117E  5007               	movf	(??i2___xxtofl+2)^0,w,c
  7351  001180  120D               	iorwf	(i2___xxtofl@arg+2)^0,f,c
  7352  001182  5008               	movf	(??i2___xxtofl+3)^0,w,c
  7353  001184  120E               	iorwf	(i2___xxtofl@arg+3)^0,f,c
  7354  001186  5009               	movf	i2___xxtofl@sign^0,w,c
  7355  001188  B4D8               	btfsc	status,2,c
  7356  00118A  EFC9  F008         	goto	i2u214_41
  7357  00118E  EFCB  F008         	goto	i2u214_40
  7358  001192                     i2u214_41:
  7359  001192  EFD3  F008         	goto	i2l2780
  7360  001196                     i2u214_40:
  7361  001196  BE04               	btfsc	(i2___xxtofl@val+3)^0,7,c
  7362  001198  EFD2  F008         	goto	i2u215_40
  7363  00119C  EFD0  F008         	goto	i2u215_41
  7364  0011A0                     i2u215_41:
  7365  0011A0  EFD3  F008         	goto	i2l2780
  7366  0011A4                     i2u215_40:
  7367  0011A4  8E0E               	bsf	(i2___xxtofl@arg+3)^0,7,c
  7368  0011A6                     i2l2780:
  7369  0011A6  C00B  F001         	movff	i2___xxtofl@arg,?i2___xxtofl
  7370  0011AA  C00C  F002         	movff	i2___xxtofl@arg+1,?i2___xxtofl+1
  7371  0011AE  C00D  F003         	movff	i2___xxtofl@arg+2,?i2___xxtofl+2
  7372  0011B2  C00E  F004         	movff	i2___xxtofl@arg+3,?i2___xxtofl+3
  7373  0011B6                     i2l1112:
  7374  0011B6  0012               	return		;funcret
  7375  0011B8                     __end_ofi2___xxtofl:
  7376                           	opt callstack 0
  7377                           
  7378 ;; *************** function i2___fltol *****************
  7379 ;; Defined at:
  7380 ;;		line 43 in file "C:\Program Files (x86)\Microchip\xc8\v2.10\pic\sources\c99\common\fltol.c"
  7381 ;; Parameters:    Size  Location     Type
  7382 ;;  f1              4   39[COMRAM] unsigned char 
  7383 ;; Auto vars:     Size  Location     Type
  7384 ;;  __fltol         1   48[COMRAM] unsigned char 
  7385 ;;  __fltol         1   47[COMRAM] unsigned char 
  7386 ;; Return value:  Size  Location     Type
  7387 ;;                  4   39[COMRAM] long 
  7388 ;; Registers used:
  7389 ;;		wreg, status,2, status,0
  7390 ;; Tracked objects:
  7391 ;;		On entry : 0/0
  7392 ;;		On exit  : 0/0
  7393 ;;		Unchanged: 0/0
  7394 ;; Data sizes:     COMRAM   BANK0   BANK1   BANK2   BANK3   BANK4   BANK5   BANK6   BANK7
  7395 ;;      Params:         4       0       0       0       0       0       0       0       0
  7396 ;;      Locals:         2       0       0       0       0       0       0       0       0
  7397 ;;      Temps:          4       0       0       0       0       0       0       0       0
  7398 ;;      Totals:        10       0       0       0       0       0       0       0       0
  7399 ;;Total ram usage:       10 bytes
  7400 ;; Hardware stack levels used:    1
  7401 ;; This function calls:
  7402 ;;		Nothing
  7403 ;; This function is called by:
  7404 ;;		i2_PWM_DutyCycleCCP2
  7405 ;;		i2_PWM_DutyCycleCCP1
  7406 ;; This function uses a non-reentrant model
  7407 ;;
  7408                           
  7409                           	psect	text37
  7410  0013FC                     __ptext37:
  7411                           	opt callstack 0
  7412  0013FC                     i2___fltol:
  7413                           	opt callstack 22
  7414  0013FC  342A               	rlcf	(i2___fltol@f1+2)^0,w,c
  7415  0013FE  342B               	rlcf	(i2___fltol@f1+3)^0,w,c
  7416  001400  6E31               	movwf	i2___fltol@exp1^0,c
  7417  001402  5031               	movf	i2___fltol@exp1^0,w,c
  7418  001404  A4D8               	btfss	status,2,c
  7419  001406  EF07  F00A         	goto	i2u180_41
  7420  00140A  EF09  F00A         	goto	i2u180_40
  7421  00140E                     i2u180_41:
  7422  00140E  EF13  F00A         	goto	i2l2570
  7423  001412                     i2u180_40:
  7424  001412                     i2l2566:
  7425  001412  0E00               	movlw	0
  7426  001414  6E28               	movwf	?i2___fltol^0,c
  7427  001416  0E00               	movlw	0
  7428  001418  6E29               	movwf	(?i2___fltol+1)^0,c
  7429  00141A  0E00               	movlw	0
  7430  00141C  6E2A               	movwf	(?i2___fltol+2)^0,c
  7431  00141E  0E00               	movlw	0
  7432  001420  6E2B               	movwf	(?i2___fltol+3)^0,c
  7433  001422  EF80  F00A         	goto	i2l751
  7434  001426                     i2l2570:
  7435  001426  C028  F02C         	movff	i2___fltol@f1,??i2___fltol
  7436  00142A  C029  F02D         	movff	i2___fltol@f1+1,??i2___fltol+1
  7437  00142E  C02A  F02E         	movff	i2___fltol@f1+2,??i2___fltol+2
  7438  001432  C02B  F02F         	movff	i2___fltol@f1+3,??i2___fltol+3
  7439  001436  0E20               	movlw	32
  7440  001438  EF23  F00A         	goto	i2u181_40
  7441  00143C                     i2u181_45:
  7442  00143C  90D8               	bcf	status,0,c
  7443  00143E  322F               	rrcf	(??i2___fltol+3)^0,f,c
  7444  001440  322E               	rrcf	(??i2___fltol+2)^0,f,c
  7445  001442  322D               	rrcf	(??i2___fltol+1)^0,f,c
  7446  001444  322C               	rrcf	??i2___fltol^0,f,c
  7447  001446                     i2u181_40:
  7448  001446  2EE8               	decfsz	wreg,f,c
  7449  001448  EF1E  F00A         	goto	i2u181_45
  7450  00144C  502C               	movf	??i2___fltol^0,w,c
  7451  00144E  6E30               	movwf	i2___fltol@sign1^0,c
  7452  001450  8E2A               	bsf	(i2___fltol@f1+2)^0,7,c
  7453  001452  0EFF               	movlw	255
  7454  001454  1628               	andwf	i2___fltol@f1^0,f,c
  7455  001456  0EFF               	movlw	255
  7456  001458  1629               	andwf	(i2___fltol@f1+1)^0,f,c
  7457  00145A  0EFF               	movlw	255
  7458  00145C  162A               	andwf	(i2___fltol@f1+2)^0,f,c
  7459  00145E  0E00               	movlw	0
  7460  001460  162B               	andwf	(i2___fltol@f1+3)^0,f,c
  7461  001462  0E96               	movlw	150
  7462  001464  5E31               	subwf	i2___fltol@exp1^0,f,c
  7463  001466  BE31               	btfsc	i2___fltol@exp1^0,7,c
  7464  001468  EF3A  F00A         	goto	i2u182_40
  7465  00146C  EF38  F00A         	goto	i2u182_41
  7466  001470                     i2u182_41:
  7467  001470  EF50  F00A         	goto	i2l2590
  7468  001474                     i2u182_40:
  7469  001474  5031               	movf	i2___fltol@exp1^0,w,c
  7470  001476  0A80               	xorlw	128
  7471  001478  0F97               	addlw	151
  7472  00147A  B0D8               	btfsc	status,0,c
  7473  00147C  EF42  F00A         	goto	i2u183_41
  7474  001480  EF44  F00A         	goto	i2u183_40
  7475  001484                     i2u183_41:
  7476  001484  EF46  F00A         	goto	i2l2586
  7477  001488                     i2u183_40:
  7478  001488  EF09  F00A         	goto	i2l2566
  7479  00148C                     i2l2586:
  7480  00148C  90D8               	bcf	status,0,c
  7481  00148E  322B               	rrcf	(i2___fltol@f1+3)^0,f,c
  7482  001490  322A               	rrcf	(i2___fltol@f1+2)^0,f,c
  7483  001492  3229               	rrcf	(i2___fltol@f1+1)^0,f,c
  7484  001494  3228               	rrcf	i2___fltol@f1^0,f,c
  7485  001496  3E31               	incfsz	i2___fltol@exp1^0,f,c
  7486  001498  EF46  F00A         	goto	i2l2586
  7487  00149C  EF68  F00A         	goto	i2l2600
  7488  0014A0                     i2l2590:
  7489  0014A0  0E1F               	movlw	31
  7490  0014A2  6431               	cpfsgt	i2___fltol@exp1^0,c
  7491  0014A4  EF56  F00A         	goto	i2u184_41
  7492  0014A8  EF58  F00A         	goto	i2u184_40
  7493  0014AC                     i2u184_41:
  7494  0014AC  EF60  F00A         	goto	i2l2598
  7495  0014B0                     i2u184_40:
  7496  0014B0  EF09  F00A         	goto	i2l2566
  7497  0014B4                     i2l2596:
  7498  0014B4  90D8               	bcf	status,0,c
  7499  0014B6  3628               	rlcf	i2___fltol@f1^0,f,c
  7500  0014B8  3629               	rlcf	(i2___fltol@f1+1)^0,f,c
  7501  0014BA  362A               	rlcf	(i2___fltol@f1+2)^0,f,c
  7502  0014BC  362B               	rlcf	(i2___fltol@f1+3)^0,f,c
  7503  0014BE  0631               	decf	i2___fltol@exp1^0,f,c
  7504  0014C0                     i2l2598:
  7505  0014C0  5031               	movf	i2___fltol@exp1^0,w,c
  7506  0014C2  A4D8               	btfss	status,2,c
  7507  0014C4  EF66  F00A         	goto	i2u185_41
  7508  0014C8  EF68  F00A         	goto	i2u185_40
  7509  0014CC                     i2u185_41:
  7510  0014CC  EF5A  F00A         	goto	i2l2596
  7511  0014D0                     i2u185_40:
  7512  0014D0                     i2l2600:
  7513  0014D0  5030               	movf	i2___fltol@sign1^0,w,c
  7514  0014D2  B4D8               	btfsc	status,2,c
  7515  0014D4  EF6E  F00A         	goto	i2u186_41
  7516  0014D8  EF70  F00A         	goto	i2u186_40
  7517  0014DC                     i2u186_41:
  7518  0014DC  EF78  F00A         	goto	i2l2604
  7519  0014E0                     i2u186_40:
  7520  0014E0  1E2B               	comf	(i2___fltol@f1+3)^0,f,c
  7521  0014E2  1E2A               	comf	(i2___fltol@f1+2)^0,f,c
  7522  0014E4  1E29               	comf	(i2___fltol@f1+1)^0,f,c
  7523  0014E6  6C28               	negf	i2___fltol@f1^0,c
  7524  0014E8  0E00               	movlw	0
  7525  0014EA  2229               	addwfc	(i2___fltol@f1+1)^0,f,c
  7526  0014EC  222A               	addwfc	(i2___fltol@f1+2)^0,f,c
  7527  0014EE  222B               	addwfc	(i2___fltol@f1+3)^0,f,c
  7528  0014F0                     i2l2604:
  7529  0014F0  C028  F028         	movff	i2___fltol@f1,?i2___fltol
  7530  0014F4  C029  F029         	movff	i2___fltol@f1+1,?i2___fltol+1
  7531  0014F8  C02A  F02A         	movff	i2___fltol@f1+2,?i2___fltol+2
  7532  0014FC  C02B  F02B         	movff	i2___fltol@f1+3,?i2___fltol+3
  7533  001500                     i2l751:
  7534  001500  0012               	return		;funcret
  7535  001502                     __end_ofi2___fltol:
  7536                           	opt callstack 0
  7537                           
  7538 ;; *************** function i2___flmul *****************
  7539 ;; Defined at:
  7540 ;;		line 8 in file "C:\Program Files (x86)\Microchip\xc8\v2.10\pic\sources\c99\common\sprcmul.c"
  7541 ;; Parameters:    Size  Location     Type
  7542 ;;  b               4   14[COMRAM] long 
  7543 ;;  a               4   18[COMRAM] long 
  7544 ;; Auto vars:     Size  Location     Type
  7545 ;;  __flmul         4   33[COMRAM] struct .
  7546 ;;  __flmul         4   27[COMRAM] unsigned long 
  7547 ;;  __flmul         2   37[COMRAM] struct .
  7548 ;;  __flmul         1   32[COMRAM] unsigned char 
  7549 ;;  __flmul         1   31[COMRAM] unsigned char 
  7550 ;;  __flmul         1   26[COMRAM] unsigned char 
  7551 ;; Return value:  Size  Location     Type
  7552 ;;                  4   14[COMRAM] unsigned char 
  7553 ;; Registers used:
  7554 ;;		wreg, status,2, status,0, prodl, prodh
  7555 ;; Tracked objects:
  7556 ;;		On entry : 0/0
  7557 ;;		On exit  : 0/0
  7558 ;;		Unchanged: 0/0
  7559 ;; Data sizes:     COMRAM   BANK0   BANK1   BANK2   BANK3   BANK4   BANK5   BANK6   BANK7
  7560 ;;      Params:         8       0       0       0       0       0       0       0       0
  7561 ;;      Locals:        13       0       0       0       0       0       0       0       0
  7562 ;;      Temps:          4       0       0       0       0       0       0       0       0
  7563 ;;      Totals:        25       0       0       0       0       0       0       0       0
  7564 ;;Total ram usage:       25 bytes
  7565 ;; Hardware stack levels used:    1
  7566 ;; This function calls:
  7567 ;;		Nothing
  7568 ;; This function is called by:
  7569 ;;		i2_PWM_DutyCycleCCP2
  7570 ;;		i2_PWM_DutyCycleCCP1
  7571 ;; This function uses a non-reentrant model
  7572 ;;
  7573                           
  7574                           	psect	text38
  7575  000458                     __ptext38:
  7576                           	opt callstack 0
  7577  000458                     i2___flmul:
  7578                           	opt callstack 22
  7579  000458  5012               	movf	(i2___flmul@b+3)^0,w,c
  7580  00045A  0B80               	andlw	128
  7581  00045C  6E1B               	movwf	i2___flmul@sign^0,c
  7582  00045E  5012               	movf	(i2___flmul@b+3)^0,w,c
  7583  000460  2412               	addwf	(i2___flmul@b+3)^0,w,c
  7584  000462  6E21               	movwf	i2___flmul@bexp^0,c
  7585  000464  AE11               	btfss	(i2___flmul@b+2)^0,7,c
  7586  000466  EF37  F002         	goto	i2u187_41
  7587  00046A  EF39  F002         	goto	i2u187_40
  7588  00046E                     i2u187_41:
  7589  00046E  EF3A  F002         	goto	i2l2614
  7590  000472                     i2u187_40:
  7591  000472  8021               	bsf	i2___flmul@bexp^0,0,c
  7592  000474                     i2l2614:
  7593  000474  5021               	movf	i2___flmul@bexp^0,w,c
  7594  000476  B4D8               	btfsc	status,2,c
  7595  000478  EF40  F002         	goto	i2u188_41
  7596  00047C  EF42  F002         	goto	i2u188_40
  7597  000480                     i2u188_41:
  7598  000480  EF55  F002         	goto	i2l2622
  7599  000484                     i2u188_40:
  7600  000484  2821               	incf	i2___flmul@bexp^0,w,c
  7601  000486  A4D8               	btfss	status,2,c
  7602  000488  EF48  F002         	goto	i2u189_41
  7603  00048C  EF4A  F002         	goto	i2u189_40
  7604  000490                     i2u189_41:
  7605  000490  EF52  F002         	goto	i2l2620
  7606  000494                     i2u189_40:
  7607  000494  0E00               	movlw	0
  7608  000496  6E0F               	movwf	i2___flmul@b^0,c
  7609  000498  0E00               	movlw	0
  7610  00049A  6E10               	movwf	(i2___flmul@b+1)^0,c
  7611  00049C  0E00               	movlw	0
  7612  00049E  6E11               	movwf	(i2___flmul@b+2)^0,c
  7613  0004A0  0E00               	movlw	0
  7614  0004A2  6E12               	movwf	(i2___flmul@b+3)^0,c
  7615  0004A4                     i2l2620:
  7616  0004A4  8E11               	bsf	(i2___flmul@b+2)^0,7,c
  7617  0004A6  EF5D  F002         	goto	i2l2624
  7618  0004AA                     i2l2622:
  7619  0004AA  0E00               	movlw	0
  7620  0004AC  6E0F               	movwf	i2___flmul@b^0,c
  7621  0004AE  0E00               	movlw	0
  7622  0004B0  6E10               	movwf	(i2___flmul@b+1)^0,c
  7623  0004B2  0E00               	movlw	0
  7624  0004B4  6E11               	movwf	(i2___flmul@b+2)^0,c
  7625  0004B6  0E00               	movlw	0
  7626  0004B8  6E12               	movwf	(i2___flmul@b+3)^0,c
  7627  0004BA                     i2l2624:
  7628  0004BA  5016               	movf	(i2___flmul@a+3)^0,w,c
  7629  0004BC  0B80               	andlw	128
  7630  0004BE  1A1B               	xorwf	i2___flmul@sign^0,f,c
  7631  0004C0  5016               	movf	(i2___flmul@a+3)^0,w,c
  7632  0004C2  2416               	addwf	(i2___flmul@a+3)^0,w,c
  7633  0004C4  6E20               	movwf	i2___flmul@aexp^0,c
  7634  0004C6  AE15               	btfss	(i2___flmul@a+2)^0,7,c
  7635  0004C8  EF68  F002         	goto	i2u190_41
  7636  0004CC  EF6A  F002         	goto	i2u190_40
  7637  0004D0                     i2u190_41:
  7638  0004D0  EF6B  F002         	goto	i2l2632
  7639  0004D4                     i2u190_40:
  7640  0004D4  8020               	bsf	i2___flmul@aexp^0,0,c
  7641  0004D6                     i2l2632:
  7642  0004D6  5020               	movf	i2___flmul@aexp^0,w,c
  7643  0004D8  B4D8               	btfsc	status,2,c
  7644  0004DA  EF71  F002         	goto	i2u191_41
  7645  0004DE  EF73  F002         	goto	i2u191_40
  7646  0004E2                     i2u191_41:
  7647  0004E2  EF86  F002         	goto	i2l2640
  7648  0004E6                     i2u191_40:
  7649  0004E6  2820               	incf	i2___flmul@aexp^0,w,c
  7650  0004E8  A4D8               	btfss	status,2,c
  7651  0004EA  EF79  F002         	goto	i2u192_41
  7652  0004EE  EF7B  F002         	goto	i2u192_40
  7653  0004F2                     i2u192_41:
  7654  0004F2  EF83  F002         	goto	i2l2638
  7655  0004F6                     i2u192_40:
  7656  0004F6  0E00               	movlw	0
  7657  0004F8  6E13               	movwf	i2___flmul@a^0,c
  7658  0004FA  0E00               	movlw	0
  7659  0004FC  6E14               	movwf	(i2___flmul@a+1)^0,c
  7660  0004FE  0E00               	movlw	0
  7661  000500  6E15               	movwf	(i2___flmul@a+2)^0,c
  7662  000502  0E00               	movlw	0
  7663  000504  6E16               	movwf	(i2___flmul@a+3)^0,c
  7664  000506                     i2l2638:
  7665  000506  8E15               	bsf	(i2___flmul@a+2)^0,7,c
  7666  000508  EF8E  F002         	goto	i2l1068
  7667  00050C                     i2l2640:
  7668  00050C  0E00               	movlw	0
  7669  00050E  6E13               	movwf	i2___flmul@a^0,c
  7670  000510  0E00               	movlw	0
  7671  000512  6E14               	movwf	(i2___flmul@a+1)^0,c
  7672  000514  0E00               	movlw	0
  7673  000516  6E15               	movwf	(i2___flmul@a+2)^0,c
  7674  000518  0E00               	movlw	0
  7675  00051A  6E16               	movwf	(i2___flmul@a+3)^0,c
  7676  00051C                     i2l1068:
  7677  00051C  5020               	movf	i2___flmul@aexp^0,w,c
  7678  00051E  B4D8               	btfsc	status,2,c
  7679  000520  EF94  F002         	goto	i2u193_41
  7680  000524  EF96  F002         	goto	i2u193_40
  7681  000528                     i2u193_41:
  7682  000528  EF9E  F002         	goto	i2l2644
  7683  00052C                     i2u193_40:
  7684  00052C  5021               	movf	i2___flmul@bexp^0,w,c
  7685  00052E  A4D8               	btfss	status,2,c
  7686  000530  EF9C  F002         	goto	i2u194_41
  7687  000534  EF9E  F002         	goto	i2u194_40
  7688  000538                     i2u194_41:
  7689  000538  EFA8  F002         	goto	i2l2648
  7690  00053C                     i2u194_40:
  7691  00053C                     i2l2644:
  7692  00053C  0E00               	movlw	0
  7693  00053E  6E0F               	movwf	?i2___flmul^0,c
  7694  000540  0E00               	movlw	0
  7695  000542  6E10               	movwf	(?i2___flmul+1)^0,c
  7696  000544  0E00               	movlw	0
  7697  000546  6E11               	movwf	(?i2___flmul+2)^0,c
  7698  000548  0E00               	movlw	0
  7699  00054A  6E12               	movwf	(?i2___flmul+3)^0,c
  7700  00054C  EF40  F004         	goto	i2l1072
  7701  000550                     i2l2648:
  7702  000550  5015               	movf	(i2___flmul@a+2)^0,w,c
  7703  000552  020F               	mulwf	i2___flmul@b^0,c
  7704  000554  CFF3 F026          	movff	prodl,i2___flmul@temp
  7705  000558  CFF4 F027          	movff	prodh,i2___flmul@temp+1
  7706  00055C  5026               	movf	i2___flmul@temp^0,w,c
  7707  00055E  6E1C               	movwf	i2___flmul@grs^0,c
  7708  000560  6A1D               	clrf	(i2___flmul@grs+1)^0,c
  7709  000562  6A1E               	clrf	(i2___flmul@grs+2)^0,c
  7710  000564  6A1F               	clrf	(i2___flmul@grs+3)^0,c
  7711  000566  5027               	movf	(i2___flmul@temp+1)^0,w,c
  7712  000568  6E22               	movwf	i2___flmul@prod^0,c
  7713  00056A  6A23               	clrf	(i2___flmul@prod+1)^0,c
  7714  00056C  6A24               	clrf	(i2___flmul@prod+2)^0,c
  7715  00056E  6A25               	clrf	(i2___flmul@prod+3)^0,c
  7716  000570  5014               	movf	(i2___flmul@a+1)^0,w,c
  7717  000572  0210               	mulwf	(i2___flmul@b+1)^0,c
  7718  000574  CFF3 F026          	movff	prodl,i2___flmul@temp
  7719  000578  CFF4 F027          	movff	prodh,i2___flmul@temp+1
  7720  00057C  5026               	movf	i2___flmul@temp^0,w,c
  7721  00057E  261C               	addwf	i2___flmul@grs^0,f,c
  7722  000580  0E00               	movlw	0
  7723  000582  221D               	addwfc	(i2___flmul@grs+1)^0,f,c
  7724  000584  221E               	addwfc	(i2___flmul@grs+2)^0,f,c
  7725  000586  221F               	addwfc	(i2___flmul@grs+3)^0,f,c
  7726  000588  5027               	movf	(i2___flmul@temp+1)^0,w,c
  7727  00058A  2622               	addwf	i2___flmul@prod^0,f,c
  7728  00058C  0E00               	movlw	0
  7729  00058E  2223               	addwfc	(i2___flmul@prod+1)^0,f,c
  7730  000590  2224               	addwfc	(i2___flmul@prod+2)^0,f,c
  7731  000592  2225               	addwfc	(i2___flmul@prod+3)^0,f,c
  7732  000594  5013               	movf	i2___flmul@a^0,w,c
  7733  000596  0211               	mulwf	(i2___flmul@b+2)^0,c
  7734  000598  CFF3 F026          	movff	prodl,i2___flmul@temp
  7735  00059C  CFF4 F027          	movff	prodh,i2___flmul@temp+1
  7736  0005A0  5026               	movf	i2___flmul@temp^0,w,c
  7737  0005A2  261C               	addwf	i2___flmul@grs^0,f,c
  7738  0005A4  0E00               	movlw	0
  7739  0005A6  221D               	addwfc	(i2___flmul@grs+1)^0,f,c
  7740  0005A8  221E               	addwfc	(i2___flmul@grs+2)^0,f,c
  7741  0005AA  221F               	addwfc	(i2___flmul@grs+3)^0,f,c
  7742  0005AC  5027               	movf	(i2___flmul@temp+1)^0,w,c
  7743  0005AE  2622               	addwf	i2___flmul@prod^0,f,c
  7744  0005B0  0E00               	movlw	0
  7745  0005B2  2223               	addwfc	(i2___flmul@prod+1)^0,f,c
  7746  0005B4  2224               	addwfc	(i2___flmul@prod+2)^0,f,c
  7747  0005B6  2225               	addwfc	(i2___flmul@prod+3)^0,f,c
  7748  0005B8  C01E  F01F         	movff	i2___flmul@grs+2,i2___flmul@grs+3
  7749  0005BC  C01D  F01E         	movff	i2___flmul@grs+1,i2___flmul@grs+2
  7750  0005C0  C01C  F01D         	movff	i2___flmul@grs,i2___flmul@grs+1
  7751  0005C4  6A1C               	clrf	i2___flmul@grs^0,c
  7752  0005C6  5013               	movf	i2___flmul@a^0,w,c
  7753  0005C8  0210               	mulwf	(i2___flmul@b+1)^0,c
  7754  0005CA  CFF3 F026          	movff	prodl,i2___flmul@temp
  7755  0005CE  CFF4 F027          	movff	prodh,i2___flmul@temp+1
  7756  0005D2  5026               	movf	i2___flmul@temp^0,w,c
  7757  0005D4  261C               	addwf	i2___flmul@grs^0,f,c
  7758  0005D6  5027               	movf	(i2___flmul@temp+1)^0,w,c
  7759  0005D8  221D               	addwfc	(i2___flmul@grs+1)^0,f,c
  7760  0005DA  0E00               	movlw	0
  7761  0005DC  221E               	addwfc	(i2___flmul@grs+2)^0,f,c
  7762  0005DE  0E00               	movlw	0
  7763  0005E0  221F               	addwfc	(i2___flmul@grs+3)^0,f,c
  7764  0005E2  5014               	movf	(i2___flmul@a+1)^0,w,c
  7765  0005E4  020F               	mulwf	i2___flmul@b^0,c
  7766  0005E6  CFF3 F026          	movff	prodl,i2___flmul@temp
  7767  0005EA  CFF4 F027          	movff	prodh,i2___flmul@temp+1
  7768  0005EE  5026               	movf	i2___flmul@temp^0,w,c
  7769  0005F0  261C               	addwf	i2___flmul@grs^0,f,c
  7770  0005F2  5027               	movf	(i2___flmul@temp+1)^0,w,c
  7771  0005F4  221D               	addwfc	(i2___flmul@grs+1)^0,f,c
  7772  0005F6  0E00               	movlw	0
  7773  0005F8  221E               	addwfc	(i2___flmul@grs+2)^0,f,c
  7774  0005FA  0E00               	movlw	0
  7775  0005FC  221F               	addwfc	(i2___flmul@grs+3)^0,f,c
  7776  0005FE  C01E  F01F         	movff	i2___flmul@grs+2,i2___flmul@grs+3
  7777  000602  C01D  F01E         	movff	i2___flmul@grs+1,i2___flmul@grs+2
  7778  000606  C01C  F01D         	movff	i2___flmul@grs,i2___flmul@grs+1
  7779  00060A  6A1C               	clrf	i2___flmul@grs^0,c
  7780  00060C  5013               	movf	i2___flmul@a^0,w,c
  7781  00060E  020F               	mulwf	i2___flmul@b^0,c
  7782  000610  CFF3 F026          	movff	prodl,i2___flmul@temp
  7783  000614  CFF4 F027          	movff	prodh,i2___flmul@temp+1
  7784  000618  5026               	movf	i2___flmul@temp^0,w,c
  7785  00061A  261C               	addwf	i2___flmul@grs^0,f,c
  7786  00061C  5027               	movf	(i2___flmul@temp+1)^0,w,c
  7787  00061E  221D               	addwfc	(i2___flmul@grs+1)^0,f,c
  7788  000620  0E00               	movlw	0
  7789  000622  221E               	addwfc	(i2___flmul@grs+2)^0,f,c
  7790  000624  0E00               	movlw	0
  7791  000626  221F               	addwfc	(i2___flmul@grs+3)^0,f,c
  7792  000628  5015               	movf	(i2___flmul@a+2)^0,w,c
  7793  00062A  0210               	mulwf	(i2___flmul@b+1)^0,c
  7794  00062C  CFF3 F026          	movff	prodl,i2___flmul@temp
  7795  000630  CFF4 F027          	movff	prodh,i2___flmul@temp+1
  7796  000634  5026               	movf	i2___flmul@temp^0,w,c
  7797  000636  2622               	addwf	i2___flmul@prod^0,f,c
  7798  000638  5027               	movf	(i2___flmul@temp+1)^0,w,c
  7799  00063A  2223               	addwfc	(i2___flmul@prod+1)^0,f,c
  7800  00063C  0E00               	movlw	0
  7801  00063E  2224               	addwfc	(i2___flmul@prod+2)^0,f,c
  7802  000640  0E00               	movlw	0
  7803  000642  2225               	addwfc	(i2___flmul@prod+3)^0,f,c
  7804  000644  5014               	movf	(i2___flmul@a+1)^0,w,c
  7805  000646  0211               	mulwf	(i2___flmul@b+2)^0,c
  7806  000648  CFF3 F026          	movff	prodl,i2___flmul@temp
  7807  00064C  CFF4 F027          	movff	prodh,i2___flmul@temp+1
  7808  000650  5026               	movf	i2___flmul@temp^0,w,c
  7809  000652  2622               	addwf	i2___flmul@prod^0,f,c
  7810  000654  5027               	movf	(i2___flmul@temp+1)^0,w,c
  7811  000656  2223               	addwfc	(i2___flmul@prod+1)^0,f,c
  7812  000658  0E00               	movlw	0
  7813  00065A  2224               	addwfc	(i2___flmul@prod+2)^0,f,c
  7814  00065C  0E00               	movlw	0
  7815  00065E  2225               	addwfc	(i2___flmul@prod+3)^0,f,c
  7816  000660  5015               	movf	(i2___flmul@a+2)^0,w,c
  7817  000662  0211               	mulwf	(i2___flmul@b+2)^0,c
  7818  000664  CFF3 F026          	movff	prodl,i2___flmul@temp
  7819  000668  CFF4 F027          	movff	prodh,i2___flmul@temp+1
  7820  00066C  5026               	movf	i2___flmul@temp^0,w,c
  7821  00066E  6E17               	movwf	??i2___flmul^0,c
  7822  000670  5027               	movf	(i2___flmul@temp+1)^0,w,c
  7823  000672  6E18               	movwf	(??i2___flmul+1)^0,c
  7824  000674  6A19               	clrf	(??i2___flmul+2)^0,c
  7825  000676  6A1A               	clrf	(??i2___flmul+3)^0,c
  7826  000678  C019  F01A         	movff	??i2___flmul+2,??i2___flmul+3
  7827  00067C  C018  F019         	movff	??i2___flmul+1,??i2___flmul+2
  7828  000680  C017  F018         	movff	??i2___flmul,??i2___flmul+1
  7829  000684  6A17               	clrf	??i2___flmul^0,c
  7830  000686  5017               	movf	??i2___flmul^0,w,c
  7831  000688  2622               	addwf	i2___flmul@prod^0,f,c
  7832  00068A  5018               	movf	(??i2___flmul+1)^0,w,c
  7833  00068C  2223               	addwfc	(i2___flmul@prod+1)^0,f,c
  7834  00068E  5019               	movf	(??i2___flmul+2)^0,w,c
  7835  000690  2224               	addwfc	(i2___flmul@prod+2)^0,f,c
  7836  000692  501A               	movf	(??i2___flmul+3)^0,w,c
  7837  000694  2225               	addwfc	(i2___flmul@prod+3)^0,f,c
  7838  000696  C01C  F017         	movff	i2___flmul@grs,??i2___flmul
  7839  00069A  C01D  F018         	movff	i2___flmul@grs+1,??i2___flmul+1
  7840  00069E  C01E  F019         	movff	i2___flmul@grs+2,??i2___flmul+2
  7841  0006A2  C01F  F01A         	movff	i2___flmul@grs+3,??i2___flmul+3
  7842  0006A6  0E19               	movlw	25
  7843  0006A8  EF5B  F003         	goto	i2u195_40
  7844  0006AC                     i2u195_45:
  7845  0006AC  90D8               	bcf	status,0,c
  7846  0006AE  321A               	rrcf	(??i2___flmul+3)^0,f,c
  7847  0006B0  3219               	rrcf	(??i2___flmul+2)^0,f,c
  7848  0006B2  3218               	rrcf	(??i2___flmul+1)^0,f,c
  7849  0006B4  3217               	rrcf	??i2___flmul^0,f,c
  7850  0006B6                     i2u195_40:
  7851  0006B6  2EE8               	decfsz	wreg,f,c
  7852  0006B8  EF56  F003         	goto	i2u195_45
  7853  0006BC  5017               	movf	??i2___flmul^0,w,c
  7854  0006BE  2622               	addwf	i2___flmul@prod^0,f,c
  7855  0006C0  5018               	movf	(??i2___flmul+1)^0,w,c
  7856  0006C2  2223               	addwfc	(i2___flmul@prod+1)^0,f,c
  7857  0006C4  5019               	movf	(??i2___flmul+2)^0,w,c
  7858  0006C6  2224               	addwfc	(i2___flmul@prod+2)^0,f,c
  7859  0006C8  501A               	movf	(??i2___flmul+3)^0,w,c
  7860  0006CA  2225               	addwfc	(i2___flmul@prod+3)^0,f,c
  7861  0006CC  C01E  F01F         	movff	i2___flmul@grs+2,i2___flmul@grs+3
  7862  0006D0  C01D  F01E         	movff	i2___flmul@grs+1,i2___flmul@grs+2
  7863  0006D4  C01C  F01D         	movff	i2___flmul@grs,i2___flmul@grs+1
  7864  0006D8  6A1C               	clrf	i2___flmul@grs^0,c
  7865  0006DA  5020               	movf	i2___flmul@aexp^0,w,c
  7866  0006DC  C021  F017         	movff	i2___flmul@bexp,??i2___flmul
  7867  0006E0  6A18               	clrf	(??i2___flmul+1)^0,c
  7868  0006E2  2617               	addwf	??i2___flmul^0,f,c
  7869  0006E4  0E00               	movlw	0
  7870  0006E6  2218               	addwfc	(??i2___flmul+1)^0,f,c
  7871  0006E8  0E82               	movlw	130
  7872  0006EA  2417               	addwf	??i2___flmul^0,w,c
  7873  0006EC  6E26               	movwf	i2___flmul@temp^0,c
  7874  0006EE  0EFF               	movlw	255
  7875  0006F0  2018               	addwfc	(??i2___flmul+1)^0,w,c
  7876  0006F2  6E27               	movwf	(i2___flmul@temp+1)^0,c
  7877  0006F4  EF91  F003         	goto	i2l2696
  7878  0006F8                     i2l2690:
  7879  0006F8  90D8               	bcf	status,0,c
  7880  0006FA  3622               	rlcf	i2___flmul@prod^0,f,c
  7881  0006FC  3623               	rlcf	(i2___flmul@prod+1)^0,f,c
  7882  0006FE  3624               	rlcf	(i2___flmul@prod+2)^0,f,c
  7883  000700  3625               	rlcf	(i2___flmul@prod+3)^0,f,c
  7884  000702  AE1F               	btfss	(i2___flmul@grs+3)^0,7,c
  7885  000704  EF86  F003         	goto	i2u196_41
  7886  000708  EF88  F003         	goto	i2u196_40
  7887  00070C                     i2u196_41:
  7888  00070C  EF89  F003         	goto	i2l1075
  7889  000710                     i2u196_40:
  7890  000710  8022               	bsf	i2___flmul@prod^0,0,c
  7891  000712                     i2l1075:
  7892  000712  90D8               	bcf	status,0,c
  7893  000714  361C               	rlcf	i2___flmul@grs^0,f,c
  7894  000716  361D               	rlcf	(i2___flmul@grs+1)^0,f,c
  7895  000718  361E               	rlcf	(i2___flmul@grs+2)^0,f,c
  7896  00071A  361F               	rlcf	(i2___flmul@grs+3)^0,f,c
  7897  00071C  0626               	decf	i2___flmul@temp^0,f,c
  7898  00071E  A0D8               	btfss	status,0,c
  7899  000720  0627               	decf	(i2___flmul@temp+1)^0,f,c
  7900  000722                     i2l2696:
  7901  000722  AE24               	btfss	(i2___flmul@prod+2)^0,7,c
  7902  000724  EF96  F003         	goto	i2u197_41
  7903  000728  EF98  F003         	goto	i2u197_40
  7904  00072C                     i2u197_41:
  7905  00072C  EF7C  F003         	goto	i2l2690
  7906  000730                     i2u197_40:
  7907  000730  0E00               	movlw	0
  7908  000732  6E20               	movwf	i2___flmul@aexp^0,c
  7909  000734  AE1F               	btfss	(i2___flmul@grs+3)^0,7,c
  7910  000736  EF9F  F003         	goto	i2u198_41
  7911  00073A  EFA1  F003         	goto	i2u198_40
  7912  00073E                     i2u198_41:
  7913  00073E  EFC5  F003         	goto	i2l1077
  7914  000742                     i2u198_40:
  7915  000742  0EFF               	movlw	255
  7916  000744  141C               	andwf	i2___flmul@grs^0,w,c
  7917  000746  6E17               	movwf	??i2___flmul^0,c
  7918  000748  0EFF               	movlw	255
  7919  00074A  141D               	andwf	(i2___flmul@grs+1)^0,w,c
  7920  00074C  6E18               	movwf	(??i2___flmul+1)^0,c
  7921  00074E  0EFF               	movlw	255
  7922  000750  141E               	andwf	(i2___flmul@grs+2)^0,w,c
  7923  000752  6E19               	movwf	(??i2___flmul+2)^0,c
  7924  000754  0E7F               	movlw	127
  7925  000756  141F               	andwf	(i2___flmul@grs+3)^0,w,c
  7926  000758  6E1A               	movwf	(??i2___flmul+3)^0,c
  7927  00075A  5017               	movf	??i2___flmul^0,w,c
  7928  00075C  1018               	iorwf	(??i2___flmul+1)^0,w,c
  7929  00075E  1019               	iorwf	(??i2___flmul+2)^0,w,c
  7930  000760  101A               	iorwf	(??i2___flmul+3)^0,w,c
  7931  000762  B4D8               	btfsc	status,2,c
  7932  000764  EFB6  F003         	goto	i2u199_41
  7933  000768  EFB8  F003         	goto	i2u199_40
  7934  00076C                     i2u199_41:
  7935  00076C  EFBC  F003         	goto	i2l1078
  7936  000770                     i2u199_40:
  7937  000770                     i2l2704:
  7938  000770  0E01               	movlw	1
  7939  000772  6E20               	movwf	i2___flmul@aexp^0,c
  7940  000774  EFC5  F003         	goto	i2l1077
  7941  000778                     i2l1078:
  7942  000778  A022               	btfss	i2___flmul@prod^0,0,c
  7943  00077A  EFC1  F003         	goto	i2u200_41
  7944  00077E  EFC3  F003         	goto	i2u200_40
  7945  000782                     i2u200_41:
  7946  000782  EFC5  F003         	goto	i2l1077
  7947  000786                     i2u200_40:
  7948  000786  EFB8  F003         	goto	i2l2704
  7949  00078A                     i2l1077:
  7950  00078A  5020               	movf	i2___flmul@aexp^0,w,c
  7951  00078C  B4D8               	btfsc	status,2,c
  7952  00078E  EFCB  F003         	goto	i2u201_41
  7953  000792  EFCD  F003         	goto	i2u201_40
  7954  000796                     i2u201_41:
  7955  000796  EFF1  F003         	goto	i2l2716
  7956  00079A                     i2u201_40:
  7957  00079A  0E01               	movlw	1
  7958  00079C  2622               	addwf	i2___flmul@prod^0,f,c
  7959  00079E  0E00               	movlw	0
  7960  0007A0  2223               	addwfc	(i2___flmul@prod+1)^0,f,c
  7961  0007A2  2224               	addwfc	(i2___flmul@prod+2)^0,f,c
  7962  0007A4  2225               	addwfc	(i2___flmul@prod+3)^0,f,c
  7963  0007A6  A025               	btfss	(i2___flmul@prod+3)^0,0,c
  7964  0007A8  EFD8  F003         	goto	i2u202_41
  7965  0007AC  EFDA  F003         	goto	i2u202_40
  7966  0007B0                     i2u202_41:
  7967  0007B0  EFF1  F003         	goto	i2l2716
  7968  0007B4                     i2u202_40:
  7969  0007B4  C022  F017         	movff	i2___flmul@prod,??i2___flmul
  7970  0007B8  C023  F018         	movff	i2___flmul@prod+1,??i2___flmul+1
  7971  0007BC  C024  F019         	movff	i2___flmul@prod+2,??i2___flmul+2
  7972  0007C0  C025  F01A         	movff	i2___flmul@prod+3,??i2___flmul+3
  7973  0007C4  341A               	rlcf	(??i2___flmul+3)^0,w,c
  7974  0007C6  321A               	rrcf	(??i2___flmul+3)^0,f,c
  7975  0007C8  3219               	rrcf	(??i2___flmul+2)^0,f,c
  7976  0007CA  3218               	rrcf	(??i2___flmul+1)^0,f,c
  7977  0007CC  3217               	rrcf	??i2___flmul^0,f,c
  7978  0007CE  C017  F022         	movff	??i2___flmul,i2___flmul@prod
  7979  0007D2  C018  F023         	movff	??i2___flmul+1,i2___flmul@prod+1
  7980  0007D6  C019  F024         	movff	??i2___flmul+2,i2___flmul@prod+2
  7981  0007DA  C01A  F025         	movff	??i2___flmul+3,i2___flmul@prod+3
  7982  0007DE  4A26               	infsnz	i2___flmul@temp^0,f,c
  7983  0007E0  2A27               	incf	(i2___flmul@temp+1)^0,f,c
  7984  0007E2                     i2l2716:
  7985  0007E2  BE27               	btfsc	(i2___flmul@temp+1)^0,7,c
  7986  0007E4  EFFC  F003         	goto	i2u203_41
  7987  0007E8  5027               	movf	(i2___flmul@temp+1)^0,w,c
  7988  0007EA  E108               	bnz	i2u203_40
  7989  0007EC  2826               	incf	i2___flmul@temp^0,w,c
  7990  0007EE  A0D8               	btfss	status,0,c
  7991  0007F0  EFFC  F003         	goto	i2u203_41
  7992  0007F4  EFFE  F003         	goto	i2u203_40
  7993  0007F8                     i2u203_41:
  7994  0007F8  EF08  F004         	goto	i2l2720
  7995  0007FC                     i2u203_40:
  7996  0007FC  0E00               	movlw	0
  7997  0007FE  6E22               	movwf	i2___flmul@prod^0,c
  7998  000800  0E00               	movlw	0
  7999  000802  6E23               	movwf	(i2___flmul@prod+1)^0,c
  8000  000804  0E80               	movlw	128
  8001  000806  6E24               	movwf	(i2___flmul@prod+2)^0,c
  8002  000808  0E7F               	movlw	127
  8003  00080A  6E25               	movwf	(i2___flmul@prod+3)^0,c
  8004  00080C  EF36  F004         	goto	i2l2732
  8005  000810                     i2l2720:
  8006  000810  BE27               	btfsc	(i2___flmul@temp+1)^0,7,c
  8007  000812  EF15  F004         	goto	i2u204_40
  8008  000816  5027               	movf	(i2___flmul@temp+1)^0,w,c
  8009  000818  E106               	bnz	i2u204_41
  8010  00081A  0426               	decf	i2___flmul@temp^0,w,c
  8011  00081C  B0D8               	btfsc	status,0,c
  8012  00081E  EF13  F004         	goto	i2u204_41
  8013  000822  EF15  F004         	goto	i2u204_40
  8014  000826                     i2u204_41:
  8015  000826  EF21  F004         	goto	i2l1085
  8016  00082A                     i2u204_40:
  8017  00082A  0E00               	movlw	0
  8018  00082C  6E22               	movwf	i2___flmul@prod^0,c
  8019  00082E  0E00               	movlw	0
  8020  000830  6E23               	movwf	(i2___flmul@prod+1)^0,c
  8021  000832  0E00               	movlw	0
  8022  000834  6E24               	movwf	(i2___flmul@prod+2)^0,c
  8023  000836  0E00               	movlw	0
  8024  000838  6E25               	movwf	(i2___flmul@prod+3)^0,c
  8025  00083A  0E00               	movlw	0
  8026  00083C  6E1B               	movwf	i2___flmul@sign^0,c
  8027  00083E  EF36  F004         	goto	i2l2732
  8028  000842                     i2l1085:
  8029  000842  C026  F021         	movff	i2___flmul@temp,i2___flmul@bexp
  8030  000846  0EFF               	movlw	255
  8031  000848  1622               	andwf	i2___flmul@prod^0,f,c
  8032  00084A  0EFF               	movlw	255
  8033  00084C  1623               	andwf	(i2___flmul@prod+1)^0,f,c
  8034  00084E  0E7F               	movlw	127
  8035  000850  1624               	andwf	(i2___flmul@prod+2)^0,f,c
  8036  000852  0E00               	movlw	0
  8037  000854  1625               	andwf	(i2___flmul@prod+3)^0,f,c
  8038  000856  A021               	btfss	i2___flmul@bexp^0,0,c
  8039  000858  EF30  F004         	goto	i2u205_41
  8040  00085C  EF32  F004         	goto	i2u205_40
  8041  000860                     i2u205_41:
  8042  000860  EF33  F004         	goto	i2l2730
  8043  000864                     i2u205_40:
  8044  000864  8E24               	bsf	(i2___flmul@prod+2)^0,7,c
  8045  000866                     i2l2730:
  8046  000866  90D8               	bcf	status,0,c
  8047  000868  3021               	rrcf	i2___flmul@bexp^0,w,c
  8048  00086A  6E25               	movwf	(i2___flmul@prod+3)^0,c
  8049  00086C                     i2l2732:
  8050  00086C  501B               	movf	i2___flmul@sign^0,w,c
  8051  00086E  1225               	iorwf	(i2___flmul@prod+3)^0,f,c
  8052  000870  C022  F00F         	movff	i2___flmul@prod,?i2___flmul
  8053  000874  C023  F010         	movff	i2___flmul@prod+1,?i2___flmul+1
  8054  000878  C024  F011         	movff	i2___flmul@prod+2,?i2___flmul+2
  8055  00087C  C025  F012         	movff	i2___flmul@prod+3,?i2___flmul+3
  8056  000880                     i2l1072:
  8057  000880  0012               	return		;funcret
  8058  000882                     __end_ofi2___flmul:
  8059                           	opt callstack 0
  8060                           
  8061                           	psect	rparam
  8062  0000                     
  8063                           	psect	temp
  8064  000059                     btemp:
  8065                           	opt callstack 0
  8066  000059                     	ds	1
  8067  0000                     int$flags	set	btemp
  8068  0000                     wtemp8	set	btemp+1
  8069  0000                     ttemp5	set	btemp+1
  8070  0000                     ttemp6	set	btemp+4
  8071  0000                     ttemp7	set	btemp+8
  8072                           tosu	equ	0xFFF
  8073                           tosh	equ	0xFFE
  8074                           tosl	equ	0xFFD
  8075                           stkptr	equ	0xFFC
  8076                           pclatu	equ	0xFFB
  8077                           pclath	equ	0xFFA
  8078                           pcl	equ	0xFF9
  8079                           tblptru	equ	0xFF8
  8080                           tblptrh	equ	0xFF7
  8081                           tblptrl	equ	0xFF6
  8082                           tablat	equ	0xFF5
  8083                           prodh	equ	0xFF4
  8084                           prodl	equ	0xFF3
  8085                           indf0	equ	0xFEF
  8086                           postinc0	equ	0xFEE
  8087                           postdec0	equ	0xFED
  8088                           preinc0	equ	0xFEC
  8089                           plusw0	equ	0xFEB
  8090                           fsr0h	equ	0xFEA
  8091                           fsr0l	equ	0xFE9
  8092                           wreg	equ	0xFE8
  8093                           indf1	equ	0xFE7
  8094                           postinc1	equ	0xFE6
  8095                           postdec1	equ	0xFE5
  8096                           preinc1	equ	0xFE4
  8097                           plusw1	equ	0xFE3
  8098                           fsr1h	equ	0xFE2
  8099                           fsr1l	equ	0xFE1
  8100                           bsr	equ	0xFE0
  8101                           indf2	equ	0xFDF
  8102                           postinc2	equ	0xFDE
  8103                           postdec2	equ	0xFDD
  8104                           preinc2	equ	0xFDC
  8105                           plusw2	equ	0xFDB
  8106                           fsr2h	equ	0xFDA
  8107                           fsr2l	equ	0xFD9
  8108                           status	equ	0xFD8


Data Sizes:
    Strings     1441
    Constant    0
    Data        0
    BSS         109
    Persistent  0
    Stack       0

Auto Spaces:
    Space          Size  Autos    Used
    COMRAM           94     64      88
    BANK0           160     78     153
    BANK1           256      0      10
    BANK2           256      0       0
    BANK3           256      0       0
    BANK4           256      0       0
    BANK5           256      0       0
    BANK6           256      0       0
    BANK7           256      0       0

Pointer List with Targets:

    main@pActMenu	PTR unsigned char  size(2) Largest target is 5
		 -> main@activarmenu(BANK0[5]), 

    scanf@guardarscan	PTR unsigned char  size(2) Largest target is 5
		 -> main@activarmenu(BANK0[5]), 

    printf@PointString	PTR unsigned char  size(2) Largest target is 212
		 -> STR_35(CODE[75]), STR_34(CODE[13]), STR_33(CODE[13]), STR_32(CODE[13]), 
		 -> STR_31(CODE[19]), STR_30(CODE[57]), STR_29(CODE[13]), STR_28(CODE[23]), 
		 -> STR_27(CODE[44]), STR_26(CODE[26]), STR_25(CODE[37]), STR_24(CODE[212]), 
		 -> STR_23(CODE[57]), STR_22(CODE[52]), STR_21(CODE[52]), STR_20(CODE[15]), 
		 -> STR_19(CODE[15]), STR_18(CODE[48]), STR_17(CODE[31]), STR_16(CODE[59]), 
		 -> STR_15(CODE[68]), STR_14(CODE[46]), STR_13(CODE[3]), STR_12(CODE[12]), 
		 -> STR_11(CODE[32]), STR_10(CODE[12]), STR_9(CODE[58]), STR_8(CODE[41]), 
		 -> STR_7(CODE[43]), STR_6(CODE[33]), STR_5(CODE[33]), STR_4(CODE[14]), 
		 -> STR_3(CODE[14]), STR_2(CODE[113]), STR_1(CODE[48]), 


Critical Paths under _main in COMRAM

    None.

Critical Paths under _low_isr in COMRAM

    None.

Critical Paths under _high_isr in COMRAM

    _high_isr->i2_PWM_DutyCycleCCP1
    _high_isr->i2_PWM_DutyCycleCCP2
    i2_printf->i2_send
    i2_PWM_DutyCycleCCP2->i2___fltol
    i2_PWM_DutyCycleCCP1->i2___fltol
    i2___fltol->i2___flmul
    i2___flmul->i2___xxtofl

Critical Paths under _main in BANK0

    _main->_moverHaciaX
    _scanf->_receive
    _moverHaciaX->_PWM_DutyCycleCCP1
    _moverHaciaX->_PWM_DutyCycleCCP2
    ___wmul->_abs
    _PWM_DutyCycleCCP2->___fltol
    _PWM_DutyCycleCCP1->___fltol
    ___fltol->___flmul
    ___flmul->___xxtofl
    _modificarCoordenada->_introducirCoordNueva
    _introducirCoordNueva->_receiveNum
    _receiveNum->_printf
    _imprimirCoordenadas->_printf
    _borrarTodasCoordenadas->_printf
    _printf->_send

Critical Paths under _low_isr in BANK0

    None.

Critical Paths under _high_isr in BANK0

    None.

Critical Paths under _main in BANK1

    None.

Critical Paths under _low_isr in BANK1

    None.

Critical Paths under _high_isr in BANK1

    None.

Critical Paths under _main in BANK2

    None.

Critical Paths under _low_isr in BANK2

    None.

Critical Paths under _high_isr in BANK2

    None.

Critical Paths under _main in BANK3

    None.

Critical Paths under _low_isr in BANK3

    None.

Critical Paths under _high_isr in BANK3

    None.

Critical Paths under _main in BANK4

    None.

Critical Paths under _low_isr in BANK4

    None.

Critical Paths under _high_isr in BANK4

    None.

Critical Paths under _main in BANK5

    None.

Critical Paths under _low_isr in BANK5

    None.

Critical Paths under _high_isr in BANK5

    None.

Critical Paths under _main in BANK6

    None.

Critical Paths under _low_isr in BANK6

    None.

Critical Paths under _high_isr in BANK6

    None.

Critical Paths under _main in BANK7

    None.

Critical Paths under _low_isr in BANK7

    None.

Critical Paths under _high_isr in BANK7

    None.

Call Graph Tables:

 ---------------------------------------------------------------------------------
 (Depth) Function   	        Calls       Base Space   Used Autos Params    Refs
 ---------------------------------------------------------------------------------
 (0) _main                                                14    14      0   49214
                                             64 BANK0     14    14      0
                      _PWM_CCP1_init
                      _PWM_CCP2_init
                  _PWM_DutyCycleCCP1
                  _PWM_DutyCycleCCP2
                           _UARTinit
             _borrarTodasCoordenadas
                   _habilitarIntTMR0
                   _habilitarIntTMR1
                _imprimirCoordenadas
                   _interruptsEnable
               _introducirCoordNueva
                _modificarCoordenada
                         _motorXinit
                         _motorYinit
                        _moverHaciaX
                           _portInit
                             _printf
                            _receive
                         _receiveNum
                              _scanf
                           _tmr0Init
                           _tmr1Init
 ---------------------------------------------------------------------------------
 (1) _tmr1Init                                             0     0      0       0
 ---------------------------------------------------------------------------------
 (1) _tmr0Init                                             0     0      0       0
 ---------------------------------------------------------------------------------
 (1) _scanf                                                4     1      3     265
                                              2 BANK0      4     1      3
                            _receive
 ---------------------------------------------------------------------------------
 (2) _receive                                              1     1      0      23
                                              1 BANK0      1     1      0
 ---------------------------------------------------------------------------------
 (1) _portInit                                             0     0      0       0
 ---------------------------------------------------------------------------------
 (1) _moverHaciaX                                          5     3      2   10140
                                             59 BANK0      5     3      2
                  _PWM_DutyCycleCCP1
                  _PWM_DutyCycleCCP2
                             ___wmul
                                _abs
                             _printf
                               _send
                       _setNumPasosX
 ---------------------------------------------------------------------------------
 (2) _setNumPasosX                                         4     2      2     165
                                              1 BANK0      4     2      2
 ---------------------------------------------------------------------------------
 (2) _abs                                                  4     2      2     218
                                              1 BANK0      4     2      2
 ---------------------------------------------------------------------------------
 (2) ___wmul                                               6     2      4     463
                                              5 BANK0      6     2      4
                                _abs (ARG)
 ---------------------------------------------------------------------------------
 (2) _PWM_DutyCycleCCP2                                    9     9      0    3145
                                             50 BANK0      9     9      0
                            ___flmul
                            ___fltol
                           ___xxtofl
 ---------------------------------------------------------------------------------
 (2) _PWM_DutyCycleCCP1                                    9     9      0    3145
                                             50 BANK0      9     9      0
                            ___flmul
                            ___fltol
                           ___xxtofl
 ---------------------------------------------------------------------------------
 (3) ___xxtofl                                            14    10      4     474
                                              1 BANK0     14    10      4
 ---------------------------------------------------------------------------------
 (3) ___fltol                                             10     6      4     381
                                             40 BANK0     10     6      4
                            ___flmul (ARG)
                           ___xxtofl (ARG)
 ---------------------------------------------------------------------------------
 (3) ___flmul                                             25    17      8    2200
                                             15 BANK0     25    17      8
                           ___xxtofl (ARG)
 ---------------------------------------------------------------------------------
 (1) _motorYinit                                           0     0      0       0
 ---------------------------------------------------------------------------------
 (1) _motorXinit                                           0     0      0       0
 ---------------------------------------------------------------------------------
 (1) _modificarCoordenada                                  9     9      0   14540
                                             17 BANK0      9     9      0
                _imprimirCoordenadas
               _introducirCoordNueva
                             _printf
                         _receiveNum
                               _send
 ---------------------------------------------------------------------------------
 (2) _introducirCoordNueva                                 9     9      0    5710
                                              8 BANK0      9     9      0
                             _printf
                         _receiveNum
                               _send
 ---------------------------------------------------------------------------------
 (1) _receiveNum                                           1     1      0    2876
                                              7 BANK0      1     1      0
                             _printf
 ---------------------------------------------------------------------------------
 (2) _imprimirCoordenadas                                  2     2      0    3054
                                              7 BANK0      2     2      0
                             _printf
                               _send
 ---------------------------------------------------------------------------------
 (1) _interruptsEnable                                     0     0      0       0
 ---------------------------------------------------------------------------------
 (1) _habilitarIntTMR1                                     0     0      0       0
 ---------------------------------------------------------------------------------
 (1) _habilitarIntTMR0                                     0     0      0       0
 ---------------------------------------------------------------------------------
 (1) _borrarTodasCoordenadas                               1     1      0    3008
                                              7 BANK0      1     1      0
                             _printf
 ---------------------------------------------------------------------------------
 (2) _printf                                               5     3      2    2764
                                              2 BANK0      5     3      2
                               _send
 ---------------------------------------------------------------------------------
 (3) _send                                                 1     1      0      22
                                              1 BANK0      1     1      0
 ---------------------------------------------------------------------------------
 (1) _UARTinit                                             0     0      0       0
 ---------------------------------------------------------------------------------
 (1) _PWM_CCP2_init                                        0     0      0       0
 ---------------------------------------------------------------------------------
 (1) _PWM_CCP1_init                                        0     0      0       0
 ---------------------------------------------------------------------------------
 Estimated maximum stack depth 3
 ---------------------------------------------------------------------------------
 (Depth) Function   	        Calls       Base Space   Used Autos Params    Refs
 ---------------------------------------------------------------------------------
 (6) _low_isr                                              1     1      0       0
                                              0 BANK0      1     1      0
 ---------------------------------------------------------------------------------
 Estimated maximum stack depth 6
 ---------------------------------------------------------------------------------
 (Depth) Function   	        Calls       Base Space   Used Autos Params    Refs
 ---------------------------------------------------------------------------------
 (7) _high_isr                                             6     6      0    5046
                                             58 COMRAM     6     6      0
                i2_PWM_DutyCycleCCP1
                i2_PWM_DutyCycleCCP2
                           i2_printf
 ---------------------------------------------------------------------------------
 (8) i2_printf                                             5     3      2     208
                                              1 COMRAM     5     3      2
                             i2_send
 ---------------------------------------------------------------------------------
 (9) i2_send                                               1     1      0      22
                                              0 COMRAM     1     1      0
 ---------------------------------------------------------------------------------
 (8) i2_PWM_DutyCycleCCP2                                  9     9      0    2419
                                             49 COMRAM     9     9      0
                          i2___flmul
                          i2___fltol
                         i2___xxtofl
 ---------------------------------------------------------------------------------
 (8) i2_PWM_DutyCycleCCP1                                  9     9      0    2419
                                             49 COMRAM     9     9      0
                          i2___flmul
                          i2___fltol
                         i2___xxtofl
 ---------------------------------------------------------------------------------
 (9) i2___xxtofl                                          14    10      4     374
                                              0 COMRAM    14    10      4
 ---------------------------------------------------------------------------------
 (9) i2___fltol                                           10     6      4     281
                                             39 COMRAM    10     6      4
                          i2___flmul (ARG)
                         i2___xxtofl (ARG)
 ---------------------------------------------------------------------------------
 (9) i2___flmul                                           25    17      8    1674
                                             14 COMRAM    25    17      8
                         i2___xxtofl (ARG)
 ---------------------------------------------------------------------------------
 Estimated maximum stack depth 9
 ---------------------------------------------------------------------------------

 Call Graph Graphs:

 _main (ROOT)
   _PWM_CCP1_init
   _PWM_CCP2_init
   _PWM_DutyCycleCCP1
     ___flmul
       ___xxtofl (ARG)
     ___fltol
       ___flmul (ARG)
         ___xxtofl (ARG)
       ___xxtofl (ARG)
     ___xxtofl
   _PWM_DutyCycleCCP2
     ___flmul
       ___xxtofl (ARG)
     ___fltol
       ___flmul (ARG)
         ___xxtofl (ARG)
       ___xxtofl (ARG)
     ___xxtofl
   _UARTinit
   _borrarTodasCoordenadas
     _printf
       _send
   _habilitarIntTMR0
   _habilitarIntTMR1
   _imprimirCoordenadas
     _printf
       _send
     _send
   _interruptsEnable
   _introducirCoordNueva
     _printf
       _send
     _receiveNum
       _printf
         _send
     _send
   _modificarCoordenada
     _imprimirCoordenadas
       _printf
         _send
       _send
     _introducirCoordNueva
       _printf
         _send
       _receiveNum
         _printf
           _send
       _send
     _printf
       _send
     _receiveNum
       _printf
         _send
     _send
   _motorXinit
   _motorYinit
   _moverHaciaX
     _PWM_DutyCycleCCP1
       ___flmul
         ___xxtofl (ARG)
       ___fltol
         ___flmul (ARG)
           ___xxtofl (ARG)
         ___xxtofl (ARG)
       ___xxtofl
     _PWM_DutyCycleCCP2
       ___flmul
         ___xxtofl (ARG)
       ___fltol
         ___flmul (ARG)
           ___xxtofl (ARG)
         ___xxtofl (ARG)
       ___xxtofl
     ___wmul
       _abs (ARG)
     _abs
     _printf
       _send
     _send
     _setNumPasosX
   _portInit
   _printf
     _send
   _receive
   _receiveNum
     _printf
       _send
   _scanf
     _receive
   _tmr0Init
   _tmr1Init

 _low_isr (ROOT)

 _high_isr (ROOT)
   i2_PWM_DutyCycleCCP1
     i2___flmul
       i2___xxtofl (ARG)
     i2___fltol
       i2___flmul (ARG)
         i2___xxtofl (ARG)
       i2___xxtofl (ARG)
     i2___xxtofl
   i2_PWM_DutyCycleCCP2
     i2___flmul
       i2___xxtofl (ARG)
     i2___fltol
       i2___flmul (ARG)
         i2___xxtofl (ARG)
       i2___xxtofl (ARG)
     i2___xxtofl
   i2_printf
     i2_send

 Address spaces:
Name               Size   Autos  Total    Cost      Usage
BIGRAM             7FF      0       0      21        0.0%
EEDATA             100      0       0       0        0.0%
BITBANK7           100      0       0      18        0.0%
BANK7              100      0       0      19        0.0%
BITBANK6           100      0       0      16        0.0%
BANK6              100      0       0      17        0.0%
BITBANK5           100      0       0      14        0.0%
BANK5              100      0       0      15        0.0%
BITBANK4           100      0       0      12        0.0%
BANK4              100      0       0      13        0.0%
BITBANK3           100      0       0      10        0.0%
BANK3              100      0       0      11        0.0%
BITBANK2           100      0       0       8        0.0%
BANK2              100      0       0       9        0.0%
BITBANK1           100      0       0       6        0.0%
BANK1              100      0       A       7        3.9%
BITBANK0            A0      0       0       4        0.0%
BANK0               A0     4E      99       5       95.6%
BITCOMRAM           5E      0       0       0        0.0%
COMRAM              5E     40      58       1       93.6%
BITSFR               0      0       0     200        0.0%
SFR                  0      0       0     200        0.0%
STACK                0      0       0       2        0.0%
NULL                 0      0       0       0        0.0%
ABS                  0      0      FB      20        0.0%
DATA                 0      0      FB       3        0.0%
CODE                 0      0       0       0        0.0%


Microchip Technology PIC18 Macro Assembler V2.10 build 88905656 
Symbol Table                                                                                   Fri Nov 29 10:29:10 2019

                     _introducirCoordNueva 0882                                         l21 1E0E  
                                       l15 1E26                                         l40 1DBC  
                                       l18 1E1C                                         l43 1D6E  
                                       l52 1DD4                                         l45 1D7C  
                                       l70 1772                                         l46 1D88  
                                       l49 1DC2                                         l67 1D6C  
                                       l85 1D4E                                         l88 182E  
                                       bsr 000FE0                      setNumPasosX@numPasosX 0061  
                      ___wmul@multiplicand 0067                                        l200 1C9E  
                                      l124 1E2E                                        l133 1E36  
                                      l310 15F8                                        l151 1C26  
                                      l136 1E32                                        l162 1AF2  
                                      l251 12F2                                        l164 1B00  
                                      l245 0B9A                                        l157 1CD2  
                                      l262 18E8                                        l192 1DA2  
                                      l169 1B5A                                        l257 16B6  
                                      l195 1DEA                                        l454 1D2C  
                                      l198 1C9A                                        l751 13FA  
                                      _PR2 000FCB                      setNumPasosX@resultado 0063  
                                      _abs 1C28                                 i2___xxtofl 1004  
                                      wreg 000FE8                                i2___flmul@a 0013  
                              i2___flmul@b 000F                                 _TXSTA1bits 000FAC  
                             ___flmul@aexp 0080                               ___flmul@bexp 0081  
                             ___flmul@sign 007B                               ___flmul@temp 0086  
                             ___flmul@prod 0082                               __CFG_LVP$OFF 000000  
                             ___fltol@exp1 0091                               __CFG_WDT$OFF 000000  
                                     l1112 1002                                       l1123 0F9A  
                                     ?_abs 0061                                       l1116 0F3E  
                                     l1132 1C68                                       l1109 0EA6  
                                     l1072 0456                                       l2200 0080  
                                     l1129 1C60                                       l2210 00AC  
                                     l2202 0090                                       l1075 02E8  
                                     l2300 0400                                       l2220 0102  
                                     l1068 00F2                                       l2212 00BC  
                                     l2204 0096                                       l3100 0DAE  
                                     l1085 0418                                       l1077 0360  
                                     l2150 1BC4                                       l2302 041C  
                                     l2310 0442                                       l1078 034E  
                                     l2230 013C                                       l2222 0112  
                                     l2214 00CC                                       l2206 009C  
                                     l3110 0DF4                                       l3102 0DC0  
                                     l3030 0BBC                                       l3022 0B9C  
                                     l2312 0446                                       l2304 042C  
                                     l2240 018E                                       l2232 0152  
                                     l2216 00DC                                       l2208 00AA  
                                     l2400 0FF0                                       l3112 0E08  
                                     l3104 0DC8                                       l3040 0BE2  
                                     l3032 0BC8                                       l3024 0BAC  
                                     l2146 1DC2                                       l2162 1BF6  
                                     l2170 1B04                                       l2306 043A  
                                     l2250 01D4                                       l2242 019C  
                                     l2234 015E                                       l2226 0126  
                                     l2218 00E2                                       l2330 1360  
                                     l2322 1320                                       l2402 0FF2  
                                     l3114 0E14                                       l3106 0DD4  
                                     l3050 0C30                                       l3042 0BE6  
                                     l3034 0BCC                                       l3026 0BB2  
                                     l2148 1DD0                                       l2164 1C12  
                                     l2156 1BCA                                       l2180 1B48  
                                     l2172 1B08                                       l2500 0B8E  
                                     l2308 043C                                       l2260 0242  
                                     l2252 01EE                                       l2244 01A8  
                                     l2236 0176                                       l2228 0132  
                                     l2340 1390                                       l2332 136E  
                                     l2324 134A                                       l2316 12F4  
                                     l2420 1800                                       l2412 16BC  
                                     l3116 0E28                                       l3108 0DE8  
                                     l3060 0C7E                                       l3052 0C42  
                                     l3044 0BF4                                       l3036 0BD0  
                                     l3028 0BB8                                       l2166 1C16  
                                     l2510 11D4                                       l2502 11B8  
                                     l2182 1B58                                       l2174 1B1A  
                                     l2270 02D8                                       l2262 026C  
                                     l2254 01FE                                       l2246 01B8  
                                     l2238 0182                                       l2190 0048  
                                     l2350 13BA                                       l2342 139A  
                                     l2326 134C                                       l2318 130C  
                                     l2422 1816                                       l2414 1744  
                                     l2430 1C92                                       l2406 1D6E  
                                     l3070 0CC0                                       l3054 0C54  
                                     l3118 0E38                                       l3046 0C0A  
                                     l3038 0BDA                                       l2520 1210  
                                     l2512 11E2                                       l2504 11B8  
                                     l2176 1B2A                                       l2168 1AE8  
                                     l2440 08BA                                       l2432 0882  
                                     l2280 0318                                       l2272 02E6  
                                     l2264 02A2                                       l2256 021A  
                                     l2248 01C4                                       l2192 004A  
                                     l2352 13CA                                       l2328 135C  
                                     l2360 0E50                                       l2416 175A  
                                     l2424 1C6A                                       l2408 1D80  
                                     l3080 0D04                                       l3072 0CCC  
                                     l3064 0C8E                                       l3056 0C66  
                                     l3048 0C1E                                       l2530 1266  
                                     l2522 1224                                       l2514 11EC  
                                     l2506 11C0                                       l2178 1B36  
                                     l2450 094E                                       l2442 08CE  
                                     l2434 088C                                       l2290 038A  
                                     l2282 0346                                       l2274 02F8  
                                     l2266 02B0                                       l2258 0226  
                                     l2194 005A                                       l2186 002C  
                                     l2354 13DA                                       l2338 1386  
                                     l2362 0E62                                       l2418 1778  
                                     l2426 1C7E                                       l3090 0D62  
                                     l3082 0D08                                       l3074 0CE0  
                                     l3066 0C9E                                       l3058 0C72  
                                     l2540 12BC                                       l2532 127A  
                                     l2524 1238                                       l2516 11F8  
                                     l2508 11CC                                       l2460 0A52  
                                     l2452 0962                                       l2444 08E2  
                                     l2436 089C                                       l2292 03B4  
                                     l2276 0306                                       l2268 02CE  
                                     l2196 006A                                       l2188 003A  
                                     l2356 13EA                                       l2348 13AE  
                                     l2380 0F28                                       l2372 0EE0  
                                     l2364 0E70                                       l2428 1C8E  
                                     l3092 0D66                                       l3084 0D1C  
                                     l3076 0CE4                                       l3068 0CAE  
                                     l2542 12D0                                       l2534 128E  
                                     l2526 124C                                       l2518 1202  
                                     l2470 0AAE                                       l2462 0A68  
                                     l2454 0976                                       l2446 08F6  
                                     l2438 08AC                                       l2286 0370  
                                     l2294 03B8                                       l2278 030A  
                                     l2198 007A                                       l2390 0FA8  
                                     l2382 0F34                                       l2374 0EE8  
                                     l2366 0EB6                                       l2550 1C28  
                                     l3094 0D7A                                       l3086 0D40  
                                     l3078 0CF8                                       l2800 1DB2  
                                     l2544 12D6                                       l2536 1294  
                                     l2528 1252                                       l2480 0B04  
                                     l2472 0AC2                                       l2464 0A7E  
                                     l2456 0998                                       l2448 0940  
                                     l2296 03D2                                       l2288 037C  
                                     l2392 0FAA                                       l2384 0F70  
                                     l2376 0EF4                                       l2368 0ECC  
                                     l2552 1C44                                       l3096 0D86  
                                     l3088 0D4E                                       l2810 1D50  
                                     l2802 1DB4                                       l2546 12DC  
                                     l2538 12A8                                       l2490 0B5A  
                                     l2482 0B18                                       l2474 0AD6  
                                     l2466 0A8E                                       l2458 09F6  
                                     l2298 03E6                                       l2394 0FAE  
                                     l2386 0F7C                                       l2378 0F26  
                                     l2554 1D06                                       l3098 0D9A  
                                     l2820 1D4C                                       l2812 1D52  
                                     l2804 1DB6                                       l2900 18DC  
                                     l2548 12E0                                       l2492 0B60  
                                     l2484 0B1E                                       l2476 0ADC  
                                     l2468 0A9A                                       l2396 0FD2  
                                     l2388 0F8A                                       l2556 1D24  
                                     l2814 1D6A                                       l2806 1DB8  
                                     l2822 1E28                                       l2494 0B72  
                                     l2486 0B32                                       l2478 0AF0  
                                     l2398 0FE2                                       l2910 1572  
                                     l2902 1506                                       l2830 1CAA  
                                     l2816 1D2E                                       l2808 1DBA  
                                     l2824 1E34                                       l2496 0B7E  
                                     l2488 0B46                                       l2920 15AC  
                                     l2912 1580                                       l2904 1506  
                                     l2832 1CBC                                       l2840 1DA0  
                                     l2818 1D30                                       l2826 1E30  
                                     l2498 0B82                                       l2930 15EC  
                                     l2922 15C2                                       l2914 1588  
                                     l2906 1518                                       l2834 1CC0  
                                     l2842 1DD6                                       l2860 1608  
                                     l2932 15F2                                       l2924 15C4  
                                     l2916 158E                                       l2908 1544  
                                     l2828 1CA0                                       l2844 1DE0  
                                     l2836 1D8A                                       l2790 1DA4  
                                     l2870 168A                                       l2862 1616  
                                     l2926 15DC                                       l2918 15A6  
                                     l2846 1DE8                                       l2838 1D98  
                                     l2792 1DA8                                       l2880 16A8  
                                     l2872 1692                                       l2864 1622  
                                     l2856 15FA                                       l2928 15E0  
                                     l2784 1E1E                                       l2794 1DAC  
                                     l2882 16AC                                       l2874 1698  
                                     l2866 1644                                       l2858 1604  
                                     l2786 1E10                                       l2796 1DAE  
                                     l2892 1836                                       l2884 16B0  
                                     l2876 16A0                                       l2868 167E  
                                     l2788 1E02                                       l2798 1DB0  
                                     l2894 18C6                                       l2886 1830  
                                     l2878 16A4                                       l2896 18C8  
                                     l2898 18D8                                       STR_1 7DB0  
                                     STR_2 7B31                                       STR_3 7F96  
                                     STR_4 7FA4                                       STR_5 7EB3  
                                     STR_6 7ED4                                       STR_7 7E3A  
                                     STR_8 7E65                                       STR_9 7C6C  
                                     u1300 1B1A                                       u1301 1B16  
                                     u1310 1B2A                                       u1311 1B26  
                                     u1320 1B48                                       u1400 0102  
                                     u2200 1518                                       u1321 1B44  
                                     u1401 00FE                                       u2201 1514  
                                     u1330 1B58                                       u1410 0112  
                                     u2210 15A6                                       u1331 1B54  
                                     u1411 010E                                       u2211 15A2  
                                     u1260 1DD0                                       u1500 03D2  
                                     u1420 028C                                       u1340 0048  
                                     u2220 15C2                                       u1261 1DCC  
                                     u1501 03CE                                       u1341 0044  
                                     u2221 15BE                                       u1270 1BF2  
                                     u1510 0400                                       u1430 02E6  
                                     u1350 005A                                       u2230 15DC  
                                     u1271 1BEE                                       u1511 03FC  
                                     u1431 02E2                                       u1351 0056  
                                     u2231 15D8                                       u1280 1C26  
                                     u1520 043A                                       u1440 0306  
                                     u1360 006A                                       u1600 0E62  
                                     u2160 1CD2                                       u2400 0CE0  
                                     u2320 0C1E                                       u1281 1C22  
                                     u1521 0436                                       u1441 0302  
                                     u1425 0282                                       u1361 0066  
                                     u1601 0E5E                                       u2161 1CCE  
                                     u2401 0CDC                                       u2321 0C1A  
                                     u1290 1B00                                       u1450 0318  
                                     u1370 00AA                                       u1530 130C  
                                     u1610 0E70                                       u2410 0CF8  
                                     u2330 0C30                                       u1291 1AFC  
                                     u1451 0314                                       u1371 00A6  
                                     u1531 1308                                       u1611 0E6C  
                                     u2411 0CF4                                       u2331 0C2C  
                                     u2180 167E                                       u1460 0346  
                                     u1380 00BC                                       u1540 1340  
                                     u1620 0ECC                                       u1700 1D7C  
                                     u2420 0D1C                                       u2340 0C42  
                                     u2181 167A                                       u1461 0342  
                                     u1381 00B8                                       u1621 0EC8  
                                     u1701 1D78                                       u2421 0D18  
                                     u2341 0C3E                                       u2190 18D8  
                                     u1470 035C                                       u1390 00CC  
                                     u1550 136E                                       u1630 0F22  
                                     u1710 1C7E                                       u2430 0D62  
                                     u2350 0C54                                       u2191 18D4  
                                     u1471 0358                                       u1391 00C8  
                                     u1551 136A                                       u1631 0F1E  
                                     u1711 1C7A                                       u2431 0D5E  
                                     u2351 0C50                                       u1720 089C  
                                     u1480 0370                                       u1560 1382  
                                     u1640 0F6C                                       u2440 0D7A  
                                     u2360 0C66                                       u1721 0898  
                                     u1481 036C                                       u1561 137E  
                                     u1545 1336                                       u1641 0F68  
                                     u2441 0D76                                       u2361 0C62  
                                     u1730 08AC                                       u1490 038A  
                                     u1570 13AA                                       u1650 0F8A  
                                     u2450 0D9A                                       u2370 0C9E  
                                     u1731 08A8                                       u1491 0386  
                                     u1571 13A6                                       u1651 0F86  
                                     u2451 0D96                                       u2371 0C9A  
                                     u1740 0A68                                       u1580 13CA  
                                     u1660 0F9A                                       u2460 0DC0  
                                     u2380 0CAE                                       u1741 0A64  
                                     u1581 13C6                                       u1661 0F96  
                                     u2461 0DBC                                       u2381 0CAA  
                                     u1750 0A7E                                       u1590 13DA  
                                     u1670 0FA8                                       u2470 0DE8  
                                     u2390 0CC0                                       u1751 0A7A  
                                     u1591 13D6                                       u1671 0FA4  
                                     u2471 0DE4                                       u2391 0CBC  
                                     u1760 0B72                                       u1680 0FE2  
                                     u2480 0E08                                       u1761 0B6E  
                                     u1681 0FDE                                       u2481 0E04  
                                     u1770 12F2                                       u1690 0FF0  
                                     u2490 0E28                                       u1771 12EE  
                                     u1691 0FEC                                       u2491 0E24  
                                     u1780 1C44                                       u1781 1C40  
                                     i2l52 1E00                                       i2l70 199C  
                                     i2l49 1DEE                                       i2l88 1A50  
                                     _TMR0 000FD6                                       _TMR1 000FCE  
                                     _TMR2 000FCC                                       abs@a 0061  
                                     _main 0B9C                                       _send 1DBE  
                                     indf2 000FDF                                       fsr2l 000FD9  
                                     btemp 0059                           scanf@guardarscan 0062  
                             main@pActMenu 00A2                                       prodh 000FF4  
                                     prodl 000FF3                                       start 0028  
                             i2___fltol@f1 0028                      ?_introducirCoordNueva 0001  
                             ___param_bank 000000                               main@decision 00AC  
                                    ??_abs 0063                   __end_of_interruptsEnable 1E30  
                            ___fltol@sign1 0090                                      ?_main 0001  
                                    ?_send 0001                                      STR_10 7FE6  
                                    STR_11 7EF5                                      STR_12 7FF2  
                                    STR_20 7F78                                      STR_13 7FEF  
                                    STR_21 7D4C                                      STR_14 7DE0  
                                    STR_22 7D18                                      STR_30 7CDF  
                                    STR_31 7F65                                      STR_23 7CA6  
                                    STR_15 7BED                                      STR_32 7FBF  
                                    STR_16 7C31                                      STR_24 7A5D  
                                    STR_33 7FCC                                      STR_17 7F15  
                                    STR_25 7E8E                                      STR_34 7FD9  
                                    STR_26 7F34                                      STR_18 7D80  
                                    STR_19 7F87                                      STR_27 7E0E  
                                    STR_35 7BA2                                      STR_28 7F4E  
                                    STR_29 7FB2                            __end_of___flmul 0458  
                          __end_of___fltol 13FC                                      i1l406 0020  
                                    i2l151 1BC2                                      i2l401 1ACC  
                                    i2l751 1500                                      _TMR0H 000FD7  
                                    _TMR1H 000FCF                                      _TMR0L 000FD6  
                                    _TMR1L 000FCE                                      _SPBRG 000FAF  
              __end_of_modificarCoordenada 16B8                           __end_of_UARTinit 1DBE  
                          _coordenadaNueva 00F8                                      _scanf 1CA0  
                          __end_of_receive 1D8A                            __end_of_low_isr 0028  
                          ??_PWM_CCP1_init 0061                            ??_PWM_CCP2_init 0061  
                                    tablat 000FF5                                      ttemp5 005A  
                                    ttemp6 005D                                      ttemp7 0061  
                                    status 000FD8               __size_ofi2_PWM_DutyCycleCCP1 00B4  
             __size_ofi2_PWM_DutyCycleCCP2 00B4                                      wtemp8 005A  
                            i2___flmul@grs 001C                         __size_ofi2___flmul 042A  
                       __size_ofi2___fltol 0106                           __end_ofi2_printf 1BC4  
                           __CFG_MCLRE$OFF 000000                            __initialization 1CD4  
                             __end_of_main 0E4C                               __end_of_send 1DD6  
                                   ??_main 00A0                                     ??_send 0061  
                            __activetblptr 000002                                ?i2___xxtofl 0001  
                         _habilitarIntTMR0 1E34                           _habilitarIntTMR1 1E30  
          i2PWM_DutyCycleCCP1@PWMDutyValue 0039              PWM_DutyCycleCCP1@PWMDutyValue 0099  
                                   ?_scanf 0062                                     _ADRESH 000FC4  
                                   _ADRESL 000FC3                                     _CCPR1L 000FBE  
                                   _CCPR2L 000FBB                                     i1l3020 001E  
                                   i2l1112 11B6                                     i2l1123 114E  
                                   i2l1116 10F2                                     i2l1109 105A  
                                   i2l1072 0880                                     i2l3000 1A80  
                                   i2l3010 1AAA                                     i2l3002 1A88  
                                   i2l1075 0712                                     i2l1068 051C  
                                   i2l3012 1AB0                                     i2l3004 1A94  
                                   i2l1085 0842                                     i2l1077 078A  
                                   i2l1078 0778                                     i2l3014 1AB8  
                                   i2l3006 1A9A                                     i2l3016 1AC4  
                                   i2l3008 1A9C                                     i2l3018 1ACA  
                                   i2l2600 14D0                                     i2l2610 0464  
                                   i2l2602 14E0                                     i2l2700 0734  
                                   i2l2620 04A4                                     i2l2612 0472  
                                   i2l2604 14F0                                     i2l2710 07A6  
                                   i2l2702 0742                                     i2l2630 04D4  
                                   i2l2622 04AA                                     i2l2614 0474  
                                   i2l2720 0810                                     i2l2712 07B4  
                                   i2l2704 0770                                     i2l2640 050C  
                                   i2l2632 04D6                                     i2l2624 04BA  
                                   i2l2616 0484                                     i2l2608 0458  
                                   i2l2560 1DEE                                     i2l2730 0866  
                                   i2l2722 082A                                     i2l2714 07DE  
                                   i2l2650 055C                                     i2l2642 052C  
                                   i2l2634 04E6                                     i2l2626 04C0  
                                   i2l2618 0494                                     i2l2570 1426  
                                   i2l2562 1DFC                                     i2l2724 0846  
                                   i2l2732 086C                                     i2l2708 079A  
                                   i2l2716 07E2                                     i2l2660 05AC  
                                   i2l2652 0566                                     i2l2644 053C  
                                   i2l2636 04F6                                     i2l2628 04C6  
                                   i2l2580 1474                                     i2l2572 1450  
                                   i2l2564 13FC                                     i2l2740 1016  
                                   i2l2734 0870                                     i2l2726 0856  
                                   i2l2718 07FC                                     i2l2670 05EE  
                                   i2l2662 05B8                                     i2l2654 057C  
                                   i2l2638 0506                                     i2l2590 14A0  
                                   i2l2574 1452                                     i2l2566 1412  
                                   i2l2750 1094                                     i2l2742 1024  
                                   i2l2728 0864                                     i2l2680 0650  
                                   i2l2672 05FE                                     i2l2664 05C6  
                                   i2l2656 0588                                     i2l2648 0550  
                                   i2l2576 1462                                     i2l2760 10E8  
                                   i2l2752 109C                                     i2l2744 106A  
                                   i2l2690 06F8                                     i2l2682 066C  
                                   i2l2674 0618                                     i2l2666 05D2  
                                   i2l2658 05A0                                     i2l2586 148C  
                                   i2l2578 1466                                     i2l2770 115E  
                                   i2l2762 1124                                     i2l2754 10A8  
                                   i2l2746 1080                                     i2l2738 1006  
                                   i2l2692 0702                                     i2l2684 0696  
                                   i2l2676 0628                                     i2l2668 05E2  
                                   i2l2596 14B4                                     i2l2588 1496  
                                   i2l2780 11A6                                     i2l2772 1162  
                                   i2l2764 1130                                     i2l2756 10DA  
                                   i2l2940 19A0                                     i2l2694 0710  
                                   i2l2686 06CC                                     i2l2678 0644  
                                   i2l2598 14C0                                     i2l2774 1186  
                                   i2l2766 113E                                     i2l2758 10DC  
                                   i2l2942 1A24                                     i2l2934 18EC  
                                   i2l2696 0722                                     i2l2688 06DA  
                                   i2l2776 1196                                     i2l2768 115C  
                                   i2l2944 1A38                                     i2l2936 1970  
                                   i2l2960 1BBC                                     i2l2952 1B74  
                                   i2l2698 0730                                     i2l2778 11A4  
                                   i2l2938 1984                                     i2l2946 1B5C  
                                   i2l2948 1B60                                     i2l2958 1BA0  
                                   i2l2996 1A6C                                     i2l2998 1A7A  
                                   _RCREG1 000FAE                                     _OSCCON 000FD3  
                                   _TXREG1 000FAD                           __end_of___xxtofl 1004  
  modificarCoordenada@coordenadaNuevaCopia 0078                               ?_moverHaciaX 009B  
                                   i2_send 1DEC                     ??_introducirCoordNueva 0068  
                         __end_of_high_isr 1AE8                                     ___wmul 1D06  
                                ??___flmul 0077                                  ??___fltol 008C  
                            main@opcionsel 00AD                                     clear_0 1CDA  
                                   clear_1 1CE6                                     clear_2 1CF2  
              __end_of_imprimirCoordenadas 12F4                                     _printf 1BC4  
                                   main@n1 00A9                                     main@n2 00AA  
                                   main@n3 00AB                           __end_of_tmr0Init 1DEC  
                         __end_of_tmr1Init 1DA4                                     scanf@i 0065  
                        __end_ofi2___flmul 0882                                  ??_receive 0061  
                        __end_ofi2___fltol 1502                               __mediumconst 7A5C  
                         __end_of_portInit 1E28                                  ??_low_isr 0060  
                                   tblptrh 000FF7                                     tblptrl 000FF6  
                                   tblptru 000FF8                             i2___flmul@aexp 0020  
                           i2___flmul@bexp 0021                             i2___flmul@sign 001B  
                           i2___flmul@temp 0026                             i2___flmul@prod 0022  
                             ___xxtofl@arg 006B                               ___xxtofl@exp 006A  
                             ___xxtofl@val 0061                                 __accesstop 0060  
                  __end_of__initialization 1CF8                             i2___fltol@exp1 0031  
                            ___rparam_used 000001                          _presionarZDecenas 0041  
                               ___fltol@f1 0088                        __size_ofi2___xxtofl 01B4  
                           __pcstackCOMRAM 0001                              __end_of_scanf 1CD4  
                                ?_UARTinit 0001                                _CurrentPosX 00F2  
                              _CurrentPosY 0055                   i2_PWM_DutyCycleCCP1$2481 0034  
                 i2_PWM_DutyCycleCCP2$2480 0034                          _sparcEnMovimiento 00F6  
                                ?i2_printf 0002            i2PWM_DutyCycleCCP2@PWMDutyValue 0039  
            PWM_DutyCycleCCP2@PWMDutyValue 0099                                    ??_scanf 0065  
                               __pbssBANK0 00AE                                 __pbssBANK1 0100  
                                  ?i2_send 0001                          _habilitarModCoord 00F7  
                            ?_setNumPasosX 0061                                    ?___wmul 0065  
                       receiveNum@recibido 0067                                 ??_UARTinit 0061  
                                  ?_printf 0062                          ?_interruptsEnable 0001  
                      i2_PWM_DutyCycleCCP1 199E                        i2_PWM_DutyCycleCCP2 18EA  
                       ??_interruptsEnable 0061                                  ?___xxtofl 0061  
                               ??i2_printf 0004                                  ?_high_isr 0001  
borrarTodasCoordenadas@impresionCoordenada 0067                       ?i2_PWM_DutyCycleCCP1 0001  
                     ?i2_PWM_DutyCycleCCP2 0001                                  ?_tmr0Init 0001  
                                ?_tmr1Init 0001                                 _xToAdvance 00F4  
                          __size_ofi2_send 0016                   __end_of_habilitarIntTMR0 1E38  
                 __end_of_habilitarIntTMR1 1E34                                    __Hparam 0000  
                                  __Lparam 0000                       __size_of_moverHaciaX 00F8  
                 ??_borrarTodasCoordenadas 0067                                 _yToAdvance 0057  
                           ??_setNumPasosX 0063                                  ?_portInit 0001  
                                  ___flmul 002C                                    ___fltol 12F4  
                          __size_of___wmul 0028                                    __pcinit 1CD4  
                                  __ramtop 0800                                    __ptext0 0B9C  
                                  __ptext1 1D8A                                    __ptext2 1DD6  
                                  __ptext3 1CA0                                    __ptext4 1D6E  
                                  __ptext5 1E1E                                    __ptext6 1502  
                                  __ptext7 1C6A                                    __ptext8 1C28  
                                  __ptext9 1D06                            __size_of_printf 0064  
                                _T0CONbits 000FD5                                  _T1CONbits 000FCD  
                                _T2CONbits 000FCA                               __size_of_abs 0042  
                             ??i2___xxtofl 0005                                 ??___xxtofl 0065  
                                  _receive 1D6E                                 _receiveNum 1AE8  
                                  _low_isr 0018                                 ??_high_isr 003B  
                           __pintcode_body 1A52                       end_of_initialization 1CF8  
                    ??i2_PWM_DutyCycleCCP1 0032                      ??i2_PWM_DutyCycleCCP2 0032  
             __size_of_modificarCoordenada 00BE                              __Lmediumconst 7A5C  
                    __end_of_PWM_CCP1_init 1D50                                    int_func 1A52  
                    __end_of_PWM_CCP2_init 1D6E                             i2___xxtofl@arg 000B  
                           i2___xxtofl@exp 000A                             i2___xxtofl@val 0001  
                               ??_tmr0Init 0061                                 ??_tmr1Init 0061  
                                  printf@i 0066                         __end_ofi2___xxtofl 11B8  
                               ??_portInit 0061                                    postinc0 000FEE  
                               _motorXinit 1E10                                 _motorYinit 1E02  
                          receive@recibido 0061                   moverHaciaX@coordXDecenas 009B  
                            ___xxtofl@sign 0069                                  _TRISAbits 000F92  
                                _TRISBbits 000F93                                  _TRISCbits 000F94  
                                _TRISDbits 000F95                            i2___fltol@sign1 0030  
                                i2___flmul 0458                                  i2___fltol 13FC  
                              ___flmul@grs 007C                                _CCP1CONbits 000FBD  
                              _CCP2CONbits 000FBA                         _presionarZCentenas 004B  
                      i2printf@PointString 0002                             __end_ofi2_send 1E02  
            __size_of_introducirCoordNueva 031A            __size_of_borrarTodasCoordenadas 00BA  
                           __end_of___wmul 1D2E                                _BAUDCONbits 000FB8  
                        __size_of_UARTinit 001A                             __end_of_printf 1C28  
                              ?_receiveNum 0001                        start_initialization 1CD4  
                       _presionarZUnidades 0100               __size_of_imprimirCoordenadas 013C  
                              __end_of_abs 1C6A                                  i2printf@i 0006  
                     __end_of_setNumPasosX 1CA0                                 ?i2___flmul 000F  
                               ?i2___fltol 0028                            main@activarmenu 00A4  
                        __size_ofi2_printf 0068                  moverHaciaX@coordXCentenas 009F  
                                 ??i2_send 0001                                   ??___wmul 0069  
                              ?_motorXinit 0001                                ?_motorYinit 0001  
                                 ??_printf 0064                  moverHaciaX@coordXUnidades 009C  
                                ___flmul@a 0073                                  ___flmul@b 006F  
                              __pbssCOMRAM 0041                              __pcstackBANK0 0060  
                             send@enviarpc 0061                     _borrarTodasCoordenadas 1830  
                        __size_of___xxtofl 01B8                  __size_of_interruptsEnable 0008  
                        __size_of_high_isr 1AE0                          _PWM_DutyCycleCCP1 1774  
                        _PWM_DutyCycleCCP2 16B8                         ?_PWM_DutyCycleCCP1 0001  
                       ?_PWM_DutyCycleCCP2 0001                          ?_habilitarIntTMR0 0001  
                        ?_habilitarIntTMR1 0001                        __size_of_receiveNum 0074  
                        __size_of_tmr0Init 0016                          __size_of_tmr1Init 001A  
                                __pintcode 0008                              __pmediumconst 7A5C  
                       ??_habilitarIntTMR0 0061                         ??_habilitarIntTMR1 0061  
   imprimirCoordenadas@impresionCoordenada 0068                                   ?___flmul 006F  
                                 ?___fltol 0088                        ??_PWM_DutyCycleCCP1 0092  
                      ??_PWM_DutyCycleCCP2 0092                                __pintcodelo 0018  
                        __size_of_portInit 000A                        _modificarCoordenada 15FA  
                                 ?_receive 0001                                   ?_low_isr 0001  
                              ??i2___flmul 0017                                ??i2___fltol 002C  
                           __size_of_scanf 0034                        __size_of_motorXinit 000E  
                __end_of_PWM_DutyCycleCCP1 1830                  __end_of_PWM_DutyCycleCCP2 1774  
                      __size_of_motorYinit 000E          imprimirCoordenadas@numCoordenadas 0067  
                     ?_modificarCoordenada 0001                             ___wmul@product 0069  
                                 _LATBbits 000F8A                                   _LATCbits 000F8B  
                                 _LATDbits 000F8C                              ??_moverHaciaX 009D  
                                 _PIE1bits 000F9D                                   i2u200_40 0786  
                                 i2u200_41 0782                                   i2u201_40 079A  
                                 i2u201_41 0796                                   i2u202_40 07B4  
                                 i2u210_40 1120                                   i2u202_41 07B0  
                                 i2u210_41 111C                                   i2u203_40 07FC  
                                 i2u211_40 113E                                   i2u203_41 07F8  
                                 i2u211_41 113A                                   i2u204_40 082A  
                                 i2u212_40 114E                                   i2u204_41 0826  
                                 i2u212_41 114A                                   i2u205_40 0864  
                                 i2u213_40 115C                                   i2u205_41 0860  
                                 i2u213_41 1158                                   i2u214_40 1196  
                                 i2u206_40 1016                                   i2u230_40 1A7A  
                                 i2u214_41 1192                                   i2u206_41 1012  
                                 i2u230_41 1A76                                   i2u215_40 11A4  
                                 i2u207_40 1024                                   i2u231_40 1AAA  
                                 i2u215_41 11A0                                   i2u207_41 1020  
                                 i2u231_41 1AA6                                   i2u208_40 1080  
                                 i2u224_40 1B70                                   i2u208_41 107C  
                                 i2u224_41 1B6C                                   i2u209_40 10D6  
                                 i2u225_40 1B9C                                   i2u209_41 10D2  
                                 i2u225_41 1B98                                   i2u180_40 1412  
                                 i2u180_41 140E                                   i2u181_40 1446  
                                 i2u181_45 143C                                   i2u190_40 04D4  
                                 i2u182_40 1474                                   i2u190_41 04D0  
                                 i2u182_41 1470                                   i2u191_40 04E6  
                                 i2u183_40 1488                                   i2u191_41 04E2  
                                 i2u183_41 1484                                   i2u192_40 04F6  
                                 i2u184_40 14B0                                   i2u192_41 04F2  
                                 i2u184_41 14AC                                   i2u193_40 052C  
                                 i2u185_40 14D0                                   i2u193_41 0528  
                                 i2u185_41 14CC                                   _PIR1bits 000F9E  
                                 i2u194_40 053C                                   i2u186_40 14E0  
                                 i2u194_41 0538                                   i2u186_41 14DC  
                                 i2u195_40 06B6                                   i2u187_40 0472  
                                 i2u179_40 1DFC                                   i2u187_41 046E  
                                 i2u179_41 1DF8                                   i2u195_45 06AC  
                                 i2u196_40 0710                                   i2u188_40 0484  
                                 i2u196_41 070C                                   i2u188_41 0480  
                                 i2u197_40 0730                                   i2u189_40 0494  
                                 i2u197_41 072C                                   i2u189_41 0490  
                                 i2u198_40 0742                                   i2u198_41 073E  
                                 i2u199_40 0770                                   i2u199_41 076C  
                                 _RCONbits 000FD0                modificarCoordenada@modCoord 0079  
                                 _UARTinit 1DA4                                 _ADCON0bits 000FC2  
                               _ADCON1bits 000FC1                                 _ADCON2bits 000FC0  
                        ___wmul@multiplier 0065                      __size_of_setNumPasosX 0036  
                              _coordinates 00EA                __end_ofi2_PWM_DutyCycleCCP1 1A52  
              __end_ofi2_PWM_DutyCycleCCP2 199E                                   i2_printf 1B5C  
                              _INTCON2bits 000FF1                                _INTCON3bits 000FF0  
                       scanf@numcaracteres 0064                      ??_modificarCoordenada 0071  
                                 __Hrparam 0000                        _imprimirCoordenadas 11B8  
                                 __Lrparam 0000                        __end_of_moverHaciaX 15FA  
                             _setNumPasosX 1C6A                           __size_of___flmul 042C  
                         __size_of___fltol 0108                     __size_of_PWM_CCP1_init 0022  
                        printf@PointString 0062                     __size_of_PWM_CCP2_init 001E  
                             ??_receiveNum 0067                                   ___xxtofl 0E4C  
                          main@tamanoarray 00A0                       ?_imprimirCoordenadas 0001  
             __end_of_introducirCoordNueva 0B9C                           __size_of_receive 001C  
                         __size_of_low_isr 0010                                   __ptext10 16B8  
                                 __ptext11 1774                                   __ptext20 11B8  
                                 __ptext12 0E4C                                   __ptext21 1E28  
                                 __ptext13 12F4                                   __ptext22 1E30  
                                 __ptext14 002C                                   __ptext23 1E34  
                                 __ptext15 1E02                                   __ptext32 1B5C  
                                 __ptext24 1830                                   __ptext16 1E10  
                                 __ptext33 1DEC                                   __ptext25 1BC4  
                                 __ptext17 15FA                                   __ptext34 18EA  
                                 __ptext26 1DBE                                   __ptext18 0882  
                                 __ptext35 199E                                   __ptext27 1DA4  
                                 __ptext19 1AE8                                   __ptext36 1004  
                                 __ptext28 1D50                                   __ptext37 13FC  
                                 __ptext29 1D2E                                   __ptext38 0458  
                                 _high_isr 0008                             i2send@enviarpc 0001  
       i2PWM_DutyCycleCCP1@WantedDutyCycle 0038           PWM_DutyCycleCCP1@WantedDutyCycle 0098  
               __size_of_PWM_DutyCycleCCP1 00BC                 __size_of_PWM_DutyCycleCCP2 00BC  
        introducirCoordNueva@validarCoordX 006D          introducirCoordNueva@validarCoordY 006F  
                         _interruptsEnable 1E28                              __size_of_main 02B0  
                            __size_of_send 0018                                   _tmr0Init 1DD6  
                                 _tmr1Init 1D8A                         __end_of_receiveNum 1B5C  
                                 _portInit 1E1E                                   int$flags 0059  
                             ??_motorXinit 0061                               ??_motorYinit 0061  
                  ?_borrarTodasCoordenadas 0001                                 _INTCONbits 000FF2  
                    ??_imprimirCoordenadas 0067                     _PWM_DutyCycleCCP1$2403 0094  
                   _PWM_DutyCycleCCP2$2402 0094                                   intlevel1 0000  
                                 intlevel2 0000                            i2___xxtofl@sign 0009  
                       __end_of_motorXinit 1E1E                         __end_of_motorYinit 1E10  
                           _coordXCentenas 00E0                              _PWM_CCP1_init 1D2E  
                            _PWM_CCP2_init 1D50                                _moverHaciaX 1502  
                               _RCSTA1bits 000FAB                             _coordYCentenas 00C2  
       i2PWM_DutyCycleCCP2@WantedDutyCycle 0038           PWM_DutyCycleCCP2@WantedDutyCycle 0098  
           __end_of_borrarTodasCoordenadas 18EA                        __CFG_FOSC$INTOSC_EC 000000  
                            _coordXDecenas 00D6                              _coordYDecenas 00B8  
                __size_of_habilitarIntTMR0 0004                  __size_of_habilitarIntTMR1 0004  
                           _coordXUnidades 00CC                             _coordYUnidades 00AE  
                           ?_PWM_CCP1_init 0001                             ?_PWM_CCP2_init 0001  
