

Microchip MPLAB XC8 Assembler V2.10 build 88905656 
                                                                                               Thu Nov 28 13:01:30 2019

Microchip MPLAB XC8 C Compiler v2.10 (Free license) build 20190730164152 Og1 
     1                           	processor	18F4550
     2                           	fnconf	rparam,??,?,0
     3                           	opt	pw 120
     4                           	opt	flic
     5                           	psect	mediumconst,global,reloc=2,class=MEDIUMCONST,delta=1,noexec
     6                           	psect	cinit,global,reloc=2,class=CODE,delta=1
     7                           	psect	bssCOMRAM,global,class=COMRAM,space=1,delta=1,noexec
     8                           	psect	bssBANK0,global,class=BANK0,space=1,delta=1,lowdata,noexec
     9                           	psect	cstackCOMRAM,global,class=COMRAM,space=1,delta=1,noexec
    10                           	psect	text0,global,reloc=2,class=CODE,delta=1
    11                           	psect	text1,global,reloc=2,class=CODE,delta=1
    12                           	psect	text2,global,reloc=2,class=CODE,delta=1
    13                           	psect	text3,global,reloc=2,class=CODE,delta=1
    14                           	psect	text4,global,reloc=2,class=CODE,delta=1
    15                           	psect	text5,global,reloc=2,class=CODE,delta=1
    16                           	psect	text6,global,reloc=2,class=CODE,delta=1
    17                           	psect	text7,global,reloc=2,class=CODE,delta=1
    18                           	psect	text8,global,reloc=2,class=CODE,delta=1
    19                           	psect	text9,global,reloc=2,class=CODE,delta=1
    20                           	psect	text10,global,reloc=2,class=CODE,delta=1
    21                           	psect	text11,global,reloc=2,class=CODE,delta=1
    22                           	psect	text12,global,reloc=2,class=CODE,delta=1
    23                           	psect	text13,global,reloc=2,class=CODE,delta=1
    24                           	psect	text14,global,reloc=2,class=CODE,delta=1
    25                           	psect	text15,global,reloc=2,class=CODE,delta=1
    26                           	psect	text16,global,reloc=2,class=CODE,delta=1
    27                           	psect	text17,global,reloc=2,class=CODE,delta=1
    28                           	psect	text18,global,reloc=2,class=CODE,delta=1
    29                           	psect	text19,global,reloc=2,class=CODE,delta=1
    30                           	psect	text20,global,reloc=2,class=CODE,delta=1,group=1
    31                           	psect	text21,global,reloc=2,class=CODE,delta=1,group=1
    32                           	psect	text22,global,reloc=2,class=CODE,delta=1,group=1
    33                           	psect	text23,global,reloc=2,class=CODE,delta=1
    34                           	psect	text24,global,reloc=2,class=CODE,delta=1
    35                           	psect	intcodelo,global,reloc=2,class=CODE,delta=1
    36                           	psect	intcode,global,reloc=2,class=CODE,delta=1
    37                           	psect	intcode_body,global,reloc=2,class=CODE,delta=1
    38                           	psect	intsave_regs,global,class=BIGRAM,space=1,delta=1,noexec
    39                           	psect	rparam,global,class=COMRAM,space=1,delta=1,noexec
    40                           	psect	temp,global,ovrld,common,class=COMRAM,space=1,delta=1
    41  0000                     
    42                           ; Version 2.10
    43                           ; Generated 31/07/2019 GMT
    44                           ; 
    45                           ; Copyright © 2019, Microchip Technology Inc. and its subsidiaries ("Microchip")
    46                           ; All rights reserved.
    47                           ; 
    48                           ; This software is developed by Microchip Technology Inc. and its subsidiaries ("Microch
      +                          ip").
    49                           ; 
    50                           ; Redistribution and use in source and binary forms, with or without modification, are
    51                           ; permitted provided that the following conditions are met:
    52                           ; 
    53                           ;     1. Redistributions of source code must retain the above copyright notice, this lis
      +                          t of
    54                           ;        conditions and the following disclaimer.
    55                           ; 
    56                           ;     2. Redistributions in binary form must reproduce the above copyright notice, this 
      +                          list
    57                           ;        of conditions and the following disclaimer in the documentation and/or other
    58                           ;        materials provided with the distribution.
    59                           ; 
    60                           ;     3. Microchip's name may not be used to endorse or promote products derived from th
      +                          is
    61                           ;        software without specific prior written permission.
    62                           ; 
    63                           ; THIS SOFTWARE IS PROVIDED BY MICROCHIP "AS IS" AND ANY EXPRESS OR IMPLIED WARRANTIES,
    64                           ; INCLUDING, BUT NOT LIMITED TO, THE IMPLIED WARRANTIES OF MERCHANTABILITY AND FITNESS F
      +                          OR
    65                           ; PURPOSE ARE DISCLAIMED.  IN NO EVENT SHALL MICROCHIP BE LIABLE FOR ANY DIRECT, INDIREC
      +                          T,
    66                           ; INCIDENTAL, SPECIAL, EXEMPLARY, OR CONSEQUENTIAL DAMAGES (INCLUDING BUT NOT LIMITED TO
    67                           ; PROCUREMENT OF SUBSTITUTE GOODS OR SERVICES; LOSS OF USE, DATA OR PROFITS; OR BUSINESS
    68                           ; INTERRUPTION) HOWSOEVER CAUSED AND ON ANY THEORY OF LIABILITY, WHETHER IN CONTRACT, ST
      +                          RICT
    69                           ; LIABILITY, OR TORT (INCLUDING NEGLIGENCE OR OTHERWISE) ARISING IN ANY WAY OUT OF THE U
      +                          SE OF
    70                           ; THIS SOFTWARE, EVEN IF ADVISED OF THE POSSIBILITY OF SUCH DAMAGE.
    71                           ; 
    72                           ; 
    73                           ; Code-generator required, PIC18F4550 Definitions
    74                           ; 
    75                           ; SFR Addresses
    76  0000                     _TMR1	set	4046
    77  0000                     _TMR0	set	4054
    78  0000                     _TMR1L	set	4046
    79  0000                     _TMR1H	set	4047
    80  0000                     _TMR0L	set	4054
    81  0000                     _TMR0H	set	4055
    82  0000                     _T1CONbits	set	4045
    83  0000                     _T0CONbits	set	4053
    84  0000                     _PIE1bits	set	3997
    85  0000                     _INTCON3bits	set	4080
    86  0000                     _TRISBbits	set	3987
    87  0000                     _INTCON2bits	set	4081
    88  0000                     _INTCONbits	set	4082
    89  0000                     _RCONbits	set	4048
    90  0000                     _ADRESL	set	4035
    91  0000                     _ADRESH	set	4036
    92  0000                     _ADCON2bits	set	4032
    93  0000                     _ADCON0bits	set	4034
    94  0000                     _CCPR1L	set	4030
    95  0000                     _CCP1CONbits	set	4029
    96  0000                     _TMR2	set	4044
    97  0000                     _CCPR2L	set	4027
    98  0000                     _T2CONbits	set	4042
    99  0000                     _PR2	set	4043
   100  0000                     _CCP2CONbits	set	4026
   101  0000                     _TXREG1	set	4013
   102  0000                     _RCREG1	set	4014
   103  0000                     _PIR1bits	set	3998
   104  0000                     _RCSTA1bits	set	4011
   105  0000                     _BAUDCONbits	set	4024
   106  0000                     _TXSTA1bits	set	4012
   107  0000                     _SPBRG	set	4015
   108  0000                     _LATCbits	set	3979
   109  0000                     _LATDbits	set	3980
   110  0000                     _TRISCbits	set	3988
   111  0000                     _TRISDbits	set	3989
   112  0000                     _LATAbits	set	3977
   113  0000                     _TRISAbits	set	3986
   114  0000                     _OSCCON	set	4051
   115  0000                     _ADCON1bits	set	4033
   116                           
   117                           	psect	mediumconst
   118  007ACA                     __pmediumconst:
   119                           	opt callstack 0
   120  007ACA  00                 	db	0
   121  007ACB                     STR_20:
   122  007ACB  28                 	db	40
   123  007ACC  30                 	db	48	;'0'
   124  007ACD  29                 	db	41
   125  007ACE  41                 	db	65	;'A'
   126  007ACF  79                 	db	121	;'y'
   127  007AD0  75                 	db	117	;'u'
   128  007AD1  64                 	db	100	;'d'
   129  007AD2  61                 	db	97	;'a'
   130  007AD3  20                 	db	32
   131  007AD4  73                 	db	115	;'s'
   132  007AD5  6F                 	db	111	;'o'
   133  007AD6  62                 	db	98	;'b'
   134  007AD7  72                 	db	114	;'r'
   135  007AD8  65                 	db	101	;'e'
   136  007AD9  20                 	db	32
   137  007ADA  63                 	db	99	;'c'
   138  007ADB  6F                 	db	111	;'o'
   139  007ADC  6D                 	db	109	;'m'
   140  007ADD  6F                 	db	111	;'o'
   141  007ADE  20                 	db	32
   142  007ADF  66                 	db	102	;'f'
   143  007AE0  75                 	db	117	;'u'
   144  007AE1  6E                 	db	110	;'n'
   145  007AE2  63                 	db	99	;'c'
   146  007AE3  69                 	db	105	;'i'
   147  007AE4  6F                 	db	111	;'o'
   148  007AE5  6E                 	db	110	;'n'
   149  007AE6  61                 	db	97	;'a'
   150  007AE7  20                 	db	32
   151  007AE8  65                 	db	101	;'e'
   152  007AE9  6C                 	db	108	;'l'
   153  007AEA  20                 	db	32
   154  007AEB  70                 	db	112	;'p'
   155  007AEC  72                 	db	114	;'r'
   156  007AED  6F                 	db	111	;'o'
   157  007AEE  67                 	db	103	;'g'
   158  007AEF  72                 	db	114	;'r'
   159  007AF0  61                 	db	97	;'a'
   160  007AF1  6D                 	db	109	;'m'
   161  007AF2  61                 	db	97	;'a'
   162  007AF3  20                 	db	32
   163  007AF4  28                 	db	40
   164  007AF5  31                 	db	49	;'1'
   165  007AF6  29                 	db	41
   166  007AF7  49                 	db	73	;'I'
   167  007AF8  6E                 	db	110	;'n'
   168  007AF9  74                 	db	116	;'t'
   169  007AFA  72                 	db	114	;'r'
   170  007AFB  6F                 	db	111	;'o'
   171  007AFC  64                 	db	100	;'d'
   172  007AFD  75                 	db	117	;'u'
   173  007AFE  63                 	db	99	;'c'
   174  007AFF  69                 	db	105	;'i'
   175  007B00  72                 	db	114	;'r'
   176  007B01  20                 	db	32
   177  007B02  63                 	db	99	;'c'
   178  007B03  6F                 	db	111	;'o'
   179  007B04  6F                 	db	111	;'o'
   180  007B05  72                 	db	114	;'r'
   181  007B06  64                 	db	100	;'d'
   182  007B07  65                 	db	101	;'e'
   183  007B08  6E                 	db	110	;'n'
   184  007B09  61                 	db	97	;'a'
   185  007B0A  64                 	db	100	;'d'
   186  007B0B  61                 	db	97	;'a'
   187  007B0C  20                 	db	32
   188  007B0D  6E                 	db	110	;'n'
   189  007B0E  75                 	db	117	;'u'
   190  007B0F  65                 	db	101	;'e'
   191  007B10  76                 	db	118	;'v'
   192  007B11  61                 	db	97	;'a'
   193  007B12  20                 	db	32
   194  007B13  28                 	db	40
   195  007B14  32                 	db	50	;'2'
   196  007B15  29                 	db	41
   197  007B16  49                 	db	73	;'I'
   198  007B17  6D                 	db	109	;'m'
   199  007B18  70                 	db	112	;'p'
   200  007B19  72                 	db	114	;'r'
   201  007B1A  69                 	db	105	;'i'
   202  007B1B  6D                 	db	109	;'m'
   203  007B1C  69                 	db	105	;'i'
   204  007B1D  72                 	db	114	;'r'
   205  007B1E  20                 	db	32
   206  007B1F  6C                 	db	108	;'l'
   207  007B20  61                 	db	97	;'a'
   208  007B21  73                 	db	115	;'s'
   209  007B22  20                 	db	32
   210  007B23  63                 	db	99	;'c'
   211  007B24  6F                 	db	111	;'o'
   212  007B25  6F                 	db	111	;'o'
   213  007B26  72                 	db	114	;'r'
   214  007B27  64                 	db	100	;'d'
   215  007B28  65                 	db	101	;'e'
   216  007B29  6E                 	db	110	;'n'
   217  007B2A  61                 	db	97	;'a'
   218  007B2B  64                 	db	100	;'d'
   219  007B2C  61                 	db	97	;'a'
   220  007B2D  73                 	db	115	;'s'
   221  007B2E  20                 	db	32
   222  007B2F  72                 	db	114	;'r'
   223  007B30  65                 	db	101	;'e'
   224  007B31  63                 	db	99	;'c'
   225  007B32  69                 	db	105	;'i'
   226  007B33  62                 	db	98	;'b'
   227  007B34  69                 	db	105	;'i'
   228  007B35  64                 	db	100	;'d'
   229  007B36  61                 	db	97	;'a'
   230  007B37  73                 	db	115	;'s'
   231  007B38  20                 	db	32
   232  007B39  28                 	db	40
   233  007B3A  33                 	db	51	;'3'
   234  007B3B  29                 	db	41
   235  007B3C  49                 	db	73	;'I'
   236  007B3D  72                 	db	114	;'r'
   237  007B3E  20                 	db	32
   238  007B3F  61                 	db	97	;'a'
   239  007B40  20                 	db	32
   240  007B41  68                 	db	104	;'h'
   241  007B42  6F                 	db	111	;'o'
   242  007B43  6D                 	db	109	;'m'
   243  007B44  65                 	db	101	;'e'
   244  007B45  0A                 	db	10
   245  007B46  28                 	db	40
   246  007B47  34                 	db	52	;'4'
   247  007B48  29                 	db	41
   248  007B49  4D                 	db	77	;'M'
   249  007B4A  6F                 	db	111	;'o'
   250  007B4B  64                 	db	100	;'d'
   251  007B4C  69                 	db	105	;'i'
   252  007B4D  66                 	db	102	;'f'
   253  007B4E  69                 	db	105	;'i'
   254  007B4F  63                 	db	99	;'c'
   255  007B50  61                 	db	97	;'a'
   256  007B51  72                 	db	114	;'r'
   257  007B52  20                 	db	32
   258  007B53  63                 	db	99	;'c'
   259  007B54  6F                 	db	111	;'o'
   260  007B55  6F                 	db	111	;'o'
   261  007B56  72                 	db	114	;'r'
   262  007B57  64                 	db	100	;'d'
   263  007B58  65                 	db	101	;'e'
   264  007B59  6E                 	db	110	;'n'
   265  007B5A  61                 	db	97	;'a'
   266  007B5B  64                 	db	100	;'d'
   267  007B5C  61                 	db	97	;'a'
   268  007B5D  20                 	db	32
   269  007B5E  28                 	db	40
   270  007B5F  35                 	db	53	;'5'
   271  007B60  29                 	db	41
   272  007B61  49                 	db	73	;'I'
   273  007B62  6E                 	db	110	;'n'
   274  007B63  69                 	db	105	;'i'
   275  007B64  63                 	db	99	;'c'
   276  007B65  69                 	db	105	;'i'
   277  007B66  61                 	db	97	;'a'
   278  007B67  72                 	db	114	;'r'
   279  007B68  20                 	db	32
   280  007B69  50                 	db	80	;'P'
   281  007B6A  72                 	db	114	;'r'
   282  007B6B  6F                 	db	111	;'o'
   283  007B6C  67                 	db	103	;'g'
   284  007B6D  72                 	db	114	;'r'
   285  007B6E  61                 	db	97	;'a'
   286  007B6F  6D                 	db	109	;'m'
   287  007B70  61                 	db	97	;'a'
   288  007B71  20                 	db	32
   289  007B72  28                 	db	40
   290  007B73  36                 	db	54	;'6'
   291  007B74  29                 	db	41
   292  007B75  42                 	db	66	;'B'
   293  007B76  6F                 	db	111	;'o'
   294  007B77  72                 	db	114	;'r'
   295  007B78  72                 	db	114	;'r'
   296  007B79  61                 	db	97	;'a'
   297  007B7A  72                 	db	114	;'r'
   298  007B7B  20                 	db	32
   299  007B7C  65                 	db	101	;'e'
   300  007B7D  6C                 	db	108	;'l'
   301  007B7E  20                 	db	32
   302  007B7F  76                 	db	118	;'v'
   303  007B80  61                 	db	97	;'a'
   304  007B81  6C                 	db	108	;'l'
   305  007B82  6F                 	db	111	;'o'
   306  007B83  72                 	db	114	;'r'
   307  007B84  20                 	db	32
   308  007B85  64                 	db	100	;'d'
   309  007B86  65                 	db	101	;'e'
   310  007B87  20                 	db	32
   311  007B88  74                 	db	116	;'t'
   312  007B89  6F                 	db	111	;'o'
   313  007B8A  64                 	db	100	;'d'
   314  007B8B  61                 	db	97	;'a'
   315  007B8C  73                 	db	115	;'s'
   316  007B8D  20                 	db	32
   317  007B8E  6C                 	db	108	;'l'
   318  007B8F  61                 	db	97	;'a'
   319  007B90  73                 	db	115	;'s'
   320  007B91  20                 	db	32
   321  007B92  63                 	db	99	;'c'
   322  007B93  6F                 	db	111	;'o'
   323  007B94  6F                 	db	111	;'o'
   324  007B95  72                 	db	114	;'r'
   325  007B96  64                 	db	100	;'d'
   326  007B97  65                 	db	101	;'e'
   327  007B98  6E                 	db	110	;'n'
   328  007B99  61                 	db	97	;'a'
   329  007B9A  64                 	db	100	;'d'
   330  007B9B  61                 	db	97	;'a'
   331  007B9C  73                 	db	115	;'s'
   332  007B9D  0A                 	db	10
   333  007B9E  00                 	db	0
   334  007B9F                     STR_2:
   335  007B9F  49                 	db	73	;'I'
   336  007BA0  6E                 	db	110	;'n'
   337  007BA1  74                 	db	116	;'t'
   338  007BA2  72                 	db	114	;'r'
   339  007BA3  6F                 	db	111	;'o'
   340  007BA4  64                 	db	100	;'d'
   341  007BA5  75                 	db	117	;'u'
   342  007BA6  63                 	db	99	;'c'
   343  007BA7  65                 	db	101	;'e'
   344  007BA8  20                 	db	32
   345  007BA9  65                 	db	101	;'e'
   346  007BAA  6E                 	db	110	;'n'
   347  007BAB  20                 	db	32
   348  007BAC  65                 	db	101	;'e'
   349  007BAD  6C                 	db	108	;'l'
   350  007BAE  20                 	db	32
   351  007BAF  73                 	db	115	;'s'
   352  007BB0  69                 	db	105	;'i'
   353  007BB1  67                 	db	103	;'g'
   354  007BB2  75                 	db	117	;'u'
   355  007BB3  69                 	db	105	;'i'
   356  007BB4  65                 	db	101	;'e'
   357  007BB5  6E                 	db	110	;'n'
   358  007BB6  74                 	db	116	;'t'
   359  007BB7  65                 	db	101	;'e'
   360  007BB8  20                 	db	32
   361  007BB9  6F                 	db	111	;'o'
   362  007BBA  72                 	db	114	;'r'
   363  007BBB  64                 	db	100	;'d'
   364  007BBC  65                 	db	101	;'e'
   365  007BBD  6E                 	db	110	;'n'
   366  007BBE  20                 	db	32
   367  007BBF  6C                 	db	108	;'l'
   368  007BC0  61                 	db	97	;'a'
   369  007BC1  73                 	db	115	;'s'
   370  007BC2  20                 	db	32
   371  007BC3  76                 	db	118	;'v'
   372  007BC4  61                 	db	97	;'a'
   373  007BC5  72                 	db	114	;'r'
   374  007BC6  69                 	db	105	;'i'
   375  007BC7  61                 	db	97	;'a'
   376  007BC8  62                 	db	98	;'b'
   377  007BC9  6C                 	db	108	;'l'
   378  007BCA  65                 	db	101	;'e'
   379  007BCB  73                 	db	115	;'s'
   380  007BCC  20                 	db	32
   381  007BCD  61                 	db	97	;'a'
   382  007BCE  20                 	db	32
   383  007BCF  75                 	db	117	;'u'
   384  007BD0  73                 	db	115	;'s'
   385  007BD1  61                 	db	97	;'a'
   386  007BD2  72                 	db	114	;'r'
   387  007BD3  20                 	db	32
   388  007BD4  28                 	db	40
   389  007BD5  6E                 	db	110	;'n'
   390  007BD6  6F                 	db	111	;'o'
   391  007BD7  20                 	db	32
   392  007BD8  75                 	db	117	;'u'
   393  007BD9  73                 	db	115	;'s'
   394  007BDA  65                 	db	101	;'e'
   395  007BDB  73                 	db	115	;'s'
   396  007BDC  20                 	db	32
   397  007BDD  6C                 	db	108	;'l'
   398  007BDE  61                 	db	97	;'a'
   399  007BDF  73                 	db	115	;'s'
   400  007BE0  20                 	db	32
   401  007BE1  63                 	db	99	;'c'
   402  007BE2  6F                 	db	111	;'o'
   403  007BE3  6D                 	db	109	;'m'
   404  007BE4  61                 	db	97	;'a'
   405  007BE5  73                 	db	115	;'s'
   406  007BE6  29                 	db	41
   407  007BE7  3A                 	db	58	;':'
   408  007BE8  20                 	db	32
   409  007BE9  63                 	db	99	;'c'
   410  007BEA  6F                 	db	111	;'o'
   411  007BEB  6F                 	db	111	;'o'
   412  007BEC  72                 	db	114	;'r'
   413  007BED  64                 	db	100	;'d'
   414  007BEE  58                 	db	88	;'X'
   415  007BEF  2C                 	db	44
   416  007BF0  63                 	db	99	;'c'
   417  007BF1  6F                 	db	111	;'o'
   418  007BF2  6F                 	db	111	;'o'
   419  007BF3  72                 	db	114	;'r'
   420  007BF4  64                 	db	100	;'d'
   421  007BF5  59                 	db	89	;'Y'
   422  007BF6  2C                 	db	44
   423  007BF7  23                 	db	35
   424  007BF8  20                 	db	32
   425  007BF9  64                 	db	100	;'d'
   426  007BFA  65                 	db	101	;'e'
   427  007BFB  20                 	db	32
   428  007BFC  76                 	db	118	;'v'
   429  007BFD  65                 	db	101	;'e'
   430  007BFE  63                 	db	99	;'c'
   431  007BFF  65                 	db	101	;'e'
   432  007C00  73                 	db	115	;'s'
   433  007C01  20                 	db	32
   434  007C02  61                 	db	97	;'a'
   435  007C03  20                 	db	32
   436  007C04  70                 	db	112	;'p'
   437  007C05  72                 	db	114	;'r'
   438  007C06  65                 	db	101	;'e'
   439  007C07  73                 	db	115	;'s'
   440  007C08  69                 	db	105	;'i'
   441  007C09  6F                 	db	111	;'o'
   442  007C0A  6E                 	db	110	;'n'
   443  007C0B  61                 	db	97	;'a'
   444  007C0C  72                 	db	114	;'r'
   445  007C0D  20                 	db	32
   446  007C0E  5A                 	db	90	;'Z'
   447  007C0F  00                 	db	0
   448  007C10                     STR_32:
   449  007C10  54                 	db	84	;'T'
   450  007C11  75                 	db	117	;'u'
   451  007C12  76                 	db	118	;'v'
   452  007C13  69                 	db	105	;'i'
   453  007C14  73                 	db	115	;'s'
   454  007C15  74                 	db	116	;'t'
   455  007C16  65                 	db	101	;'e'
   456  007C17  20                 	db	32
   457  007C18  75                 	db	117	;'u'
   458  007C19  6E                 	db	110	;'n'
   459  007C1A  20                 	db	32
   460  007C1B  65                 	db	101	;'e'
   461  007C1C  72                 	db	114	;'r'
   462  007C1D  72                 	db	114	;'r'
   463  007C1E  6F                 	db	111	;'o'
   464  007C1F  72                 	db	114	;'r'
   465  007C20  2C                 	db	44
   466  007C21  20                 	db	32
   467  007C22  65                 	db	101	;'e'
   468  007C23  73                 	db	115	;'s'
   469  007C24  63                 	db	99	;'c'
   470  007C25  72                 	db	114	;'r'
   471  007C26  69                 	db	105	;'i'
   472  007C27  62                 	db	98	;'b'
   473  007C28  65                 	db	101	;'e'
   474  007C29  20                 	db	32
   475  007C2A  6C                 	db	108	;'l'
   476  007C2B  61                 	db	97	;'a'
   477  007C2C  20                 	db	32
   478  007C2D  70                 	db	112	;'p'
   479  007C2E  61                 	db	97	;'a'
   480  007C2F  6C                 	db	108	;'l'
   481  007C30  61                 	db	97	;'a'
   482  007C31  62                 	db	98	;'b'
   483  007C32  72                 	db	114	;'r'
   484  007C33  61                 	db	97	;'a'
   485  007C34  20                 	db	32
   486  007C35  27                 	db	39
   487  007C36  4D                 	db	77	;'M'
   488  007C37  65                 	db	101	;'e'
   489  007C38  6E                 	db	110	;'n'
   490  007C39  75                 	db	117	;'u'
   491  007C3A  27                 	db	39
   492  007C3B  20                 	db	32
   493  007C3C  6F                 	db	111	;'o'
   494  007C3D  20                 	db	32
   495  007C3E  27                 	db	39
   496  007C3F  6D                 	db	109	;'m'
   497  007C40  65                 	db	101	;'e'
   498  007C41  6E                 	db	110	;'n'
   499  007C42  75                 	db	117	;'u'
   500  007C43  27                 	db	39
   501  007C44  20                 	db	32
   502  007C45  70                 	db	112	;'p'
   503  007C46  61                 	db	97	;'a'
   504  007C47  72                 	db	114	;'r'
   505  007C48  61                 	db	97	;'a'
   506  007C49  20                 	db	32
   507  007C4A  61                 	db	97	;'a'
   508  007C4B  63                 	db	99	;'c'
   509  007C4C  63                 	db	99	;'c'
   510  007C4D  65                 	db	101	;'e'
   511  007C4E  64                 	db	100	;'d'
   512  007C4F  65                 	db	101	;'e'
   513  007C50  72                 	db	114	;'r'
   514  007C51  20                 	db	32
   515  007C52  61                 	db	97	;'a'
   516  007C53  6C                 	db	108	;'l'
   517  007C54  20                 	db	32
   518  007C55  6D                 	db	109	;'m'
   519  007C56  65                 	db	101	;'e'
   520  007C57  6E                 	db	110	;'n'
   521  007C58  75                 	db	117	;'u'
   522  007C59  0A                 	db	10
   523  007C5A  00                 	db	0
   524  007C5B                     STR_15:
   525  007C5B  45                 	db	69	;'E'
   526  007C5C  72                 	db	114	;'r'
   527  007C5D  72                 	db	114	;'r'
   528  007C5E  6F                 	db	111	;'o'
   529  007C5F  72                 	db	114	;'r'
   530  007C60  2C                 	db	44
   531  007C61  20                 	db	32
   532  007C62  65                 	db	101	;'e'
   533  007C63  73                 	db	115	;'s'
   534  007C64  74                 	db	116	;'t'
   535  007C65  61                 	db	97	;'a'
   536  007C66  73                 	db	115	;'s'
   537  007C67  20                 	db	32
   538  007C68  71                 	db	113	;'q'
   539  007C69  75                 	db	117	;'u'
   540  007C6A  65                 	db	101	;'e'
   541  007C6B  72                 	db	114	;'r'
   542  007C6C  69                 	db	105	;'i'
   543  007C6D  65                 	db	101	;'e'
   544  007C6E  6E                 	db	110	;'n'
   545  007C6F  64                 	db	100	;'d'
   546  007C70  6F                 	db	111	;'o'
   547  007C71  20                 	db	32
   548  007C72  6D                 	db	109	;'m'
   549  007C73  6F                 	db	111	;'o'
   550  007C74  64                 	db	100	;'d'
   551  007C75  69                 	db	105	;'i'
   552  007C76  66                 	db	102	;'f'
   553  007C77  69                 	db	105	;'i'
   554  007C78  63                 	db	99	;'c'
   555  007C79  61                 	db	97	;'a'
   556  007C7A  72                 	db	114	;'r'
   557  007C7B  20                 	db	32
   558  007C7C  75                 	db	117	;'u'
   559  007C7D  6E                 	db	110	;'n'
   560  007C7E  61                 	db	97	;'a'
   561  007C7F  20                 	db	32
   562  007C80  63                 	db	99	;'c'
   563  007C81  6F                 	db	111	;'o'
   564  007C82  6F                 	db	111	;'o'
   565  007C83  72                 	db	114	;'r'
   566  007C84  64                 	db	100	;'d'
   567  007C85  65                 	db	101	;'e'
   568  007C86  6E                 	db	110	;'n'
   569  007C87  61                 	db	97	;'a'
   570  007C88  64                 	db	100	;'d'
   571  007C89  61                 	db	97	;'a'
   572  007C8A  20                 	db	32
   573  007C8B  71                 	db	113	;'q'
   574  007C8C  75                 	db	117	;'u'
   575  007C8D  65                 	db	101	;'e'
   576  007C8E  20                 	db	32
   577  007C8F  61                 	db	97	;'a'
   578  007C90  75                 	db	117	;'u'
   579  007C91  6E                 	db	110	;'n'
   580  007C92  20                 	db	32
   581  007C93  6E                 	db	110	;'n'
   582  007C94  6F                 	db	111	;'o'
   583  007C95  20                 	db	32
   584  007C96  61                 	db	97	;'a'
   585  007C97  67                 	db	103	;'g'
   586  007C98  72                 	db	114	;'r'
   587  007C99  65                 	db	101	;'e'
   588  007C9A  67                 	db	103	;'g'
   589  007C9B  61                 	db	97	;'a'
   590  007C9C  73                 	db	115	;'s'
   591  007C9D  0A                 	db	10
   592  007C9E  00                 	db	0
   593  007C9F                     STR_16:
   594  007C9F  43                 	db	67	;'C'
   595  007CA0  75                 	db	117	;'u'
   596  007CA1  61                 	db	97	;'a'
   597  007CA2  6C                 	db	108	;'l'
   598  007CA3  20                 	db	32
   599  007CA4  63                 	db	99	;'c'
   600  007CA5  6F                 	db	111	;'o'
   601  007CA6  6F                 	db	111	;'o'
   602  007CA7  72                 	db	114	;'r'
   603  007CA8  64                 	db	100	;'d'
   604  007CA9  65                 	db	101	;'e'
   605  007CAA  6E                 	db	110	;'n'
   606  007CAB  61                 	db	97	;'a'
   607  007CAC  64                 	db	100	;'d'
   608  007CAD  61                 	db	97	;'a'
   609  007CAE  20                 	db	32
   610  007CAF  71                 	db	113	;'q'
   611  007CB0  75                 	db	117	;'u'
   612  007CB1  69                 	db	105	;'i'
   613  007CB2  65                 	db	101	;'e'
   614  007CB3  72                 	db	114	;'r'
   615  007CB4  65                 	db	101	;'e'
   616  007CB5  73                 	db	115	;'s'
   617  007CB6  20                 	db	32
   618  007CB7  6D                 	db	109	;'m'
   619  007CB8  6F                 	db	111	;'o'
   620  007CB9  64                 	db	100	;'d'
   621  007CBA  69                 	db	105	;'i'
   622  007CBB  66                 	db	102	;'f'
   623  007CBC  69                 	db	105	;'i'
   624  007CBD  63                 	db	99	;'c'
   625  007CBE  61                 	db	97	;'a'
   626  007CBF  72                 	db	114	;'r'
   627  007CC0  2C                 	db	44
   628  007CC1  20                 	db	32
   629  007CC2  65                 	db	101	;'e'
   630  007CC3  6C                 	db	108	;'l'
   631  007CC4  69                 	db	105	;'i'
   632  007CC5  67                 	db	103	;'g'
   633  007CC6  65                 	db	101	;'e'
   634  007CC7  20                 	db	32
   635  007CC8  76                 	db	118	;'v'
   636  007CC9  61                 	db	97	;'a'
   637  007CCA  6C                 	db	108	;'l'
   638  007CCB  6F                 	db	111	;'o'
   639  007CCC  72                 	db	114	;'r'
   640  007CCD  65                 	db	101	;'e'
   641  007CCE  73                 	db	115	;'s'
   642  007CCF  20                 	db	32
   643  007CD0  76                 	db	118	;'v'
   644  007CD1  61                 	db	97	;'a'
   645  007CD2  6C                 	db	108	;'l'
   646  007CD3  69                 	db	105	;'i'
   647  007CD4  64                 	db	100	;'d'
   648  007CD5  6F                 	db	111	;'o'
   649  007CD6  73                 	db	115	;'s'
   650  007CD7  3F                 	db	63	;'?'
   651  007CD8  0A                 	db	10
   652  007CD9  00                 	db	0
   653  007CDA                     STR_9:
   654  007CDA  59                 	db	89	;'Y'
   655  007CDB  61                 	db	97	;'a'
   656  007CDC  20                 	db	32
   657  007CDD  65                 	db	101	;'e'
   658  007CDE  73                 	db	115	;'s'
   659  007CDF  74                 	db	116	;'t'
   660  007CE0  61                 	db	97	;'a'
   661  007CE1  6E                 	db	110	;'n'
   662  007CE2  20                 	db	32
   663  007CE3  6C                 	db	108	;'l'
   664  007CE4  61                 	db	97	;'a'
   665  007CE5  73                 	db	115	;'s'
   666  007CE6  20                 	db	32
   667  007CE7  31                 	db	49	;'1'
   668  007CE8  30                 	db	48	;'0'
   669  007CE9  20                 	db	32
   670  007CEA  63                 	db	99	;'c'
   671  007CEB  6F                 	db	111	;'o'
   672  007CEC  6F                 	db	111	;'o'
   673  007CED  72                 	db	114	;'r'
   674  007CEE  64                 	db	100	;'d'
   675  007CEF  65                 	db	101	;'e'
   676  007CF0  6E                 	db	110	;'n'
   677  007CF1  61                 	db	97	;'a'
   678  007CF2  64                 	db	100	;'d'
   679  007CF3  61                 	db	97	;'a'
   680  007CF4  73                 	db	115	;'s'
   681  007CF5  20                 	db	32
   682  007CF6  6C                 	db	108	;'l'
   683  007CF7  6C                 	db	108	;'l'
   684  007CF8  65                 	db	101	;'e'
   685  007CF9  6E                 	db	110	;'n'
   686  007CFA  61                 	db	97	;'a'
   687  007CFB  73                 	db	115	;'s'
   688  007CFC  2C                 	db	44
   689  007CFD  20                 	db	32
   690  007CFE  6E                 	db	110	;'n'
   691  007CFF  6F                 	db	111	;'o'
   692  007D00  20                 	db	32
   693  007D01  70                 	db	112	;'p'
   694  007D02  75                 	db	117	;'u'
   695  007D03  65                 	db	101	;'e'
   696  007D04  64                 	db	100	;'d'
   697  007D05  65                 	db	101	;'e'
   698  007D06  73                 	db	115	;'s'
   699  007D07  20                 	db	32
   700  007D08  61                 	db	97	;'a'
   701  007D09  67                 	db	103	;'g'
   702  007D0A  72                 	db	114	;'r'
   703  007D0B  65                 	db	101	;'e'
   704  007D0C  67                 	db	103	;'g'
   705  007D0D  61                 	db	97	;'a'
   706  007D0E  72                 	db	114	;'r'
   707  007D0F  20                 	db	32
   708  007D10  6D                 	db	109	;'m'
   709  007D11  61                 	db	97	;'a'
   710  007D12  73                 	db	115	;'s'
   711  007D13  00                 	db	0
   712  007D14                     STR_19:
   713  007D14  45                 	db	69	;'E'
   714  007D15  73                 	db	115	;'s'
   715  007D16  63                 	db	99	;'c'
   716  007D17  72                 	db	114	;'r'
   717  007D18  69                 	db	105	;'i'
   718  007D19  62                 	db	98	;'b'
   719  007D1A  65                 	db	101	;'e'
   720  007D1B  20                 	db	32
   721  007D1C  6C                 	db	108	;'l'
   722  007D1D  61                 	db	97	;'a'
   723  007D1E  20                 	db	32
   724  007D1F  70                 	db	112	;'p'
   725  007D20  61                 	db	97	;'a'
   726  007D21  6C                 	db	108	;'l'
   727  007D22  61                 	db	97	;'a'
   728  007D23  62                 	db	98	;'b'
   729  007D24  72                 	db	114	;'r'
   730  007D25  61                 	db	97	;'a'
   731  007D26  20                 	db	32
   732  007D27  27                 	db	39
   733  007D28  4D                 	db	77	;'M'
   734  007D29  65                 	db	101	;'e'
   735  007D2A  6E                 	db	110	;'n'
   736  007D2B  75                 	db	117	;'u'
   737  007D2C  27                 	db	39
   738  007D2D  20                 	db	32
   739  007D2E  6F                 	db	111	;'o'
   740  007D2F  20                 	db	32
   741  007D30  27                 	db	39
   742  007D31  6D                 	db	109	;'m'
   743  007D32  65                 	db	101	;'e'
   744  007D33  6E                 	db	110	;'n'
   745  007D34  75                 	db	117	;'u'
   746  007D35  27                 	db	39
   747  007D36  20                 	db	32
   748  007D37  70                 	db	112	;'p'
   749  007D38  61                 	db	97	;'a'
   750  007D39  72                 	db	114	;'r'
   751  007D3A  61                 	db	97	;'a'
   752  007D3B  20                 	db	32
   753  007D3C  61                 	db	97	;'a'
   754  007D3D  63                 	db	99	;'c'
   755  007D3E  63                 	db	99	;'c'
   756  007D3F  65                 	db	101	;'e'
   757  007D40  64                 	db	100	;'d'
   758  007D41  65                 	db	101	;'e'
   759  007D42  72                 	db	114	;'r'
   760  007D43  20                 	db	32
   761  007D44  61                 	db	97	;'a'
   762  007D45  6C                 	db	108	;'l'
   763  007D46  20                 	db	32
   764  007D47  6D                 	db	109	;'m'
   765  007D48  65                 	db	101	;'e'
   766  007D49  6E                 	db	110	;'n'
   767  007D4A  75                 	db	117	;'u'
   768  007D4B  0A                 	db	10
   769  007D4C  00                 	db	0
   770  007D4D                     STR_27:
   771  007D4D  56                 	db	86	;'V'
   772  007D4E  61                 	db	97	;'a'
   773  007D4F  73                 	db	115	;'s'
   774  007D50  20                 	db	32
   775  007D51  61                 	db	97	;'a'
   776  007D52  20                 	db	32
   777  007D53  62                 	db	98	;'b'
   778  007D54  6F                 	db	111	;'o'
   779  007D55  72                 	db	114	;'r'
   780  007D56  72                 	db	114	;'r'
   781  007D57  61                 	db	97	;'a'
   782  007D58  72                 	db	114	;'r'
   783  007D59  20                 	db	32
   784  007D5A  74                 	db	116	;'t'
   785  007D5B  6F                 	db	111	;'o'
   786  007D5C  64                 	db	100	;'d'
   787  007D5D  61                 	db	97	;'a'
   788  007D5E  73                 	db	115	;'s'
   789  007D5F  20                 	db	32
   790  007D60  6C                 	db	108	;'l'
   791  007D61  61                 	db	97	;'a'
   792  007D62  73                 	db	115	;'s'
   793  007D63  20                 	db	32
   794  007D64  63                 	db	99	;'c'
   795  007D65  6F                 	db	111	;'o'
   796  007D66  6F                 	db	111	;'o'
   797  007D67  72                 	db	114	;'r'
   798  007D68  64                 	db	100	;'d'
   799  007D69  65                 	db	101	;'e'
   800  007D6A  6E                 	db	110	;'n'
   801  007D6B  61                 	db	97	;'a'
   802  007D6C  64                 	db	100	;'d'
   803  007D6D  61                 	db	97	;'a'
   804  007D6E  73                 	db	115	;'s'
   805  007D6F  2C                 	db	44
   806  007D70  20                 	db	32
   807  007D71  73                 	db	115	;'s'
   808  007D72  65                 	db	101	;'e'
   809  007D73  67                 	db	103	;'g'
   810  007D74  75                 	db	117	;'u'
   811  007D75  72                 	db	114	;'r'
   812  007D76  6F                 	db	111	;'o'
   813  007D77  3F                 	db	63	;'?'
   814  007D78  20                 	db	32
   815  007D79  28                 	db	40
   816  007D7A  31                 	db	49	;'1'
   817  007D7B  29                 	db	41
   818  007D7C  20                 	db	32
   819  007D7D  53                 	db	83	;'S'
   820  007D7E  69                 	db	105	;'i'
   821  007D7F  20                 	db	32
   822  007D80  28                 	db	40
   823  007D81  30                 	db	48	;'0'
   824  007D82  29                 	db	41
   825  007D83  4E                 	db	78	;'N'
   826  007D84  6F                 	db	111	;'o'
   827  007D85  00                 	db	0
   828  007D86                     STR_18:
   829  007D86  4C                 	db	76	;'L'
   830  007D87  69                 	db	105	;'i'
   831  007D88  73                 	db	115	;'s'
   832  007D89  74                 	db	116	;'t'
   833  007D8A  6F                 	db	111	;'o'
   834  007D8B  2C                 	db	44
   835  007D8C  20                 	db	32
   836  007D8D  74                 	db	116	;'t'
   837  007D8E  6F                 	db	111	;'o'
   838  007D8F  64                 	db	100	;'d'
   839  007D90  61                 	db	97	;'a'
   840  007D91  73                 	db	115	;'s'
   841  007D92  20                 	db	32
   842  007D93  6C                 	db	108	;'l'
   843  007D94  61                 	db	97	;'a'
   844  007D95  73                 	db	115	;'s'
   845  007D96  20                 	db	32
   846  007D97  63                 	db	99	;'c'
   847  007D98  6F                 	db	111	;'o'
   848  007D99  6F                 	db	111	;'o'
   849  007D9A  72                 	db	114	;'r'
   850  007D9B  64                 	db	100	;'d'
   851  007D9C  65                 	db	101	;'e'
   852  007D9D  6E                 	db	110	;'n'
   853  007D9E  61                 	db	97	;'a'
   854  007D9F  64                 	db	100	;'d'
   855  007DA0  61                 	db	97	;'a'
   856  007DA1  73                 	db	115	;'s'
   857  007DA2  20                 	db	32
   858  007DA3  68                 	db	104	;'h'
   859  007DA4  61                 	db	97	;'a'
   860  007DA5  6E                 	db	110	;'n'
   861  007DA6  20                 	db	32
   862  007DA7  73                 	db	115	;'s'
   863  007DA8  69                 	db	105	;'i'
   864  007DA9  64                 	db	100	;'d'
   865  007DAA  6F                 	db	111	;'o'
   866  007DAB  20                 	db	32
   867  007DAC  62                 	db	98	;'b'
   868  007DAD  6F                 	db	111	;'o'
   869  007DAE  72                 	db	114	;'r'
   870  007DAF  72                 	db	114	;'r'
   871  007DB0  61                 	db	97	;'a'
   872  007DB1  64                 	db	100	;'d'
   873  007DB2  61                 	db	97	;'a'
   874  007DB3  73                 	db	115	;'s'
   875  007DB4  0A                 	db	10
   876  007DB5  00                 	db	0
   877  007DB6                     STR_1:
   878  007DB6  53                 	db	83	;'S'
   879  007DB7  6F                 	db	111	;'o'
   880  007DB8  6C                 	db	108	;'l'
   881  007DB9  6F                 	db	111	;'o'
   882  007DBA  20                 	db	32
   883  007DBB  70                 	db	112	;'p'
   884  007DBC  75                 	db	117	;'u'
   885  007DBD  65                 	db	101	;'e'
   886  007DBE  64                 	db	100	;'d'
   887  007DBF  65                 	db	101	;'e'
   888  007DC0  73                 	db	115	;'s'
   889  007DC1  20                 	db	32
   890  007DC2  69                 	db	105	;'i'
   891  007DC3  6E                 	db	110	;'n'
   892  007DC4  74                 	db	116	;'t'
   893  007DC5  72                 	db	114	;'r'
   894  007DC6  6F                 	db	111	;'o'
   895  007DC7  64                 	db	100	;'d'
   896  007DC8  75                 	db	117	;'u'
   897  007DC9  63                 	db	99	;'c'
   898  007DCA  69                 	db	105	;'i'
   899  007DCB  72                 	db	114	;'r'
   900  007DCC  20                 	db	32
   901  007DCD  6E                 	db	110	;'n'
   902  007DCE  75                 	db	117	;'u'
   903  007DCF  6D                 	db	109	;'m'
   904  007DD0  65                 	db	101	;'e'
   905  007DD1  72                 	db	114	;'r'
   906  007DD2  6F                 	db	111	;'o'
   907  007DD3  73                 	db	115	;'s'
   908  007DD4  2C                 	db	44
   909  007DD5  20                 	db	32
   910  007DD6  70                 	db	112	;'p'
   911  007DD7  72                 	db	114	;'r'
   912  007DD8  75                 	db	117	;'u'
   913  007DD9  65                 	db	101	;'e'
   914  007DDA  62                 	db	98	;'b'
   915  007DDB  61                 	db	97	;'a'
   916  007DDC  20                 	db	32
   917  007DDD  64                 	db	100	;'d'
   918  007DDE  65                 	db	101	;'e'
   919  007DDF  20                 	db	32
   920  007DE0  6E                 	db	110	;'n'
   921  007DE1  75                 	db	117	;'u'
   922  007DE2  65                 	db	101	;'e'
   923  007DE3  76                 	db	118	;'v'
   924  007DE4  6F                 	db	111	;'o'
   925  007DE5  00                 	db	0
   926  007DE6                     STR_24:
   927  007DE6  45                 	db	69	;'E'
   928  007DE7  6E                 	db	110	;'n'
   929  007DE8  74                 	db	116	;'t'
   930  007DE9  72                 	db	114	;'r'
   931  007DEA  61                 	db	97	;'a'
   932  007DEB  73                 	db	115	;'s'
   933  007DEC  74                 	db	116	;'t'
   934  007DED  65                 	db	101	;'e'
   935  007DEE  20                 	db	32
   936  007DEF  61                 	db	97	;'a'
   937  007DF0  20                 	db	32
   938  007DF1  6C                 	db	108	;'l'
   939  007DF2  61                 	db	97	;'a'
   940  007DF3  20                 	db	32
   941  007DF4  6F                 	db	111	;'o'
   942  007DF5  70                 	db	112	;'p'
   943  007DF6  63                 	db	99	;'c'
   944  007DF7  69                 	db	105	;'i'
   945  007DF8  6F                 	db	111	;'o'
   946  007DF9  6E                 	db	110	;'n'
   947  007DFA  20                 	db	32
   948  007DFB  64                 	db	100	;'d'
   949  007DFC  65                 	db	101	;'e'
   950  007DFD  20                 	db	32
   951  007DFE  6D                 	db	109	;'m'
   952  007DFF  6F                 	db	111	;'o'
   953  007E00  64                 	db	100	;'d'
   954  007E01  69                 	db	105	;'i'
   955  007E02  66                 	db	102	;'f'
   956  007E03  69                 	db	105	;'i'
   957  007E04  63                 	db	99	;'c'
   958  007E05  61                 	db	97	;'a'
   959  007E06  72                 	db	114	;'r'
   960  007E07  20                 	db	32
   961  007E08  63                 	db	99	;'c'
   962  007E09  6F                 	db	111	;'o'
   963  007E0A  6F                 	db	111	;'o'
   964  007E0B  72                 	db	114	;'r'
   965  007E0C  64                 	db	100	;'d'
   966  007E0D  65                 	db	101	;'e'
   967  007E0E  6E                 	db	110	;'n'
   968  007E0F  61                 	db	97	;'a'
   969  007E10  64                 	db	100	;'d'
   970  007E11  61                 	db	97	;'a'
   971  007E12  0A                 	db	10
   972  007E13  00                 	db	0
   973  007E14                     STR_14:
   974  007E14  43                 	db	67	;'C'
   975  007E15  75                 	db	117	;'u'
   976  007E16  61                 	db	97	;'a'
   977  007E17  6C                 	db	108	;'l'
   978  007E18  20                 	db	32
   979  007E19  64                 	db	100	;'d'
   980  007E1A  65                 	db	101	;'e'
   981  007E1B  20                 	db	32
   982  007E1C  65                 	db	101	;'e'
   983  007E1D  73                 	db	115	;'s'
   984  007E1E  74                 	db	116	;'t'
   985  007E1F  61                 	db	97	;'a'
   986  007E20  73                 	db	115	;'s'
   987  007E21  20                 	db	32
   988  007E22  63                 	db	99	;'c'
   989  007E23  6F                 	db	111	;'o'
   990  007E24  6F                 	db	111	;'o'
   991  007E25  72                 	db	114	;'r'
   992  007E26  64                 	db	100	;'d'
   993  007E27  65                 	db	101	;'e'
   994  007E28  6E                 	db	110	;'n'
   995  007E29  61                 	db	97	;'a'
   996  007E2A  64                 	db	100	;'d'
   997  007E2B  61                 	db	97	;'a'
   998  007E2C  73                 	db	115	;'s'
   999  007E2D  20                 	db	32
  1000  007E2E  71                 	db	113	;'q'
  1001  007E2F  75                 	db	117	;'u'
  1002  007E30  69                 	db	105	;'i'
  1003  007E31  65                 	db	101	;'e'
  1004  007E32  72                 	db	114	;'r'
  1005  007E33  65                 	db	101	;'e'
  1006  007E34  73                 	db	115	;'s'
  1007  007E35  20                 	db	32
  1008  007E36  6D                 	db	109	;'m'
  1009  007E37  6F                 	db	111	;'o'
  1010  007E38  64                 	db	100	;'d'
  1011  007E39  69                 	db	105	;'i'
  1012  007E3A  66                 	db	102	;'f'
  1013  007E3B  69                 	db	105	;'i'
  1014  007E3C  63                 	db	99	;'c'
  1015  007E3D  61                 	db	97	;'a'
  1016  007E3E  72                 	db	114	;'r'
  1017  007E3F  3F                 	db	63	;'?'
  1018  007E40  0A                 	db	10
  1019  007E41  00                 	db	0
  1020  007E42                     STR_23:
  1021  007E42  45                 	db	69	;'E'
  1022  007E43  6C                 	db	108	;'l'
  1023  007E44  65                 	db	101	;'e'
  1024  007E45  67                 	db	103	;'g'
  1025  007E46  69                 	db	105	;'i'
  1026  007E47  73                 	db	115	;'s'
  1027  007E48  74                 	db	116	;'t'
  1028  007E49  65                 	db	101	;'e'
  1029  007E4A  20                 	db	32
  1030  007E4B  6C                 	db	108	;'l'
  1031  007E4C  61                 	db	97	;'a'
  1032  007E4D  20                 	db	32
  1033  007E4E  6F                 	db	111	;'o'
  1034  007E4F  70                 	db	112	;'p'
  1035  007E50  63                 	db	99	;'c'
  1036  007E51  69                 	db	105	;'i'
  1037  007E52  6F                 	db	111	;'o'
  1038  007E53  6E                 	db	110	;'n'
  1039  007E54  20                 	db	32
  1040  007E55  64                 	db	100	;'d'
  1041  007E56  65                 	db	101	;'e'
  1042  007E57  20                 	db	32
  1043  007E58  69                 	db	105	;'i'
  1044  007E59  6D                 	db	109	;'m'
  1045  007E5A  70                 	db	112	;'p'
  1046  007E5B  72                 	db	114	;'r'
  1047  007E5C  69                 	db	105	;'i'
  1048  007E5D  6D                 	db	109	;'m'
  1049  007E5E  69                 	db	105	;'i'
  1050  007E5F  72                 	db	114	;'r'
  1051  007E60  20                 	db	32
  1052  007E61  63                 	db	99	;'c'
  1053  007E62  6F                 	db	111	;'o'
  1054  007E63  6F                 	db	111	;'o'
  1055  007E64  72                 	db	114	;'r'
  1056  007E65  64                 	db	100	;'d'
  1057  007E66  65                 	db	101	;'e'
  1058  007E67  6E                 	db	110	;'n'
  1059  007E68  61                 	db	97	;'a'
  1060  007E69  64                 	db	100	;'d'
  1061  007E6A  61                 	db	97	;'a'
  1062  007E6B  73                 	db	115	;'s'
  1063  007E6C  0A                 	db	10
  1064  007E6D  00                 	db	0
  1065  007E6E                     STR_7:
  1066  007E6E  43                 	db	67	;'C'
  1067  007E6F  6F                 	db	111	;'o'
  1068  007E70  6F                 	db	111	;'o'
  1069  007E71  72                 	db	114	;'r'
  1070  007E72  64                 	db	100	;'d'
  1071  007E73  65                 	db	101	;'e'
  1072  007E74  6E                 	db	110	;'n'
  1073  007E75  61                 	db	97	;'a'
  1074  007E76  64                 	db	100	;'d'
  1075  007E77  61                 	db	97	;'a'
  1076  007E78  20                 	db	32
  1077  007E79  72                 	db	114	;'r'
  1078  007E7A  65                 	db	101	;'e'
  1079  007E7B  63                 	db	99	;'c'
  1080  007E7C  69                 	db	105	;'i'
  1081  007E7D  62                 	db	98	;'b'
  1082  007E7E  69                 	db	105	;'i'
  1083  007E7F  64                 	db	100	;'d'
  1084  007E80  61                 	db	97	;'a'
  1085  007E81  2C                 	db	44
  1086  007E82  20                 	db	32
  1087  007E83  6C                 	db	108	;'l'
  1088  007E84  6F                 	db	111	;'o'
  1089  007E85  20                 	db	32
  1090  007E86  71                 	db	113	;'q'
  1091  007E87  75                 	db	117	;'u'
  1092  007E88  65                 	db	101	;'e'
  1093  007E89  20                 	db	32
  1094  007E8A  72                 	db	114	;'r'
  1095  007E8B  65                 	db	101	;'e'
  1096  007E8C  63                 	db	99	;'c'
  1097  007E8D  69                 	db	105	;'i'
  1098  007E8E  62                 	db	98	;'b'
  1099  007E8F  69                 	db	105	;'i'
  1100  007E90  6D                 	db	109	;'m'
  1101  007E91  6F                 	db	111	;'o'
  1102  007E92  73                 	db	115	;'s'
  1103  007E93  20                 	db	32
  1104  007E94  66                 	db	102	;'f'
  1105  007E95  75                 	db	117	;'u'
  1106  007E96  65                 	db	101	;'e'
  1107  007E97  3A                 	db	58	;':'
  1108  007E98  00                 	db	0
  1109  007E99                     STR_8:
  1110  007E99  48                 	db	72	;'H'
  1111  007E9A  61                 	db	97	;'a'
  1112  007E9B  73                 	db	115	;'s'
  1113  007E9C  20                 	db	32
  1114  007E9D  61                 	db	97	;'a'
  1115  007E9E  67                 	db	103	;'g'
  1116  007E9F  72                 	db	114	;'r'
  1117  007EA0  65                 	db	101	;'e'
  1118  007EA1  67                 	db	103	;'g'
  1119  007EA2  61                 	db	97	;'a'
  1120  007EA3  64                 	db	100	;'d'
  1121  007EA4  6F                 	db	111	;'o'
  1122  007EA5  20                 	db	32
  1123  007EA6  65                 	db	101	;'e'
  1124  007EA7  73                 	db	115	;'s'
  1125  007EA8  74                 	db	116	;'t'
  1126  007EA9  65                 	db	101	;'e'
  1127  007EAA  20                 	db	32
  1128  007EAB  6E                 	db	110	;'n'
  1129  007EAC  75                 	db	117	;'u'
  1130  007EAD  6D                 	db	109	;'m'
  1131  007EAE  65                 	db	101	;'e'
  1132  007EAF  72                 	db	114	;'r'
  1133  007EB0  6F                 	db	111	;'o'
  1134  007EB1  20                 	db	32
  1135  007EB2  64                 	db	100	;'d'
  1136  007EB3  65                 	db	101	;'e'
  1137  007EB4  20                 	db	32
  1138  007EB5  63                 	db	99	;'c'
  1139  007EB6  6F                 	db	111	;'o'
  1140  007EB7  6F                 	db	111	;'o'
  1141  007EB8  72                 	db	114	;'r'
  1142  007EB9  64                 	db	100	;'d'
  1143  007EBA  65                 	db	101	;'e'
  1144  007EBB  6E                 	db	110	;'n'
  1145  007EBC  61                 	db	97	;'a'
  1146  007EBD  64                 	db	100	;'d'
  1147  007EBE  61                 	db	97	;'a'
  1148  007EBF  73                 	db	115	;'s'
  1149  007EC0  3A                 	db	58	;':'
  1150  007EC1  00                 	db	0
  1151  007EC2                     STR_21:
  1152  007EC2  45                 	db	69	;'E'
  1153  007EC3  6C                 	db	108	;'l'
  1154  007EC4  65                 	db	101	;'e'
  1155  007EC5  63                 	db	99	;'c'
  1156  007EC6  63                 	db	99	;'c'
  1157  007EC7  69                 	db	105	;'i'
  1158  007EC8  6F                 	db	111	;'o'
  1159  007EC9  6E                 	db	110	;'n'
  1160  007ECA  20                 	db	32
  1161  007ECB  6E                 	db	110	;'n'
  1162  007ECC  6F                 	db	111	;'o'
  1163  007ECD  20                 	db	32
  1164  007ECE  76                 	db	118	;'v'
  1165  007ECF  61                 	db	97	;'a'
  1166  007ED0  6C                 	db	108	;'l'
  1167  007ED1  69                 	db	105	;'i'
  1168  007ED2  64                 	db	100	;'d'
  1169  007ED3  61                 	db	97	;'a'
  1170  007ED4  20                 	db	32
  1171  007ED5  76                 	db	118	;'v'
  1172  007ED6  75                 	db	117	;'u'
  1173  007ED7  65                 	db	101	;'e'
  1174  007ED8  6C                 	db	108	;'l'
  1175  007ED9  76                 	db	118	;'v'
  1176  007EDA  61                 	db	97	;'a'
  1177  007EDB  20                 	db	32
  1178  007EDC  61                 	db	97	;'a'
  1179  007EDD  20                 	db	32
  1180  007EDE  69                 	db	105	;'i'
  1181  007EDF  6E                 	db	110	;'n'
  1182  007EE0  74                 	db	116	;'t'
  1183  007EE1  65                 	db	101	;'e'
  1184  007EE2  6E                 	db	110	;'n'
  1185  007EE3  74                 	db	116	;'t'
  1186  007EE4  61                 	db	97	;'a'
  1187  007EE5  72                 	db	114	;'r'
  1188  007EE6  00                 	db	0
  1189  007EE7                     STR_5:
  1190  007EE7  52                 	db	82	;'R'
  1191  007EE8  65                 	db	101	;'e'
  1192  007EE9  63                 	db	99	;'c'
  1193  007EEA  69                 	db	105	;'i'
  1194  007EEB  62                 	db	98	;'b'
  1195  007EEC  69                 	db	105	;'i'
  1196  007EED  20                 	db	32
  1197  007EEE  23                 	db	35
  1198  007EEF  20                 	db	32
  1199  007EF0  64                 	db	100	;'d'
  1200  007EF1  65                 	db	101	;'e'
  1201  007EF2  20                 	db	32
  1202  007EF3  76                 	db	118	;'v'
  1203  007EF4  65                 	db	101	;'e'
  1204  007EF5  63                 	db	99	;'c'
  1205  007EF6  65                 	db	101	;'e'
  1206  007EF7  73                 	db	115	;'s'
  1207  007EF8  20                 	db	32
  1208  007EF9  61                 	db	97	;'a'
  1209  007EFA  20                 	db	32
  1210  007EFB  70                 	db	112	;'p'
  1211  007EFC  72                 	db	114	;'r'
  1212  007EFD  65                 	db	101	;'e'
  1213  007EFE  73                 	db	115	;'s'
  1214  007EFF  69                 	db	105	;'i'
  1215  007F00  6F                 	db	111	;'o'
  1216  007F01  6E                 	db	110	;'n'
  1217  007F02  61                 	db	97	;'a'
  1218  007F03  72                 	db	114	;'r'
  1219  007F04  20                 	db	32
  1220  007F05  5A                 	db	90	;'Z'
  1221  007F06  0A                 	db	10
  1222  007F07  00                 	db	0
  1223  007F08                     STR_6:
  1224  007F08  4D                 	db	77	;'M'
  1225  007F09  65                 	db	101	;'e'
  1226  007F0A  74                 	db	116	;'t'
  1227  007F0B  69                 	db	105	;'i'
  1228  007F0C  73                 	db	115	;'s'
  1229  007F0D  74                 	db	116	;'t'
  1230  007F0E  65                 	db	101	;'e'
  1231  007F0F  20                 	db	32
  1232  007F10  75                 	db	117	;'u'
  1233  007F11  6E                 	db	110	;'n'
  1234  007F12  61                 	db	97	;'a'
  1235  007F13  20                 	db	32
  1236  007F14  63                 	db	99	;'c'
  1237  007F15  6F                 	db	111	;'o'
  1238  007F16  6F                 	db	111	;'o'
  1239  007F17  72                 	db	114	;'r'
  1240  007F18  64                 	db	100	;'d'
  1241  007F19  65                 	db	101	;'e'
  1242  007F1A  6E                 	db	110	;'n'
  1243  007F1B  61                 	db	97	;'a'
  1244  007F1C  64                 	db	100	;'d'
  1245  007F1D  61                 	db	97	;'a'
  1246  007F1E  20                 	db	32
  1247  007F1F  69                 	db	105	;'i'
  1248  007F20  6E                 	db	110	;'n'
  1249  007F21  76                 	db	118	;'v'
  1250  007F22  61                 	db	97	;'a'
  1251  007F23  6C                 	db	108	;'l'
  1252  007F24  69                 	db	105	;'i'
  1253  007F25  64                 	db	100	;'d'
  1254  007F26  61                 	db	97	;'a'
  1255  007F27  0A                 	db	10
  1256  007F28  00                 	db	0
  1257  007F29                     STR_11:
  1258  007F29  20                 	db	32
  1259  007F2A  63                 	db	99	;'c'
  1260  007F2B  6F                 	db	111	;'o'
  1261  007F2C  6F                 	db	111	;'o'
  1262  007F2D  72                 	db	114	;'r'
  1263  007F2E  64                 	db	100	;'d'
  1264  007F2F  65                 	db	101	;'e'
  1265  007F30  6E                 	db	110	;'n'
  1266  007F31  61                 	db	97	;'a'
  1267  007F32  64                 	db	100	;'d'
  1268  007F33  61                 	db	97	;'a'
  1269  007F34  73                 	db	115	;'s'
  1270  007F35  2C                 	db	44
  1271  007F36  20                 	db	32
  1272  007F37  6C                 	db	108	;'l'
  1273  007F38  61                 	db	97	;'a'
  1274  007F39  73                 	db	115	;'s'
  1275  007F3A  20                 	db	32
  1276  007F3B  63                 	db	99	;'c'
  1277  007F3C  75                 	db	117	;'u'
  1278  007F3D  61                 	db	97	;'a'
  1279  007F3E  6C                 	db	108	;'l'
  1280  007F3F  65                 	db	101	;'e'
  1281  007F40  73                 	db	115	;'s'
  1282  007F41  20                 	db	32
  1283  007F42  73                 	db	115	;'s'
  1284  007F43  6F                 	db	111	;'o'
  1285  007F44  6E                 	db	110	;'n'
  1286  007F45  3A                 	db	58	;':'
  1287  007F46  20                 	db	32
  1288  007F47  0A                 	db	10
  1289  007F48  00                 	db	0
  1290  007F49                     STR_17:
  1291  007F49  56                 	db	86	;'V'
  1292  007F4A  61                 	db	97	;'a'
  1293  007F4B  73                 	db	115	;'s'
  1294  007F4C  20                 	db	32
  1295  007F4D  61                 	db	97	;'a'
  1296  007F4E  20                 	db	32
  1297  007F4F  6D                 	db	109	;'m'
  1298  007F50  6F                 	db	111	;'o'
  1299  007F51  64                 	db	100	;'d'
  1300  007F52  69                 	db	105	;'i'
  1301  007F53  66                 	db	102	;'f'
  1302  007F54  69                 	db	105	;'i'
  1303  007F55  63                 	db	99	;'c'
  1304  007F56  61                 	db	97	;'a'
  1305  007F57  72                 	db	114	;'r'
  1306  007F58  20                 	db	32
  1307  007F59  6C                 	db	108	;'l'
  1308  007F5A  61                 	db	97	;'a'
  1309  007F5B  20                 	db	32
  1310  007F5C  63                 	db	99	;'c'
  1311  007F5D  6F                 	db	111	;'o'
  1312  007F5E  6F                 	db	111	;'o'
  1313  007F5F  72                 	db	114	;'r'
  1314  007F60  64                 	db	100	;'d'
  1315  007F61  65                 	db	101	;'e'
  1316  007F62  6E                 	db	110	;'n'
  1317  007F63  61                 	db	97	;'a'
  1318  007F64  64                 	db	100	;'d'
  1319  007F65  61                 	db	97	;'a'
  1320  007F66  20                 	db	32
  1321  007F67  00                 	db	0
  1322  007F68                     STR_28:
  1323  007F68  52                 	db	82	;'R'
  1324  007F69  65                 	db	101	;'e'
  1325  007F6A  67                 	db	103	;'g'
  1326  007F6B  72                 	db	114	;'r'
  1327  007F6C  65                 	db	101	;'e'
  1328  007F6D  73                 	db	115	;'s'
  1329  007F6E  61                 	db	97	;'a'
  1330  007F6F  6E                 	db	110	;'n'
  1331  007F70  64                 	db	100	;'d'
  1332  007F71  6F                 	db	111	;'o'
  1333  007F72  20                 	db	32
  1334  007F73  61                 	db	97	;'a'
  1335  007F74  6C                 	db	108	;'l'
  1336  007F75  20                 	db	32
  1337  007F76  6D                 	db	109	;'m'
  1338  007F77  65                 	db	101	;'e'
  1339  007F78  6E                 	db	110	;'n'
  1340  007F79  75                 	db	117	;'u'
  1341  007F7A  00                 	db	0
  1342  007F7B                     STR_22:
  1343  007F7B  45                 	db	69	;'E'
  1344  007F7C  6E                 	db	110	;'n'
  1345  007F7D  74                 	db	116	;'t'
  1346  007F7E  72                 	db	114	;'r'
  1347  007F7F  61                 	db	97	;'a'
  1348  007F80  73                 	db	115	;'s'
  1349  007F81  74                 	db	116	;'t'
  1350  007F82  65                 	db	101	;'e'
  1351  007F83  20                 	db	32
  1352  007F84  61                 	db	97	;'a'
  1353  007F85  6C                 	db	108	;'l'
  1354  007F86  20                 	db	32
  1355  007F87  30                 	db	48	;'0'
  1356  007F88  00                 	db	0
  1357  007F89                     STR_25:
  1358  007F89  45                 	db	69	;'E'
  1359  007F8A  6E                 	db	110	;'n'
  1360  007F8B  74                 	db	116	;'t'
  1361  007F8C  72                 	db	114	;'r'
  1362  007F8D  61                 	db	97	;'a'
  1363  007F8E  73                 	db	115	;'s'
  1364  007F8F  74                 	db	116	;'t'
  1365  007F90  65                 	db	101	;'e'
  1366  007F91  20                 	db	32
  1367  007F92  61                 	db	97	;'a'
  1368  007F93  6C                 	db	108	;'l'
  1369  007F94  20                 	db	32
  1370  007F95  33                 	db	51	;'3'
  1371  007F96  00                 	db	0
  1372  007F97                     STR_3:
  1373  007F97  52                 	db	82	;'R'
  1374  007F98  65                 	db	101	;'e'
  1375  007F99  63                 	db	99	;'c'
  1376  007F9A  69                 	db	105	;'i'
  1377  007F9B  62                 	db	98	;'b'
  1378  007F9C  69                 	db	105	;'i'
  1379  007F9D  20                 	db	32
  1380  007F9E  63                 	db	99	;'c'
  1381  007F9F  6F                 	db	111	;'o'
  1382  007FA0  6F                 	db	111	;'o'
  1383  007FA1  72                 	db	114	;'r'
  1384  007FA2  64                 	db	100	;'d'
  1385  007FA3  58                 	db	88	;'X'
  1386  007FA4  00                 	db	0
  1387  007FA5                     STR_4:
  1388  007FA5  52                 	db	82	;'R'
  1389  007FA6  65                 	db	101	;'e'
  1390  007FA7  63                 	db	99	;'c'
  1391  007FA8  69                 	db	105	;'i'
  1392  007FA9  62                 	db	98	;'b'
  1393  007FAA  69                 	db	105	;'i'
  1394  007FAB  20                 	db	32
  1395  007FAC  63                 	db	99	;'c'
  1396  007FAD  6F                 	db	111	;'o'
  1397  007FAE  6F                 	db	111	;'o'
  1398  007FAF  72                 	db	114	;'r'
  1399  007FB0  64                 	db	100	;'d'
  1400  007FB1  59                 	db	89	;'Y'
  1401  007FB2  00                 	db	0
  1402  007FB3                     STR_26:
  1403  007FB3  45                 	db	69	;'E'
  1404  007FB4  6E                 	db	110	;'n'
  1405  007FB5  74                 	db	116	;'t'
  1406  007FB6  72                 	db	114	;'r'
  1407  007FB7  61                 	db	97	;'a'
  1408  007FB8  73                 	db	115	;'s'
  1409  007FB9  65                 	db	101	;'e'
  1410  007FBA  20                 	db	32
  1411  007FBB  61                 	db	97	;'a'
  1412  007FBC  6C                 	db	108	;'l'
  1413  007FBD  20                 	db	32
  1414  007FBE  35                 	db	53	;'5'
  1415  007FBF  00                 	db	0
  1416  007FC0                     STR_29:
  1417  007FC0  45                 	db	69	;'E'
  1418  007FC1  6E                 	db	110	;'n'
  1419  007FC2  74                 	db	116	;'t'
  1420  007FC3  72                 	db	114	;'r'
  1421  007FC4  61                 	db	97	;'a'
  1422  007FC5  73                 	db	115	;'s'
  1423  007FC6  65                 	db	101	;'e'
  1424  007FC7  20                 	db	32
  1425  007FC8  61                 	db	97	;'a'
  1426  007FC9  6C                 	db	108	;'l'
  1427  007FCA  20                 	db	32
  1428  007FCB  37                 	db	55	;'7'
  1429  007FCC  00                 	db	0
  1430  007FCD                     STR_30:
  1431  007FCD  45                 	db	69	;'E'
  1432  007FCE  6E                 	db	110	;'n'
  1433  007FCF  74                 	db	116	;'t'
  1434  007FD0  72                 	db	114	;'r'
  1435  007FD1  61                 	db	97	;'a'
  1436  007FD2  73                 	db	115	;'s'
  1437  007FD3  65                 	db	101	;'e'
  1438  007FD4  20                 	db	32
  1439  007FD5  61                 	db	97	;'a'
  1440  007FD6  6C                 	db	108	;'l'
  1441  007FD7  20                 	db	32
  1442  007FD8  38                 	db	56	;'8'
  1443  007FD9  00                 	db	0
  1444  007FDA                     STR_31:
  1445  007FDA  45                 	db	69	;'E'
  1446  007FDB  6E                 	db	110	;'n'
  1447  007FDC  74                 	db	116	;'t'
  1448  007FDD  72                 	db	114	;'r'
  1449  007FDE  61                 	db	97	;'a'
  1450  007FDF  73                 	db	115	;'s'
  1451  007FE0  65                 	db	101	;'e'
  1452  007FE1  20                 	db	32
  1453  007FE2  61                 	db	97	;'a'
  1454  007FE3  6C                 	db	108	;'l'
  1455  007FE4  20                 	db	32
  1456  007FE5  39                 	db	57	;'9'
  1457  007FE6  00                 	db	0
  1458  007FE7                     STR_10:
  1459  007FE7  41                 	db	65	;'A'
  1460  007FE8  67                 	db	103	;'g'
  1461  007FE9  72                 	db	114	;'r'
  1462  007FEA  65                 	db	101	;'e'
  1463  007FEB  67                 	db	103	;'g'
  1464  007FEC  61                 	db	97	;'a'
  1465  007FED  73                 	db	115	;'s'
  1466  007FEE  74                 	db	116	;'t'
  1467  007FEF  65                 	db	101	;'e'
  1468  007FF0  3A                 	db	58	;':'
  1469  007FF1  20                 	db	32
  1470  007FF2  00                 	db	0
  1471  007FF3                     STR_12:
  1472  007FF3  43                 	db	67	;'C'
  1473  007FF4  6F                 	db	111	;'o'
  1474  007FF5  6F                 	db	111	;'o'
  1475  007FF6  72                 	db	114	;'r'
  1476  007FF7  64                 	db	100	;'d'
  1477  007FF8  65                 	db	101	;'e'
  1478  007FF9  6E                 	db	110	;'n'
  1479  007FFA  61                 	db	97	;'a'
  1480  007FFB  64                 	db	100	;'d'
  1481  007FFC  61                 	db	97	;'a'
  1482  007FFD  20                 	db	32
  1483  007FFE  00                 	db	0
  1484  0000                     
  1485                           ; #config settings
  1486  007FFF  00                 	db	0	; dummy byte at the end
  1487  0000                     
  1488                           	psect	cinit
  1489  001152                     __pcinit:
  1490                           	opt callstack 0
  1491  001152                     start_initialization:
  1492                           	opt callstack 0
  1493  001152                     __initialization:
  1494                           	opt callstack 0
  1495                           
  1496                           ; Clear objects allocated to BANK0 (88 bytes)
  1497  001152  EE00  F060         	lfsr	0,__pbssBANK0
  1498  001156  0E58               	movlw	88
  1499  001158                     clear_0:
  1500  001158  6AEE               	clrf	postinc0,c
  1501  00115A  06E8               	decf	wreg,f,c
  1502  00115C  E1FD               	bnz	clear_0
  1503                           
  1504                           ; Clear objects allocated to COMRAM (21 bytes)
  1505  00115E  EE00  F047         	lfsr	0,__pbssCOMRAM
  1506  001162  0E15               	movlw	21
  1507  001164                     clear_1:
  1508  001164  6AEE               	clrf	postinc0,c
  1509  001166  06E8               	decf	wreg,f,c
  1510  001168  E1FD               	bnz	clear_1
  1511  00116A                     end_of_initialization:
  1512                           	opt callstack 0
  1513  00116A                     __end_of__initialization:
  1514                           	opt callstack 0
  1515  00116A  905C               	bcf	int$flags,0,c	;clear compiler interrupt flag (level 1)
  1516  00116C  925C               	bcf	int$flags,1,c	;clear compiler interrupt flag (level 2)
  1517  00116E  0E00               	movlw	low (__Lmediumconst shr (0+16))
  1518  001170  6EF8               	movwf	tblptru,c
  1519  001172  0100               	movlb	0
  1520  001174  EF9E  F003         	goto	_main	;jump to C main() function
  1521                           
  1522                           	psect	bssCOMRAM
  1523  000047                     __pbssCOMRAM:
  1524                           	opt callstack 0
  1525  000047                     _coordXCentenas:
  1526                           	opt callstack 0
  1527  000047                     	ds	10
  1528  000051                     _CurrentPosY:
  1529                           	opt callstack 0
  1530  000051                     	ds	2
  1531  000053                     _yToAdvance:
  1532                           	opt callstack 0
  1533  000053                     	ds	2
  1534  000055                     _CurrentPosX:
  1535                           	opt callstack 0
  1536  000055                     	ds	2
  1537  000057                     _xToAdvance:
  1538                           	opt callstack 0
  1539  000057                     	ds	2
  1540  000059                     _working:
  1541                           	opt callstack 0
  1542  000059                     	ds	1
  1543  00005A                     _habilitarModCoord:
  1544                           	opt callstack 0
  1545  00005A                     	ds	1
  1546  00005B                     _coordenadaNueva:
  1547                           	opt callstack 0
  1548  00005B                     	ds	1
  1549                           
  1550                           	psect	bssBANK0
  1551  000060                     __pbssBANK0:
  1552                           	opt callstack 0
  1553  000060                     _presionarZUnidades:
  1554                           	opt callstack 0
  1555  000060                     	ds	10
  1556  00006A                     _presionarZDecenas:
  1557                           	opt callstack 0
  1558  00006A                     	ds	10
  1559  000074                     _presionarZCentenas:
  1560                           	opt callstack 0
  1561  000074                     	ds	10
  1562  00007E                     _coordYUnidades:
  1563                           	opt callstack 0
  1564  00007E                     	ds	10
  1565  000088                     _coordYDecenas:
  1566                           	opt callstack 0
  1567  000088                     	ds	10
  1568  000092                     _coordYCentenas:
  1569                           	opt callstack 0
  1570  000092                     	ds	10
  1571  00009C                     _coordXUnidades:
  1572                           	opt callstack 0
  1573  00009C                     	ds	10
  1574  0000A6                     _coordXDecenas:
  1575                           	opt callstack 0
  1576  0000A6                     	ds	10
  1577  0000B0                     _coordinates:
  1578                           	opt callstack 0
  1579  0000B0                     	ds	8
  1580                           
  1581                           	psect	cstackCOMRAM
  1582  000001                     __pcstackCOMRAM:
  1583                           	opt callstack 0
  1584  000001                     ??_low_isr:
  1585  000001                     
  1586                           ; 1 bytes @ 0x0
  1587  000001                     	ds	1
  1588  000002                     ?___xxtofl:
  1589                           	opt callstack 0
  1590  000002                     receive@recibido:
  1591                           	opt callstack 0
  1592  000002                     send@enviarpc:
  1593                           	opt callstack 0
  1594  000002                     ___xxtofl@val:
  1595                           	opt callstack 0
  1596                           
  1597                           ; 4 bytes @ 0x1
  1598  000002                     	ds	1
  1599  000003                     printf@PointString:
  1600                           	opt callstack 0
  1601  000003                     scanf@guardarscan:
  1602                           	opt callstack 0
  1603                           
  1604                           ; 2 bytes @ 0x2
  1605  000003                     	ds	2
  1606  000005                     ??_printf:
  1607  000005                     scanf@numcaracteres:
  1608                           	opt callstack 0
  1609                           
  1610                           ; 1 bytes @ 0x4
  1611  000005                     	ds	1
  1612  000006                     ??___xxtofl:
  1613  000006                     scanf@i:
  1614                           	opt callstack 0
  1615                           
  1616                           ; 1 bytes @ 0x5
  1617  000006                     	ds	1
  1618  000007                     printf@i:
  1619                           	opt callstack 0
  1620                           
  1621                           ; 1 bytes @ 0x6
  1622  000007                     	ds	1
  1623  000008                     receiveNum@recibido:
  1624                           	opt callstack 0
  1625  000008                     imprimirCoordenadas@numCoordenadas:
  1626                           	opt callstack 0
  1627  000008                     borrarTodasCoordenadas@impresionCoordenada:
  1628                           	opt callstack 0
  1629                           
  1630                           ; 1 bytes @ 0x7
  1631  000008                     	ds	1
  1632  000009                     ??_introducirCoordNueva:
  1633  000009                     imprimirCoordenadas@impresionCoordenada:
  1634                           	opt callstack 0
  1635                           
  1636                           ; 1 bytes @ 0x8
  1637  000009                     	ds	1
  1638  00000A                     ___xxtofl@sign:
  1639                           	opt callstack 0
  1640                           
  1641                           ; 1 bytes @ 0x9
  1642  00000A                     	ds	1
  1643  00000B                     ___xxtofl@exp:
  1644                           	opt callstack 0
  1645                           
  1646                           ; 1 bytes @ 0xA
  1647  00000B                     	ds	1
  1648  00000C                     ___xxtofl@arg:
  1649                           	opt callstack 0
  1650                           
  1651                           ; 4 bytes @ 0xB
  1652  00000C                     	ds	2
  1653  00000E                     introducirCoordNueva@validarCoordX:
  1654                           	opt callstack 0
  1655                           
  1656                           ; 2 bytes @ 0xD
  1657  00000E                     	ds	2
  1658  000010                     ?___flmul:
  1659                           	opt callstack 0
  1660  000010                     introducirCoordNueva@validarCoordY:
  1661                           	opt callstack 0
  1662  000010                     ___flmul@b:
  1663                           	opt callstack 0
  1664                           
  1665                           ; 4 bytes @ 0xF
  1666  000010                     	ds	2
  1667  000012                     ??_modificarCoordenada:
  1668                           
  1669                           ; 1 bytes @ 0x11
  1670  000012                     	ds	2
  1671  000014                     ___flmul@a:
  1672                           	opt callstack 0
  1673                           
  1674                           ; 4 bytes @ 0x13
  1675  000014                     	ds	4
  1676  000018                     ??___flmul:
  1677                           
  1678                           ; 1 bytes @ 0x17
  1679  000018                     	ds	1
  1680  000019                     modificarCoordenada@coordenadaNuevaCopia:
  1681                           	opt callstack 0
  1682                           
  1683                           ; 1 bytes @ 0x18
  1684  000019                     	ds	1
  1685  00001A                     modificarCoordenada@modCoord:
  1686                           	opt callstack 0
  1687                           
  1688                           ; 1 bytes @ 0x19
  1689  00001A                     	ds	2
  1690  00001C                     ___flmul@sign:
  1691                           	opt callstack 0
  1692                           
  1693                           ; 1 bytes @ 0x1B
  1694  00001C                     	ds	1
  1695  00001D                     ___flmul@grs:
  1696                           	opt callstack 0
  1697                           
  1698                           ; 4 bytes @ 0x1C
  1699  00001D                     	ds	4
  1700  000021                     ___flmul@aexp:
  1701                           	opt callstack 0
  1702                           
  1703                           ; 1 bytes @ 0x20
  1704  000021                     	ds	1
  1705  000022                     ___flmul@bexp:
  1706                           	opt callstack 0
  1707                           
  1708                           ; 1 bytes @ 0x21
  1709  000022                     	ds	1
  1710  000023                     ___flmul@prod:
  1711                           	opt callstack 0
  1712                           
  1713                           ; 4 bytes @ 0x22
  1714  000023                     	ds	4
  1715  000027                     ___flmul@temp:
  1716                           	opt callstack 0
  1717                           
  1718                           ; 2 bytes @ 0x26
  1719  000027                     	ds	2
  1720  000029                     ?___fltol:
  1721                           	opt callstack 0
  1722  000029                     ___fltol@f1:
  1723                           	opt callstack 0
  1724                           
  1725                           ; 4 bytes @ 0x28
  1726  000029                     	ds	4
  1727  00002D                     ??___fltol:
  1728                           
  1729                           ; 1 bytes @ 0x2C
  1730  00002D                     	ds	4
  1731  000031                     ___fltol@sign1:
  1732                           	opt callstack 0
  1733                           
  1734                           ; 1 bytes @ 0x30
  1735  000031                     	ds	1
  1736  000032                     ___fltol@exp1:
  1737                           	opt callstack 0
  1738                           
  1739                           ; 1 bytes @ 0x31
  1740  000032                     	ds	1
  1741  000033                     ??_PWM_DutyCycleCCP2:
  1742  000033                     ??_PWM_DutyCycleCCP1:
  1743                           
  1744                           ; 1 bytes @ 0x32
  1745  000033                     	ds	2
  1746  000035                     _PWM_DutyCycleCCP2$2260:
  1747                           	opt callstack 0
  1748  000035                     _PWM_DutyCycleCCP1$2261:
  1749                           	opt callstack 0
  1750                           
  1751                           ; 4 bytes @ 0x34
  1752  000035                     	ds	4
  1753  000039                     PWM_DutyCycleCCP2@WantedDutyCycle:
  1754                           	opt callstack 0
  1755  000039                     PWM_DutyCycleCCP1@WantedDutyCycle:
  1756                           	opt callstack 0
  1757                           
  1758                           ; 1 bytes @ 0x38
  1759  000039                     	ds	1
  1760  00003A                     PWM_DutyCycleCCP2@PWMDutyValue:
  1761                           	opt callstack 0
  1762  00003A                     PWM_DutyCycleCCP1@PWMDutyValue:
  1763                           	opt callstack 0
  1764                           
  1765                           ; 2 bytes @ 0x39
  1766  00003A                     	ds	2
  1767  00003C                     main@tamanoarray:
  1768                           	opt callstack 0
  1769                           
  1770                           ; 1 bytes @ 0x3B
  1771  00003C                     	ds	2
  1772  00003E                     main@pActMenu:
  1773                           	opt callstack 0
  1774                           
  1775                           ; 2 bytes @ 0x3D
  1776  00003E                     	ds	2
  1777  000040                     main@activarmenu:
  1778                           	opt callstack 0
  1779                           
  1780                           ; 5 bytes @ 0x3F
  1781  000040                     	ds	5
  1782  000045                     main@decision:
  1783                           	opt callstack 0
  1784                           
  1785                           ; 1 bytes @ 0x44
  1786  000045                     	ds	1
  1787  000046                     main@opcionsel:
  1788                           	opt callstack 0
  1789                           
  1790                           ; 1 bytes @ 0x45
  1791  000046                     	ds	1
  1792                           
  1793 ;;
  1794 ;;Main: autosize = 0, tempsize = 0, incstack = 0, save=0
  1795 ;;
  1796 ;; *************** function _main *****************
  1797 ;; Defined at:
  1798 ;;		line 43 in file "main.c"
  1799 ;; Parameters:    Size  Location     Type
  1800 ;;		None
  1801 ;; Auto vars:     Size  Location     Type
  1802 ;;  decision        1   68[COMRAM] unsigned char 
  1803 ;;  opcionsel       1   69[COMRAM] unsigned char 
  1804 ;;  activarmenu     5   63[COMRAM] unsigned char [5]
  1805 ;;  pActMenu        2   61[COMRAM] PTR unsigned char 
  1806 ;;		 -> main@activarmenu(5), 
  1807 ;;  desechable      1    0        unsigned char 
  1808 ;;  tamanoarray     1   59[COMRAM] unsigned char 
  1809 ;; Return value:  Size  Location     Type
  1810 ;;                  1    wreg      void 
  1811 ;; Registers used:
  1812 ;;		wreg, fsr2l, fsr2h, status,2, status,0, tblptrl, tblptrh, tblptru, prodl, prodh, cstack
  1813 ;; Tracked objects:
  1814 ;;		On entry : 0/0
  1815 ;;		On exit  : 0/0
  1816 ;;		Unchanged: 0/0
  1817 ;; Data sizes:     COMRAM   BANK0   BANK1   BANK2   BANK3   BANK4   BANK5   BANK6   BANK7
  1818 ;;      Params:         0       0       0       0       0       0       0       0       0
  1819 ;;      Locals:        11       0       0       0       0       0       0       0       0
  1820 ;;      Temps:          0       0       0       0       0       0       0       0       0
  1821 ;;      Totals:        11       0       0       0       0       0       0       0       0
  1822 ;;Total ram usage:       11 bytes
  1823 ;; Hardware stack levels required when called:    7
  1824 ;; This function calls:
  1825 ;;		_PWM_CCP1_init
  1826 ;;		_PWM_CCP2_init
  1827 ;;		_PWM_DutyCycleCCP1
  1828 ;;		_PWM_DutyCycleCCP2
  1829 ;;		_UARTinit
  1830 ;;		_borrarTodasCoordenadas
  1831 ;;		_habilitarIntTMR0
  1832 ;;		_habilitarIntTMR1
  1833 ;;		_imprimirCoordenadas
  1834 ;;		_introducirCoordNueva
  1835 ;;		_modificarCoordenada
  1836 ;;		_motorXinit
  1837 ;;		_motorYinit
  1838 ;;		_portInit
  1839 ;;		_printf
  1840 ;;		_receive
  1841 ;;		_receiveNum
  1842 ;;		_scanf
  1843 ;;		_tmr0Init
  1844 ;;		_tmr1Init
  1845 ;; This function is called by:
  1846 ;;		Startup code after reset
  1847 ;; This function uses a non-reentrant model
  1848 ;;
  1849                           
  1850                           	psect	text0
  1851  00073C                     __ptext0:
  1852                           	opt callstack 0
  1853  00073C                     _main:
  1854                           	opt callstack 24
  1855  00073C                     
  1856                           ;main.c: 45:     portInit();
  1857  00073C  EC2B  F009         	call	_portInit	;wreg free
  1858                           
  1859                           ;main.c: 46:     UARTinit();
  1860  000740  ECF6  F008         	call	_UARTinit	;wreg free
  1861                           
  1862                           ;main.c: 47:     PWM_CCP2_init();
  1863  000744  ECCD  F008         	call	_PWM_CCP2_init	;wreg free
  1864                           
  1865                           ;main.c: 48:     PWM_CCP1_init();
  1866  000748  ECBC  F008         	call	_PWM_CCP1_init	;wreg free
  1867  00074C                     
  1868                           ;main.c: 49:     PWM_DutyCycleCCP2(0);
  1869  00074C  0E00               	movlw	0
  1870  00074E  EC1F  F007         	call	_PWM_DutyCycleCCP2
  1871  000752                     
  1872                           ;main.c: 50:     PWM_DutyCycleCCP1(0);
  1873  000752  0E00               	movlw	0
  1874  000754  EC79  F007         	call	_PWM_DutyCycleCCP1
  1875  000758                     
  1876                           ;main.c: 51:     motorXinit();
  1877  000758  EC0E  F009         	call	_motorXinit	;wreg free
  1878  00075C                     
  1879                           ;main.c: 52:     motorYinit();
  1880  00075C  EC24  F009         	call	_motorYinit	;wreg free
  1881                           
  1882                           ;main.c: 53:     tmr0Init();
  1883  000760  EC03  F009         	call	_tmr0Init	;wreg free
  1884                           
  1885                           ;main.c: 54:     tmr1Init();
  1886  000764  ECDC  F008         	call	_tmr1Init	;wreg free
  1887  000768                     
  1888                           ;main.c: 56:     habilitarIntTMR0();
  1889  000768  EC36  F009         	call	_habilitarIntTMR0	;wreg free
  1890  00076C                     
  1891                           ;main.c: 57:     habilitarIntTMR1();
  1892  00076C  EC34  F009         	call	_habilitarIntTMR1	;wreg free
  1893  000770                     
  1894                           ;main.c: 62:     unsigned char activarmenu[5];;main.c: 63:     activarmenu[4] = ((void*)
      +                          0);
  1895  000770  0E00               	movlw	0
  1896  000772  6E44               	movwf	(main@activarmenu+4)^0,c
  1897  000774                     
  1898                           ;main.c: 64:     unsigned char *pActMenu = (unsigned char *) &activarmenu;
  1899  000774  0E40               	movlw	low main@activarmenu
  1900  000776  6E3E               	movwf	main@pActMenu^0,c
  1901  000778  0E00               	movlw	high main@activarmenu
  1902  00077A  6E3F               	movwf	(main@pActMenu+1)^0,c
  1903  00077C  ECE9  F008         	call	_receive	;wreg free
  1904  000780                     
  1905                           ;main.c: 68:     printf("Escribe la palabra 'Menu' o 'menu' para acceder al menu\n");
  1906  000780  0E14               	movlw	low STR_19
  1907  000782  6E03               	movwf	printf@PointString^0,c
  1908  000784  0E7D               	movlw	high STR_19
  1909  000786  6E04               	movwf	(printf@PointString+1)^0,c
  1910  000788  EC61  F008         	call	_printf	;wreg free
  1911  00078C                     l2161:
  1912                           
  1913                           ;main.c: 71:         scanf(pActMenu, tamanoarray = (sizeof (activarmenu) - 1));
  1914  00078C  C03E  F003         	movff	main@pActMenu,scanf@guardarscan
  1915  000790  C03F  F004         	movff	main@pActMenu+1,scanf@guardarscan+1
  1916  000794  0E04               	movlw	4
  1917  000796  6E3C               	movwf	main@tamanoarray^0,c
  1918  000798  C03C  F005         	movff	main@tamanoarray,scanf@numcaracteres
  1919  00079C  EC91  F008         	call	_scanf	;wreg free
  1920  0007A0                     
  1921                           ;main.c: 72:         if ((activarmenu[0] == 'M' || activarmenu[0] == 'm') && activarmenu
      +                          [1] == 'e' && activarmenu[2] == 'n' && activarmenu[3] == 'u') {
  1922  0007A0  0E4D               	movlw	77
  1923  0007A2  1840               	xorwf	main@activarmenu^0,w,c
  1924  0007A4  B4D8               	btfsc	status,2,c
  1925  0007A6  EFD7  F003         	goto	u1291
  1926  0007AA  EFD9  F003         	goto	u1290
  1927  0007AE                     u1291:
  1928  0007AE  EFE2  F003         	goto	l2167
  1929  0007B2                     u1290:
  1930  0007B2  0E6D               	movlw	109
  1931  0007B4  1840               	xorwf	main@activarmenu^0,w,c
  1932  0007B6  A4D8               	btfss	status,2,c
  1933  0007B8  EFE0  F003         	goto	u1301
  1934  0007BC  EFE2  F003         	goto	u1300
  1935  0007C0                     u1301:
  1936  0007C0  EFCE  F004         	goto	l2233
  1937  0007C4                     u1300:
  1938  0007C4                     l2167:
  1939  0007C4  0E65               	movlw	101
  1940  0007C6  1841               	xorwf	(main@activarmenu+1)^0,w,c
  1941  0007C8  A4D8               	btfss	status,2,c
  1942  0007CA  EFE9  F003         	goto	u1311
  1943  0007CE  EFEB  F003         	goto	u1310
  1944  0007D2                     u1311:
  1945  0007D2  EFCE  F004         	goto	l2233
  1946  0007D6                     u1310:
  1947  0007D6  0E6E               	movlw	110
  1948  0007D8  1842               	xorwf	(main@activarmenu+2)^0,w,c
  1949  0007DA  A4D8               	btfss	status,2,c
  1950  0007DC  EFF2  F003         	goto	u1321
  1951  0007E0  EFF4  F003         	goto	u1320
  1952  0007E4                     u1321:
  1953  0007E4  EFCE  F004         	goto	l2233
  1954  0007E8                     u1320:
  1955  0007E8  0E75               	movlw	117
  1956  0007EA  1843               	xorwf	(main@activarmenu+3)^0,w,c
  1957  0007EC  A4D8               	btfss	status,2,c
  1958  0007EE  EFFB  F003         	goto	u1331
  1959  0007F2  EFFD  F003         	goto	u1330
  1960  0007F6                     u1331:
  1961  0007F6  EFCE  F004         	goto	l2233
  1962  0007FA                     u1330:
  1963  0007FA                     
  1964                           ;main.c: 74:             printf("(0)Ayuda sobre como funciona el programa (1)Introducir 
      +                          coordenada nueva (2)Imprimir las coordenadas recibidas (3)Ir a home\n"
  1965  0007FA  0ECB               	movlw	low STR_20
  1966  0007FC  6E03               	movwf	printf@PointString^0,c
  1967  0007FE  0E7A               	movlw	high STR_20
  1968  000800  6E04               	movwf	(printf@PointString+1)^0,c
  1969  000802  EC61  F008         	call	_printf	;wreg free
  1970  000806                     l2175:
  1971                           
  1972                           ;main.c: 76:             uint8_t opcionsel = receive();
  1973  000806  ECE9  F008         	call	_receive	;wreg free
  1974  00080A  6E46               	movwf	main@opcionsel^0,c
  1975                           
  1976                           ;main.c: 77:             while (opcionsel > 57 || opcionsel < 48) {
  1977  00080C  EF10  F004         	goto	l2181
  1978  000810                     l2177:
  1979                           
  1980                           ;main.c: 78:                 printf("Eleccion no valida vuelva a intentar");
  1981  000810  0EC2               	movlw	low STR_21
  1982  000812  6E03               	movwf	printf@PointString^0,c
  1983  000814  0E7E               	movlw	high STR_21
  1984  000816  6E04               	movwf	(printf@PointString+1)^0,c
  1985  000818  EC61  F008         	call	_printf	;wreg free
  1986  00081C  EF03  F004         	goto	l2175
  1987  000820                     l2181:
  1988                           
  1989                           ;main.c: 77:             while (opcionsel > 57 || opcionsel < 48) {
  1990  000820  0E3A               	movlw	58
  1991  000822  6046               	cpfslt	main@opcionsel^0,c
  1992  000824  EF16  F004         	goto	u1341
  1993  000828  EF18  F004         	goto	u1340
  1994  00082C                     u1341:
  1995  00082C  EF08  F004         	goto	l2177
  1996  000830                     u1340:
  1997  000830  0E2F               	movlw	47
  1998  000832  6446               	cpfsgt	main@opcionsel^0,c
  1999  000834  EF1E  F004         	goto	u1351
  2000  000838  EF20  F004         	goto	u1350
  2001  00083C                     u1351:
  2002  00083C  EF08  F004         	goto	l2177
  2003  000840                     u1350:
  2004  000840                     
  2005                           ;main.c: 81:             if (opcionsel == '0') {
  2006  000840  0E30               	movlw	48
  2007  000842  1846               	xorwf	main@opcionsel^0,w,c
  2008  000844  A4D8               	btfss	status,2,c
  2009  000846  EF27  F004         	goto	u1361
  2010  00084A  EF29  F004         	goto	u1360
  2011  00084E                     u1361:
  2012  00084E  EF2F  F004         	goto	l2189
  2013  000852                     u1360:
  2014  000852                     
  2015                           ;main.c: 82:                 printf("Entraste al 0");
  2016  000852  0E7B               	movlw	low STR_22
  2017  000854  6E03               	movwf	printf@PointString^0,c
  2018  000856  0E7F               	movlw	high STR_22
  2019  000858  6E04               	movwf	(printf@PointString+1)^0,c
  2020  00085A  EC61  F008         	call	_printf	;wreg free
  2021  00085E                     l2189:
  2022                           
  2023                           ;main.c: 84:             if (opcionsel == '1') {
  2024  00085E  0E31               	movlw	49
  2025  000860  1846               	xorwf	main@opcionsel^0,w,c
  2026  000862  A4D8               	btfss	status,2,c
  2027  000864  EF36  F004         	goto	u1371
  2028  000868  EF38  F004         	goto	u1370
  2029  00086C                     u1371:
  2030  00086C  EF3A  F004         	goto	l2193
  2031  000870                     u1370:
  2032  000870                     
  2033                           ;main.c: 85:                 introducirCoordNueva();
  2034  000870  EC2B  F002         	call	_introducirCoordNueva	;wreg free
  2035  000874                     l2193:
  2036                           
  2037                           ;main.c: 87:             if (opcionsel == '2') {
  2038  000874  0E32               	movlw	50
  2039  000876  1846               	xorwf	main@opcionsel^0,w,c
  2040  000878  A4D8               	btfss	status,2,c
  2041  00087A  EF41  F004         	goto	u1381
  2042  00087E  EF43  F004         	goto	u1380
  2043  000882                     u1381:
  2044  000882  EF4B  F004         	goto	l2199
  2045  000886                     u1380:
  2046  000886                     
  2047                           ;main.c: 88:                 printf("Elegiste la opcion de imprimir coordenadas\n");
  2048  000886  0E42               	movlw	low STR_23
  2049  000888  6E03               	movwf	printf@PointString^0,c
  2050  00088A  0E7E               	movlw	high STR_23
  2051  00088C  6E04               	movwf	(printf@PointString+1)^0,c
  2052  00088E  EC61  F008         	call	_printf	;wreg free
  2053  000892                     
  2054                           ;main.c: 89:                 imprimirCoordenadas();
  2055  000892  ECB2  F005         	call	_imprimirCoordenadas	;wreg free
  2056  000896                     l2199:
  2057                           
  2058                           ;main.c: 91:             if (opcionsel == '3') {
  2059  000896  0E33               	movlw	51
  2060  000898  1846               	xorwf	main@opcionsel^0,w,c
  2061  00089A  A4D8               	btfss	status,2,c
  2062  00089C  EF52  F004         	goto	u1391
  2063  0008A0  EF54  F004         	goto	u1390
  2064  0008A4                     u1391:
  2065  0008A4  EF60  F004         	goto	l2203
  2066  0008A8                     u1390:
  2067  0008A8                     
  2068                           ;main.c: 92:                 printf("Entraste a la opcion de modificar coordenada\n");
  2069  0008A8  0EE6               	movlw	low STR_24
  2070  0008AA  6E03               	movwf	printf@PointString^0,c
  2071  0008AC  0E7D               	movlw	high STR_24
  2072  0008AE  6E04               	movwf	(printf@PointString+1)^0,c
  2073  0008B0  EC61  F008         	call	_printf	;wreg free
  2074                           
  2075                           ;main.c: 93:                 printf("Entraste al 3");
  2076  0008B4  0E89               	movlw	low STR_25
  2077  0008B6  6E03               	movwf	printf@PointString^0,c
  2078  0008B8  0E7F               	movlw	high STR_25
  2079  0008BA  6E04               	movwf	(printf@PointString+1)^0,c
  2080  0008BC  EC61  F008         	call	_printf	;wreg free
  2081  0008C0                     l2203:
  2082                           
  2083                           ;main.c: 95:             if (opcionsel == '4') {
  2084  0008C0  0E34               	movlw	52
  2085  0008C2  1846               	xorwf	main@opcionsel^0,w,c
  2086  0008C4  A4D8               	btfss	status,2,c
  2087  0008C6  EF67  F004         	goto	u1401
  2088  0008CA  EF69  F004         	goto	u1400
  2089  0008CE                     u1401:
  2090  0008CE  EF6B  F004         	goto	l2207
  2091  0008D2                     u1400:
  2092  0008D2                     
  2093                           ;main.c: 96:                 modificarCoordenada();
  2094  0008D2  ECD3  F007         	call	_modificarCoordenada	;wreg free
  2095  0008D6                     l2207:
  2096                           
  2097                           ;main.c: 98:             if (opcionsel == '5') {
  2098  0008D6  0E35               	movlw	53
  2099  0008D8  1846               	xorwf	main@opcionsel^0,w,c
  2100  0008DA  A4D8               	btfss	status,2,c
  2101  0008DC  EF72  F004         	goto	u1411
  2102  0008E0  EF74  F004         	goto	u1410
  2103  0008E4                     u1411:
  2104  0008E4  EF7A  F004         	goto	l2211
  2105  0008E8                     u1410:
  2106  0008E8                     
  2107                           ;main.c: 99:                 printf("Entrase al 5");
  2108  0008E8  0EB3               	movlw	low STR_26
  2109  0008EA  6E03               	movwf	printf@PointString^0,c
  2110  0008EC  0E7F               	movlw	high STR_26
  2111  0008EE  6E04               	movwf	(printf@PointString+1)^0,c
  2112  0008F0  EC61  F008         	call	_printf	;wreg free
  2113  0008F4                     l2211:
  2114                           
  2115                           ;main.c: 101:             if (opcionsel == '6') {
  2116  0008F4  0E36               	movlw	54
  2117  0008F6  1846               	xorwf	main@opcionsel^0,w,c
  2118  0008F8  A4D8               	btfss	status,2,c
  2119  0008FA  EF81  F004         	goto	u1421
  2120  0008FE  EF83  F004         	goto	u1420
  2121  000902                     u1421:
  2122  000902  EF9F  F004         	goto	l2221
  2123  000906                     u1420:
  2124  000906                     
  2125                           ;main.c: 102:                 printf("Vas a borrar todas las coordenadas, seguro? (1) Si
      +                           (0)No");
  2126  000906  0E4D               	movlw	low STR_27
  2127  000908  6E03               	movwf	printf@PointString^0,c
  2128  00090A  0E7D               	movlw	high STR_27
  2129  00090C  6E04               	movwf	(printf@PointString+1)^0,c
  2130  00090E  EC61  F008         	call	_printf	;wreg free
  2131                           
  2132                           ;main.c: 103:                 uint8_t decision = receiveNum();
  2133  000912  EC2A  F008         	call	_receiveNum	;wreg free
  2134  000916  6E45               	movwf	main@decision^0,c
  2135  000918                     
  2136                           ;main.c: 104:                 if (decision == '1') {
  2137  000918  0E31               	movlw	49
  2138  00091A  1845               	xorwf	main@decision^0,w,c
  2139  00091C  A4D8               	btfss	status,2,c
  2140  00091E  EF93  F004         	goto	u1431
  2141  000922  EF95  F004         	goto	u1430
  2142  000926                     u1431:
  2143  000926  EF99  F004         	goto	l2219
  2144  00092A                     u1430:
  2145  00092A                     
  2146                           ;main.c: 105:                     borrarTodasCoordenadas();
  2147  00092A  ECC3  F006         	call	_borrarTodasCoordenadas	;wreg free
  2148                           
  2149                           ;main.c: 106:                 } else printf("Regresando al menu");
  2150  00092E  EF9F  F004         	goto	l2221
  2151  000932                     l2219:
  2152  000932  0E68               	movlw	low STR_28
  2153  000934  6E03               	movwf	printf@PointString^0,c
  2154  000936  0E7F               	movlw	high STR_28
  2155  000938  6E04               	movwf	(printf@PointString+1)^0,c
  2156  00093A  EC61  F008         	call	_printf	;wreg free
  2157  00093E                     l2221:
  2158                           
  2159                           ;main.c: 108:             if (opcionsel == '7') {
  2160  00093E  0E37               	movlw	55
  2161  000940  1846               	xorwf	main@opcionsel^0,w,c
  2162  000942  A4D8               	btfss	status,2,c
  2163  000944  EFA6  F004         	goto	u1441
  2164  000948  EFA8  F004         	goto	u1440
  2165  00094C                     u1441:
  2166  00094C  EFAE  F004         	goto	l2225
  2167  000950                     u1440:
  2168  000950                     
  2169                           ;main.c: 109:                 printf("Entrase al 7");
  2170  000950  0EC0               	movlw	low STR_29
  2171  000952  6E03               	movwf	printf@PointString^0,c
  2172  000954  0E7F               	movlw	high STR_29
  2173  000956  6E04               	movwf	(printf@PointString+1)^0,c
  2174  000958  EC61  F008         	call	_printf	;wreg free
  2175  00095C                     l2225:
  2176                           
  2177                           ;main.c: 111:             if (opcionsel == '8') {
  2178  00095C  0E38               	movlw	56
  2179  00095E  1846               	xorwf	main@opcionsel^0,w,c
  2180  000960  A4D8               	btfss	status,2,c
  2181  000962  EFB5  F004         	goto	u1451
  2182  000966  EFB7  F004         	goto	u1450
  2183  00096A                     u1451:
  2184  00096A  EFBD  F004         	goto	l2229
  2185  00096E                     u1450:
  2186  00096E                     
  2187                           ;main.c: 112:                 printf("Entrase al 8");
  2188  00096E  0ECD               	movlw	low STR_30
  2189  000970  6E03               	movwf	printf@PointString^0,c
  2190  000972  0E7F               	movlw	high STR_30
  2191  000974  6E04               	movwf	(printf@PointString+1)^0,c
  2192  000976  EC61  F008         	call	_printf	;wreg free
  2193  00097A                     l2229:
  2194                           
  2195                           ;main.c: 114:             if (opcionsel == '9') {
  2196  00097A  0E39               	movlw	57
  2197  00097C  1846               	xorwf	main@opcionsel^0,w,c
  2198  00097E  A4D8               	btfss	status,2,c
  2199  000980  EFC4  F004         	goto	u1461
  2200  000984  EFC6  F004         	goto	u1460
  2201  000988                     u1461:
  2202  000988  EFC6  F003         	goto	l2161
  2203  00098C                     u1460:
  2204  00098C                     
  2205                           ;main.c: 115:                 printf("Entrase al 9");
  2206  00098C  0EDA               	movlw	low STR_31
  2207  00098E  6E03               	movwf	printf@PointString^0,c
  2208  000990  0E7F               	movlw	high STR_31
  2209  000992  6E04               	movwf	(printf@PointString+1)^0,c
  2210  000994  EC61  F008         	call	_printf	;wreg free
  2211  000998  EFC6  F003         	goto	l2161
  2212  00099C                     l2233:
  2213  00099C  0E10               	movlw	low STR_32
  2214  00099E  6E03               	movwf	printf@PointString^0,c
  2215  0009A0  0E7C               	movlw	high STR_32
  2216  0009A2  6E04               	movwf	(printf@PointString+1)^0,c
  2217  0009A4  EC61  F008         	call	_printf	;wreg free
  2218  0009A8  EFC6  F003         	goto	l2161
  2219  0009AC  EF14  F000         	goto	start
  2220  0009B0                     __end_of_main:
  2221                           	opt callstack 0
  2222                           
  2223 ;; *************** function _tmr1Init *****************
  2224 ;; Defined at:
  2225 ;;		line 18 in file "Timers.c"
  2226 ;; Parameters:    Size  Location     Type
  2227 ;;		None
  2228 ;; Auto vars:     Size  Location     Type
  2229 ;;		None
  2230 ;; Return value:  Size  Location     Type
  2231 ;;                  1    wreg      void 
  2232 ;; Registers used:
  2233 ;;		wreg, status,2
  2234 ;; Tracked objects:
  2235 ;;		On entry : 0/0
  2236 ;;		On exit  : 0/0
  2237 ;;		Unchanged: 0/0
  2238 ;; Data sizes:     COMRAM   BANK0   BANK1   BANK2   BANK3   BANK4   BANK5   BANK6   BANK7
  2239 ;;      Params:         0       0       0       0       0       0       0       0       0
  2240 ;;      Locals:         0       0       0       0       0       0       0       0       0
  2241 ;;      Temps:          0       0       0       0       0       0       0       0       0
  2242 ;;      Totals:         0       0       0       0       0       0       0       0       0
  2243 ;;Total ram usage:        0 bytes
  2244 ;; Hardware stack levels used:    1
  2245 ;; Hardware stack levels required when called:    2
  2246 ;; This function calls:
  2247 ;;		Nothing
  2248 ;; This function is called by:
  2249 ;;		_main
  2250 ;; This function uses a non-reentrant model
  2251 ;;
  2252                           
  2253                           	psect	text1
  2254  0011B8                     __ptext1:
  2255                           	opt callstack 0
  2256  0011B8                     _tmr1Init:
  2257                           	opt callstack 28
  2258  0011B8                     
  2259                           ;Timers.c: 20:     T1CONbits.TMR1ON = 0;
  2260  0011B8  90CD               	bcf	205,0,c	;volatile
  2261                           
  2262                           ;Timers.c: 21:     T1CONbits.RD16 = 1;
  2263  0011BA  8ECD               	bsf	205,7,c	;volatile
  2264                           
  2265                           ;Timers.c: 22:     T1CONbits.T1OSCEN = 0;
  2266  0011BC  96CD               	bcf	205,3,c	;volatile
  2267                           
  2268                           ;Timers.c: 23:     T1CONbits.T1RUN = 1;
  2269  0011BE  8CCD               	bsf	205,6,c	;volatile
  2270                           
  2271                           ;Timers.c: 24:     T1CONbits.TMR1CS = 1;
  2272  0011C0  82CD               	bsf	205,1,c	;volatile
  2273                           
  2274                           ;Timers.c: 25:     T1CONbits.T1SYNC = 1;
  2275  0011C2  84CD               	bsf	205,2,c	;volatile
  2276                           
  2277                           ;Timers.c: 26:     TRISCbits.RC0 = 1;
  2278  0011C4  8094               	bsf	148,0,c	;volatile
  2279  0011C6                     
  2280                           ;Timers.c: 27:     TMR1 = 0;
  2281  0011C6  0E00               	movlw	0
  2282  0011C8  6ECF               	movwf	207,c	;volatile
  2283  0011CA  0E00               	movlw	0
  2284  0011CC  6ECE               	movwf	206,c	;volatile
  2285  0011CE                     
  2286                           ;Timers.c: 28:     T1CONbits.TMR1ON = 1;
  2287  0011CE  80CD               	bsf	205,0,c	;volatile
  2288  0011D0  0012               	return		;funcret
  2289  0011D2                     __end_of_tmr1Init:
  2290                           	opt callstack 0
  2291                           
  2292 ;; *************** function _tmr0Init *****************
  2293 ;; Defined at:
  2294 ;;		line 7 in file "Timers.c"
  2295 ;; Parameters:    Size  Location     Type
  2296 ;;		None
  2297 ;; Auto vars:     Size  Location     Type
  2298 ;;		None
  2299 ;; Return value:  Size  Location     Type
  2300 ;;                  1    wreg      void 
  2301 ;; Registers used:
  2302 ;;		wreg, status,2
  2303 ;; Tracked objects:
  2304 ;;		On entry : 0/0
  2305 ;;		On exit  : 0/0
  2306 ;;		Unchanged: 0/0
  2307 ;; Data sizes:     COMRAM   BANK0   BANK1   BANK2   BANK3   BANK4   BANK5   BANK6   BANK7
  2308 ;;      Params:         0       0       0       0       0       0       0       0       0
  2309 ;;      Locals:         0       0       0       0       0       0       0       0       0
  2310 ;;      Temps:          0       0       0       0       0       0       0       0       0
  2311 ;;      Totals:         0       0       0       0       0       0       0       0       0
  2312 ;;Total ram usage:        0 bytes
  2313 ;; Hardware stack levels used:    1
  2314 ;; Hardware stack levels required when called:    2
  2315 ;; This function calls:
  2316 ;;		Nothing
  2317 ;; This function is called by:
  2318 ;;		_main
  2319 ;; This function uses a non-reentrant model
  2320 ;;
  2321                           
  2322                           	psect	text2
  2323  001206                     __ptext2:
  2324                           	opt callstack 0
  2325  001206                     _tmr0Init:
  2326                           	opt callstack 28
  2327  001206                     
  2328                           ;Timers.c: 9:     T0CONbits.TMR0ON = 0;
  2329  001206  9ED5               	bcf	213,7,c	;volatile
  2330                           
  2331                           ;Timers.c: 10:     T0CONbits.T08BIT = 0;
  2332  001208  9CD5               	bcf	213,6,c	;volatile
  2333                           
  2334                           ;Timers.c: 11:     T0CONbits.T0CS = 1;
  2335  00120A  8AD5               	bsf	213,5,c	;volatile
  2336                           
  2337                           ;Timers.c: 12:     T0CONbits.T0SE = 0;
  2338  00120C  98D5               	bcf	213,4,c	;volatile
  2339                           
  2340                           ;Timers.c: 13:     TRISAbits.RA4 = 1;
  2341  00120E  8892               	bsf	146,4,c	;volatile
  2342  001210                     
  2343                           ;Timers.c: 14:     TMR0 = 0;
  2344  001210  0E00               	movlw	0
  2345  001212  6ED7               	movwf	215,c	;volatile
  2346  001214  0E00               	movlw	0
  2347  001216  6ED6               	movwf	214,c	;volatile
  2348  001218                     
  2349                           ;Timers.c: 15:     T0CONbits.TMR0ON = 1;
  2350  001218  8ED5               	bsf	213,7,c	;volatile
  2351  00121A  0012               	return		;funcret
  2352  00121C                     __end_of_tmr0Init:
  2353                           	opt callstack 0
  2354                           
  2355 ;; *************** function _scanf *****************
  2356 ;; Defined at:
  2357 ;;		line 15 in file "Comunicacion.c"
  2358 ;; Parameters:    Size  Location     Type
  2359 ;;  guardarscan     2    2[COMRAM] PTR unsigned char 
  2360 ;;		 -> main@activarmenu(5), 
  2361 ;;  numcaractere    1    4[COMRAM] unsigned char 
  2362 ;; Auto vars:     Size  Location     Type
  2363 ;;  i               1    5[COMRAM] unsigned char 
  2364 ;; Return value:  Size  Location     Type
  2365 ;;                  1    wreg      void 
  2366 ;; Registers used:
  2367 ;;		wreg, fsr2l, fsr2h, status,2, status,0, cstack
  2368 ;; Tracked objects:
  2369 ;;		On entry : 0/0
  2370 ;;		On exit  : 0/0
  2371 ;;		Unchanged: 0/0
  2372 ;; Data sizes:     COMRAM   BANK0   BANK1   BANK2   BANK3   BANK4   BANK5   BANK6   BANK7
  2373 ;;      Params:         3       0       0       0       0       0       0       0       0
  2374 ;;      Locals:         1       0       0       0       0       0       0       0       0
  2375 ;;      Temps:          0       0       0       0       0       0       0       0       0
  2376 ;;      Totals:         4       0       0       0       0       0       0       0       0
  2377 ;;Total ram usage:        4 bytes
  2378 ;; Hardware stack levels used:    1
  2379 ;; Hardware stack levels required when called:    3
  2380 ;; This function calls:
  2381 ;;		_receive
  2382 ;; This function is called by:
  2383 ;;		_main
  2384 ;; This function uses a non-reentrant model
  2385 ;;
  2386                           
  2387                           	psect	text3
  2388  001122                     __ptext3:
  2389                           	opt callstack 0
  2390  001122                     _scanf:
  2391                           	opt callstack 27
  2392  001122                     
  2393                           ;Comunicacion.c: 16:     for (unsigned char i = 0; i < numcaracteres; i++) {
  2394  001122  0E00               	movlw	0
  2395  001124  6E06               	movwf	scanf@i^0,c
  2396  001126  EF9F  F008         	goto	l2091
  2397  00112A                     l2087:
  2398                           
  2399                           ;Comunicacion.c: 17:         guardarscan[i] = receive();
  2400  00112A  5006               	movf	scanf@i^0,w,c
  2401  00112C  2403               	addwf	scanf@guardarscan^0,w,c
  2402  00112E  6ED9               	movwf	fsr2l,c
  2403  001130  0E00               	movlw	0
  2404  001132  2004               	addwfc	(scanf@guardarscan+1)^0,w,c
  2405  001134  6EDA               	movwf	fsr2h,c
  2406  001136  ECE9  F008         	call	_receive	;wreg free
  2407  00113A  6EDF               	movwf	indf2,c
  2408  00113C                     
  2409                           ;Comunicacion.c: 18:     }
  2410  00113C  2A06               	incf	scanf@i^0,f,c
  2411  00113E                     l2091:
  2412  00113E  5005               	movf	scanf@numcaracteres^0,w,c
  2413  001140  5C06               	subwf	scanf@i^0,w,c
  2414  001142  A0D8               	btfss	status,0,c
  2415  001144  EFA6  F008         	goto	u1261
  2416  001148  EFA8  F008         	goto	u1260
  2417  00114C                     u1261:
  2418  00114C  EF95  F008         	goto	l2087
  2419  001150                     u1260:
  2420  001150  0012               	return		;funcret
  2421  001152                     __end_of_scanf:
  2422                           	opt callstack 0
  2423                           
  2424 ;; *************** function _receive *****************
  2425 ;; Defined at:
  2426 ;;		line 21 in file "UART.c"
  2427 ;; Parameters:    Size  Location     Type
  2428 ;;		None
  2429 ;; Auto vars:     Size  Location     Type
  2430 ;;  recibido        1    1[COMRAM] unsigned char 
  2431 ;; Return value:  Size  Location     Type
  2432 ;;                  1    wreg      unsigned char 
  2433 ;; Registers used:
  2434 ;;		wreg, status,2
  2435 ;; Tracked objects:
  2436 ;;		On entry : 0/0
  2437 ;;		On exit  : 0/0
  2438 ;;		Unchanged: 0/0
  2439 ;; Data sizes:     COMRAM   BANK0   BANK1   BANK2   BANK3   BANK4   BANK5   BANK6   BANK7
  2440 ;;      Params:         0       0       0       0       0       0       0       0       0
  2441 ;;      Locals:         1       0       0       0       0       0       0       0       0
  2442 ;;      Temps:          0       0       0       0       0       0       0       0       0
  2443 ;;      Totals:         1       0       0       0       0       0       0       0       0
  2444 ;;Total ram usage:        1 bytes
  2445 ;; Hardware stack levels used:    1
  2446 ;; Hardware stack levels required when called:    2
  2447 ;; This function calls:
  2448 ;;		Nothing
  2449 ;; This function is called by:
  2450 ;;		_scanf
  2451 ;;		_main
  2452 ;; This function uses a non-reentrant model
  2453 ;;
  2454                           
  2455                           	psect	text4
  2456  0011D2                     __ptext4:
  2457                           	opt callstack 0
  2458  0011D2                     _receive:
  2459                           	opt callstack 27
  2460  0011D2                     l47:
  2461                           
  2462                           ;UART.c: 23:     while (PIR1bits.RCIF == 0) {
  2463  0011D2  AA9E               	btfss	158,5,c	;volatile
  2464  0011D4  EFEE  F008         	goto	u91
  2465  0011D8  EFF0  F008         	goto	u90
  2466  0011DC                     u91:
  2467  0011DC  EFE9  F008         	goto	l47
  2468  0011E0                     u90:
  2469  0011E0                     
  2470                           ;UART.c: 26:     recibido = RCREG1;
  2471  0011E0  CFAE F002          	movff	4014,receive@recibido	;volatile
  2472  0011E4                     
  2473                           ;UART.c: 27:     RCREG1 = 0;
  2474  0011E4  0E00               	movlw	0
  2475  0011E6  6EAE               	movwf	174,c	;volatile
  2476                           
  2477                           ;UART.c: 29:     return recibido;
  2478  0011E8  5002               	movf	receive@recibido^0,w,c
  2479  0011EA  0012               	return		;funcret
  2480  0011EC                     __end_of_receive:
  2481                           	opt callstack 0
  2482                           
  2483 ;; *************** function _portInit *****************
  2484 ;; Defined at:
  2485 ;;		line 11 in file "Gpio.c"
  2486 ;; Parameters:    Size  Location     Type
  2487 ;;		None
  2488 ;; Auto vars:     Size  Location     Type
  2489 ;;		None
  2490 ;; Return value:  Size  Location     Type
  2491 ;;                  1    wreg      void 
  2492 ;; Registers used:
  2493 ;;		wreg, status,2
  2494 ;; Tracked objects:
  2495 ;;		On entry : 0/0
  2496 ;;		On exit  : 0/0
  2497 ;;		Unchanged: 0/0
  2498 ;; Data sizes:     COMRAM   BANK0   BANK1   BANK2   BANK3   BANK4   BANK5   BANK6   BANK7
  2499 ;;      Params:         0       0       0       0       0       0       0       0       0
  2500 ;;      Locals:         0       0       0       0       0       0       0       0       0
  2501 ;;      Temps:          0       0       0       0       0       0       0       0       0
  2502 ;;      Totals:         0       0       0       0       0       0       0       0       0
  2503 ;;Total ram usage:        0 bytes
  2504 ;; Hardware stack levels used:    1
  2505 ;; Hardware stack levels required when called:    2
  2506 ;; This function calls:
  2507 ;;		Nothing
  2508 ;; This function is called by:
  2509 ;;		_main
  2510 ;; This function uses a non-reentrant model
  2511 ;;
  2512                           
  2513                           	psect	text5
  2514  001256                     __ptext5:
  2515                           	opt callstack 0
  2516  001256                     _portInit:
  2517                           	opt callstack 28
  2518  001256                     
  2519                           ;Gpio.c: 12: 
  2520  001256  0E0F               	movlw	15
  2521  001258  12C1               	iorwf	193,f,c	;volatile
  2522                           
  2523                           ;Gpio.c: 13:     TRISDbits.RD0 = 0;
  2524  00125A  0E70               	movlw	112
  2525  00125C  6ED3               	movwf	211,c	;volatile
  2526  00125E  0012               	return		;funcret
  2527  001260                     __end_of_portInit:
  2528                           	opt callstack 0
  2529                           
  2530 ;; *************** function _motorYinit *****************
  2531 ;; Defined at:
  2532 ;;		line 31 in file "Gpio.c"
  2533 ;; Parameters:    Size  Location     Type
  2534 ;;		None
  2535 ;; Auto vars:     Size  Location     Type
  2536 ;;		None
  2537 ;; Return value:  Size  Location     Type
  2538 ;;                  1    wreg      void 
  2539 ;; Registers used:
  2540 ;;		None
  2541 ;; Tracked objects:
  2542 ;;		On entry : 0/0
  2543 ;;		On exit  : 0/0
  2544 ;;		Unchanged: 0/0
  2545 ;; Data sizes:     COMRAM   BANK0   BANK1   BANK2   BANK3   BANK4   BANK5   BANK6   BANK7
  2546 ;;      Params:         0       0       0       0       0       0       0       0       0
  2547 ;;      Locals:         0       0       0       0       0       0       0       0       0
  2548 ;;      Temps:          0       0       0       0       0       0       0       0       0
  2549 ;;      Totals:         0       0       0       0       0       0       0       0       0
  2550 ;;Total ram usage:        0 bytes
  2551 ;; Hardware stack levels used:    1
  2552 ;; Hardware stack levels required when called:    2
  2553 ;; This function calls:
  2554 ;;		Nothing
  2555 ;; This function is called by:
  2556 ;;		_main
  2557 ;; This function uses a non-reentrant model
  2558 ;;
  2559                           
  2560                           	psect	text6
  2561  001248                     __ptext6:
  2562                           	opt callstack 0
  2563  001248                     _motorYinit:
  2564                           	opt callstack 28
  2565  001248  9495               	bcf	149,2,c	;volatile
  2566  00124A  9695               	bcf	149,3,c	;volatile
  2567  00124C  9494               	bcf	148,2,c	;volatile
  2568  00124E  948C               	bcf	140,2,c	;volatile
  2569  001250  968C               	bcf	140,3,c	;volatile
  2570  001252  948B               	bcf	139,2,c	;volatile
  2571  001254  0012               	return		;funcret
  2572  001256                     __end_of_motorYinit:
  2573                           	opt callstack 0
  2574                           
  2575 ;; *************** function _motorXinit *****************
  2576 ;; Defined at:
  2577 ;;		line 16 in file "Gpio.c"
  2578 ;; Parameters:    Size  Location     Type
  2579 ;;		None
  2580 ;; Auto vars:     Size  Location     Type
  2581 ;;		None
  2582 ;; Return value:  Size  Location     Type
  2583 ;;                  1    wreg      void 
  2584 ;; Registers used:
  2585 ;;		None
  2586 ;; Tracked objects:
  2587 ;;		On entry : 0/0
  2588 ;;		On exit  : 0/0
  2589 ;;		Unchanged: 0/0
  2590 ;; Data sizes:     COMRAM   BANK0   BANK1   BANK2   BANK3   BANK4   BANK5   BANK6   BANK7
  2591 ;;      Params:         0       0       0       0       0       0       0       0       0
  2592 ;;      Locals:         0       0       0       0       0       0       0       0       0
  2593 ;;      Temps:          0       0       0       0       0       0       0       0       0
  2594 ;;      Totals:         0       0       0       0       0       0       0       0       0
  2595 ;;Total ram usage:        0 bytes
  2596 ;; Hardware stack levels used:    1
  2597 ;; Hardware stack levels required when called:    2
  2598 ;; This function calls:
  2599 ;;		Nothing
  2600 ;; This function is called by:
  2601 ;;		_main
  2602 ;; This function uses a non-reentrant model
  2603 ;;
  2604                           
  2605                           	psect	text7
  2606  00121C                     __ptext7:
  2607                           	opt callstack 0
  2608  00121C                     _motorXinit:
  2609                           	opt callstack 28
  2610  00121C                     
  2611                           ;Gpio.c: 18:     LATCbits.LC1 = 0;
  2612  00121C  9492               	bcf	146,2,c	;volatile
  2613                           
  2614                           ;Gpio.c: 19: }
  2615  00121E  9692               	bcf	146,3,c	;volatile
  2616                           
  2617                           ;Gpio.c: 20: 
  2618  001220  9489               	bcf	137,2,c	;volatile
  2619                           
  2620                           ;Gpio.c: 21: void motorYinit( void ) {
  2621  001222  9689               	bcf	137,3,c	;volatile
  2622                           
  2623                           ;Gpio.c: 23:     TRISDbits.RD2 = 0;
  2624  001224  9095               	bcf	149,0,c	;volatile
  2625                           
  2626                           ;Gpio.c: 24:     TRISDbits.RD3 = 0;
  2627  001226  9295               	bcf	149,1,c	;volatile
  2628                           
  2629                           ;Gpio.c: 25:     TRISCbits.RC2 = 0;
  2630  001228  9294               	bcf	148,1,c	;volatile
  2631                           
  2632                           ;Gpio.c: 26:     LATDbits.LATD2 = 0;
  2633  00122A  908C               	bcf	140,0,c	;volatile
  2634                           
  2635                           ;Gpio.c: 27:     LATDbits.LATD3 = 0;
  2636  00122C  928C               	bcf	140,1,c	;volatile
  2637                           
  2638                           ;Gpio.c: 28:     LATCbits.LATC2 = 0;
  2639  00122E  928B               	bcf	139,1,c	;volatile
  2640  001230  0012               	return		;funcret
  2641  001232                     __end_of_motorXinit:
  2642                           	opt callstack 0
  2643                           
  2644 ;; *************** function _modificarCoordenada *****************
  2645 ;; Defined at:
  2646 ;;		line 81 in file "FuncionesMenu.c"
  2647 ;; Parameters:    Size  Location     Type
  2648 ;;		None
  2649 ;; Auto vars:     Size  Location     Type
  2650 ;;  modCoord        1   25[COMRAM] unsigned char 
  2651 ;;  coordenadaNu    1   24[COMRAM] unsigned char 
  2652 ;; Return value:  Size  Location     Type
  2653 ;;                  1    wreg      void 
  2654 ;; Registers used:
  2655 ;;		wreg, fsr2l, fsr2h, status,2, status,0, tblptrl, tblptrh, tblptru, prodl, prodh, cstack
  2656 ;; Tracked objects:
  2657 ;;		On entry : 0/0
  2658 ;;		On exit  : 0/0
  2659 ;;		Unchanged: 0/0
  2660 ;; Data sizes:     COMRAM   BANK0   BANK1   BANK2   BANK3   BANK4   BANK5   BANK6   BANK7
  2661 ;;      Params:         0       0       0       0       0       0       0       0       0
  2662 ;;      Locals:         2       0       0       0       0       0       0       0       0
  2663 ;;      Temps:          7       0       0       0       0       0       0       0       0
  2664 ;;      Totals:         9       0       0       0       0       0       0       0       0
  2665 ;;Total ram usage:        9 bytes
  2666 ;; Hardware stack levels used:    1
  2667 ;; Hardware stack levels required when called:    6
  2668 ;; This function calls:
  2669 ;;		_imprimirCoordenadas
  2670 ;;		_introducirCoordNueva
  2671 ;;		_printf
  2672 ;;		_receiveNum
  2673 ;;		_send
  2674 ;; This function is called by:
  2675 ;;		_main
  2676 ;; This function uses a non-reentrant model
  2677 ;;
  2678                           
  2679                           	psect	text8
  2680  000FA6                     __ptext8:
  2681                           	opt callstack 0
  2682  000FA6                     _modificarCoordenada:
  2683                           	opt callstack 24
  2684  000FA6                     
  2685                           ;FuncionesMenu.c: 82:     habilitarModCoord = 1;
  2686  000FA6  0E01               	movlw	1
  2687  000FA8  6E5A               	movwf	_habilitarModCoord^0,c
  2688                           
  2689                           ;FuncionesMenu.c: 83:     uint8_t modCoord, coordenadaNuevaCopia;;FuncionesMenu.c: 84:  
      +                             habilitarModCoord = 1;
  2690  000FAA  0E01               	movlw	1
  2691  000FAC  6E5A               	movwf	_habilitarModCoord^0,c
  2692  000FAE                     
  2693                           ;FuncionesMenu.c: 85:     imprimirCoordenadas();
  2694  000FAE  ECB2  F005         	call	_imprimirCoordenadas	;wreg free
  2695  000FB2                     
  2696                           ;FuncionesMenu.c: 86:     printf("Cual de estas coordenadas quieres modificar?\n");
  2697  000FB2  0E14               	movlw	low STR_14
  2698  000FB4  6E03               	movwf	printf@PointString^0,c
  2699  000FB6  0E7E               	movlw	high STR_14
  2700  000FB8  6E04               	movwf	(printf@PointString+1)^0,c
  2701  000FBA  EC61  F008         	call	_printf	;wreg free
  2702  000FBE                     
  2703                           ;FuncionesMenu.c: 87:     modCoord = receiveNum();
  2704  000FBE  EC2A  F008         	call	_receiveNum	;wreg free
  2705  000FC2  6E1A               	movwf	modificarCoordenada@modCoord^0,c
  2706                           
  2707                           ;FuncionesMenu.c: 88:     while ((modCoord - 48) >= coordenadaNueva) {
  2708  000FC4  EFF3  F007         	goto	l2103
  2709  000FC8                     l2101:
  2710                           
  2711                           ;FuncionesMenu.c: 89:         printf("Error, estas queriendo modificar una coordenada qu
      +                          e aun no agregas\n");
  2712  000FC8  0E5B               	movlw	low STR_15
  2713  000FCA  6E03               	movwf	printf@PointString^0,c
  2714  000FCC  0E7C               	movlw	high STR_15
  2715  000FCE  6E04               	movwf	(printf@PointString+1)^0,c
  2716  000FD0  EC61  F008         	call	_printf	;wreg free
  2717                           
  2718                           ;FuncionesMenu.c: 90:         printf("Cual coordenada quieres modificar, elige valores v
      +                          alidos?\n");
  2719  000FD4  0E9F               	movlw	low STR_16
  2720  000FD6  6E03               	movwf	printf@PointString^0,c
  2721  000FD8  0E7C               	movlw	high STR_16
  2722  000FDA  6E04               	movwf	(printf@PointString+1)^0,c
  2723  000FDC  EC61  F008         	call	_printf	;wreg free
  2724                           
  2725                           ;FuncionesMenu.c: 91:         modCoord = receiveNum();
  2726  000FE0  EC2A  F008         	call	_receiveNum	;wreg free
  2727  000FE4  6E1A               	movwf	modificarCoordenada@modCoord^0,c
  2728  000FE6                     l2103:
  2729                           
  2730                           ;FuncionesMenu.c: 88:     while ((modCoord - 48) >= coordenadaNueva) {
  2731  000FE6  505B               	movf	_coordenadaNueva^0,w,c
  2732  000FE8  6E12               	movwf	??_modificarCoordenada^0,c
  2733  000FEA  6A13               	clrf	(??_modificarCoordenada+1)^0,c
  2734  000FEC  0ED0               	movlw	208
  2735  000FEE  6E14               	movwf	(??_modificarCoordenada+2)^0,c
  2736  000FF0  0EFF               	movlw	255
  2737  000FF2  6E15               	movwf	(??_modificarCoordenada+3)^0,c
  2738  000FF4  501A               	movf	modificarCoordenada@modCoord^0,w,c
  2739  000FF6  6E16               	movwf	(??_modificarCoordenada+4)^0,c
  2740  000FF8  6A17               	clrf	(??_modificarCoordenada+5)^0,c
  2741  000FFA  5014               	movf	(??_modificarCoordenada+2)^0,w,c
  2742  000FFC  2616               	addwf	(??_modificarCoordenada+4)^0,f,c
  2743  000FFE  5015               	movf	(??_modificarCoordenada+3)^0,w,c
  2744  001000  2217               	addwfc	(??_modificarCoordenada+5)^0,f,c
  2745  001002  5012               	movf	??_modificarCoordenada^0,w,c
  2746  001004  5C16               	subwf	(??_modificarCoordenada+4)^0,w,c
  2747  001006  5017               	movf	(??_modificarCoordenada+5)^0,w,c
  2748  001008  0A80               	xorlw	128
  2749  00100A  6E18               	movwf	(??_modificarCoordenada+6)^0,c
  2750  00100C  5013               	movf	(??_modificarCoordenada+1)^0,w,c
  2751  00100E  0A80               	xorlw	128
  2752  001010  5818               	subwfb	(??_modificarCoordenada+6)^0,w,c
  2753  001012  B0D8               	btfsc	status,0,c
  2754  001014  EF0E  F008         	goto	u1271
  2755  001018  EF10  F008         	goto	u1270
  2756  00101C                     u1271:
  2757  00101C  EFE4  F007         	goto	l2101
  2758  001020                     u1270:
  2759  001020                     
  2760                           ;FuncionesMenu.c: 93:     printf("Vas a modificar la coordenada ");
  2761  001020  0E49               	movlw	low STR_17
  2762  001022  6E03               	movwf	printf@PointString^0,c
  2763  001024  0E7F               	movlw	high STR_17
  2764  001026  6E04               	movwf	(printf@PointString+1)^0,c
  2765  001028  EC61  F008         	call	_printf	;wreg free
  2766  00102C                     
  2767                           ;FuncionesMenu.c: 94:     send(modCoord);
  2768  00102C  501A               	movf	modificarCoordenada@modCoord^0,w,c
  2769  00102E  EC19  F009         	call	_send
  2770  001032                     
  2771                           ;FuncionesMenu.c: 95:     send('\n');
  2772  001032  0E0A               	movlw	10
  2773  001034  EC19  F009         	call	_send
  2774  001038                     
  2775                           ;FuncionesMenu.c: 96:     modCoord = modCoord - 48;
  2776  001038  501A               	movf	modificarCoordenada@modCoord^0,w,c
  2777  00103A  0FD0               	addlw	208
  2778  00103C  6E1A               	movwf	modificarCoordenada@modCoord^0,c
  2779  00103E                     
  2780                           ;FuncionesMenu.c: 97:     coordenadaNuevaCopia = coordenadaNueva;
  2781  00103E  C05B  F019         	movff	_coordenadaNueva,modificarCoordenada@coordenadaNuevaCopia
  2782  001042                     
  2783                           ;FuncionesMenu.c: 98:     coordenadaNueva = modCoord;
  2784  001042  C01A  F05B         	movff	modificarCoordenada@modCoord,_coordenadaNueva
  2785  001046                     
  2786                           ;FuncionesMenu.c: 99:     introducirCoordNueva();
  2787  001046  EC2B  F002         	call	_introducirCoordNueva	;wreg free
  2788  00104A                     
  2789                           ;FuncionesMenu.c: 100:     coordenadaNueva = coordenadaNuevaCopia;
  2790  00104A  C019  F05B         	movff	modificarCoordenada@coordenadaNuevaCopia,_coordenadaNueva
  2791  00104E                     
  2792                           ;FuncionesMenu.c: 101:     habilitarModCoord = 0;
  2793  00104E  0E00               	movlw	0
  2794  001050  6E5A               	movwf	_habilitarModCoord^0,c
  2795  001052  0012               	return		;funcret
  2796  001054                     __end_of_modificarCoordenada:
  2797                           	opt callstack 0
  2798                           
  2799 ;; *************** function _introducirCoordNueva *****************
  2800 ;; Defined at:
  2801 ;;		line 8 in file "FuncionesMenu.c"
  2802 ;; Parameters:    Size  Location     Type
  2803 ;;		None
  2804 ;; Auto vars:     Size  Location     Type
  2805 ;;  validarCoord    2   15[COMRAM] unsigned short 
  2806 ;;  validarCoord    2   13[COMRAM] unsigned short 
  2807 ;; Return value:  Size  Location     Type
  2808 ;;                  1    wreg      void 
  2809 ;; Registers used:
  2810 ;;		wreg, fsr2l, fsr2h, status,2, status,0, tblptrl, tblptrh, tblptru, prodl, prodh, cstack
  2811 ;; Tracked objects:
  2812 ;;		On entry : 0/0
  2813 ;;		On exit  : 0/0
  2814 ;;		Unchanged: 0/0
  2815 ;; Data sizes:     COMRAM   BANK0   BANK1   BANK2   BANK3   BANK4   BANK5   BANK6   BANK7
  2816 ;;      Params:         0       0       0       0       0       0       0       0       0
  2817 ;;      Locals:         4       0       0       0       0       0       0       0       0
  2818 ;;      Temps:          5       0       0       0       0       0       0       0       0
  2819 ;;      Totals:         9       0       0       0       0       0       0       0       0
  2820 ;;Total ram usage:        9 bytes
  2821 ;; Hardware stack levels used:    1
  2822 ;; Hardware stack levels required when called:    5
  2823 ;; This function calls:
  2824 ;;		_printf
  2825 ;;		_receiveNum
  2826 ;;		_send
  2827 ;; This function is called by:
  2828 ;;		_modificarCoordenada
  2829 ;;		_main
  2830 ;; This function uses a non-reentrant model
  2831 ;;
  2832                           
  2833                           	psect	text9
  2834  000456                     __ptext9:
  2835                           	opt callstack 0
  2836  000456                     _introducirCoordNueva:
  2837                           	opt callstack 24
  2838  000456                     
  2839                           ;FuncionesMenu.c: 10:     uint16_t validarCoordY = 0;
  2840  000456  0E00               	movlw	0
  2841  000458  6E11               	movwf	(introducirCoordNueva@validarCoordY+1)^0,c
  2842  00045A  0E00               	movlw	0
  2843  00045C  6E10               	movwf	introducirCoordNueva@validarCoordY^0,c
  2844  00045E                     
  2845                           ;FuncionesMenu.c: 11:     if ((coordenadaNueva < 10) || (habilitarModCoord == 1)) {
  2846  00045E  0E09               	movlw	9
  2847  000460  645B               	cpfsgt	_coordenadaNueva^0,c
  2848  000462  EF35  F002         	goto	u841
  2849  000466  EF37  F002         	goto	u840
  2850  00046A                     u841:
  2851  00046A  EF3F  F002         	goto	l1741
  2852  00046E                     u840:
  2853  00046E  045A               	decf	_habilitarModCoord^0,w,c
  2854  000470  A4D8               	btfss	status,2,c
  2855  000472  EF3D  F002         	goto	u851
  2856  000476  EF3F  F002         	goto	u850
  2857  00047A                     u851:
  2858  00047A  EF97  F003         	goto	l1803
  2859  00047E                     u850:
  2860  00047E                     l1741:
  2861                           
  2862                           ;FuncionesMenu.c: 13:         printf("Introduce en el siguiente orden las variables a us
      +                          ar (no uses las comas): coordX,coordY,# de veces a presionar Z");
  2863  00047E  0E9F               	movlw	low STR_2
  2864  000480  6E03               	movwf	printf@PointString^0,c
  2865  000482  0E7B               	movlw	high STR_2
  2866  000484  6E04               	movwf	(printf@PointString+1)^0,c
  2867  000486  EC61  F008         	call	_printf	;wreg free
  2868  00048A                     
  2869                           ;FuncionesMenu.c: 14:         coordXCentenas[coordenadaNueva] = receiveNum();
  2870  00048A  0E47               	movlw	low _coordXCentenas
  2871  00048C  245B               	addwf	_coordenadaNueva^0,w,c
  2872  00048E  6ED9               	movwf	fsr2l,c
  2873  000490  6ADA               	clrf	fsr2h,c
  2874  000492  0E00               	movlw	high _coordXCentenas
  2875  000494  22DA               	addwfc	fsr2h,f,c
  2876  000496  EC2A  F008         	call	_receiveNum	;wreg free
  2877  00049A  6EDF               	movwf	indf2,c
  2878  00049C                     
  2879                           ;FuncionesMenu.c: 15:         coordXDecenas[coordenadaNueva] = receiveNum();
  2880  00049C  0EA6               	movlw	low _coordXDecenas
  2881  00049E  245B               	addwf	_coordenadaNueva^0,w,c
  2882  0004A0  6ED9               	movwf	fsr2l,c
  2883  0004A2  6ADA               	clrf	fsr2h,c
  2884  0004A4  0E00               	movlw	high _coordXDecenas
  2885  0004A6  22DA               	addwfc	fsr2h,f,c
  2886  0004A8  EC2A  F008         	call	_receiveNum	;wreg free
  2887  0004AC  6EDF               	movwf	indf2,c
  2888  0004AE                     
  2889                           ;FuncionesMenu.c: 16:         coordXUnidades[coordenadaNueva] = receiveNum();
  2890  0004AE  0E9C               	movlw	low _coordXUnidades
  2891  0004B0  245B               	addwf	_coordenadaNueva^0,w,c
  2892  0004B2  6ED9               	movwf	fsr2l,c
  2893  0004B4  6ADA               	clrf	fsr2h,c
  2894  0004B6  0E00               	movlw	high _coordXUnidades
  2895  0004B8  22DA               	addwfc	fsr2h,f,c
  2896  0004BA  EC2A  F008         	call	_receiveNum	;wreg free
  2897  0004BE  6EDF               	movwf	indf2,c
  2898  0004C0                     
  2899                           ;FuncionesMenu.c: 17:         printf("Recibi coordX");
  2900  0004C0  0E97               	movlw	low STR_3
  2901  0004C2  6E03               	movwf	printf@PointString^0,c
  2902  0004C4  0E7F               	movlw	high STR_3
  2903  0004C6  6E04               	movwf	(printf@PointString+1)^0,c
  2904  0004C8  EC61  F008         	call	_printf	;wreg free
  2905                           
  2906                           ;FuncionesMenu.c: 18:         coordYCentenas[coordenadaNueva] = receiveNum();
  2907  0004CC  0E92               	movlw	low _coordYCentenas
  2908  0004CE  245B               	addwf	_coordenadaNueva^0,w,c
  2909  0004D0  6ED9               	movwf	fsr2l,c
  2910  0004D2  6ADA               	clrf	fsr2h,c
  2911  0004D4  0E00               	movlw	high _coordYCentenas
  2912  0004D6  22DA               	addwfc	fsr2h,f,c
  2913  0004D8  EC2A  F008         	call	_receiveNum	;wreg free
  2914  0004DC  6EDF               	movwf	indf2,c
  2915                           
  2916                           ;FuncionesMenu.c: 19:         coordYDecenas[coordenadaNueva] = receiveNum();
  2917  0004DE  0E88               	movlw	low _coordYDecenas
  2918  0004E0  245B               	addwf	_coordenadaNueva^0,w,c
  2919  0004E2  6ED9               	movwf	fsr2l,c
  2920  0004E4  6ADA               	clrf	fsr2h,c
  2921  0004E6  0E00               	movlw	high _coordYDecenas
  2922  0004E8  22DA               	addwfc	fsr2h,f,c
  2923  0004EA  EC2A  F008         	call	_receiveNum	;wreg free
  2924  0004EE  6EDF               	movwf	indf2,c
  2925                           
  2926                           ;FuncionesMenu.c: 20:         coordYUnidades[coordenadaNueva] = receiveNum();
  2927  0004F0  0E7E               	movlw	low _coordYUnidades
  2928  0004F2  245B               	addwf	_coordenadaNueva^0,w,c
  2929  0004F4  6ED9               	movwf	fsr2l,c
  2930  0004F6  6ADA               	clrf	fsr2h,c
  2931  0004F8  0E00               	movlw	high _coordYUnidades
  2932  0004FA  22DA               	addwfc	fsr2h,f,c
  2933  0004FC  EC2A  F008         	call	_receiveNum	;wreg free
  2934  000500  6EDF               	movwf	indf2,c
  2935  000502                     
  2936                           ;FuncionesMenu.c: 21:         printf("Recibi coordY");
  2937  000502  0EA5               	movlw	low STR_4
  2938  000504  6E03               	movwf	printf@PointString^0,c
  2939  000506  0E7F               	movlw	high STR_4
  2940  000508  6E04               	movwf	(printf@PointString+1)^0,c
  2941  00050A  EC61  F008         	call	_printf	;wreg free
  2942  00050E                     
  2943                           ;FuncionesMenu.c: 22:         presionarZCentenas[coordenadaNueva] = receiveNum();
  2944  00050E  0E74               	movlw	low _presionarZCentenas
  2945  000510  245B               	addwf	_coordenadaNueva^0,w,c
  2946  000512  6ED9               	movwf	fsr2l,c
  2947  000514  6ADA               	clrf	fsr2h,c
  2948  000516  0E00               	movlw	high _presionarZCentenas
  2949  000518  22DA               	addwfc	fsr2h,f,c
  2950  00051A  EC2A  F008         	call	_receiveNum	;wreg free
  2951  00051E  6EDF               	movwf	indf2,c
  2952  000520                     
  2953                           ;FuncionesMenu.c: 23:         presionarZDecenas[coordenadaNueva] = receiveNum();
  2954  000520  0E6A               	movlw	low _presionarZDecenas
  2955  000522  245B               	addwf	_coordenadaNueva^0,w,c
  2956  000524  6ED9               	movwf	fsr2l,c
  2957  000526  6ADA               	clrf	fsr2h,c
  2958  000528  0E00               	movlw	high _presionarZDecenas
  2959  00052A  22DA               	addwfc	fsr2h,f,c
  2960  00052C  EC2A  F008         	call	_receiveNum	;wreg free
  2961  000530  6EDF               	movwf	indf2,c
  2962  000532                     
  2963                           ;FuncionesMenu.c: 24:         presionarZUnidades[coordenadaNueva] = receiveNum();
  2964  000532  0E60               	movlw	low _presionarZUnidades
  2965  000534  245B               	addwf	_coordenadaNueva^0,w,c
  2966  000536  6ED9               	movwf	fsr2l,c
  2967  000538  6ADA               	clrf	fsr2h,c
  2968  00053A  0E00               	movlw	high _presionarZUnidades
  2969  00053C  22DA               	addwfc	fsr2h,f,c
  2970  00053E  EC2A  F008         	call	_receiveNum	;wreg free
  2971  000542  6EDF               	movwf	indf2,c
  2972                           
  2973                           ;FuncionesMenu.c: 25:         printf("Recibi # de veces a presionar Z\n");
  2974  000544  0EE7               	movlw	low STR_5
  2975  000546  6E03               	movwf	printf@PointString^0,c
  2976  000548  0E7E               	movlw	high STR_5
  2977  00054A  6E04               	movwf	(printf@PointString+1)^0,c
  2978  00054C  EC61  F008         	call	_printf	;wreg free
  2979  000550                     
  2980                           ;FuncionesMenu.c: 26:         validarCoordX = ((coordXCentenas[coordenadaNueva] - 48)*10
      +                          0)+((coordXDecenas[coordenadaNueva] - 48)*10)+(coordXUnidades[coordenadaNueva] - 48);
  2981  000550  0E47               	movlw	low _coordXCentenas
  2982  000552  245B               	addwf	_coordenadaNueva^0,w,c
  2983  000554  6ED9               	movwf	fsr2l,c
  2984  000556  6ADA               	clrf	fsr2h,c
  2985  000558  0E00               	movlw	high _coordXCentenas
  2986  00055A  22DA               	addwfc	fsr2h,f,c
  2987  00055C  50DF               	movf	indf2,w,c
  2988  00055E  6E09               	movwf	??_introducirCoordNueva^0,c
  2989  000560  5009               	movf	??_introducirCoordNueva^0,w,c
  2990  000562  0D64               	mullw	100
  2991  000564  CFF3 F00A          	movff	prodl,??_introducirCoordNueva+1
  2992  000568  CFF4 F00B          	movff	prodh,??_introducirCoordNueva+2
  2993  00056C  0EA6               	movlw	low _coordXDecenas
  2994  00056E  245B               	addwf	_coordenadaNueva^0,w,c
  2995  000570  6ED9               	movwf	fsr2l,c
  2996  000572  6ADA               	clrf	fsr2h,c
  2997  000574  0E00               	movlw	high _coordXDecenas
  2998  000576  22DA               	addwfc	fsr2h,f,c
  2999  000578  50DF               	movf	indf2,w,c
  3000  00057A  6E0C               	movwf	(??_introducirCoordNueva+3)^0,c
  3001  00057C  500C               	movf	(??_introducirCoordNueva+3)^0,w,c
  3002  00057E  0D0A               	mullw	10
  3003  000580  50F3               	movf	243,w,c
  3004  000582  260A               	addwf	(??_introducirCoordNueva+1)^0,f,c
  3005  000584  50F4               	movf	244,w,c
  3006  000586  220B               	addwfc	(??_introducirCoordNueva+2)^0,f,c
  3007  000588  0E9C               	movlw	low _coordXUnidades
  3008  00058A  245B               	addwf	_coordenadaNueva^0,w,c
  3009  00058C  6ED9               	movwf	fsr2l,c
  3010  00058E  6ADA               	clrf	fsr2h,c
  3011  000590  0E00               	movlw	high _coordXUnidades
  3012  000592  22DA               	addwfc	fsr2h,f,c
  3013  000594  50DF               	movf	indf2,w,c
  3014  000596  6E0D               	movwf	(??_introducirCoordNueva+4)^0,c
  3015  000598  500D               	movf	(??_introducirCoordNueva+4)^0,w,c
  3016  00059A  260A               	addwf	(??_introducirCoordNueva+1)^0,f,c
  3017  00059C  0E00               	movlw	0
  3018  00059E  220B               	addwfc	(??_introducirCoordNueva+2)^0,f,c
  3019  0005A0  0E30               	movlw	48
  3020  0005A2  240A               	addwf	(??_introducirCoordNueva+1)^0,w,c
  3021  0005A4  6E0E               	movwf	introducirCoordNueva@validarCoordX^0,c
  3022  0005A6  0EEB               	movlw	235
  3023  0005A8  200B               	addwfc	(??_introducirCoordNueva+2)^0,w,c
  3024  0005AA  6E0F               	movwf	(introducirCoordNueva@validarCoordX+1)^0,c
  3025  0005AC                     
  3026                           ;FuncionesMenu.c: 27:         validarCoordY = ((coordYCentenas[coordenadaNueva] - 48)*10
      +                          0)+((coordYDecenas[coordenadaNueva] - 48)*10)+(coordYUnidades[coordenadaNueva] - 48);
  3027  0005AC  0E92               	movlw	low _coordYCentenas
  3028  0005AE  245B               	addwf	_coordenadaNueva^0,w,c
  3029  0005B0  6ED9               	movwf	fsr2l,c
  3030  0005B2  6ADA               	clrf	fsr2h,c
  3031  0005B4  0E00               	movlw	high _coordYCentenas
  3032  0005B6  22DA               	addwfc	fsr2h,f,c
  3033  0005B8  50DF               	movf	indf2,w,c
  3034  0005BA  6E09               	movwf	??_introducirCoordNueva^0,c
  3035  0005BC  5009               	movf	??_introducirCoordNueva^0,w,c
  3036  0005BE  0D64               	mullw	100
  3037  0005C0  CFF3 F00A          	movff	prodl,??_introducirCoordNueva+1
  3038  0005C4  CFF4 F00B          	movff	prodh,??_introducirCoordNueva+2
  3039  0005C8  0E88               	movlw	low _coordYDecenas
  3040  0005CA  245B               	addwf	_coordenadaNueva^0,w,c
  3041  0005CC  6ED9               	movwf	fsr2l,c
  3042  0005CE  6ADA               	clrf	fsr2h,c
  3043  0005D0  0E00               	movlw	high _coordYDecenas
  3044  0005D2  22DA               	addwfc	fsr2h,f,c
  3045  0005D4  50DF               	movf	indf2,w,c
  3046  0005D6  6E0C               	movwf	(??_introducirCoordNueva+3)^0,c
  3047  0005D8  500C               	movf	(??_introducirCoordNueva+3)^0,w,c
  3048  0005DA  0D0A               	mullw	10
  3049  0005DC  50F3               	movf	243,w,c
  3050  0005DE  260A               	addwf	(??_introducirCoordNueva+1)^0,f,c
  3051  0005E0  50F4               	movf	244,w,c
  3052  0005E2  220B               	addwfc	(??_introducirCoordNueva+2)^0,f,c
  3053  0005E4  0E7E               	movlw	low _coordYUnidades
  3054  0005E6  245B               	addwf	_coordenadaNueva^0,w,c
  3055  0005E8  6ED9               	movwf	fsr2l,c
  3056  0005EA  6ADA               	clrf	fsr2h,c
  3057  0005EC  0E00               	movlw	high _coordYUnidades
  3058  0005EE  22DA               	addwfc	fsr2h,f,c
  3059  0005F0  50DF               	movf	indf2,w,c
  3060  0005F2  6E0D               	movwf	(??_introducirCoordNueva+4)^0,c
  3061  0005F4  500D               	movf	(??_introducirCoordNueva+4)^0,w,c
  3062  0005F6  260A               	addwf	(??_introducirCoordNueva+1)^0,f,c
  3063  0005F8  0E00               	movlw	0
  3064  0005FA  220B               	addwfc	(??_introducirCoordNueva+2)^0,f,c
  3065  0005FC  0E30               	movlw	48
  3066  0005FE  240A               	addwf	(??_introducirCoordNueva+1)^0,w,c
  3067  000600  6E10               	movwf	introducirCoordNueva@validarCoordY^0,c
  3068  000602  0EEB               	movlw	235
  3069  000604  200B               	addwfc	(??_introducirCoordNueva+2)^0,w,c
  3070  000606  6E11               	movwf	(introducirCoordNueva@validarCoordY+1)^0,c
  3071  000608                     
  3072                           ;FuncionesMenu.c: 28:         if ((validarCoordX > 300) || (validarCoordY > 300)) {
  3073  000608  0E2D               	movlw	45
  3074  00060A  5C0E               	subwf	introducirCoordNueva@validarCoordX^0,w,c
  3075  00060C  0E01               	movlw	1
  3076  00060E  580F               	subwfb	(introducirCoordNueva@validarCoordX+1)^0,w,c
  3077  000610  B0D8               	btfsc	status,0,c
  3078  000612  EF0D  F003         	goto	u861
  3079  000616  EF0F  F003         	goto	u860
  3080  00061A                     u861:
  3081  00061A  EF1A  F003         	goto	l1767
  3082  00061E                     u860:
  3083  00061E  0E2D               	movlw	45
  3084  000620  5C10               	subwf	introducirCoordNueva@validarCoordY^0,w,c
  3085  000622  0E01               	movlw	1
  3086  000624  5811               	subwfb	(introducirCoordNueva@validarCoordY+1)^0,w,c
  3087  000626  A0D8               	btfss	status,0,c
  3088  000628  EF18  F003         	goto	u871
  3089  00062C  EF1A  F003         	goto	u870
  3090  000630                     u871:
  3091  000630  EF22  F003         	goto	l1769
  3092  000634                     u870:
  3093  000634                     l1767:
  3094                           
  3095                           ;FuncionesMenu.c: 29:             printf("Metiste una coordenada invalida\n");
  3096  000634  0E08               	movlw	low STR_6
  3097  000636  6E03               	movwf	printf@PointString^0,c
  3098  000638  0E7F               	movlw	high STR_6
  3099  00063A  6E04               	movwf	(printf@PointString+1)^0,c
  3100  00063C  EC61  F008         	call	_printf	;wreg free
  3101                           
  3102                           ;FuncionesMenu.c: 30:             goto corregirCoord;
  3103  000640  EF3F  F002         	goto	l1741
  3104  000644                     l1769:
  3105                           
  3106                           ;FuncionesMenu.c: 32:         printf("Coordenada recibida, lo que recibimos fue:");
  3107  000644  0E6E               	movlw	low STR_7
  3108  000646  6E03               	movwf	printf@PointString^0,c
  3109  000648  0E7E               	movlw	high STR_7
  3110  00064A  6E04               	movwf	(printf@PointString+1)^0,c
  3111  00064C  EC61  F008         	call	_printf	;wreg free
  3112  000650                     
  3113                           ;FuncionesMenu.c: 33:         send(coordXCentenas[coordenadaNueva]);
  3114  000650  0E47               	movlw	low _coordXCentenas
  3115  000652  245B               	addwf	_coordenadaNueva^0,w,c
  3116  000654  6ED9               	movwf	fsr2l,c
  3117  000656  6ADA               	clrf	fsr2h,c
  3118  000658  0E00               	movlw	high _coordXCentenas
  3119  00065A  22DA               	addwfc	fsr2h,f,c
  3120  00065C  50DF               	movf	indf2,w,c
  3121  00065E  EC19  F009         	call	_send
  3122  000662                     
  3123                           ;FuncionesMenu.c: 34:         send(coordXDecenas[coordenadaNueva]);
  3124  000662  0EA6               	movlw	low _coordXDecenas
  3125  000664  245B               	addwf	_coordenadaNueva^0,w,c
  3126  000666  6ED9               	movwf	fsr2l,c
  3127  000668  6ADA               	clrf	fsr2h,c
  3128  00066A  0E00               	movlw	high _coordXDecenas
  3129  00066C  22DA               	addwfc	fsr2h,f,c
  3130  00066E  50DF               	movf	indf2,w,c
  3131  000670  EC19  F009         	call	_send
  3132  000674                     
  3133                           ;FuncionesMenu.c: 35:         send(coordXUnidades[coordenadaNueva]);
  3134  000674  0E9C               	movlw	low _coordXUnidades
  3135  000676  245B               	addwf	_coordenadaNueva^0,w,c
  3136  000678  6ED9               	movwf	fsr2l,c
  3137  00067A  6ADA               	clrf	fsr2h,c
  3138  00067C  0E00               	movlw	high _coordXUnidades
  3139  00067E  22DA               	addwfc	fsr2h,f,c
  3140  000680  50DF               	movf	indf2,w,c
  3141  000682  EC19  F009         	call	_send
  3142  000686                     
  3143                           ;FuncionesMenu.c: 36:         send(',');
  3144  000686  0E2C               	movlw	44
  3145  000688  EC19  F009         	call	_send
  3146  00068C                     
  3147                           ;FuncionesMenu.c: 37:         send(coordYCentenas[coordenadaNueva]);
  3148  00068C  0E92               	movlw	low _coordYCentenas
  3149  00068E  245B               	addwf	_coordenadaNueva^0,w,c
  3150  000690  6ED9               	movwf	fsr2l,c
  3151  000692  6ADA               	clrf	fsr2h,c
  3152  000694  0E00               	movlw	high _coordYCentenas
  3153  000696  22DA               	addwfc	fsr2h,f,c
  3154  000698  50DF               	movf	indf2,w,c
  3155  00069A  EC19  F009         	call	_send
  3156  00069E                     
  3157                           ;FuncionesMenu.c: 38:         send(coordYDecenas[coordenadaNueva]);
  3158  00069E  0E88               	movlw	low _coordYDecenas
  3159  0006A0  245B               	addwf	_coordenadaNueva^0,w,c
  3160  0006A2  6ED9               	movwf	fsr2l,c
  3161  0006A4  6ADA               	clrf	fsr2h,c
  3162  0006A6  0E00               	movlw	high _coordYDecenas
  3163  0006A8  22DA               	addwfc	fsr2h,f,c
  3164  0006AA  50DF               	movf	indf2,w,c
  3165  0006AC  EC19  F009         	call	_send
  3166  0006B0                     
  3167                           ;FuncionesMenu.c: 39:         send(coordYUnidades[coordenadaNueva]);
  3168  0006B0  0E7E               	movlw	low _coordYUnidades
  3169  0006B2  245B               	addwf	_coordenadaNueva^0,w,c
  3170  0006B4  6ED9               	movwf	fsr2l,c
  3171  0006B6  6ADA               	clrf	fsr2h,c
  3172  0006B8  0E00               	movlw	high _coordYUnidades
  3173  0006BA  22DA               	addwfc	fsr2h,f,c
  3174  0006BC  50DF               	movf	indf2,w,c
  3175  0006BE  EC19  F009         	call	_send
  3176  0006C2                     
  3177                           ;FuncionesMenu.c: 40:         send(',');
  3178  0006C2  0E2C               	movlw	44
  3179  0006C4  EC19  F009         	call	_send
  3180  0006C8                     
  3181                           ;FuncionesMenu.c: 41:         send(presionarZCentenas[coordenadaNueva]);
  3182  0006C8  0E74               	movlw	low _presionarZCentenas
  3183  0006CA  245B               	addwf	_coordenadaNueva^0,w,c
  3184  0006CC  6ED9               	movwf	fsr2l,c
  3185  0006CE  6ADA               	clrf	fsr2h,c
  3186  0006D0  0E00               	movlw	high _presionarZCentenas
  3187  0006D2  22DA               	addwfc	fsr2h,f,c
  3188  0006D4  50DF               	movf	indf2,w,c
  3189  0006D6  EC19  F009         	call	_send
  3190  0006DA                     
  3191                           ;FuncionesMenu.c: 42:         send(presionarZDecenas[coordenadaNueva]);
  3192  0006DA  0E6A               	movlw	low _presionarZDecenas
  3193  0006DC  245B               	addwf	_coordenadaNueva^0,w,c
  3194  0006DE  6ED9               	movwf	fsr2l,c
  3195  0006E0  6ADA               	clrf	fsr2h,c
  3196  0006E2  0E00               	movlw	high _presionarZDecenas
  3197  0006E4  22DA               	addwfc	fsr2h,f,c
  3198  0006E6  50DF               	movf	indf2,w,c
  3199  0006E8  EC19  F009         	call	_send
  3200  0006EC                     
  3201                           ;FuncionesMenu.c: 43:         send(presionarZUnidades[coordenadaNueva]);
  3202  0006EC  0E60               	movlw	low _presionarZUnidades
  3203  0006EE  245B               	addwf	_coordenadaNueva^0,w,c
  3204  0006F0  6ED9               	movwf	fsr2l,c
  3205  0006F2  6ADA               	clrf	fsr2h,c
  3206  0006F4  0E00               	movlw	high _presionarZUnidades
  3207  0006F6  22DA               	addwfc	fsr2h,f,c
  3208  0006F8  50DF               	movf	indf2,w,c
  3209  0006FA  EC19  F009         	call	_send
  3210  0006FE                     
  3211                           ;FuncionesMenu.c: 44:         send('.');
  3212  0006FE  0E2E               	movlw	46
  3213  000700  EC19  F009         	call	_send
  3214  000704                     
  3215                           ;FuncionesMenu.c: 45:         if (habilitarModCoord == 0) {
  3216  000704  505A               	movf	_habilitarModCoord^0,w,c
  3217  000706  A4D8               	btfss	status,2,c
  3218  000708  EF88  F003         	goto	u881
  3219  00070C  EF8A  F003         	goto	u880
  3220  000710                     u881:
  3221  000710  EF9D  F003         	goto	l249
  3222  000714                     u880:
  3223  000714                     
  3224                           ;FuncionesMenu.c: 46:             printf("Has agregado este numero de coordenadas:");
  3225  000714  0E99               	movlw	low STR_8
  3226  000716  6E03               	movwf	printf@PointString^0,c
  3227  000718  0E7E               	movlw	high STR_8
  3228  00071A  6E04               	movwf	(printf@PointString+1)^0,c
  3229  00071C  EC61  F008         	call	_printf	;wreg free
  3230  000720                     
  3231                           ;FuncionesMenu.c: 47:             coordenadaNueva++;
  3232  000720  2A5B               	incf	_coordenadaNueva^0,f,c
  3233  000722                     
  3234                           ;FuncionesMenu.c: 48:             send(coordenadaNueva + 48);
  3235  000722  505B               	movf	_coordenadaNueva^0,w,c
  3236  000724  0F30               	addlw	48
  3237  000726  EC19  F009         	call	_send
  3238  00072A  EF9D  F003         	goto	l249
  3239  00072E                     l1803:
  3240                           
  3241                           ;FuncionesMenu.c: 51:         printf("Ya estan las 10 coordenadas llenas, no puedes agre
      +                          gar mas");
  3242  00072E  0EDA               	movlw	low STR_9
  3243  000730  6E03               	movwf	printf@PointString^0,c
  3244  000732  0E7C               	movlw	high STR_9
  3245  000734  6E04               	movwf	(printf@PointString+1)^0,c
  3246  000736  EC61  F008         	call	_printf	;wreg free
  3247  00073A                     l249:
  3248  00073A  0012               	return		;funcret
  3249  00073C                     __end_of_introducirCoordNueva:
  3250                           	opt callstack 0
  3251                           
  3252 ;; *************** function _receiveNum *****************
  3253 ;; Defined at:
  3254 ;;		line 21 in file "Comunicacion.c"
  3255 ;; Parameters:    Size  Location     Type
  3256 ;;		None
  3257 ;; Auto vars:     Size  Location     Type
  3258 ;;  recibido        1    7[COMRAM] unsigned char 
  3259 ;; Return value:  Size  Location     Type
  3260 ;;                  1    wreg      unsigned char 
  3261 ;; Registers used:
  3262 ;;		wreg, status,2, status,0, tblptrl, tblptrh, tblptru, cstack
  3263 ;; Tracked objects:
  3264 ;;		On entry : 0/0
  3265 ;;		On exit  : 0/0
  3266 ;;		Unchanged: 0/0
  3267 ;; Data sizes:     COMRAM   BANK0   BANK1   BANK2   BANK3   BANK4   BANK5   BANK6   BANK7
  3268 ;;      Params:         0       0       0       0       0       0       0       0       0
  3269 ;;      Locals:         1       0       0       0       0       0       0       0       0
  3270 ;;      Temps:          0       0       0       0       0       0       0       0       0
  3271 ;;      Totals:         1       0       0       0       0       0       0       0       0
  3272 ;;Total ram usage:        1 bytes
  3273 ;; Hardware stack levels used:    1
  3274 ;; Hardware stack levels required when called:    4
  3275 ;; This function calls:
  3276 ;;		_printf
  3277 ;; This function is called by:
  3278 ;;		_introducirCoordNueva
  3279 ;;		_modificarCoordenada
  3280 ;;		_main
  3281 ;; This function uses a non-reentrant model
  3282 ;;
  3283                           
  3284                           	psect	text10
  3285  001054                     __ptext10:
  3286                           	opt callstack 0
  3287  001054                     _receiveNum:
  3288                           	opt callstack 26
  3289  001054                     
  3290                           ;Comunicacion.c: 22:     unsigned char recibido = 0;
  3291  001054  0E00               	movlw	0
  3292  001056  6E08               	movwf	receiveNum@recibido^0,c
  3293                           
  3294                           ;Comunicacion.c: 23:     while(recibido>57 || recibido<48) {
  3295  001058  EF4F  F008         	goto	l1727
  3296  00105C                     l166:
  3297                           
  3298                           ;Comunicacion.c: 24:         while (PIR1bits.RCIF == 0) {
  3299  00105C  AA9E               	btfss	158,5,c	;volatile
  3300  00105E  EF33  F008         	goto	u791
  3301  001062  EF35  F008         	goto	u790
  3302  001066                     u791:
  3303  001066  EF2E  F008         	goto	l166
  3304  00106A                     u790:
  3305  00106A                     
  3306                           ;Comunicacion.c: 27:         recibido = RCREG1;
  3307  00106A  CFAE F008          	movff	4014,receiveNum@recibido	;volatile
  3308  00106E                     
  3309                           ;Comunicacion.c: 28:         RCREG1 = 0;
  3310  00106E  0E00               	movlw	0
  3311  001070  6EAE               	movwf	174,c	;volatile
  3312  001072                     
  3313                           ;Comunicacion.c: 29:         if(recibido>57 || recibido<48){
  3314  001072  0E3A               	movlw	58
  3315  001074  6008               	cpfslt	receiveNum@recibido^0,c
  3316  001076  EF3F  F008         	goto	u801
  3317  00107A  EF41  F008         	goto	u800
  3318  00107E                     u801:
  3319  00107E  EF49  F008         	goto	l1725
  3320  001082                     u800:
  3321  001082  0E30               	movlw	48
  3322  001084  6008               	cpfslt	receiveNum@recibido^0,c
  3323  001086  EF47  F008         	goto	u811
  3324  00108A  EF49  F008         	goto	u810
  3325  00108E                     u811:
  3326  00108E  EF4F  F008         	goto	l1727
  3327  001092                     u810:
  3328  001092                     l1725:
  3329                           
  3330                           ;Comunicacion.c: 30:             printf("Solo puedes introducir numeros, prueba de nuevo
      +                          ");
  3331  001092  0EB6               	movlw	low STR_1
  3332  001094  6E03               	movwf	printf@PointString^0,c
  3333  001096  0E7D               	movlw	high STR_1
  3334  001098  6E04               	movwf	(printf@PointString+1)^0,c
  3335  00109A  EC61  F008         	call	_printf	;wreg free
  3336  00109E                     l1727:
  3337                           
  3338                           ;Comunicacion.c: 23:     while(recibido>57 || recibido<48) {
  3339  00109E  0E3A               	movlw	58
  3340  0010A0  6008               	cpfslt	receiveNum@recibido^0,c
  3341  0010A2  EF55  F008         	goto	u821
  3342  0010A6  EF57  F008         	goto	u820
  3343  0010AA                     u821:
  3344  0010AA  EF2E  F008         	goto	l166
  3345  0010AE                     u820:
  3346  0010AE  0E2F               	movlw	47
  3347  0010B0  6408               	cpfsgt	receiveNum@recibido^0,c
  3348  0010B2  EF5D  F008         	goto	u831
  3349  0010B6  EF5F  F008         	goto	u830
  3350  0010BA                     u831:
  3351  0010BA  EF2E  F008         	goto	l166
  3352  0010BE                     u830:
  3353  0010BE                     
  3354                           ;Comunicacion.c: 32:     }return recibido;
  3355  0010BE  5008               	movf	receiveNum@recibido^0,w,c
  3356  0010C0  0012               	return		;funcret
  3357  0010C2                     __end_of_receiveNum:
  3358                           	opt callstack 0
  3359                           
  3360 ;; *************** function _imprimirCoordenadas *****************
  3361 ;; Defined at:
  3362 ;;		line 55 in file "FuncionesMenu.c"
  3363 ;; Parameters:    Size  Location     Type
  3364 ;;		None
  3365 ;; Auto vars:     Size  Location     Type
  3366 ;;  impresionCoo    1    8[COMRAM] unsigned char 
  3367 ;;  numCoordenad    1    7[COMRAM] unsigned char 
  3368 ;; Return value:  Size  Location     Type
  3369 ;;                  1    wreg      void 
  3370 ;; Registers used:
  3371 ;;		wreg, fsr2l, fsr2h, status,2, status,0, tblptrl, tblptrh, tblptru, cstack
  3372 ;; Tracked objects:
  3373 ;;		On entry : 0/0
  3374 ;;		On exit  : 0/0
  3375 ;;		Unchanged: 0/0
  3376 ;; Data sizes:     COMRAM   BANK0   BANK1   BANK2   BANK3   BANK4   BANK5   BANK6   BANK7
  3377 ;;      Params:         0       0       0       0       0       0       0       0       0
  3378 ;;      Locals:         2       0       0       0       0       0       0       0       0
  3379 ;;      Temps:          0       0       0       0       0       0       0       0       0
  3380 ;;      Totals:         2       0       0       0       0       0       0       0       0
  3381 ;;Total ram usage:        2 bytes
  3382 ;; Hardware stack levels used:    1
  3383 ;; Hardware stack levels required when called:    4
  3384 ;; This function calls:
  3385 ;;		_printf
  3386 ;;		_send
  3387 ;; This function is called by:
  3388 ;;		_modificarCoordenada
  3389 ;;		_main
  3390 ;; This function uses a non-reentrant model
  3391 ;;
  3392                           
  3393                           	psect	text11
  3394  000B64                     __ptext11:
  3395                           	opt callstack 0
  3396  000B64                     _imprimirCoordenadas:
  3397                           	opt callstack 25
  3398  000B64                     
  3399                           ;FuncionesMenu.c: 57:     numCoordenadas = coordenadaNueva + 48;
  3400  000B64  505B               	movf	_coordenadaNueva^0,w,c
  3401  000B66  0F30               	addlw	48
  3402  000B68  6E08               	movwf	imprimirCoordenadas@numCoordenadas^0,c
  3403  000B6A                     
  3404                           ;FuncionesMenu.c: 58:     printf("Agregaste: ");
  3405  000B6A  0EE7               	movlw	low STR_10
  3406  000B6C  6E03               	movwf	printf@PointString^0,c
  3407  000B6E  0E7F               	movlw	high STR_10
  3408  000B70  6E04               	movwf	(printf@PointString+1)^0,c
  3409  000B72  EC61  F008         	call	_printf	;wreg free
  3410  000B76                     
  3411                           ;FuncionesMenu.c: 59:     send(numCoordenadas);
  3412  000B76  5008               	movf	imprimirCoordenadas@numCoordenadas^0,w,c
  3413  000B78  EC19  F009         	call	_send
  3414  000B7C                     
  3415                           ;FuncionesMenu.c: 60:     printf(" coordenadas, las cuales son: \n");
  3416  000B7C  0E29               	movlw	low STR_11
  3417  000B7E  6E03               	movwf	printf@PointString^0,c
  3418  000B80  0E7F               	movlw	high STR_11
  3419  000B82  6E04               	movwf	(printf@PointString+1)^0,c
  3420  000B84  EC61  F008         	call	_printf	;wreg free
  3421  000B88                     
  3422                           ;FuncionesMenu.c: 61:     for (uint8_t impresionCoordenada = 0; impresionCoordenada < co
      +                          ordenadaNueva; impresionCoordenada++) {
  3423  000B88  0E00               	movlw	0
  3424  000B8A  6E09               	movwf	imprimirCoordenadas@impresionCoordenada^0,c
  3425  000B8C  EF36  F006         	goto	l1851
  3426  000B90                     l1817:
  3427                           
  3428                           ;FuncionesMenu.c: 62:         printf("Coordenada ");
  3429  000B90  0EF3               	movlw	low STR_12
  3430  000B92  6E03               	movwf	printf@PointString^0,c
  3431  000B94  0E7F               	movlw	high STR_12
  3432  000B96  6E04               	movwf	(printf@PointString+1)^0,c
  3433  000B98  EC61  F008         	call	_printf	;wreg free
  3434  000B9C                     
  3435                           ;FuncionesMenu.c: 63:         send(impresionCoordenada + 48);
  3436  000B9C  5009               	movf	imprimirCoordenadas@impresionCoordenada^0,w,c
  3437  000B9E  0F30               	addlw	48
  3438  000BA0  EC19  F009         	call	_send
  3439  000BA4                     
  3440                           ;FuncionesMenu.c: 64:         printf(": ");
  3441  000BA4  0EF0               	movlw	low (STR_10+9)
  3442  000BA6  6E03               	movwf	printf@PointString^0,c
  3443  000BA8  0E7F               	movlw	high (STR_10+9)
  3444  000BAA  6E04               	movwf	(printf@PointString+1)^0,c
  3445  000BAC  EC61  F008         	call	_printf	;wreg free
  3446  000BB0                     
  3447                           ;FuncionesMenu.c: 65:         send(coordXCentenas[impresionCoordenada]);
  3448  000BB0  0E47               	movlw	low _coordXCentenas
  3449  000BB2  2409               	addwf	imprimirCoordenadas@impresionCoordenada^0,w,c
  3450  000BB4  6ED9               	movwf	fsr2l,c
  3451  000BB6  6ADA               	clrf	fsr2h,c
  3452  000BB8  0E00               	movlw	high _coordXCentenas
  3453  000BBA  22DA               	addwfc	fsr2h,f,c
  3454  000BBC  50DF               	movf	indf2,w,c
  3455  000BBE  EC19  F009         	call	_send
  3456  000BC2                     
  3457                           ;FuncionesMenu.c: 66:         send(coordXDecenas[impresionCoordenada]);
  3458  000BC2  0EA6               	movlw	low _coordXDecenas
  3459  000BC4  2409               	addwf	imprimirCoordenadas@impresionCoordenada^0,w,c
  3460  000BC6  6ED9               	movwf	fsr2l,c
  3461  000BC8  6ADA               	clrf	fsr2h,c
  3462  000BCA  0E00               	movlw	high _coordXDecenas
  3463  000BCC  22DA               	addwfc	fsr2h,f,c
  3464  000BCE  50DF               	movf	indf2,w,c
  3465  000BD0  EC19  F009         	call	_send
  3466  000BD4                     
  3467                           ;FuncionesMenu.c: 67:         send(coordXUnidades[impresionCoordenada]);
  3468  000BD4  0E9C               	movlw	low _coordXUnidades
  3469  000BD6  2409               	addwf	imprimirCoordenadas@impresionCoordenada^0,w,c
  3470  000BD8  6ED9               	movwf	fsr2l,c
  3471  000BDA  6ADA               	clrf	fsr2h,c
  3472  000BDC  0E00               	movlw	high _coordXUnidades
  3473  000BDE  22DA               	addwfc	fsr2h,f,c
  3474  000BE0  50DF               	movf	indf2,w,c
  3475  000BE2  EC19  F009         	call	_send
  3476  000BE6                     
  3477                           ;FuncionesMenu.c: 68:         send(',');
  3478  000BE6  0E2C               	movlw	44
  3479  000BE8  EC19  F009         	call	_send
  3480  000BEC                     
  3481                           ;FuncionesMenu.c: 69:         send(coordYCentenas[impresionCoordenada]);
  3482  000BEC  0E92               	movlw	low _coordYCentenas
  3483  000BEE  2409               	addwf	imprimirCoordenadas@impresionCoordenada^0,w,c
  3484  000BF0  6ED9               	movwf	fsr2l,c
  3485  000BF2  6ADA               	clrf	fsr2h,c
  3486  000BF4  0E00               	movlw	high _coordYCentenas
  3487  000BF6  22DA               	addwfc	fsr2h,f,c
  3488  000BF8  50DF               	movf	indf2,w,c
  3489  000BFA  EC19  F009         	call	_send
  3490  000BFE                     
  3491                           ;FuncionesMenu.c: 70:         send(coordYDecenas[impresionCoordenada]);
  3492  000BFE  0E88               	movlw	low _coordYDecenas
  3493  000C00  2409               	addwf	imprimirCoordenadas@impresionCoordenada^0,w,c
  3494  000C02  6ED9               	movwf	fsr2l,c
  3495  000C04  6ADA               	clrf	fsr2h,c
  3496  000C06  0E00               	movlw	high _coordYDecenas
  3497  000C08  22DA               	addwfc	fsr2h,f,c
  3498  000C0A  50DF               	movf	indf2,w,c
  3499  000C0C  EC19  F009         	call	_send
  3500  000C10                     
  3501                           ;FuncionesMenu.c: 71:         send(coordYUnidades[impresionCoordenada]);
  3502  000C10  0E7E               	movlw	low _coordYUnidades
  3503  000C12  2409               	addwf	imprimirCoordenadas@impresionCoordenada^0,w,c
  3504  000C14  6ED9               	movwf	fsr2l,c
  3505  000C16  6ADA               	clrf	fsr2h,c
  3506  000C18  0E00               	movlw	high _coordYUnidades
  3507  000C1A  22DA               	addwfc	fsr2h,f,c
  3508  000C1C  50DF               	movf	indf2,w,c
  3509  000C1E  EC19  F009         	call	_send
  3510  000C22                     
  3511                           ;FuncionesMenu.c: 72:         send(',');
  3512  000C22  0E2C               	movlw	44
  3513  000C24  EC19  F009         	call	_send
  3514  000C28                     
  3515                           ;FuncionesMenu.c: 73:         send(presionarZCentenas[impresionCoordenada]);
  3516  000C28  0E74               	movlw	low _presionarZCentenas
  3517  000C2A  2409               	addwf	imprimirCoordenadas@impresionCoordenada^0,w,c
  3518  000C2C  6ED9               	movwf	fsr2l,c
  3519  000C2E  6ADA               	clrf	fsr2h,c
  3520  000C30  0E00               	movlw	high _presionarZCentenas
  3521  000C32  22DA               	addwfc	fsr2h,f,c
  3522  000C34  50DF               	movf	indf2,w,c
  3523  000C36  EC19  F009         	call	_send
  3524  000C3A                     
  3525                           ;FuncionesMenu.c: 74:         send(presionarZDecenas[impresionCoordenada]);
  3526  000C3A  0E6A               	movlw	low _presionarZDecenas
  3527  000C3C  2409               	addwf	imprimirCoordenadas@impresionCoordenada^0,w,c
  3528  000C3E  6ED9               	movwf	fsr2l,c
  3529  000C40  6ADA               	clrf	fsr2h,c
  3530  000C42  0E00               	movlw	high _presionarZDecenas
  3531  000C44  22DA               	addwfc	fsr2h,f,c
  3532  000C46  50DF               	movf	indf2,w,c
  3533  000C48  EC19  F009         	call	_send
  3534  000C4C                     
  3535                           ;FuncionesMenu.c: 75:         send(presionarZUnidades[impresionCoordenada]);
  3536  000C4C  0E60               	movlw	low _presionarZUnidades
  3537  000C4E  2409               	addwf	imprimirCoordenadas@impresionCoordenada^0,w,c
  3538  000C50  6ED9               	movwf	fsr2l,c
  3539  000C52  6ADA               	clrf	fsr2h,c
  3540  000C54  0E00               	movlw	high _presionarZUnidades
  3541  000C56  22DA               	addwfc	fsr2h,f,c
  3542  000C58  50DF               	movf	indf2,w,c
  3543  000C5A  EC19  F009         	call	_send
  3544  000C5E                     
  3545                           ;FuncionesMenu.c: 76:         send('.');
  3546  000C5E  0E2E               	movlw	46
  3547  000C60  EC19  F009         	call	_send
  3548  000C64                     
  3549                           ;FuncionesMenu.c: 77:         send('\n');
  3550  000C64  0E0A               	movlw	10
  3551  000C66  EC19  F009         	call	_send
  3552  000C6A                     
  3553                           ;FuncionesMenu.c: 78:     }
  3554  000C6A  2A09               	incf	imprimirCoordenadas@impresionCoordenada^0,f,c
  3555  000C6C                     l1851:
  3556  000C6C  505B               	movf	_coordenadaNueva^0,w,c
  3557  000C6E  5C09               	subwf	imprimirCoordenadas@impresionCoordenada^0,w,c
  3558  000C70  A0D8               	btfss	status,0,c
  3559  000C72  EF3D  F006         	goto	u891
  3560  000C76  EF3F  F006         	goto	u890
  3561  000C7A                     u891:
  3562  000C7A  EFC8  F005         	goto	l1817
  3563  000C7E                     u890:
  3564  000C7E  0012               	return		;funcret
  3565  000C80                     __end_of_imprimirCoordenadas:
  3566                           	opt callstack 0
  3567                           
  3568 ;; *************** function _habilitarIntTMR1 *****************
  3569 ;; Defined at:
  3570 ;;		line 42 in file "Interrupciones.c"
  3571 ;; Parameters:    Size  Location     Type
  3572 ;;		None
  3573 ;; Auto vars:     Size  Location     Type
  3574 ;;		None
  3575 ;; Return value:  Size  Location     Type
  3576 ;;                  1    wreg      void 
  3577 ;; Registers used:
  3578 ;;		None
  3579 ;; Tracked objects:
  3580 ;;		On entry : 0/0
  3581 ;;		On exit  : 0/0
  3582 ;;		Unchanged: 0/0
  3583 ;; Data sizes:     COMRAM   BANK0   BANK1   BANK2   BANK3   BANK4   BANK5   BANK6   BANK7
  3584 ;;      Params:         0       0       0       0       0       0       0       0       0
  3585 ;;      Locals:         0       0       0       0       0       0       0       0       0
  3586 ;;      Temps:          0       0       0       0       0       0       0       0       0
  3587 ;;      Totals:         0       0       0       0       0       0       0       0       0
  3588 ;;Total ram usage:        0 bytes
  3589 ;; Hardware stack levels used:    1
  3590 ;; Hardware stack levels required when called:    2
  3591 ;; This function calls:
  3592 ;;		Nothing
  3593 ;; This function is called by:
  3594 ;;		_main
  3595 ;; This function uses a non-reentrant model
  3596 ;;
  3597                           
  3598                           	psect	text12
  3599  001268                     __ptext12:
  3600                           	opt callstack 0
  3601  001268                     _habilitarIntTMR1:
  3602                           	opt callstack 28
  3603  001268                     
  3604                           ;Interrupciones.c: 43:     PIE1bits.TMR1IE = 1;
  3605  001268  809D               	bsf	157,0,c	;volatile
  3606  00126A  0012               	return		;funcret
  3607  00126C                     __end_of_habilitarIntTMR1:
  3608                           	opt callstack 0
  3609                           
  3610 ;; *************** function _habilitarIntTMR0 *****************
  3611 ;; Defined at:
  3612 ;;		line 38 in file "Interrupciones.c"
  3613 ;; Parameters:    Size  Location     Type
  3614 ;;		None
  3615 ;; Auto vars:     Size  Location     Type
  3616 ;;		None
  3617 ;; Return value:  Size  Location     Type
  3618 ;;                  1    wreg      void 
  3619 ;; Registers used:
  3620 ;;		None
  3621 ;; Tracked objects:
  3622 ;;		On entry : 0/0
  3623 ;;		On exit  : 0/0
  3624 ;;		Unchanged: 0/0
  3625 ;; Data sizes:     COMRAM   BANK0   BANK1   BANK2   BANK3   BANK4   BANK5   BANK6   BANK7
  3626 ;;      Params:         0       0       0       0       0       0       0       0       0
  3627 ;;      Locals:         0       0       0       0       0       0       0       0       0
  3628 ;;      Temps:          0       0       0       0       0       0       0       0       0
  3629 ;;      Totals:         0       0       0       0       0       0       0       0       0
  3630 ;;Total ram usage:        0 bytes
  3631 ;; Hardware stack levels used:    1
  3632 ;; Hardware stack levels required when called:    2
  3633 ;; This function calls:
  3634 ;;		Nothing
  3635 ;; This function is called by:
  3636 ;;		_main
  3637 ;; This function uses a non-reentrant model
  3638 ;;
  3639                           
  3640                           	psect	text13
  3641  00126C                     __ptext13:
  3642                           	opt callstack 0
  3643  00126C                     _habilitarIntTMR0:
  3644                           	opt callstack 28
  3645  00126C                     
  3646                           ;Interrupciones.c: 39:     INTCONbits.TMR0IE = 1;
  3647  00126C  8AF2               	bsf	242,5,c	;volatile
  3648  00126E  0012               	return		;funcret
  3649  001270                     __end_of_habilitarIntTMR0:
  3650                           	opt callstack 0
  3651                           
  3652 ;; *************** function _borrarTodasCoordenadas *****************
  3653 ;; Defined at:
  3654 ;;		line 104 in file "FuncionesMenu.c"
  3655 ;; Parameters:    Size  Location     Type
  3656 ;;		None
  3657 ;; Auto vars:     Size  Location     Type
  3658 ;;  impresionCoo    1    7[COMRAM] unsigned char 
  3659 ;; Return value:  Size  Location     Type
  3660 ;;                  1    wreg      void 
  3661 ;; Registers used:
  3662 ;;		wreg, fsr2l, fsr2h, status,2, status,0, tblptrl, tblptrh, tblptru, cstack
  3663 ;; Tracked objects:
  3664 ;;		On entry : 0/0
  3665 ;;		On exit  : 0/0
  3666 ;;		Unchanged: 0/0
  3667 ;; Data sizes:     COMRAM   BANK0   BANK1   BANK2   BANK3   BANK4   BANK5   BANK6   BANK7
  3668 ;;      Params:         0       0       0       0       0       0       0       0       0
  3669 ;;      Locals:         1       0       0       0       0       0       0       0       0
  3670 ;;      Temps:          0       0       0       0       0       0       0       0       0
  3671 ;;      Totals:         1       0       0       0       0       0       0       0       0
  3672 ;;Total ram usage:        1 bytes
  3673 ;; Hardware stack levels used:    1
  3674 ;; Hardware stack levels required when called:    4
  3675 ;; This function calls:
  3676 ;;		_printf
  3677 ;; This function is called by:
  3678 ;;		_main
  3679 ;; This function uses a non-reentrant model
  3680 ;;
  3681                           
  3682                           	psect	text14
  3683  000D86                     __ptext14:
  3684                           	opt callstack 0
  3685  000D86                     _borrarTodasCoordenadas:
  3686                           	opt callstack 26
  3687  000D86                     
  3688                           ;FuncionesMenu.c: 105:     for (uint8_t impresionCoordenada = 0; impresionCoordenada < 1
      +                          0; impresionCoordenada++) {
  3689  000D86  0E00               	movlw	0
  3690  000D88  6E08               	movwf	borrarTodasCoordenadas@impresionCoordenada^0,c
  3691  000D8A                     l2129:
  3692                           
  3693                           ;FuncionesMenu.c: 106:         coordXCentenas[impresionCoordenada] = 0;
  3694  000D8A  0E47               	movlw	low _coordXCentenas
  3695  000D8C  2408               	addwf	borrarTodasCoordenadas@impresionCoordenada^0,w,c
  3696  000D8E  6ED9               	movwf	fsr2l,c
  3697  000D90  6ADA               	clrf	fsr2h,c
  3698  000D92  0E00               	movlw	high _coordXCentenas
  3699  000D94  22DA               	addwfc	fsr2h,f,c
  3700  000D96  0E00               	movlw	0
  3701  000D98  6EDF               	movwf	indf2,c
  3702                           
  3703                           ;FuncionesMenu.c: 107:         coordXDecenas[impresionCoordenada] = 0;
  3704  000D9A  0EA6               	movlw	low _coordXDecenas
  3705  000D9C  2408               	addwf	borrarTodasCoordenadas@impresionCoordenada^0,w,c
  3706  000D9E  6ED9               	movwf	fsr2l,c
  3707  000DA0  6ADA               	clrf	fsr2h,c
  3708  000DA2  0E00               	movlw	high _coordXDecenas
  3709  000DA4  22DA               	addwfc	fsr2h,f,c
  3710  000DA6  0E00               	movlw	0
  3711  000DA8  6EDF               	movwf	indf2,c
  3712                           
  3713                           ;FuncionesMenu.c: 108:         coordXUnidades[impresionCoordenada] = 0;
  3714  000DAA  0E9C               	movlw	low _coordXUnidades
  3715  000DAC  2408               	addwf	borrarTodasCoordenadas@impresionCoordenada^0,w,c
  3716  000DAE  6ED9               	movwf	fsr2l,c
  3717  000DB0  6ADA               	clrf	fsr2h,c
  3718  000DB2  0E00               	movlw	high _coordXUnidades
  3719  000DB4  22DA               	addwfc	fsr2h,f,c
  3720  000DB6  0E00               	movlw	0
  3721  000DB8  6EDF               	movwf	indf2,c
  3722                           
  3723                           ;FuncionesMenu.c: 109:         coordYCentenas[impresionCoordenada] = 0;
  3724  000DBA  0E92               	movlw	low _coordYCentenas
  3725  000DBC  2408               	addwf	borrarTodasCoordenadas@impresionCoordenada^0,w,c
  3726  000DBE  6ED9               	movwf	fsr2l,c
  3727  000DC0  6ADA               	clrf	fsr2h,c
  3728  000DC2  0E00               	movlw	high _coordYCentenas
  3729  000DC4  22DA               	addwfc	fsr2h,f,c
  3730  000DC6  0E00               	movlw	0
  3731  000DC8  6EDF               	movwf	indf2,c
  3732                           
  3733                           ;FuncionesMenu.c: 110:         coordYDecenas[impresionCoordenada] = 0;
  3734  000DCA  0E88               	movlw	low _coordYDecenas
  3735  000DCC  2408               	addwf	borrarTodasCoordenadas@impresionCoordenada^0,w,c
  3736  000DCE  6ED9               	movwf	fsr2l,c
  3737  000DD0  6ADA               	clrf	fsr2h,c
  3738  000DD2  0E00               	movlw	high _coordYDecenas
  3739  000DD4  22DA               	addwfc	fsr2h,f,c
  3740  000DD6  0E00               	movlw	0
  3741  000DD8  6EDF               	movwf	indf2,c
  3742                           
  3743                           ;FuncionesMenu.c: 111:         coordYUnidades[impresionCoordenada] = 0;
  3744  000DDA  0E7E               	movlw	low _coordYUnidades
  3745  000DDC  2408               	addwf	borrarTodasCoordenadas@impresionCoordenada^0,w,c
  3746  000DDE  6ED9               	movwf	fsr2l,c
  3747  000DE0  6ADA               	clrf	fsr2h,c
  3748  000DE2  0E00               	movlw	high _coordYUnidades
  3749  000DE4  22DA               	addwfc	fsr2h,f,c
  3750  000DE6  0E00               	movlw	0
  3751  000DE8  6EDF               	movwf	indf2,c
  3752                           
  3753                           ;FuncionesMenu.c: 112:         presionarZCentenas[impresionCoordenada] = 0;
  3754  000DEA  0E74               	movlw	low _presionarZCentenas
  3755  000DEC  2408               	addwf	borrarTodasCoordenadas@impresionCoordenada^0,w,c
  3756  000DEE  6ED9               	movwf	fsr2l,c
  3757  000DF0  6ADA               	clrf	fsr2h,c
  3758  000DF2  0E00               	movlw	high _presionarZCentenas
  3759  000DF4  22DA               	addwfc	fsr2h,f,c
  3760  000DF6  0E00               	movlw	0
  3761  000DF8  6EDF               	movwf	indf2,c
  3762                           
  3763                           ;FuncionesMenu.c: 113:         presionarZDecenas[impresionCoordenada] = 0;
  3764  000DFA  0E6A               	movlw	low _presionarZDecenas
  3765  000DFC  2408               	addwf	borrarTodasCoordenadas@impresionCoordenada^0,w,c
  3766  000DFE  6ED9               	movwf	fsr2l,c
  3767  000E00  6ADA               	clrf	fsr2h,c
  3768  000E02  0E00               	movlw	high _presionarZDecenas
  3769  000E04  22DA               	addwfc	fsr2h,f,c
  3770  000E06  0E00               	movlw	0
  3771  000E08  6EDF               	movwf	indf2,c
  3772                           
  3773                           ;FuncionesMenu.c: 114:         presionarZUnidades[impresionCoordenada] = 0;
  3774  000E0A  0E60               	movlw	low _presionarZUnidades
  3775  000E0C  2408               	addwf	borrarTodasCoordenadas@impresionCoordenada^0,w,c
  3776  000E0E  6ED9               	movwf	fsr2l,c
  3777  000E10  6ADA               	clrf	fsr2h,c
  3778  000E12  0E00               	movlw	high _presionarZUnidades
  3779  000E14  22DA               	addwfc	fsr2h,f,c
  3780  000E16  0E00               	movlw	0
  3781  000E18  6EDF               	movwf	indf2,c
  3782  000E1A                     
  3783                           ;FuncionesMenu.c: 115:     }
  3784  000E1A  2A08               	incf	borrarTodasCoordenadas@impresionCoordenada^0,f,c
  3785  000E1C  0E09               	movlw	9
  3786  000E1E  6408               	cpfsgt	borrarTodasCoordenadas@impresionCoordenada^0,c
  3787  000E20  EF14  F007         	goto	u1281
  3788  000E24  EF16  F007         	goto	u1280
  3789  000E28                     u1281:
  3790  000E28  EFC5  F006         	goto	l2129
  3791  000E2C                     u1280:
  3792  000E2C                     
  3793                           ;FuncionesMenu.c: 116:     coordenadaNueva = 0;
  3794  000E2C  0E00               	movlw	0
  3795  000E2E  6E5B               	movwf	_coordenadaNueva^0,c
  3796  000E30                     
  3797                           ;FuncionesMenu.c: 117:     printf("Listo, todas las coordenadas han sido borradas\n");
  3798  000E30  0E86               	movlw	low STR_18
  3799  000E32  6E03               	movwf	printf@PointString^0,c
  3800  000E34  0E7D               	movlw	high STR_18
  3801  000E36  6E04               	movwf	(printf@PointString+1)^0,c
  3802  000E38  EC61  F008         	call	_printf	;wreg free
  3803  000E3C  0012               	return		;funcret
  3804  000E3E                     __end_of_borrarTodasCoordenadas:
  3805                           	opt callstack 0
  3806                           
  3807 ;; *************** function _printf *****************
  3808 ;; Defined at:
  3809 ;;		line 6 in file "Comunicacion.c"
  3810 ;; Parameters:    Size  Location     Type
  3811 ;;  PointString     2    2[COMRAM] PTR unsigned char 
  3812 ;;		 -> STR_32(75), STR_31(13), STR_30(13), STR_29(13), 
  3813 ;;		 -> STR_28(19), STR_27(57), STR_26(13), STR_25(14), 
  3814 ;;		 -> STR_24(46), STR_23(44), STR_22(14), STR_21(37), 
  3815 ;;		 -> STR_20(212), STR_19(57), STR_18(48), STR_17(31), 
  3816 ;;		 -> STR_16(59), STR_15(68), STR_14(46), STR_13(3), 
  3817 ;;		 -> STR_12(12), STR_11(32), STR_10(12), STR_9(58), 
  3818 ;;		 -> STR_8(41), STR_7(43), STR_6(33), STR_5(33), 
  3819 ;;		 -> STR_4(14), STR_3(14), STR_2(113), STR_1(48), 
  3820 ;; Auto vars:     Size  Location     Type
  3821 ;;  i               1    6[COMRAM] unsigned char 
  3822 ;; Return value:  Size  Location     Type
  3823 ;;                  1    wreg      void 
  3824 ;; Registers used:
  3825 ;;		wreg, status,2, status,0, tblptrl, tblptrh, tblptru, cstack
  3826 ;; Tracked objects:
  3827 ;;		On entry : 0/0
  3828 ;;		On exit  : 0/0
  3829 ;;		Unchanged: 0/0
  3830 ;; Data sizes:     COMRAM   BANK0   BANK1   BANK2   BANK3   BANK4   BANK5   BANK6   BANK7
  3831 ;;      Params:         2       0       0       0       0       0       0       0       0
  3832 ;;      Locals:         1       0       0       0       0       0       0       0       0
  3833 ;;      Temps:          2       0       0       0       0       0       0       0       0
  3834 ;;      Totals:         5       0       0       0       0       0       0       0       0
  3835 ;;Total ram usage:        5 bytes
  3836 ;; Hardware stack levels used:    1
  3837 ;; Hardware stack levels required when called:    3
  3838 ;; This function calls:
  3839 ;;		_send
  3840 ;; This function is called by:
  3841 ;;		_receiveNum
  3842 ;;		_introducirCoordNueva
  3843 ;;		_imprimirCoordenadas
  3844 ;;		_modificarCoordenada
  3845 ;;		_borrarTodasCoordenadas
  3846 ;;		_main
  3847 ;; This function uses a non-reentrant model
  3848 ;;
  3849                           
  3850                           	psect	text15
  3851  0010C2                     __ptext15:
  3852                           	opt callstack 0
  3853  0010C2                     _printf:
  3854                           	opt callstack 26
  3855  0010C2                     
  3856                           ;Comunicacion.c: 7:     for (unsigned char i = 0; i < 255; i++) {
  3857  0010C2  0E00               	movlw	0
  3858  0010C4  6E07               	movwf	printf@i^0,c
  3859  0010C6                     l1705:
  3860                           
  3861                           ;Comunicacion.c: 8:         if (PointString[i] == ((void*)0)) {
  3862  0010C6  5007               	movf	printf@i^0,w,c
  3863  0010C8  2403               	addwf	printf@PointString^0,w,c
  3864  0010CA  6E05               	movwf	??_printf^0,c
  3865  0010CC  0E00               	movlw	0
  3866  0010CE  2004               	addwfc	(printf@PointString+1)^0,w,c
  3867  0010D0  6E06               	movwf	(??_printf+1)^0,c
  3868  0010D2  C005  FFF6         	movff	??_printf,tblptrl
  3869  0010D6  C006  FFF7         	movff	??_printf+1,tblptrh
  3870  0010DA                     	if	0	;tblptru may be non-zero
  3871  0010DA                     	endif
  3872  0010DA                     	if	0	;tblptru may be non-zero
  3873  0010DA                     	endif
  3874  0010DA  0008               	tblrd		*
  3875  0010DC  50F5               	movf	tablat,w,c
  3876  0010DE  0900               	iorlw	0
  3877  0010E0  A4D8               	btfss	status,2,c
  3878  0010E2  EF75  F008         	goto	u771
  3879  0010E6  EF77  F008         	goto	u770
  3880  0010EA                     u771:
  3881  0010EA  EF79  F008         	goto	l1711
  3882  0010EE                     u770:
  3883  0010EE  EF90  F008         	goto	l155
  3884  0010F2                     l1711:
  3885                           
  3886                           ;Comunicacion.c: 11:             send(PointString[i]);
  3887  0010F2  5007               	movf	printf@i^0,w,c
  3888  0010F4  2403               	addwf	printf@PointString^0,w,c
  3889  0010F6  6E05               	movwf	??_printf^0,c
  3890  0010F8  0E00               	movlw	0
  3891  0010FA  2004               	addwfc	(printf@PointString+1)^0,w,c
  3892  0010FC  6E06               	movwf	(??_printf+1)^0,c
  3893  0010FE  C005  FFF6         	movff	??_printf,tblptrl
  3894  001102  C006  FFF7         	movff	??_printf+1,tblptrh
  3895  001106                     	if	0	;tblptru may be non-zero
  3896  001106                     	endif
  3897  001106                     	if	0	;tblptru may be non-zero
  3898  001106                     	endif
  3899  001106  0008               	tblrd		*
  3900  001108  50F5               	movf	tablat,w,c
  3901  00110A  EC19  F009         	call	_send
  3902  00110E                     
  3903                           ;Comunicacion.c: 12:     }
  3904  00110E  2A07               	incf	printf@i^0,f,c
  3905  001110  2807               	incf	printf@i^0,w,c
  3906  001112  A4D8               	btfss	status,2,c
  3907  001114  EF8E  F008         	goto	u781
  3908  001118  EF90  F008         	goto	u780
  3909  00111C                     u781:
  3910  00111C  EF63  F008         	goto	l1705
  3911  001120                     u780:
  3912  001120                     l155:
  3913  001120  0012               	return		;funcret
  3914  001122                     __end_of_printf:
  3915                           	opt callstack 0
  3916                           
  3917 ;; *************** function _send *****************
  3918 ;; Defined at:
  3919 ;;		line 32 in file "UART.c"
  3920 ;; Parameters:    Size  Location     Type
  3921 ;;  enviarpc        1    wreg     unsigned char 
  3922 ;; Auto vars:     Size  Location     Type
  3923 ;;  enviarpc        1    1[COMRAM] unsigned char 
  3924 ;; Return value:  Size  Location     Type
  3925 ;;                  1    wreg      void 
  3926 ;; Registers used:
  3927 ;;		wreg
  3928 ;; Tracked objects:
  3929 ;;		On entry : 0/0
  3930 ;;		On exit  : 0/0
  3931 ;;		Unchanged: 0/0
  3932 ;; Data sizes:     COMRAM   BANK0   BANK1   BANK2   BANK3   BANK4   BANK5   BANK6   BANK7
  3933 ;;      Params:         0       0       0       0       0       0       0       0       0
  3934 ;;      Locals:         1       0       0       0       0       0       0       0       0
  3935 ;;      Temps:          0       0       0       0       0       0       0       0       0
  3936 ;;      Totals:         1       0       0       0       0       0       0       0       0
  3937 ;;Total ram usage:        1 bytes
  3938 ;; Hardware stack levels used:    1
  3939 ;; Hardware stack levels required when called:    2
  3940 ;; This function calls:
  3941 ;;		Nothing
  3942 ;; This function is called by:
  3943 ;;		_printf
  3944 ;;		_introducirCoordNueva
  3945 ;;		_imprimirCoordenadas
  3946 ;;		_modificarCoordenada
  3947 ;; This function uses a non-reentrant model
  3948 ;;
  3949                           
  3950                           	psect	text16
  3951  001232                     __ptext16:
  3952                           	opt callstack 0
  3953  001232                     _send:
  3954                           	opt callstack 26
  3955                           
  3956                           ;incstack = 0
  3957                           ;send@enviarpc stored from wreg
  3958  001232  6E02               	movwf	send@enviarpc^0,c
  3959  001234                     l53:
  3960                           
  3961                           ;UART.c: 33:     while (TXSTA1bits.TRMT == 0) {
  3962  001234  A2AC               	btfss	172,1,c	;volatile
  3963  001236  EF1F  F009         	goto	u761
  3964  00123A  EF21  F009         	goto	u760
  3965  00123E                     u761:
  3966  00123E  EF1A  F009         	goto	l53
  3967  001242                     u760:
  3968  001242                     
  3969                           ;UART.c: 36:     TXREG1 = enviarpc;
  3970  001242  C002  FFAD         	movff	send@enviarpc,4013	;volatile
  3971  001246  0012               	return		;funcret
  3972  001248                     __end_of_send:
  3973                           	opt callstack 0
  3974                           
  3975 ;; *************** function _UARTinit *****************
  3976 ;; Defined at:
  3977 ;;		line 5 in file "UART.c"
  3978 ;; Parameters:    Size  Location     Type
  3979 ;;		None
  3980 ;; Auto vars:     Size  Location     Type
  3981 ;;		None
  3982 ;; Return value:  Size  Location     Type
  3983 ;;                  1    wreg      void 
  3984 ;; Registers used:
  3985 ;;		wreg, status,2
  3986 ;; Tracked objects:
  3987 ;;		On entry : 0/0
  3988 ;;		On exit  : 0/0
  3989 ;;		Unchanged: 0/0
  3990 ;; Data sizes:     COMRAM   BANK0   BANK1   BANK2   BANK3   BANK4   BANK5   BANK6   BANK7
  3991 ;;      Params:         0       0       0       0       0       0       0       0       0
  3992 ;;      Locals:         0       0       0       0       0       0       0       0       0
  3993 ;;      Temps:          0       0       0       0       0       0       0       0       0
  3994 ;;      Totals:         0       0       0       0       0       0       0       0       0
  3995 ;;Total ram usage:        0 bytes
  3996 ;; Hardware stack levels used:    1
  3997 ;; Hardware stack levels required when called:    2
  3998 ;; This function calls:
  3999 ;;		Nothing
  4000 ;; This function is called by:
  4001 ;;		_main
  4002 ;; This function uses a non-reentrant model
  4003 ;;
  4004                           
  4005                           	psect	text17
  4006  0011EC                     __ptext17:
  4007                           	opt callstack 0
  4008  0011EC                     _UARTinit:
  4009                           	opt callstack 28
  4010  0011EC                     
  4011                           ;UART.c: 6:     TRISCbits.RC6 = 1;
  4012  0011EC  8C94               	bsf	148,6,c	;volatile
  4013                           
  4014                           ;UART.c: 7:     TRISCbits.RC7 = 1;
  4015  0011EE  8E94               	bsf	148,7,c	;volatile
  4016  0011F0                     
  4017                           ;UART.c: 9:     SPBRG = 16;
  4018  0011F0  0E10               	movlw	16
  4019  0011F2  6EAF               	movwf	175,c	;volatile
  4020  0011F4                     
  4021                           ;UART.c: 10:     TXSTA1bits.BRGH = 1;
  4022  0011F4  84AC               	bsf	172,2,c	;volatile
  4023  0011F6                     
  4024                           ;UART.c: 11:     BAUDCONbits.BRG16 = 1;
  4025  0011F6  86B8               	bsf	184,3,c	;volatile
  4026  0011F8                     
  4027                           ;UART.c: 13:     TXSTA1bits.TX9 = 0;
  4028  0011F8  9CAC               	bcf	172,6,c	;volatile
  4029  0011FA                     
  4030                           ;UART.c: 14:     TXSTA1bits.TXEN = 1;
  4031  0011FA  8AAC               	bsf	172,5,c	;volatile
  4032  0011FC                     
  4033                           ;UART.c: 15:     TXSTA1bits.SYNC = 0;
  4034  0011FC  98AC               	bcf	172,4,c	;volatile
  4035  0011FE                     
  4036                           ;UART.c: 16:     RCSTA1bits.SPEN = 1;
  4037  0011FE  8EAB               	bsf	171,7,c	;volatile
  4038  001200                     
  4039                           ;UART.c: 17:     RCSTA1bits.RX9 = 0;
  4040  001200  9CAB               	bcf	171,6,c	;volatile
  4041  001202                     
  4042                           ;UART.c: 18:     RCSTA1bits.CREN = 1;
  4043  001202  88AB               	bsf	171,4,c	;volatile
  4044  001204  0012               	return		;funcret
  4045  001206                     __end_of_UARTinit:
  4046                           	opt callstack 0
  4047                           
  4048 ;; *************** function _PWM_DutyCycleCCP2 *****************
  4049 ;; Defined at:
  4050 ;;		line 16 in file "PWMCCP2.c"
  4051 ;; Parameters:    Size  Location     Type
  4052 ;;  WantedDutyCy    1    wreg     unsigned char 
  4053 ;; Auto vars:     Size  Location     Type
  4054 ;;  WantedDutyCy    1   56[COMRAM] unsigned char 
  4055 ;;  PWMDutyValue    2   57[COMRAM] unsigned int 
  4056 ;; Return value:  Size  Location     Type
  4057 ;;                  1    wreg      void 
  4058 ;; Registers used:
  4059 ;;		wreg, status,2, status,0, prodl, prodh, cstack
  4060 ;; Tracked objects:
  4061 ;;		On entry : 0/0
  4062 ;;		On exit  : 0/0
  4063 ;;		Unchanged: 0/0
  4064 ;; Data sizes:     COMRAM   BANK0   BANK1   BANK2   BANK3   BANK4   BANK5   BANK6   BANK7
  4065 ;;      Params:         0       0       0       0       0       0       0       0       0
  4066 ;;      Locals:         7       0       0       0       0       0       0       0       0
  4067 ;;      Temps:          2       0       0       0       0       0       0       0       0
  4068 ;;      Totals:         9       0       0       0       0       0       0       0       0
  4069 ;;Total ram usage:        9 bytes
  4070 ;; Hardware stack levels used:    1
  4071 ;; Hardware stack levels required when called:    3
  4072 ;; This function calls:
  4073 ;;		___flmul
  4074 ;;		___fltol
  4075 ;;		___xxtofl
  4076 ;; This function is called by:
  4077 ;;		_main
  4078 ;; This function uses a non-reentrant model
  4079 ;;
  4080                           
  4081                           	psect	text18
  4082  000E3E                     __ptext18:
  4083                           	opt callstack 0
  4084  000E3E                     _PWM_DutyCycleCCP2:
  4085                           	opt callstack 27
  4086                           
  4087                           ;incstack = 0
  4088                           ;PWM_DutyCycleCCP2@WantedDutyCycle stored from wreg
  4089  000E3E  6E39               	movwf	PWM_DutyCycleCCP2@WantedDutyCycle^0,c
  4090  000E40                     
  4091                           ;PWMCCP2.c: 18:     unsigned int PWMDutyValue;;PWMCCP2.c: 19:     PWMDutyValue = (Wanted
      +                          DutyCycle * 0.01)*1000;
  4092  000E40  0E0A               	movlw	10
  4093  000E42  6E14               	movwf	___flmul@a^0,c
  4094  000E44  0ED7               	movlw	215
  4095  000E46  6E15               	movwf	(___flmul@a+1)^0,c
  4096  000E48  0E23               	movlw	35
  4097  000E4A  6E16               	movwf	(___flmul@a+2)^0,c
  4098  000E4C  0E3C               	movlw	60
  4099  000E4E  6E17               	movwf	(___flmul@a+3)^0,c
  4100  000E50  5039               	movf	PWM_DutyCycleCCP2@WantedDutyCycle^0,w,c
  4101  000E52  6E02               	movwf	___xxtofl@val^0,c
  4102  000E54  6A03               	clrf	(___xxtofl@val+1)^0,c
  4103  000E56  6A04               	clrf	(___xxtofl@val+2)^0,c
  4104  000E58  6A05               	clrf	(___xxtofl@val+3)^0,c
  4105  000E5A  0E01               	movlw	1
  4106  000E5C  ECD8  F004         	call	___xxtofl
  4107  000E60  C002  F010         	movff	?___xxtofl,___flmul@b
  4108  000E64  C003  F011         	movff	?___xxtofl+1,___flmul@b+1
  4109  000E68  C004  F012         	movff	?___xxtofl+2,___flmul@b+2
  4110  000E6C  C005  F013         	movff	?___xxtofl+3,___flmul@b+3
  4111  000E70  EC16  F000         	call	___flmul	;wreg free
  4112  000E74  C010  F035         	movff	?___flmul,_PWM_DutyCycleCCP2$2260
  4113  000E78  C011  F036         	movff	?___flmul+1,_PWM_DutyCycleCCP2$2260+1
  4114  000E7C  C012  F037         	movff	?___flmul+2,_PWM_DutyCycleCCP2$2260+2
  4115  000E80  C013  F038         	movff	?___flmul+3,_PWM_DutyCycleCCP2$2260+3
  4116                           
  4117                           ;PWMCCP2.c: 18:     unsigned int PWMDutyValue;;PWMCCP2.c: 19:     PWMDutyValue = (Wanted
      +                          DutyCycle * 0.01)*1000;
  4118  000E84  0E00               	movlw	0
  4119  000E86  6E14               	movwf	___flmul@a^0,c
  4120  000E88  0E00               	movlw	0
  4121  000E8A  6E15               	movwf	(___flmul@a+1)^0,c
  4122  000E8C  0E7A               	movlw	122
  4123  000E8E  6E16               	movwf	(___flmul@a+2)^0,c
  4124  000E90  0E44               	movlw	68
  4125  000E92  6E17               	movwf	(___flmul@a+3)^0,c
  4126  000E94  C035  F010         	movff	_PWM_DutyCycleCCP2$2260,___flmul@b
  4127  000E98  C036  F011         	movff	_PWM_DutyCycleCCP2$2260+1,___flmul@b+1
  4128  000E9C  C037  F012         	movff	_PWM_DutyCycleCCP2$2260+2,___flmul@b+2
  4129  000EA0  C038  F013         	movff	_PWM_DutyCycleCCP2$2260+3,___flmul@b+3
  4130  000EA4  EC16  F000         	call	___flmul	;wreg free
  4131  000EA8  C010  F029         	movff	?___flmul,___fltol@f1
  4132  000EAC  C011  F02A         	movff	?___flmul+1,___fltol@f1+1
  4133  000EB0  C012  F02B         	movff	?___flmul+2,___fltol@f1+2
  4134  000EB4  C013  F02C         	movff	?___flmul+3,___fltol@f1+3
  4135  000EB8  EC40  F006         	call	___fltol	;wreg free
  4136  000EBC  C029  F03A         	movff	?___fltol,PWM_DutyCycleCCP2@PWMDutyValue
  4137  000EC0  C02A  F03B         	movff	?___fltol+1,PWM_DutyCycleCCP2@PWMDutyValue+1
  4138  000EC4                     
  4139                           ;PWMCCP2.c: 21:     CCP2CONbits.DC2B = (PWMDutyValue & 0x03);
  4140  000EC4  C03A  F033         	movff	PWM_DutyCycleCCP2@PWMDutyValue,??_PWM_DutyCycleCCP2
  4141  000EC8  0E03               	movlw	3
  4142  000ECA  1633               	andwf	??_PWM_DutyCycleCCP2^0,f,c
  4143  000ECC  3A33               	swapf	??_PWM_DutyCycleCCP2^0,f,c
  4144  000ECE  50BA               	movf	186,w,c	;volatile
  4145  000ED0  1833               	xorwf	??_PWM_DutyCycleCCP2^0,w,c
  4146  000ED2  0BCF               	andlw	-49
  4147  000ED4  1833               	xorwf	??_PWM_DutyCycleCCP2^0,w,c
  4148  000ED6  6EBA               	movwf	186,c	;volatile
  4149  000ED8                     
  4150                           ;PWMCCP2.c: 22:     CCPR2L = ((PWMDutyValue >> 2)&0xFF);
  4151  000ED8  C03A  F033         	movff	PWM_DutyCycleCCP2@PWMDutyValue,??_PWM_DutyCycleCCP2
  4152  000EDC  C03B  F034         	movff	PWM_DutyCycleCCP2@PWMDutyValue+1,??_PWM_DutyCycleCCP2+1
  4153  000EE0  90D8               	bcf	status,0,c
  4154  000EE2  3234               	rrcf	(??_PWM_DutyCycleCCP2+1)^0,f,c
  4155  000EE4  3233               	rrcf	??_PWM_DutyCycleCCP2^0,f,c
  4156  000EE6  90D8               	bcf	status,0,c
  4157  000EE8  3234               	rrcf	(??_PWM_DutyCycleCCP2+1)^0,f,c
  4158  000EEA  3233               	rrcf	??_PWM_DutyCycleCCP2^0,f,c
  4159  000EEC  5033               	movf	??_PWM_DutyCycleCCP2^0,w,c
  4160  000EEE  6EBB               	movwf	187,c	;volatile
  4161  000EF0  0012               	return		;funcret
  4162  000EF2                     __end_of_PWM_DutyCycleCCP2:
  4163                           	opt callstack 0
  4164                           
  4165 ;; *************** function _PWM_DutyCycleCCP1 *****************
  4166 ;; Defined at:
  4167 ;;		line 17 in file "PWMCCP1.c"
  4168 ;; Parameters:    Size  Location     Type
  4169 ;;  WantedDutyCy    1    wreg     unsigned char 
  4170 ;; Auto vars:     Size  Location     Type
  4171 ;;  WantedDutyCy    1   56[COMRAM] unsigned char 
  4172 ;;  PWMDutyValue    2   57[COMRAM] unsigned int 
  4173 ;; Return value:  Size  Location     Type
  4174 ;;                  1    wreg      void 
  4175 ;; Registers used:
  4176 ;;		wreg, status,2, status,0, prodl, prodh, cstack
  4177 ;; Tracked objects:
  4178 ;;		On entry : 0/0
  4179 ;;		On exit  : 0/0
  4180 ;;		Unchanged: 0/0
  4181 ;; Data sizes:     COMRAM   BANK0   BANK1   BANK2   BANK3   BANK4   BANK5   BANK6   BANK7
  4182 ;;      Params:         0       0       0       0       0       0       0       0       0
  4183 ;;      Locals:         7       0       0       0       0       0       0       0       0
  4184 ;;      Temps:          2       0       0       0       0       0       0       0       0
  4185 ;;      Totals:         9       0       0       0       0       0       0       0       0
  4186 ;;Total ram usage:        9 bytes
  4187 ;; Hardware stack levels used:    1
  4188 ;; Hardware stack levels required when called:    3
  4189 ;; This function calls:
  4190 ;;		___flmul
  4191 ;;		___fltol
  4192 ;;		___xxtofl
  4193 ;; This function is called by:
  4194 ;;		_main
  4195 ;; This function uses a non-reentrant model
  4196 ;;
  4197                           
  4198                           	psect	text19
  4199  000EF2                     __ptext19:
  4200                           	opt callstack 0
  4201  000EF2                     _PWM_DutyCycleCCP1:
  4202                           	opt callstack 27
  4203                           
  4204                           ;incstack = 0
  4205                           ;PWM_DutyCycleCCP1@WantedDutyCycle stored from wreg
  4206  000EF2  6E39               	movwf	PWM_DutyCycleCCP1@WantedDutyCycle^0,c
  4207  000EF4                     
  4208                           ;PWMCCP1.c: 19:     unsigned int PWMDutyValue;;PWMCCP1.c: 20:     PWMDutyValue = (Wanted
      +                          DutyCycle * 0.01)*1000;
  4209  000EF4  0E0A               	movlw	10
  4210  000EF6  6E14               	movwf	___flmul@a^0,c
  4211  000EF8  0ED7               	movlw	215
  4212  000EFA  6E15               	movwf	(___flmul@a+1)^0,c
  4213  000EFC  0E23               	movlw	35
  4214  000EFE  6E16               	movwf	(___flmul@a+2)^0,c
  4215  000F00  0E3C               	movlw	60
  4216  000F02  6E17               	movwf	(___flmul@a+3)^0,c
  4217  000F04  5039               	movf	PWM_DutyCycleCCP1@WantedDutyCycle^0,w,c
  4218  000F06  6E02               	movwf	___xxtofl@val^0,c
  4219  000F08  6A03               	clrf	(___xxtofl@val+1)^0,c
  4220  000F0A  6A04               	clrf	(___xxtofl@val+2)^0,c
  4221  000F0C  6A05               	clrf	(___xxtofl@val+3)^0,c
  4222  000F0E  0E01               	movlw	1
  4223  000F10  ECD8  F004         	call	___xxtofl
  4224  000F14  C002  F010         	movff	?___xxtofl,___flmul@b
  4225  000F18  C003  F011         	movff	?___xxtofl+1,___flmul@b+1
  4226  000F1C  C004  F012         	movff	?___xxtofl+2,___flmul@b+2
  4227  000F20  C005  F013         	movff	?___xxtofl+3,___flmul@b+3
  4228  000F24  EC16  F000         	call	___flmul	;wreg free
  4229  000F28  C010  F035         	movff	?___flmul,_PWM_DutyCycleCCP1$2261
  4230  000F2C  C011  F036         	movff	?___flmul+1,_PWM_DutyCycleCCP1$2261+1
  4231  000F30  C012  F037         	movff	?___flmul+2,_PWM_DutyCycleCCP1$2261+2
  4232  000F34  C013  F038         	movff	?___flmul+3,_PWM_DutyCycleCCP1$2261+3
  4233                           
  4234                           ;PWMCCP1.c: 19:     unsigned int PWMDutyValue;;PWMCCP1.c: 20:     PWMDutyValue = (Wanted
      +                          DutyCycle * 0.01)*1000;
  4235  000F38  0E00               	movlw	0
  4236  000F3A  6E14               	movwf	___flmul@a^0,c
  4237  000F3C  0E00               	movlw	0
  4238  000F3E  6E15               	movwf	(___flmul@a+1)^0,c
  4239  000F40  0E7A               	movlw	122
  4240  000F42  6E16               	movwf	(___flmul@a+2)^0,c
  4241  000F44  0E44               	movlw	68
  4242  000F46  6E17               	movwf	(___flmul@a+3)^0,c
  4243  000F48  C035  F010         	movff	_PWM_DutyCycleCCP1$2261,___flmul@b
  4244  000F4C  C036  F011         	movff	_PWM_DutyCycleCCP1$2261+1,___flmul@b+1
  4245  000F50  C037  F012         	movff	_PWM_DutyCycleCCP1$2261+2,___flmul@b+2
  4246  000F54  C038  F013         	movff	_PWM_DutyCycleCCP1$2261+3,___flmul@b+3
  4247  000F58  EC16  F000         	call	___flmul	;wreg free
  4248  000F5C  C010  F029         	movff	?___flmul,___fltol@f1
  4249  000F60  C011  F02A         	movff	?___flmul+1,___fltol@f1+1
  4250  000F64  C012  F02B         	movff	?___flmul+2,___fltol@f1+2
  4251  000F68  C013  F02C         	movff	?___flmul+3,___fltol@f1+3
  4252  000F6C  EC40  F006         	call	___fltol	;wreg free
  4253  000F70  C029  F03A         	movff	?___fltol,PWM_DutyCycleCCP1@PWMDutyValue
  4254  000F74  C02A  F03B         	movff	?___fltol+1,PWM_DutyCycleCCP1@PWMDutyValue+1
  4255  000F78                     
  4256                           ;PWMCCP1.c: 22:     CCP1CONbits.DC1B = (PWMDutyValue & 0x03);
  4257  000F78  C03A  F033         	movff	PWM_DutyCycleCCP1@PWMDutyValue,??_PWM_DutyCycleCCP1
  4258  000F7C  0E03               	movlw	3
  4259  000F7E  1633               	andwf	??_PWM_DutyCycleCCP1^0,f,c
  4260  000F80  3A33               	swapf	??_PWM_DutyCycleCCP1^0,f,c
  4261  000F82  50BD               	movf	189,w,c	;volatile
  4262  000F84  1833               	xorwf	??_PWM_DutyCycleCCP1^0,w,c
  4263  000F86  0BCF               	andlw	-49
  4264  000F88  1833               	xorwf	??_PWM_DutyCycleCCP1^0,w,c
  4265  000F8A  6EBD               	movwf	189,c	;volatile
  4266  000F8C                     
  4267                           ;PWMCCP1.c: 23:     CCPR1L = ((PWMDutyValue >> 2)&0xFF);
  4268  000F8C  C03A  F033         	movff	PWM_DutyCycleCCP1@PWMDutyValue,??_PWM_DutyCycleCCP1
  4269  000F90  C03B  F034         	movff	PWM_DutyCycleCCP1@PWMDutyValue+1,??_PWM_DutyCycleCCP1+1
  4270  000F94  90D8               	bcf	status,0,c
  4271  000F96  3234               	rrcf	(??_PWM_DutyCycleCCP1+1)^0,f,c
  4272  000F98  3233               	rrcf	??_PWM_DutyCycleCCP1^0,f,c
  4273  000F9A  90D8               	bcf	status,0,c
  4274  000F9C  3234               	rrcf	(??_PWM_DutyCycleCCP1+1)^0,f,c
  4275  000F9E  3233               	rrcf	??_PWM_DutyCycleCCP1^0,f,c
  4276  000FA0  5033               	movf	??_PWM_DutyCycleCCP1^0,w,c
  4277  000FA2  6EBE               	movwf	190,c	;volatile
  4278  000FA4  0012               	return		;funcret
  4279  000FA6                     __end_of_PWM_DutyCycleCCP1:
  4280                           	opt callstack 0
  4281                           
  4282 ;; *************** function ___xxtofl *****************
  4283 ;; Defined at:
  4284 ;;		line 10 in file "C:\Program Files (x86)\Microchip\xc8\v2.10\pic\sources\c99\common\xxtofl.c"
  4285 ;; Parameters:    Size  Location     Type
  4286 ;;  sign            1    wreg     unsigned char 
  4287 ;;  val             4    1[COMRAM] long 
  4288 ;; Auto vars:     Size  Location     Type
  4289 ;;  sign            1    9[COMRAM] unsigned char 
  4290 ;;  arg             4   11[COMRAM] unsigned long 
  4291 ;;  exp             1   10[COMRAM] unsigned char 
  4292 ;; Return value:  Size  Location     Type
  4293 ;;                  4    1[COMRAM] unsigned char 
  4294 ;; Registers used:
  4295 ;;		wreg, status,2, status,0
  4296 ;; Tracked objects:
  4297 ;;		On entry : 0/0
  4298 ;;		On exit  : 0/0
  4299 ;;		Unchanged: 0/0
  4300 ;; Data sizes:     COMRAM   BANK0   BANK1   BANK2   BANK3   BANK4   BANK5   BANK6   BANK7
  4301 ;;      Params:         4       0       0       0       0       0       0       0       0
  4302 ;;      Locals:         6       0       0       0       0       0       0       0       0
  4303 ;;      Temps:          4       0       0       0       0       0       0       0       0
  4304 ;;      Totals:        14       0       0       0       0       0       0       0       0
  4305 ;;Total ram usage:       14 bytes
  4306 ;; Hardware stack levels used:    1
  4307 ;; Hardware stack levels required when called:    2
  4308 ;; This function calls:
  4309 ;;		Nothing
  4310 ;; This function is called by:
  4311 ;;		_PWM_DutyCycleCCP2
  4312 ;;		_PWM_DutyCycleCCP1
  4313 ;; This function uses a non-reentrant model
  4314 ;;
  4315                           
  4316                           	psect	text20
  4317  0009B0                     __ptext20:
  4318                           	opt callstack 0
  4319  0009B0                     ___xxtofl:
  4320                           	opt callstack 27
  4321                           
  4322                           ;incstack = 0
  4323                           ;___xxtofl@sign stored from wreg
  4324  0009B0  6E0A               	movwf	___xxtofl@sign^0,c
  4325  0009B2  500A               	movf	___xxtofl@sign^0,w,c
  4326  0009B4  B4D8               	btfsc	status,2,c
  4327  0009B6  EFDF  F004         	goto	u1161
  4328  0009BA  EFE1  F004         	goto	u1160
  4329  0009BE                     u1161:
  4330  0009BE  EF03  F005         	goto	l1037
  4331  0009C2                     u1160:
  4332  0009C2  BE05               	btfsc	(___xxtofl@val+3)^0,7,c
  4333  0009C4  EFE8  F004         	goto	u1170
  4334  0009C8  EFE6  F004         	goto	u1171
  4335  0009CC                     u1171:
  4336  0009CC  EF03  F005         	goto	l1037
  4337  0009D0                     u1170:
  4338  0009D0  C002  F006         	movff	___xxtofl@val,??___xxtofl
  4339  0009D4  C003  F007         	movff	___xxtofl@val+1,??___xxtofl+1
  4340  0009D8  C004  F008         	movff	___xxtofl@val+2,??___xxtofl+2
  4341  0009DC  C005  F009         	movff	___xxtofl@val+3,??___xxtofl+3
  4342  0009E0  1E06               	comf	??___xxtofl^0,f,c
  4343  0009E2  1E07               	comf	(??___xxtofl+1)^0,f,c
  4344  0009E4  1E08               	comf	(??___xxtofl+2)^0,f,c
  4345  0009E6  1E09               	comf	(??___xxtofl+3)^0,f,c
  4346  0009E8  2A06               	incf	??___xxtofl^0,f,c
  4347  0009EA  0E00               	movlw	0
  4348  0009EC  2207               	addwfc	(??___xxtofl+1)^0,f,c
  4349  0009EE  2208               	addwfc	(??___xxtofl+2)^0,f,c
  4350  0009F0  2209               	addwfc	(??___xxtofl+3)^0,f,c
  4351  0009F2  C006  F00C         	movff	??___xxtofl,___xxtofl@arg
  4352  0009F6  C007  F00D         	movff	??___xxtofl+1,___xxtofl@arg+1
  4353  0009FA  C008  F00E         	movff	??___xxtofl+2,___xxtofl@arg+2
  4354  0009FE  C009  F00F         	movff	??___xxtofl+3,___xxtofl@arg+3
  4355  000A02  EF0B  F005         	goto	l2033
  4356  000A06                     l1037:
  4357  000A06  C002  F00C         	movff	___xxtofl@val,___xxtofl@arg
  4358  000A0A  C003  F00D         	movff	___xxtofl@val+1,___xxtofl@arg+1
  4359  000A0E  C004  F00E         	movff	___xxtofl@val+2,___xxtofl@arg+2
  4360  000A12  C005  F00F         	movff	___xxtofl@val+3,___xxtofl@arg+3
  4361  000A16                     l2033:
  4362  000A16  5002               	movf	___xxtofl@val^0,w,c
  4363  000A18  1003               	iorwf	(___xxtofl@val+1)^0,w,c
  4364  000A1A  1004               	iorwf	(___xxtofl@val+2)^0,w,c
  4365  000A1C  1005               	iorwf	(___xxtofl@val+3)^0,w,c
  4366  000A1E  A4D8               	btfss	status,2,c
  4367  000A20  EF14  F005         	goto	u1181
  4368  000A24  EF16  F005         	goto	u1180
  4369  000A28                     u1181:
  4370  000A28  EF20  F005         	goto	l2039
  4371  000A2C                     u1180:
  4372  000A2C  0E00               	movlw	0
  4373  000A2E  6E02               	movwf	?___xxtofl^0,c
  4374  000A30  0E00               	movlw	0
  4375  000A32  6E03               	movwf	(?___xxtofl+1)^0,c
  4376  000A34  0E00               	movlw	0
  4377  000A36  6E04               	movwf	(?___xxtofl+2)^0,c
  4378  000A38  0E00               	movlw	0
  4379  000A3A  6E05               	movwf	(?___xxtofl+3)^0,c
  4380  000A3C  EFB1  F005         	goto	l1040
  4381  000A40                     l2039:
  4382  000A40  0E96               	movlw	150
  4383  000A42  6E0B               	movwf	___xxtofl@exp^0,c
  4384  000A44  EF2A  F005         	goto	l2043
  4385  000A48                     l2041:
  4386  000A48  2A0B               	incf	___xxtofl@exp^0,f,c
  4387  000A4A  90D8               	bcf	status,0,c
  4388  000A4C  320F               	rrcf	(___xxtofl@arg+3)^0,f,c
  4389  000A4E  320E               	rrcf	(___xxtofl@arg+2)^0,f,c
  4390  000A50  320D               	rrcf	(___xxtofl@arg+1)^0,f,c
  4391  000A52  320C               	rrcf	___xxtofl@arg^0,f,c
  4392  000A54                     l2043:
  4393  000A54  0E00               	movlw	0
  4394  000A56  140C               	andwf	___xxtofl@arg^0,w,c
  4395  000A58  6E06               	movwf	??___xxtofl^0,c
  4396  000A5A  0E00               	movlw	0
  4397  000A5C  140D               	andwf	(___xxtofl@arg+1)^0,w,c
  4398  000A5E  6E07               	movwf	(??___xxtofl+1)^0,c
  4399  000A60  0E00               	movlw	0
  4400  000A62  140E               	andwf	(___xxtofl@arg+2)^0,w,c
  4401  000A64  6E08               	movwf	(??___xxtofl+2)^0,c
  4402  000A66  0EFE               	movlw	254
  4403  000A68  140F               	andwf	(___xxtofl@arg+3)^0,w,c
  4404  000A6A  6E09               	movwf	(??___xxtofl+3)^0,c
  4405  000A6C  5006               	movf	??___xxtofl^0,w,c
  4406  000A6E  1007               	iorwf	(??___xxtofl+1)^0,w,c
  4407  000A70  1008               	iorwf	(??___xxtofl+2)^0,w,c
  4408  000A72  1009               	iorwf	(??___xxtofl+3)^0,w,c
  4409  000A74  A4D8               	btfss	status,2,c
  4410  000A76  EF3F  F005         	goto	u1191
  4411  000A7A  EF41  F005         	goto	u1190
  4412  000A7E                     u1191:
  4413  000A7E  EF24  F005         	goto	l2041
  4414  000A82                     u1190:
  4415  000A82  EF4F  F005         	goto	l1044
  4416  000A86                     l2045:
  4417  000A86  2A0B               	incf	___xxtofl@exp^0,f,c
  4418  000A88  0E01               	movlw	1
  4419  000A8A  260C               	addwf	___xxtofl@arg^0,f,c
  4420  000A8C  0E00               	movlw	0
  4421  000A8E  220D               	addwfc	(___xxtofl@arg+1)^0,f,c
  4422  000A90  220E               	addwfc	(___xxtofl@arg+2)^0,f,c
  4423  000A92  220F               	addwfc	(___xxtofl@arg+3)^0,f,c
  4424  000A94  90D8               	bcf	status,0,c
  4425  000A96  320F               	rrcf	(___xxtofl@arg+3)^0,f,c
  4426  000A98  320E               	rrcf	(___xxtofl@arg+2)^0,f,c
  4427  000A9A  320D               	rrcf	(___xxtofl@arg+1)^0,f,c
  4428  000A9C  320C               	rrcf	___xxtofl@arg^0,f,c
  4429  000A9E                     l1044:
  4430  000A9E  0E00               	movlw	0
  4431  000AA0  140C               	andwf	___xxtofl@arg^0,w,c
  4432  000AA2  6E06               	movwf	??___xxtofl^0,c
  4433  000AA4  0E00               	movlw	0
  4434  000AA6  140D               	andwf	(___xxtofl@arg+1)^0,w,c
  4435  000AA8  6E07               	movwf	(??___xxtofl+1)^0,c
  4436  000AAA  0E00               	movlw	0
  4437  000AAC  140E               	andwf	(___xxtofl@arg+2)^0,w,c
  4438  000AAE  6E08               	movwf	(??___xxtofl+2)^0,c
  4439  000AB0  0EFF               	movlw	255
  4440  000AB2  140F               	andwf	(___xxtofl@arg+3)^0,w,c
  4441  000AB4  6E09               	movwf	(??___xxtofl+3)^0,c
  4442  000AB6  5006               	movf	??___xxtofl^0,w,c
  4443  000AB8  1007               	iorwf	(??___xxtofl+1)^0,w,c
  4444  000ABA  1008               	iorwf	(??___xxtofl+2)^0,w,c
  4445  000ABC  1009               	iorwf	(??___xxtofl+3)^0,w,c
  4446  000ABE  A4D8               	btfss	status,2,c
  4447  000AC0  EF64  F005         	goto	u1201
  4448  000AC4  EF66  F005         	goto	u1200
  4449  000AC8                     u1201:
  4450  000AC8  EF43  F005         	goto	l2045
  4451  000ACC                     u1200:
  4452  000ACC  EF6E  F005         	goto	l2053
  4453  000AD0                     l2051:
  4454  000AD0  060B               	decf	___xxtofl@exp^0,f,c
  4455  000AD2  90D8               	bcf	status,0,c
  4456  000AD4  360C               	rlcf	___xxtofl@arg^0,f,c
  4457  000AD6  360D               	rlcf	(___xxtofl@arg+1)^0,f,c
  4458  000AD8  360E               	rlcf	(___xxtofl@arg+2)^0,f,c
  4459  000ADA  360F               	rlcf	(___xxtofl@arg+3)^0,f,c
  4460  000ADC                     l2053:
  4461  000ADC  BE0E               	btfsc	(___xxtofl@arg+2)^0,7,c
  4462  000ADE  EF73  F005         	goto	u1211
  4463  000AE2  EF75  F005         	goto	u1210
  4464  000AE6                     u1211:
  4465  000AE6  EF7D  F005         	goto	l1051
  4466  000AEA                     u1210:
  4467  000AEA  0E02               	movlw	2
  4468  000AEC  600B               	cpfslt	___xxtofl@exp^0,c
  4469  000AEE  EF7B  F005         	goto	u1221
  4470  000AF2  EF7D  F005         	goto	u1220
  4471  000AF6                     u1221:
  4472  000AF6  EF68  F005         	goto	l2051
  4473  000AFA                     u1220:
  4474  000AFA                     l1051:
  4475  000AFA  B00B               	btfsc	___xxtofl@exp^0,0,c
  4476  000AFC  EF82  F005         	goto	u1231
  4477  000B00  EF84  F005         	goto	u1230
  4478  000B04                     u1231:
  4479  000B04  EF85  F005         	goto	l2059
  4480  000B08                     u1230:
  4481  000B08  9E0E               	bcf	(___xxtofl@arg+2)^0,7,c
  4482  000B0A                     l2059:
  4483  000B0A  90D8               	bcf	status,0,c
  4484  000B0C  320B               	rrcf	___xxtofl@exp^0,f,c
  4485  000B0E  C00B  F006         	movff	___xxtofl@exp,??___xxtofl
  4486  000B12  6A07               	clrf	(??___xxtofl+1)^0,c
  4487  000B14  6A08               	clrf	(??___xxtofl+2)^0,c
  4488  000B16  6A09               	clrf	(??___xxtofl+3)^0,c
  4489  000B18  C006  F009         	movff	??___xxtofl,??___xxtofl+3
  4490  000B1C  6A08               	clrf	(??___xxtofl+2)^0,c
  4491  000B1E  6A07               	clrf	(??___xxtofl+1)^0,c
  4492  000B20  6A06               	clrf	??___xxtofl^0,c
  4493  000B22  5006               	movf	??___xxtofl^0,w,c
  4494  000B24  120C               	iorwf	___xxtofl@arg^0,f,c
  4495  000B26  5007               	movf	(??___xxtofl+1)^0,w,c
  4496  000B28  120D               	iorwf	(___xxtofl@arg+1)^0,f,c
  4497  000B2A  5008               	movf	(??___xxtofl+2)^0,w,c
  4498  000B2C  120E               	iorwf	(___xxtofl@arg+2)^0,f,c
  4499  000B2E  5009               	movf	(??___xxtofl+3)^0,w,c
  4500  000B30  120F               	iorwf	(___xxtofl@arg+3)^0,f,c
  4501  000B32  500A               	movf	___xxtofl@sign^0,w,c
  4502  000B34  B4D8               	btfsc	status,2,c
  4503  000B36  EF9F  F005         	goto	u1241
  4504  000B3A  EFA1  F005         	goto	u1240
  4505  000B3E                     u1241:
  4506  000B3E  EFA9  F005         	goto	l2069
  4507  000B42                     u1240:
  4508  000B42  BE05               	btfsc	(___xxtofl@val+3)^0,7,c
  4509  000B44  EFA8  F005         	goto	u1250
  4510  000B48  EFA6  F005         	goto	u1251
  4511  000B4C                     u1251:
  4512  000B4C  EFA9  F005         	goto	l2069
  4513  000B50                     u1250:
  4514  000B50  8E0F               	bsf	(___xxtofl@arg+3)^0,7,c
  4515  000B52                     l2069:
  4516  000B52  C00C  F002         	movff	___xxtofl@arg,?___xxtofl
  4517  000B56  C00D  F003         	movff	___xxtofl@arg+1,?___xxtofl+1
  4518  000B5A  C00E  F004         	movff	___xxtofl@arg+2,?___xxtofl+2
  4519  000B5E  C00F  F005         	movff	___xxtofl@arg+3,?___xxtofl+3
  4520  000B62                     l1040:
  4521  000B62  0012               	return		;funcret
  4522  000B64                     __end_of___xxtofl:
  4523                           	opt callstack 0
  4524                           
  4525 ;; *************** function ___fltol *****************
  4526 ;; Defined at:
  4527 ;;		line 43 in file "C:\Program Files (x86)\Microchip\xc8\v2.10\pic\sources\c99\common\fltol.c"
  4528 ;; Parameters:    Size  Location     Type
  4529 ;;  f1              4   40[COMRAM] unsigned char 
  4530 ;; Auto vars:     Size  Location     Type
  4531 ;;  exp1            1   49[COMRAM] unsigned char 
  4532 ;;  sign1           1   48[COMRAM] unsigned char 
  4533 ;; Return value:  Size  Location     Type
  4534 ;;                  4   40[COMRAM] long 
  4535 ;; Registers used:
  4536 ;;		wreg, status,2, status,0
  4537 ;; Tracked objects:
  4538 ;;		On entry : 0/0
  4539 ;;		On exit  : 0/0
  4540 ;;		Unchanged: 0/0
  4541 ;; Data sizes:     COMRAM   BANK0   BANK1   BANK2   BANK3   BANK4   BANK5   BANK6   BANK7
  4542 ;;      Params:         4       0       0       0       0       0       0       0       0
  4543 ;;      Locals:         2       0       0       0       0       0       0       0       0
  4544 ;;      Temps:          4       0       0       0       0       0       0       0       0
  4545 ;;      Totals:        10       0       0       0       0       0       0       0       0
  4546 ;;Total ram usage:       10 bytes
  4547 ;; Hardware stack levels used:    1
  4548 ;; Hardware stack levels required when called:    2
  4549 ;; This function calls:
  4550 ;;		Nothing
  4551 ;; This function is called by:
  4552 ;;		_PWM_DutyCycleCCP2
  4553 ;;		_PWM_DutyCycleCCP1
  4554 ;; This function uses a non-reentrant model
  4555 ;;
  4556                           
  4557                           	psect	text21
  4558  000C80                     __ptext21:
  4559                           	opt callstack 0
  4560  000C80                     ___fltol:
  4561                           	opt callstack 27
  4562  000C80  342B               	rlcf	(___fltol@f1+2)^0,w,c
  4563  000C82  342C               	rlcf	(___fltol@f1+3)^0,w,c
  4564  000C84  6E32               	movwf	___fltol@exp1^0,c
  4565  000C86  5032               	movf	___fltol@exp1^0,w,c
  4566  000C88  A4D8               	btfss	status,2,c
  4567  000C8A  EF49  F006         	goto	u1091
  4568  000C8E  EF4B  F006         	goto	u1090
  4569  000C92                     u1091:
  4570  000C92  EF55  F006         	goto	l1989
  4571  000C96                     u1090:
  4572  000C96                     l1985:
  4573  000C96  0E00               	movlw	0
  4574  000C98  6E29               	movwf	?___fltol^0,c
  4575  000C9A  0E00               	movlw	0
  4576  000C9C  6E2A               	movwf	(?___fltol+1)^0,c
  4577  000C9E  0E00               	movlw	0
  4578  000CA0  6E2B               	movwf	(?___fltol+2)^0,c
  4579  000CA2  0E00               	movlw	0
  4580  000CA4  6E2C               	movwf	(?___fltol+3)^0,c
  4581  000CA6  EFC2  F006         	goto	l679
  4582  000CAA                     l1989:
  4583  000CAA  C029  F02D         	movff	___fltol@f1,??___fltol
  4584  000CAE  C02A  F02E         	movff	___fltol@f1+1,??___fltol+1
  4585  000CB2  C02B  F02F         	movff	___fltol@f1+2,??___fltol+2
  4586  000CB6  C02C  F030         	movff	___fltol@f1+3,??___fltol+3
  4587  000CBA  0E20               	movlw	32
  4588  000CBC  EF65  F006         	goto	u1100
  4589  000CC0                     u1105:
  4590  000CC0  90D8               	bcf	status,0,c
  4591  000CC2  3230               	rrcf	(??___fltol+3)^0,f,c
  4592  000CC4  322F               	rrcf	(??___fltol+2)^0,f,c
  4593  000CC6  322E               	rrcf	(??___fltol+1)^0,f,c
  4594  000CC8  322D               	rrcf	??___fltol^0,f,c
  4595  000CCA                     u1100:
  4596  000CCA  2EE8               	decfsz	wreg,f,c
  4597  000CCC  EF60  F006         	goto	u1105
  4598  000CD0  502D               	movf	??___fltol^0,w,c
  4599  000CD2  6E31               	movwf	___fltol@sign1^0,c
  4600  000CD4  8E2B               	bsf	(___fltol@f1+2)^0,7,c
  4601  000CD6  0EFF               	movlw	255
  4602  000CD8  1629               	andwf	___fltol@f1^0,f,c
  4603  000CDA  0EFF               	movlw	255
  4604  000CDC  162A               	andwf	(___fltol@f1+1)^0,f,c
  4605  000CDE  0EFF               	movlw	255
  4606  000CE0  162B               	andwf	(___fltol@f1+2)^0,f,c
  4607  000CE2  0E00               	movlw	0
  4608  000CE4  162C               	andwf	(___fltol@f1+3)^0,f,c
  4609  000CE6  0E96               	movlw	150
  4610  000CE8  5E32               	subwf	___fltol@exp1^0,f,c
  4611  000CEA  BE32               	btfsc	___fltol@exp1^0,7,c
  4612  000CEC  EF7C  F006         	goto	u1110
  4613  000CF0  EF7A  F006         	goto	u1111
  4614  000CF4                     u1111:
  4615  000CF4  EF92  F006         	goto	l2009
  4616  000CF8                     u1110:
  4617  000CF8  5032               	movf	___fltol@exp1^0,w,c
  4618  000CFA  0A80               	xorlw	128
  4619  000CFC  0F97               	addlw	151
  4620  000CFE  B0D8               	btfsc	status,0,c
  4621  000D00  EF84  F006         	goto	u1121
  4622  000D04  EF86  F006         	goto	u1120
  4623  000D08                     u1121:
  4624  000D08  EF88  F006         	goto	l2005
  4625  000D0C                     u1120:
  4626  000D0C  EF4B  F006         	goto	l1985
  4627  000D10                     l2005:
  4628  000D10  90D8               	bcf	status,0,c
  4629  000D12  322C               	rrcf	(___fltol@f1+3)^0,f,c
  4630  000D14  322B               	rrcf	(___fltol@f1+2)^0,f,c
  4631  000D16  322A               	rrcf	(___fltol@f1+1)^0,f,c
  4632  000D18  3229               	rrcf	___fltol@f1^0,f,c
  4633  000D1A  3E32               	incfsz	___fltol@exp1^0,f,c
  4634  000D1C  EF88  F006         	goto	l2005
  4635  000D20  EFAA  F006         	goto	l2019
  4636  000D24                     l2009:
  4637  000D24  0E1F               	movlw	31
  4638  000D26  6432               	cpfsgt	___fltol@exp1^0,c
  4639  000D28  EF98  F006         	goto	u1131
  4640  000D2C  EF9A  F006         	goto	u1130
  4641  000D30                     u1131:
  4642  000D30  EFA2  F006         	goto	l2017
  4643  000D34                     u1130:
  4644  000D34  EF4B  F006         	goto	l1985
  4645  000D38                     l2015:
  4646  000D38  90D8               	bcf	status,0,c
  4647  000D3A  3629               	rlcf	___fltol@f1^0,f,c
  4648  000D3C  362A               	rlcf	(___fltol@f1+1)^0,f,c
  4649  000D3E  362B               	rlcf	(___fltol@f1+2)^0,f,c
  4650  000D40  362C               	rlcf	(___fltol@f1+3)^0,f,c
  4651  000D42  0632               	decf	___fltol@exp1^0,f,c
  4652  000D44                     l2017:
  4653  000D44  5032               	movf	___fltol@exp1^0,w,c
  4654  000D46  A4D8               	btfss	status,2,c
  4655  000D48  EFA8  F006         	goto	u1141
  4656  000D4C  EFAA  F006         	goto	u1140
  4657  000D50                     u1141:
  4658  000D50  EF9C  F006         	goto	l2015
  4659  000D54                     u1140:
  4660  000D54                     l2019:
  4661  000D54  5031               	movf	___fltol@sign1^0,w,c
  4662  000D56  B4D8               	btfsc	status,2,c
  4663  000D58  EFB0  F006         	goto	u1151
  4664  000D5C  EFB2  F006         	goto	u1150
  4665  000D60                     u1151:
  4666  000D60  EFBA  F006         	goto	l2023
  4667  000D64                     u1150:
  4668  000D64  1E2C               	comf	(___fltol@f1+3)^0,f,c
  4669  000D66  1E2B               	comf	(___fltol@f1+2)^0,f,c
  4670  000D68  1E2A               	comf	(___fltol@f1+1)^0,f,c
  4671  000D6A  6C29               	negf	___fltol@f1^0,c
  4672  000D6C  0E00               	movlw	0
  4673  000D6E  222A               	addwfc	(___fltol@f1+1)^0,f,c
  4674  000D70  222B               	addwfc	(___fltol@f1+2)^0,f,c
  4675  000D72  222C               	addwfc	(___fltol@f1+3)^0,f,c
  4676  000D74                     l2023:
  4677  000D74  C029  F029         	movff	___fltol@f1,?___fltol
  4678  000D78  C02A  F02A         	movff	___fltol@f1+1,?___fltol+1
  4679  000D7C  C02B  F02B         	movff	___fltol@f1+2,?___fltol+2
  4680  000D80  C02C  F02C         	movff	___fltol@f1+3,?___fltol+3
  4681  000D84                     l679:
  4682  000D84  0012               	return		;funcret
  4683  000D86                     __end_of___fltol:
  4684                           	opt callstack 0
  4685                           
  4686 ;; *************** function ___flmul *****************
  4687 ;; Defined at:
  4688 ;;		line 8 in file "C:\Program Files (x86)\Microchip\xc8\v2.10\pic\sources\c99\common\sprcmul.c"
  4689 ;; Parameters:    Size  Location     Type
  4690 ;;  b               4   15[COMRAM] long 
  4691 ;;  a               4   19[COMRAM] long 
  4692 ;; Auto vars:     Size  Location     Type
  4693 ;;  prod            4   34[COMRAM] struct .
  4694 ;;  grs             4   28[COMRAM] unsigned long 
  4695 ;;  temp            2   38[COMRAM] struct .
  4696 ;;  bexp            1   33[COMRAM] unsigned char 
  4697 ;;  aexp            1   32[COMRAM] unsigned char 
  4698 ;;  sign            1   27[COMRAM] unsigned char 
  4699 ;; Return value:  Size  Location     Type
  4700 ;;                  4   15[COMRAM] unsigned char 
  4701 ;; Registers used:
  4702 ;;		wreg, status,2, status,0, prodl, prodh
  4703 ;; Tracked objects:
  4704 ;;		On entry : 0/0
  4705 ;;		On exit  : 0/0
  4706 ;;		Unchanged: 0/0
  4707 ;; Data sizes:     COMRAM   BANK0   BANK1   BANK2   BANK3   BANK4   BANK5   BANK6   BANK7
  4708 ;;      Params:         8       0       0       0       0       0       0       0       0
  4709 ;;      Locals:        13       0       0       0       0       0       0       0       0
  4710 ;;      Temps:          4       0       0       0       0       0       0       0       0
  4711 ;;      Totals:        25       0       0       0       0       0       0       0       0
  4712 ;;Total ram usage:       25 bytes
  4713 ;; Hardware stack levels used:    1
  4714 ;; Hardware stack levels required when called:    2
  4715 ;; This function calls:
  4716 ;;		Nothing
  4717 ;; This function is called by:
  4718 ;;		_PWM_DutyCycleCCP2
  4719 ;;		_PWM_DutyCycleCCP1
  4720 ;; This function uses a non-reentrant model
  4721 ;;
  4722                           
  4723                           	psect	text22
  4724  00002C                     __ptext22:
  4725                           	opt callstack 0
  4726  00002C                     ___flmul:
  4727                           	opt callstack 27
  4728  00002C  5013               	movf	(___flmul@b+3)^0,w,c
  4729  00002E  0B80               	andlw	128
  4730  000030  6E1C               	movwf	___flmul@sign^0,c
  4731  000032  5013               	movf	(___flmul@b+3)^0,w,c
  4732  000034  2413               	addwf	(___flmul@b+3)^0,w,c
  4733  000036  6E22               	movwf	___flmul@bexp^0,c
  4734  000038  AE12               	btfss	(___flmul@b+2)^0,7,c
  4735  00003A  EF21  F000         	goto	u901
  4736  00003E  EF23  F000         	goto	u900
  4737  000042                     u901:
  4738  000042  EF24  F000         	goto	l1859
  4739  000046                     u900:
  4740  000046  8022               	bsf	___flmul@bexp^0,0,c
  4741  000048                     l1859:
  4742  000048  5022               	movf	___flmul@bexp^0,w,c
  4743  00004A  B4D8               	btfsc	status,2,c
  4744  00004C  EF2A  F000         	goto	u911
  4745  000050  EF2C  F000         	goto	u910
  4746  000054                     u911:
  4747  000054  EF3F  F000         	goto	l1867
  4748  000058                     u910:
  4749  000058  2822               	incf	___flmul@bexp^0,w,c
  4750  00005A  A4D8               	btfss	status,2,c
  4751  00005C  EF32  F000         	goto	u921
  4752  000060  EF34  F000         	goto	u920
  4753  000064                     u921:
  4754  000064  EF3C  F000         	goto	l1865
  4755  000068                     u920:
  4756  000068  0E00               	movlw	0
  4757  00006A  6E10               	movwf	___flmul@b^0,c
  4758  00006C  0E00               	movlw	0
  4759  00006E  6E11               	movwf	(___flmul@b+1)^0,c
  4760  000070  0E00               	movlw	0
  4761  000072  6E12               	movwf	(___flmul@b+2)^0,c
  4762  000074  0E00               	movlw	0
  4763  000076  6E13               	movwf	(___flmul@b+3)^0,c
  4764  000078                     l1865:
  4765  000078  8E12               	bsf	(___flmul@b+2)^0,7,c
  4766  00007A  EF47  F000         	goto	l1869
  4767  00007E                     l1867:
  4768  00007E  0E00               	movlw	0
  4769  000080  6E10               	movwf	___flmul@b^0,c
  4770  000082  0E00               	movlw	0
  4771  000084  6E11               	movwf	(___flmul@b+1)^0,c
  4772  000086  0E00               	movlw	0
  4773  000088  6E12               	movwf	(___flmul@b+2)^0,c
  4774  00008A  0E00               	movlw	0
  4775  00008C  6E13               	movwf	(___flmul@b+3)^0,c
  4776  00008E                     l1869:
  4777  00008E  5017               	movf	(___flmul@a+3)^0,w,c
  4778  000090  0B80               	andlw	128
  4779  000092  1A1C               	xorwf	___flmul@sign^0,f,c
  4780  000094  5017               	movf	(___flmul@a+3)^0,w,c
  4781  000096  2417               	addwf	(___flmul@a+3)^0,w,c
  4782  000098  6E21               	movwf	___flmul@aexp^0,c
  4783  00009A  AE16               	btfss	(___flmul@a+2)^0,7,c
  4784  00009C  EF52  F000         	goto	u931
  4785  0000A0  EF54  F000         	goto	u930
  4786  0000A4                     u931:
  4787  0000A4  EF55  F000         	goto	l1877
  4788  0000A8                     u930:
  4789  0000A8  8021               	bsf	___flmul@aexp^0,0,c
  4790  0000AA                     l1877:
  4791  0000AA  5021               	movf	___flmul@aexp^0,w,c
  4792  0000AC  B4D8               	btfsc	status,2,c
  4793  0000AE  EF5B  F000         	goto	u941
  4794  0000B2  EF5D  F000         	goto	u940
  4795  0000B6                     u941:
  4796  0000B6  EF70  F000         	goto	l1885
  4797  0000BA                     u940:
  4798  0000BA  2821               	incf	___flmul@aexp^0,w,c
  4799  0000BC  A4D8               	btfss	status,2,c
  4800  0000BE  EF63  F000         	goto	u951
  4801  0000C2  EF65  F000         	goto	u950
  4802  0000C6                     u951:
  4803  0000C6  EF6D  F000         	goto	l1883
  4804  0000CA                     u950:
  4805  0000CA  0E00               	movlw	0
  4806  0000CC  6E14               	movwf	___flmul@a^0,c
  4807  0000CE  0E00               	movlw	0
  4808  0000D0  6E15               	movwf	(___flmul@a+1)^0,c
  4809  0000D2  0E00               	movlw	0
  4810  0000D4  6E16               	movwf	(___flmul@a+2)^0,c
  4811  0000D6  0E00               	movlw	0
  4812  0000D8  6E17               	movwf	(___flmul@a+3)^0,c
  4813  0000DA                     l1883:
  4814  0000DA  8E16               	bsf	(___flmul@a+2)^0,7,c
  4815  0000DC  EF78  F000         	goto	l996
  4816  0000E0                     l1885:
  4817  0000E0  0E00               	movlw	0
  4818  0000E2  6E14               	movwf	___flmul@a^0,c
  4819  0000E4  0E00               	movlw	0
  4820  0000E6  6E15               	movwf	(___flmul@a+1)^0,c
  4821  0000E8  0E00               	movlw	0
  4822  0000EA  6E16               	movwf	(___flmul@a+2)^0,c
  4823  0000EC  0E00               	movlw	0
  4824  0000EE  6E17               	movwf	(___flmul@a+3)^0,c
  4825  0000F0                     l996:
  4826  0000F0  5021               	movf	___flmul@aexp^0,w,c
  4827  0000F2  B4D8               	btfsc	status,2,c
  4828  0000F4  EF7E  F000         	goto	u961
  4829  0000F8  EF80  F000         	goto	u960
  4830  0000FC                     u961:
  4831  0000FC  EF88  F000         	goto	l1889
  4832  000100                     u960:
  4833  000100  5022               	movf	___flmul@bexp^0,w,c
  4834  000102  A4D8               	btfss	status,2,c
  4835  000104  EF86  F000         	goto	u971
  4836  000108  EF88  F000         	goto	u970
  4837  00010C                     u971:
  4838  00010C  EF92  F000         	goto	l1893
  4839  000110                     u970:
  4840  000110                     l1889:
  4841  000110  0E00               	movlw	0
  4842  000112  6E10               	movwf	?___flmul^0,c
  4843  000114  0E00               	movlw	0
  4844  000116  6E11               	movwf	(?___flmul+1)^0,c
  4845  000118  0E00               	movlw	0
  4846  00011A  6E12               	movwf	(?___flmul+2)^0,c
  4847  00011C  0E00               	movlw	0
  4848  00011E  6E13               	movwf	(?___flmul+3)^0,c
  4849  000120  EF2A  F002         	goto	l1000
  4850  000124                     l1893:
  4851  000124  5016               	movf	(___flmul@a+2)^0,w,c
  4852  000126  0210               	mulwf	___flmul@b^0,c
  4853  000128  CFF3 F027          	movff	prodl,___flmul@temp
  4854  00012C  CFF4 F028          	movff	prodh,___flmul@temp+1
  4855  000130  5027               	movf	___flmul@temp^0,w,c
  4856  000132  6E1D               	movwf	___flmul@grs^0,c
  4857  000134  6A1E               	clrf	(___flmul@grs+1)^0,c
  4858  000136  6A1F               	clrf	(___flmul@grs+2)^0,c
  4859  000138  6A20               	clrf	(___flmul@grs+3)^0,c
  4860  00013A  5028               	movf	(___flmul@temp+1)^0,w,c
  4861  00013C  6E23               	movwf	___flmul@prod^0,c
  4862  00013E  6A24               	clrf	(___flmul@prod+1)^0,c
  4863  000140  6A25               	clrf	(___flmul@prod+2)^0,c
  4864  000142  6A26               	clrf	(___flmul@prod+3)^0,c
  4865  000144  5015               	movf	(___flmul@a+1)^0,w,c
  4866  000146  0211               	mulwf	(___flmul@b+1)^0,c
  4867  000148  CFF3 F027          	movff	prodl,___flmul@temp
  4868  00014C  CFF4 F028          	movff	prodh,___flmul@temp+1
  4869  000150  5027               	movf	___flmul@temp^0,w,c
  4870  000152  261D               	addwf	___flmul@grs^0,f,c
  4871  000154  0E00               	movlw	0
  4872  000156  221E               	addwfc	(___flmul@grs+1)^0,f,c
  4873  000158  221F               	addwfc	(___flmul@grs+2)^0,f,c
  4874  00015A  2220               	addwfc	(___flmul@grs+3)^0,f,c
  4875  00015C  5028               	movf	(___flmul@temp+1)^0,w,c
  4876  00015E  2623               	addwf	___flmul@prod^0,f,c
  4877  000160  0E00               	movlw	0
  4878  000162  2224               	addwfc	(___flmul@prod+1)^0,f,c
  4879  000164  2225               	addwfc	(___flmul@prod+2)^0,f,c
  4880  000166  2226               	addwfc	(___flmul@prod+3)^0,f,c
  4881  000168  5014               	movf	___flmul@a^0,w,c
  4882  00016A  0212               	mulwf	(___flmul@b+2)^0,c
  4883  00016C  CFF3 F027          	movff	prodl,___flmul@temp
  4884  000170  CFF4 F028          	movff	prodh,___flmul@temp+1
  4885  000174  5027               	movf	___flmul@temp^0,w,c
  4886  000176  261D               	addwf	___flmul@grs^0,f,c
  4887  000178  0E00               	movlw	0
  4888  00017A  221E               	addwfc	(___flmul@grs+1)^0,f,c
  4889  00017C  221F               	addwfc	(___flmul@grs+2)^0,f,c
  4890  00017E  2220               	addwfc	(___flmul@grs+3)^0,f,c
  4891  000180  5028               	movf	(___flmul@temp+1)^0,w,c
  4892  000182  2623               	addwf	___flmul@prod^0,f,c
  4893  000184  0E00               	movlw	0
  4894  000186  2224               	addwfc	(___flmul@prod+1)^0,f,c
  4895  000188  2225               	addwfc	(___flmul@prod+2)^0,f,c
  4896  00018A  2226               	addwfc	(___flmul@prod+3)^0,f,c
  4897  00018C  C01F  F020         	movff	___flmul@grs+2,___flmul@grs+3
  4898  000190  C01E  F01F         	movff	___flmul@grs+1,___flmul@grs+2
  4899  000194  C01D  F01E         	movff	___flmul@grs,___flmul@grs+1
  4900  000198  6A1D               	clrf	___flmul@grs^0,c
  4901  00019A  5014               	movf	___flmul@a^0,w,c
  4902  00019C  0211               	mulwf	(___flmul@b+1)^0,c
  4903  00019E  CFF3 F027          	movff	prodl,___flmul@temp
  4904  0001A2  CFF4 F028          	movff	prodh,___flmul@temp+1
  4905  0001A6  5027               	movf	___flmul@temp^0,w,c
  4906  0001A8  261D               	addwf	___flmul@grs^0,f,c
  4907  0001AA  5028               	movf	(___flmul@temp+1)^0,w,c
  4908  0001AC  221E               	addwfc	(___flmul@grs+1)^0,f,c
  4909  0001AE  0E00               	movlw	0
  4910  0001B0  221F               	addwfc	(___flmul@grs+2)^0,f,c
  4911  0001B2  0E00               	movlw	0
  4912  0001B4  2220               	addwfc	(___flmul@grs+3)^0,f,c
  4913  0001B6  5015               	movf	(___flmul@a+1)^0,w,c
  4914  0001B8  0210               	mulwf	___flmul@b^0,c
  4915  0001BA  CFF3 F027          	movff	prodl,___flmul@temp
  4916  0001BE  CFF4 F028          	movff	prodh,___flmul@temp+1
  4917  0001C2  5027               	movf	___flmul@temp^0,w,c
  4918  0001C4  261D               	addwf	___flmul@grs^0,f,c
  4919  0001C6  5028               	movf	(___flmul@temp+1)^0,w,c
  4920  0001C8  221E               	addwfc	(___flmul@grs+1)^0,f,c
  4921  0001CA  0E00               	movlw	0
  4922  0001CC  221F               	addwfc	(___flmul@grs+2)^0,f,c
  4923  0001CE  0E00               	movlw	0
  4924  0001D0  2220               	addwfc	(___flmul@grs+3)^0,f,c
  4925  0001D2  C01F  F020         	movff	___flmul@grs+2,___flmul@grs+3
  4926  0001D6  C01E  F01F         	movff	___flmul@grs+1,___flmul@grs+2
  4927  0001DA  C01D  F01E         	movff	___flmul@grs,___flmul@grs+1
  4928  0001DE  6A1D               	clrf	___flmul@grs^0,c
  4929  0001E0  5014               	movf	___flmul@a^0,w,c
  4930  0001E2  0210               	mulwf	___flmul@b^0,c
  4931  0001E4  CFF3 F027          	movff	prodl,___flmul@temp
  4932  0001E8  CFF4 F028          	movff	prodh,___flmul@temp+1
  4933  0001EC  5027               	movf	___flmul@temp^0,w,c
  4934  0001EE  261D               	addwf	___flmul@grs^0,f,c
  4935  0001F0  5028               	movf	(___flmul@temp+1)^0,w,c
  4936  0001F2  221E               	addwfc	(___flmul@grs+1)^0,f,c
  4937  0001F4  0E00               	movlw	0
  4938  0001F6  221F               	addwfc	(___flmul@grs+2)^0,f,c
  4939  0001F8  0E00               	movlw	0
  4940  0001FA  2220               	addwfc	(___flmul@grs+3)^0,f,c
  4941  0001FC  5016               	movf	(___flmul@a+2)^0,w,c
  4942  0001FE  0211               	mulwf	(___flmul@b+1)^0,c
  4943  000200  CFF3 F027          	movff	prodl,___flmul@temp
  4944  000204  CFF4 F028          	movff	prodh,___flmul@temp+1
  4945  000208  5027               	movf	___flmul@temp^0,w,c
  4946  00020A  2623               	addwf	___flmul@prod^0,f,c
  4947  00020C  5028               	movf	(___flmul@temp+1)^0,w,c
  4948  00020E  2224               	addwfc	(___flmul@prod+1)^0,f,c
  4949  000210  0E00               	movlw	0
  4950  000212  2225               	addwfc	(___flmul@prod+2)^0,f,c
  4951  000214  0E00               	movlw	0
  4952  000216  2226               	addwfc	(___flmul@prod+3)^0,f,c
  4953  000218  5015               	movf	(___flmul@a+1)^0,w,c
  4954  00021A  0212               	mulwf	(___flmul@b+2)^0,c
  4955  00021C  CFF3 F027          	movff	prodl,___flmul@temp
  4956  000220  CFF4 F028          	movff	prodh,___flmul@temp+1
  4957  000224  5027               	movf	___flmul@temp^0,w,c
  4958  000226  2623               	addwf	___flmul@prod^0,f,c
  4959  000228  5028               	movf	(___flmul@temp+1)^0,w,c
  4960  00022A  2224               	addwfc	(___flmul@prod+1)^0,f,c
  4961  00022C  0E00               	movlw	0
  4962  00022E  2225               	addwfc	(___flmul@prod+2)^0,f,c
  4963  000230  0E00               	movlw	0
  4964  000232  2226               	addwfc	(___flmul@prod+3)^0,f,c
  4965  000234  5016               	movf	(___flmul@a+2)^0,w,c
  4966  000236  0212               	mulwf	(___flmul@b+2)^0,c
  4967  000238  CFF3 F027          	movff	prodl,___flmul@temp
  4968  00023C  CFF4 F028          	movff	prodh,___flmul@temp+1
  4969  000240  5027               	movf	___flmul@temp^0,w,c
  4970  000242  6E18               	movwf	??___flmul^0,c
  4971  000244  5028               	movf	(___flmul@temp+1)^0,w,c
  4972  000246  6E19               	movwf	(??___flmul+1)^0,c
  4973  000248  6A1A               	clrf	(??___flmul+2)^0,c
  4974  00024A  6A1B               	clrf	(??___flmul+3)^0,c
  4975  00024C  C01A  F01B         	movff	??___flmul+2,??___flmul+3
  4976  000250  C019  F01A         	movff	??___flmul+1,??___flmul+2
  4977  000254  C018  F019         	movff	??___flmul,??___flmul+1
  4978  000258  6A18               	clrf	??___flmul^0,c
  4979  00025A  5018               	movf	??___flmul^0,w,c
  4980  00025C  2623               	addwf	___flmul@prod^0,f,c
  4981  00025E  5019               	movf	(??___flmul+1)^0,w,c
  4982  000260  2224               	addwfc	(___flmul@prod+1)^0,f,c
  4983  000262  501A               	movf	(??___flmul+2)^0,w,c
  4984  000264  2225               	addwfc	(___flmul@prod+2)^0,f,c
  4985  000266  501B               	movf	(??___flmul+3)^0,w,c
  4986  000268  2226               	addwfc	(___flmul@prod+3)^0,f,c
  4987  00026A  C01D  F018         	movff	___flmul@grs,??___flmul
  4988  00026E  C01E  F019         	movff	___flmul@grs+1,??___flmul+1
  4989  000272  C01F  F01A         	movff	___flmul@grs+2,??___flmul+2
  4990  000276  C020  F01B         	movff	___flmul@grs+3,??___flmul+3
  4991  00027A  0E19               	movlw	25
  4992  00027C  EF45  F001         	goto	u980
  4993  000280                     u985:
  4994  000280  90D8               	bcf	status,0,c
  4995  000282  321B               	rrcf	(??___flmul+3)^0,f,c
  4996  000284  321A               	rrcf	(??___flmul+2)^0,f,c
  4997  000286  3219               	rrcf	(??___flmul+1)^0,f,c
  4998  000288  3218               	rrcf	??___flmul^0,f,c
  4999  00028A                     u980:
  5000  00028A  2EE8               	decfsz	wreg,f,c
  5001  00028C  EF40  F001         	goto	u985
  5002  000290  5018               	movf	??___flmul^0,w,c
  5003  000292  2623               	addwf	___flmul@prod^0,f,c
  5004  000294  5019               	movf	(??___flmul+1)^0,w,c
  5005  000296  2224               	addwfc	(___flmul@prod+1)^0,f,c
  5006  000298  501A               	movf	(??___flmul+2)^0,w,c
  5007  00029A  2225               	addwfc	(___flmul@prod+2)^0,f,c
  5008  00029C  501B               	movf	(??___flmul+3)^0,w,c
  5009  00029E  2226               	addwfc	(___flmul@prod+3)^0,f,c
  5010  0002A0  C01F  F020         	movff	___flmul@grs+2,___flmul@grs+3
  5011  0002A4  C01E  F01F         	movff	___flmul@grs+1,___flmul@grs+2
  5012  0002A8  C01D  F01E         	movff	___flmul@grs,___flmul@grs+1
  5013  0002AC  6A1D               	clrf	___flmul@grs^0,c
  5014  0002AE  5021               	movf	___flmul@aexp^0,w,c
  5015  0002B0  C022  F018         	movff	___flmul@bexp,??___flmul
  5016  0002B4  6A19               	clrf	(??___flmul+1)^0,c
  5017  0002B6  2618               	addwf	??___flmul^0,f,c
  5018  0002B8  0E00               	movlw	0
  5019  0002BA  2219               	addwfc	(??___flmul+1)^0,f,c
  5020  0002BC  0E82               	movlw	130
  5021  0002BE  2418               	addwf	??___flmul^0,w,c
  5022  0002C0  6E27               	movwf	___flmul@temp^0,c
  5023  0002C2  0EFF               	movlw	255
  5024  0002C4  2019               	addwfc	(??___flmul+1)^0,w,c
  5025  0002C6  6E28               	movwf	(___flmul@temp+1)^0,c
  5026  0002C8  EF7B  F001         	goto	l1941
  5027  0002CC                     l1935:
  5028  0002CC  90D8               	bcf	status,0,c
  5029  0002CE  3623               	rlcf	___flmul@prod^0,f,c
  5030  0002D0  3624               	rlcf	(___flmul@prod+1)^0,f,c
  5031  0002D2  3625               	rlcf	(___flmul@prod+2)^0,f,c
  5032  0002D4  3626               	rlcf	(___flmul@prod+3)^0,f,c
  5033  0002D6  AE20               	btfss	(___flmul@grs+3)^0,7,c
  5034  0002D8  EF70  F001         	goto	u991
  5035  0002DC  EF72  F001         	goto	u990
  5036  0002E0                     u991:
  5037  0002E0  EF73  F001         	goto	l1003
  5038  0002E4                     u990:
  5039  0002E4  8023               	bsf	___flmul@prod^0,0,c
  5040  0002E6                     l1003:
  5041  0002E6  90D8               	bcf	status,0,c
  5042  0002E8  361D               	rlcf	___flmul@grs^0,f,c
  5043  0002EA  361E               	rlcf	(___flmul@grs+1)^0,f,c
  5044  0002EC  361F               	rlcf	(___flmul@grs+2)^0,f,c
  5045  0002EE  3620               	rlcf	(___flmul@grs+3)^0,f,c
  5046  0002F0  0627               	decf	___flmul@temp^0,f,c
  5047  0002F2  A0D8               	btfss	status,0,c
  5048  0002F4  0628               	decf	(___flmul@temp+1)^0,f,c
  5049  0002F6                     l1941:
  5050  0002F6  AE25               	btfss	(___flmul@prod+2)^0,7,c
  5051  0002F8  EF80  F001         	goto	u1001
  5052  0002FC  EF82  F001         	goto	u1000
  5053  000300                     u1001:
  5054  000300  EF66  F001         	goto	l1935
  5055  000304                     u1000:
  5056  000304  0E00               	movlw	0
  5057  000306  6E21               	movwf	___flmul@aexp^0,c
  5058  000308  AE20               	btfss	(___flmul@grs+3)^0,7,c
  5059  00030A  EF89  F001         	goto	u1011
  5060  00030E  EF8B  F001         	goto	u1010
  5061  000312                     u1011:
  5062  000312  EFAF  F001         	goto	l1005
  5063  000316                     u1010:
  5064  000316  0EFF               	movlw	255
  5065  000318  141D               	andwf	___flmul@grs^0,w,c
  5066  00031A  6E18               	movwf	??___flmul^0,c
  5067  00031C  0EFF               	movlw	255
  5068  00031E  141E               	andwf	(___flmul@grs+1)^0,w,c
  5069  000320  6E19               	movwf	(??___flmul+1)^0,c
  5070  000322  0EFF               	movlw	255
  5071  000324  141F               	andwf	(___flmul@grs+2)^0,w,c
  5072  000326  6E1A               	movwf	(??___flmul+2)^0,c
  5073  000328  0E7F               	movlw	127
  5074  00032A  1420               	andwf	(___flmul@grs+3)^0,w,c
  5075  00032C  6E1B               	movwf	(??___flmul+3)^0,c
  5076  00032E  5018               	movf	??___flmul^0,w,c
  5077  000330  1019               	iorwf	(??___flmul+1)^0,w,c
  5078  000332  101A               	iorwf	(??___flmul+2)^0,w,c
  5079  000334  101B               	iorwf	(??___flmul+3)^0,w,c
  5080  000336  B4D8               	btfsc	status,2,c
  5081  000338  EFA0  F001         	goto	u1021
  5082  00033C  EFA2  F001         	goto	u1020
  5083  000340                     u1021:
  5084  000340  EFA6  F001         	goto	l1006
  5085  000344                     u1020:
  5086  000344                     l1949:
  5087  000344  0E01               	movlw	1
  5088  000346  6E21               	movwf	___flmul@aexp^0,c
  5089  000348  EFAF  F001         	goto	l1005
  5090  00034C                     l1006:
  5091  00034C  A023               	btfss	___flmul@prod^0,0,c
  5092  00034E  EFAB  F001         	goto	u1031
  5093  000352  EFAD  F001         	goto	u1030
  5094  000356                     u1031:
  5095  000356  EFAF  F001         	goto	l1005
  5096  00035A                     u1030:
  5097  00035A  EFA2  F001         	goto	l1949
  5098  00035E                     l1005:
  5099  00035E  5021               	movf	___flmul@aexp^0,w,c
  5100  000360  B4D8               	btfsc	status,2,c
  5101  000362  EFB5  F001         	goto	u1041
  5102  000366  EFB7  F001         	goto	u1040
  5103  00036A                     u1041:
  5104  00036A  EFDB  F001         	goto	l1961
  5105  00036E                     u1040:
  5106  00036E  0E01               	movlw	1
  5107  000370  2623               	addwf	___flmul@prod^0,f,c
  5108  000372  0E00               	movlw	0
  5109  000374  2224               	addwfc	(___flmul@prod+1)^0,f,c
  5110  000376  2225               	addwfc	(___flmul@prod+2)^0,f,c
  5111  000378  2226               	addwfc	(___flmul@prod+3)^0,f,c
  5112  00037A  A026               	btfss	(___flmul@prod+3)^0,0,c
  5113  00037C  EFC2  F001         	goto	u1051
  5114  000380  EFC4  F001         	goto	u1050
  5115  000384                     u1051:
  5116  000384  EFDB  F001         	goto	l1961
  5117  000388                     u1050:
  5118  000388  C023  F018         	movff	___flmul@prod,??___flmul
  5119  00038C  C024  F019         	movff	___flmul@prod+1,??___flmul+1
  5120  000390  C025  F01A         	movff	___flmul@prod+2,??___flmul+2
  5121  000394  C026  F01B         	movff	___flmul@prod+3,??___flmul+3
  5122  000398  341B               	rlcf	(??___flmul+3)^0,w,c
  5123  00039A  321B               	rrcf	(??___flmul+3)^0,f,c
  5124  00039C  321A               	rrcf	(??___flmul+2)^0,f,c
  5125  00039E  3219               	rrcf	(??___flmul+1)^0,f,c
  5126  0003A0  3218               	rrcf	??___flmul^0,f,c
  5127  0003A2  C018  F023         	movff	??___flmul,___flmul@prod
  5128  0003A6  C019  F024         	movff	??___flmul+1,___flmul@prod+1
  5129  0003AA  C01A  F025         	movff	??___flmul+2,___flmul@prod+2
  5130  0003AE  C01B  F026         	movff	??___flmul+3,___flmul@prod+3
  5131  0003B2  4A27               	infsnz	___flmul@temp^0,f,c
  5132  0003B4  2A28               	incf	(___flmul@temp+1)^0,f,c
  5133  0003B6                     l1961:
  5134  0003B6  BE28               	btfsc	(___flmul@temp+1)^0,7,c
  5135  0003B8  EFE6  F001         	goto	u1061
  5136  0003BC  5028               	movf	(___flmul@temp+1)^0,w,c
  5137  0003BE  E108               	bnz	u1060
  5138  0003C0  2827               	incf	___flmul@temp^0,w,c
  5139  0003C2  A0D8               	btfss	status,0,c
  5140  0003C4  EFE6  F001         	goto	u1061
  5141  0003C8  EFE8  F001         	goto	u1060
  5142  0003CC                     u1061:
  5143  0003CC  EFF2  F001         	goto	l1965
  5144  0003D0                     u1060:
  5145  0003D0  0E00               	movlw	0
  5146  0003D2  6E23               	movwf	___flmul@prod^0,c
  5147  0003D4  0E00               	movlw	0
  5148  0003D6  6E24               	movwf	(___flmul@prod+1)^0,c
  5149  0003D8  0E80               	movlw	128
  5150  0003DA  6E25               	movwf	(___flmul@prod+2)^0,c
  5151  0003DC  0E7F               	movlw	127
  5152  0003DE  6E26               	movwf	(___flmul@prod+3)^0,c
  5153  0003E0  EF20  F002         	goto	l1977
  5154  0003E4                     l1965:
  5155  0003E4  BE28               	btfsc	(___flmul@temp+1)^0,7,c
  5156  0003E6  EFFF  F001         	goto	u1070
  5157  0003EA  5028               	movf	(___flmul@temp+1)^0,w,c
  5158  0003EC  E106               	bnz	u1071
  5159  0003EE  0427               	decf	___flmul@temp^0,w,c
  5160  0003F0  B0D8               	btfsc	status,0,c
  5161  0003F2  EFFD  F001         	goto	u1071
  5162  0003F6  EFFF  F001         	goto	u1070
  5163  0003FA                     u1071:
  5164  0003FA  EF0B  F002         	goto	l1013
  5165  0003FE                     u1070:
  5166  0003FE  0E00               	movlw	0
  5167  000400  6E23               	movwf	___flmul@prod^0,c
  5168  000402  0E00               	movlw	0
  5169  000404  6E24               	movwf	(___flmul@prod+1)^0,c
  5170  000406  0E00               	movlw	0
  5171  000408  6E25               	movwf	(___flmul@prod+2)^0,c
  5172  00040A  0E00               	movlw	0
  5173  00040C  6E26               	movwf	(___flmul@prod+3)^0,c
  5174  00040E  0E00               	movlw	0
  5175  000410  6E1C               	movwf	___flmul@sign^0,c
  5176  000412  EF20  F002         	goto	l1977
  5177  000416                     l1013:
  5178  000416  C027  F022         	movff	___flmul@temp,___flmul@bexp
  5179  00041A  0EFF               	movlw	255
  5180  00041C  1623               	andwf	___flmul@prod^0,f,c
  5181  00041E  0EFF               	movlw	255
  5182  000420  1624               	andwf	(___flmul@prod+1)^0,f,c
  5183  000422  0E7F               	movlw	127
  5184  000424  1625               	andwf	(___flmul@prod+2)^0,f,c
  5185  000426  0E00               	movlw	0
  5186  000428  1626               	andwf	(___flmul@prod+3)^0,f,c
  5187  00042A  A022               	btfss	___flmul@bexp^0,0,c
  5188  00042C  EF1A  F002         	goto	u1081
  5189  000430  EF1C  F002         	goto	u1080
  5190  000434                     u1081:
  5191  000434  EF1D  F002         	goto	l1975
  5192  000438                     u1080:
  5193  000438  8E25               	bsf	(___flmul@prod+2)^0,7,c
  5194  00043A                     l1975:
  5195  00043A  90D8               	bcf	status,0,c
  5196  00043C  3022               	rrcf	___flmul@bexp^0,w,c
  5197  00043E  6E26               	movwf	(___flmul@prod+3)^0,c
  5198  000440                     l1977:
  5199  000440  501C               	movf	___flmul@sign^0,w,c
  5200  000442  1226               	iorwf	(___flmul@prod+3)^0,f,c
  5201  000444  C023  F010         	movff	___flmul@prod,?___flmul
  5202  000448  C024  F011         	movff	___flmul@prod+1,?___flmul+1
  5203  00044C  C025  F012         	movff	___flmul@prod+2,?___flmul+2
  5204  000450  C026  F013         	movff	___flmul@prod+3,?___flmul+3
  5205  000454                     l1000:
  5206  000454  0012               	return		;funcret
  5207  000456                     __end_of___flmul:
  5208                           	opt callstack 0
  5209                           
  5210 ;; *************** function _PWM_CCP2_init *****************
  5211 ;; Defined at:
  5212 ;;		line 4 in file "PWMCCP2.c"
  5213 ;; Parameters:    Size  Location     Type
  5214 ;;		None
  5215 ;; Auto vars:     Size  Location     Type
  5216 ;;		None
  5217 ;; Return value:  Size  Location     Type
  5218 ;;                  1    wreg      void 
  5219 ;; Registers used:
  5220 ;;		wreg, status,2
  5221 ;; Tracked objects:
  5222 ;;		On entry : 0/0
  5223 ;;		On exit  : 0/0
  5224 ;;		Unchanged: 0/0
  5225 ;; Data sizes:     COMRAM   BANK0   BANK1   BANK2   BANK3   BANK4   BANK5   BANK6   BANK7
  5226 ;;      Params:         0       0       0       0       0       0       0       0       0
  5227 ;;      Locals:         0       0       0       0       0       0       0       0       0
  5228 ;;      Temps:          0       0       0       0       0       0       0       0       0
  5229 ;;      Totals:         0       0       0       0       0       0       0       0       0
  5230 ;;Total ram usage:        0 bytes
  5231 ;; Hardware stack levels used:    1
  5232 ;; Hardware stack levels required when called:    2
  5233 ;; This function calls:
  5234 ;;		Nothing
  5235 ;; This function is called by:
  5236 ;;		_main
  5237 ;; This function uses a non-reentrant model
  5238 ;;
  5239                           
  5240                           	psect	text23
  5241  00119A                     __ptext23:
  5242                           	opt callstack 0
  5243  00119A                     _PWM_CCP2_init:
  5244                           	opt callstack 28
  5245  00119A                     
  5246                           ;PWMCCP2.c: 5:     TRISCbits.RC1 = 0;
  5247  00119A  9294               	bcf	148,1,c	;volatile
  5248  00119C                     
  5249                           ;PWMCCP2.c: 6:     CCP2CONbits.CCP2M = 0b1111;
  5250  00119C  0E0F               	movlw	15
  5251  00119E  12BA               	iorwf	186,f,c	;volatile
  5252                           
  5253                           ;PWMCCP2.c: 8:     PR2 = 249;
  5254  0011A0  0EF9               	movlw	249
  5255  0011A2  6ECB               	movwf	203,c	;volatile
  5256                           
  5257                           ;PWMCCP2.c: 9:     T2CONbits.T2CKPS = 0b11;
  5258  0011A4  0E03               	movlw	3
  5259  0011A6  12CA               	iorwf	202,f,c	;volatile
  5260                           
  5261                           ;PWMCCP2.c: 11:     CCP2CONbits.DC2B = 0;
  5262  0011A8  0ECF               	movlw	-49
  5263  0011AA  16BA               	andwf	186,f,c	;volatile
  5264                           
  5265                           ;PWMCCP2.c: 12:     CCPR2L = 0;
  5266  0011AC  0E00               	movlw	0
  5267  0011AE  6EBB               	movwf	187,c	;volatile
  5268                           
  5269                           ;PWMCCP2.c: 13:     TMR2 = 0;
  5270  0011B0  0E00               	movlw	0
  5271  0011B2  6ECC               	movwf	204,c	;volatile
  5272  0011B4                     
  5273                           ;PWMCCP2.c: 14:     T2CONbits.TMR2ON = 1;
  5274  0011B4  84CA               	bsf	202,2,c	;volatile
  5275  0011B6  0012               	return		;funcret
  5276  0011B8                     __end_of_PWM_CCP2_init:
  5277                           	opt callstack 0
  5278                           
  5279 ;; *************** function _PWM_CCP1_init *****************
  5280 ;; Defined at:
  5281 ;;		line 5 in file "PWMCCP1.c"
  5282 ;; Parameters:    Size  Location     Type
  5283 ;;		None
  5284 ;; Auto vars:     Size  Location     Type
  5285 ;;		None
  5286 ;; Return value:  Size  Location     Type
  5287 ;;                  1    wreg      void 
  5288 ;; Registers used:
  5289 ;;		wreg, status,2
  5290 ;; Tracked objects:
  5291 ;;		On entry : 0/0
  5292 ;;		On exit  : 0/0
  5293 ;;		Unchanged: 0/0
  5294 ;; Data sizes:     COMRAM   BANK0   BANK1   BANK2   BANK3   BANK4   BANK5   BANK6   BANK7
  5295 ;;      Params:         0       0       0       0       0       0       0       0       0
  5296 ;;      Locals:         0       0       0       0       0       0       0       0       0
  5297 ;;      Temps:          0       0       0       0       0       0       0       0       0
  5298 ;;      Totals:         0       0       0       0       0       0       0       0       0
  5299 ;;Total ram usage:        0 bytes
  5300 ;; Hardware stack levels used:    1
  5301 ;; Hardware stack levels required when called:    2
  5302 ;; This function calls:
  5303 ;;		Nothing
  5304 ;; This function is called by:
  5305 ;;		_main
  5306 ;; This function uses a non-reentrant model
  5307 ;;
  5308                           
  5309                           	psect	text24
  5310  001178                     __ptext24:
  5311                           	opt callstack 0
  5312  001178                     _PWM_CCP1_init:
  5313                           	opt callstack 28
  5314  001178                     
  5315                           ;PWMCCP1.c: 6:     TRISCbits.RC2 = 0;
  5316  001178  9494               	bcf	148,2,c	;volatile
  5317  00117A                     
  5318                           ;PWMCCP1.c: 7:     CCP1CONbits.CCP1M = 0b1100;
  5319  00117A  50BD               	movf	189,w,c	;volatile
  5320  00117C  0BF0               	andlw	-16
  5321  00117E  090C               	iorlw	12
  5322  001180  6EBD               	movwf	189,c	;volatile
  5323                           
  5324                           ;PWMCCP1.c: 9:     PR2 = 249;
  5325  001182  0EF9               	movlw	249
  5326  001184  6ECB               	movwf	203,c	;volatile
  5327                           
  5328                           ;PWMCCP1.c: 10:     T2CONbits.T2CKPS = 0b11;
  5329  001186  0E03               	movlw	3
  5330  001188  12CA               	iorwf	202,f,c	;volatile
  5331                           
  5332                           ;PWMCCP1.c: 12:     CCP1CONbits.DC1B = 0;
  5333  00118A  0ECF               	movlw	-49
  5334  00118C  16BD               	andwf	189,f,c	;volatile
  5335                           
  5336                           ;PWMCCP1.c: 13:     CCPR1L = 0;
  5337  00118E  0E00               	movlw	0
  5338  001190  6EBE               	movwf	190,c	;volatile
  5339                           
  5340                           ;PWMCCP1.c: 14:     TMR2 = 0;
  5341  001192  0E00               	movlw	0
  5342  001194  6ECC               	movwf	204,c	;volatile
  5343  001196                     
  5344                           ;PWMCCP1.c: 15:     T2CONbits.TMR2ON = 1;
  5345  001196  84CA               	bsf	202,2,c	;volatile
  5346  001198  0012               	return		;funcret
  5347  00119A                     __end_of_PWM_CCP1_init:
  5348                           	opt callstack 0
  5349                           
  5350 ;; *************** function _low_isr *****************
  5351 ;; Defined at:
  5352 ;;		line 38 in file "main.c"
  5353 ;; Parameters:    Size  Location     Type
  5354 ;;		None
  5355 ;; Auto vars:     Size  Location     Type
  5356 ;;		None
  5357 ;; Return value:  Size  Location     Type
  5358 ;;                  1    wreg      void 
  5359 ;; Registers used:
  5360 ;;		None
  5361 ;; Tracked objects:
  5362 ;;		On entry : 0/0
  5363 ;;		On exit  : 0/0
  5364 ;;		Unchanged: 0/0
  5365 ;; Data sizes:     COMRAM   BANK0   BANK1   BANK2   BANK3   BANK4   BANK5   BANK6   BANK7
  5366 ;;      Params:         0       0       0       0       0       0       0       0       0
  5367 ;;      Locals:         0       0       0       0       0       0       0       0       0
  5368 ;;      Temps:          1       0       0       0       0       0       0       0       0
  5369 ;;      Totals:         1       0       0       0       0       0       0       0       0
  5370 ;;Total ram usage:        1 bytes
  5371 ;; Hardware stack levels used:    1
  5372 ;; Hardware stack levels required when called:    1
  5373 ;; This function calls:
  5374 ;;		Nothing
  5375 ;; This function is called by:
  5376 ;;		Interrupt level 1
  5377 ;; This function uses a non-reentrant model
  5378 ;;
  5379                           
  5380                           	psect	intcodelo
  5381  000018                     __pintcodelo:
  5382                           	opt callstack 0
  5383  000018                     _low_isr:
  5384                           	opt callstack 24
  5385                           
  5386                           ;incstack = 0
  5387  000018  805C               	bsf	int$flags,0,c	;set compiler interrupt flag (level 1)
  5388  00001A  CFE0 F001          	movff	bsr,??_low_isr
  5389  00001E                     
  5390                           ;main.c: 39:     __nop();
  5391  00001E  F000               	nop	
  5392  000020  C001  FFE0         	movff	??_low_isr,bsr
  5393  000024  905C               	bcf	int$flags,0,c	;clear compiler interrupt flag (level 1)
  5394  000026  0010               	retfie	
  5395  000028                     __end_of_low_isr:
  5396                           	opt callstack 0
  5397                           
  5398 ;; *************** function _high_isr *****************
  5399 ;; Defined at:
  5400 ;;		line 33 in file "main.c"
  5401 ;; Parameters:    Size  Location     Type
  5402 ;;		None
  5403 ;; Auto vars:     Size  Location     Type
  5404 ;;		None
  5405 ;; Return value:  Size  Location     Type
  5406 ;;                  1    wreg      void 
  5407 ;; Registers used:
  5408 ;;		None
  5409 ;; Tracked objects:
  5410 ;;		On entry : 0/0
  5411 ;;		On exit  : 0/0
  5412 ;;		Unchanged: 0/0
  5413 ;; Data sizes:     COMRAM   BANK0   BANK1   BANK2   BANK3   BANK4   BANK5   BANK6   BANK7
  5414 ;;      Params:         0       0       0       0       0       0       0       0       0
  5415 ;;      Locals:         0       0       0       0       0       0       0       0       0
  5416 ;;      Temps:          0       0       0       0       0       0       0       0       0
  5417 ;;      Totals:         0       0       0       0       0       0       0       0       0
  5418 ;;Total ram usage:        0 bytes
  5419 ;; Hardware stack levels used:    1
  5420 ;; This function calls:
  5421 ;;		Nothing
  5422 ;; This function is called by:
  5423 ;;		Interrupt level 2
  5424 ;; This function uses a non-reentrant model
  5425 ;;
  5426                           
  5427                           	psect	intcode
  5428  000008                     __pintcode:
  5429                           	opt callstack 0
  5430  000008                     _high_isr:
  5431                           	opt callstack 24
  5432                           
  5433                           ;incstack = 0
  5434  000008  825C               	bsf	int$flags,1,c	;set compiler interrupt flag (level 2)
  5435  00000A  ED30  F009         	call	int_func,f	;refresh shadow registers
  5436                           
  5437                           	psect	intcode_body
  5438  001260                     __pintcode_body:
  5439                           	opt callstack 24
  5440  001260                     int_func:
  5441                           	opt callstack 24
  5442  001260  0006               	pop		; remove dummy address from shadow register refresh
  5443  001262                     
  5444                           ;main.c: 34:     __nop();
  5445  001262  F000               	nop	
  5446  001264  925C               	bcf	int$flags,1,c	;clear compiler interrupt flag (level 2)
  5447  001266  0011               	retfie		f
  5448  001268                     __end_of_high_isr:
  5449                           	opt callstack 0
  5450                           
  5451                           	psect	rparam
  5452  0000                     
  5453                           	psect	temp
  5454  00005C                     btemp:
  5455                           	opt callstack 0
  5456  00005C                     	ds	1
  5457  0000                     int$flags	set	btemp
  5458  0000                     wtemp8	set	btemp+1
  5459  0000                     ttemp5	set	btemp+1
  5460  0000                     ttemp6	set	btemp+4
  5461  0000                     ttemp7	set	btemp+8
  5462                           tosu	equ	0xFFF
  5463                           tosh	equ	0xFFE
  5464                           tosl	equ	0xFFD
  5465                           stkptr	equ	0xFFC
  5466                           pclatu	equ	0xFFB
  5467                           pclath	equ	0xFFA
  5468                           pcl	equ	0xFF9
  5469                           tblptru	equ	0xFF8
  5470                           tblptrh	equ	0xFF7
  5471                           tblptrl	equ	0xFF6
  5472                           tablat	equ	0xFF5
  5473                           prodh	equ	0xFF4
  5474                           prodl	equ	0xFF3
  5475                           indf0	equ	0xFEF
  5476                           postinc0	equ	0xFEE
  5477                           postdec0	equ	0xFED
  5478                           preinc0	equ	0xFEC
  5479                           plusw0	equ	0xFEB
  5480                           fsr0h	equ	0xFEA
  5481                           fsr0l	equ	0xFE9
  5482                           wreg	equ	0xFE8
  5483                           indf1	equ	0xFE7
  5484                           postinc1	equ	0xFE6
  5485                           postdec1	equ	0xFE5
  5486                           preinc1	equ	0xFE4
  5487                           plusw1	equ	0xFE3
  5488                           fsr1h	equ	0xFE2
  5489                           fsr1l	equ	0xFE1
  5490                           bsr	equ	0xFE0
  5491                           indf2	equ	0xFDF
  5492                           postinc2	equ	0xFDE
  5493                           postdec2	equ	0xFDD
  5494                           preinc2	equ	0xFDC
  5495                           plusw2	equ	0xFDB
  5496                           fsr2h	equ	0xFDA
  5497                           fsr2l	equ	0xFD9
  5498                           status	equ	0xFD8


Data Sizes:
    Strings     1332
    Constant    0
    Data        0
    BSS         109
    Persistent  0
    Stack       0

Auto Spaces:
    Space          Size  Autos    Used
    COMRAM           94     70      91
    BANK0           160      0      88
    BANK1           256      0       0
    BANK2           256      0       0
    BANK3           256      0       0
    BANK4           256      0       0
    BANK5           256      0       0
    BANK6           256      0       0
    BANK7           256      0       0

Pointer List with Targets:

    main@pActMenu	PTR unsigned char  size(2) Largest target is 5
		 -> main@activarmenu(COMRAM[5]), 

    scanf@guardarscan	PTR unsigned char  size(2) Largest target is 5
		 -> main@activarmenu(COMRAM[5]), 

    printf@PointString	PTR unsigned char  size(2) Largest target is 212
		 -> STR_32(CODE[75]), STR_31(CODE[13]), STR_30(CODE[13]), STR_29(CODE[13]), 
		 -> STR_28(CODE[19]), STR_27(CODE[57]), STR_26(CODE[13]), STR_25(CODE[14]), 
		 -> STR_24(CODE[46]), STR_23(CODE[44]), STR_22(CODE[14]), STR_21(CODE[37]), 
		 -> STR_20(CODE[212]), STR_19(CODE[57]), STR_18(CODE[48]), STR_17(CODE[31]), 
		 -> STR_16(CODE[59]), STR_15(CODE[68]), STR_14(CODE[46]), STR_13(CODE[3]), 
		 -> STR_12(CODE[12]), STR_11(CODE[32]), STR_10(CODE[12]), STR_9(CODE[58]), 
		 -> STR_8(CODE[41]), STR_7(CODE[43]), STR_6(CODE[33]), STR_5(CODE[33]), 
		 -> STR_4(CODE[14]), STR_3(CODE[14]), STR_2(CODE[113]), STR_1(CODE[48]), 


Critical Paths under _main in COMRAM

    _main->_PWM_DutyCycleCCP1
    _main->_PWM_DutyCycleCCP2
    _scanf->_receive
    _modificarCoordenada->_introducirCoordNueva
    _introducirCoordNueva->_receiveNum
    _receiveNum->_printf
    _imprimirCoordenadas->_printf
    _borrarTodasCoordenadas->_printf
    _printf->_send
    _PWM_DutyCycleCCP2->___fltol
    _PWM_DutyCycleCCP1->___fltol
    ___fltol->___flmul
    ___flmul->___xxtofl

Critical Paths under _low_isr in COMRAM

    None.

Critical Paths under _high_isr in COMRAM

    None.

Critical Paths under _main in BANK0

    None.

Critical Paths under _low_isr in BANK0

    None.

Critical Paths under _high_isr in BANK0

    None.

Critical Paths under _main in BANK1

    None.

Critical Paths under _low_isr in BANK1

    None.

Critical Paths under _high_isr in BANK1

    None.

Critical Paths under _main in BANK2

    None.

Critical Paths under _low_isr in BANK2

    None.

Critical Paths under _high_isr in BANK2

    None.

Critical Paths under _main in BANK3

    None.

Critical Paths under _low_isr in BANK3

    None.

Critical Paths under _high_isr in BANK3

    None.

Critical Paths under _main in BANK4

    None.

Critical Paths under _low_isr in BANK4

    None.

Critical Paths under _high_isr in BANK4

    None.

Critical Paths under _main in BANK5

    None.

Critical Paths under _low_isr in BANK5

    None.

Critical Paths under _high_isr in BANK5

    None.

Critical Paths under _main in BANK6

    None.

Critical Paths under _low_isr in BANK6

    None.

Critical Paths under _high_isr in BANK6

    None.

Critical Paths under _main in BANK7

    None.

Critical Paths under _low_isr in BANK7

    None.

Critical Paths under _high_isr in BANK7

    None.

Call Graph Tables:

 ---------------------------------------------------------------------------------
 (Depth) Function   	        Calls       Base Space   Used Autos Params    Refs
 ---------------------------------------------------------------------------------
 (0) _main                                                11    11      0   37053
                                             59 COMRAM    11    11      0
                      _PWM_CCP1_init
                      _PWM_CCP2_init
                  _PWM_DutyCycleCCP1
                  _PWM_DutyCycleCCP2
                           _UARTinit
             _borrarTodasCoordenadas
                   _habilitarIntTMR0
                   _habilitarIntTMR1
                _imprimirCoordenadas
               _introducirCoordNueva
                _modificarCoordenada
                         _motorXinit
                         _motorYinit
                           _portInit
                             _printf
                            _receive
                         _receiveNum
                              _scanf
                           _tmr0Init
                           _tmr1Init
 ---------------------------------------------------------------------------------
 (1) _tmr1Init                                             0     0      0       0
 ---------------------------------------------------------------------------------
 (1) _tmr0Init                                             0     0      0       0
 ---------------------------------------------------------------------------------
 (1) _scanf                                                4     1      3     257
                                              2 COMRAM     4     1      3
                            _receive
 ---------------------------------------------------------------------------------
 (2) _receive                                              1     1      0      15
                                              1 COMRAM     1     1      0
 ---------------------------------------------------------------------------------
 (1) _portInit                                             0     0      0       0
 ---------------------------------------------------------------------------------
 (1) _motorYinit                                           0     0      0       0
 ---------------------------------------------------------------------------------
 (1) _motorXinit                                           0     0      0       0
 ---------------------------------------------------------------------------------
 (1) _modificarCoordenada                                  9     9      0   13660
                                             17 COMRAM     9     9      0
                _imprimirCoordenadas
               _introducirCoordNueva
                             _printf
                         _receiveNum
                               _send
 ---------------------------------------------------------------------------------
 (2) _introducirCoordNueva                                 9     9      0    5358
                                              8 COMRAM     9     9      0
                             _printf
                         _receiveNum
                               _send
 ---------------------------------------------------------------------------------
 (1) _receiveNum                                           1     1      0    2700
                                              7 COMRAM     1     1      0
                             _printf
 ---------------------------------------------------------------------------------
 (2) _imprimirCoordenadas                                  2     2      0    2878
                                              7 COMRAM     2     2      0
                             _printf
                               _send
 ---------------------------------------------------------------------------------
 (1) _habilitarIntTMR1                                     0     0      0       0
 ---------------------------------------------------------------------------------
 (1) _habilitarIntTMR0                                     0     0      0       0
 ---------------------------------------------------------------------------------
 (1) _borrarTodasCoordenadas                               1     1      0    2832
                                              7 COMRAM     1     1      0
                             _printf
 ---------------------------------------------------------------------------------
 (2) _printf                                               5     3      2    2588
                                              2 COMRAM     5     3      2
                               _send
 ---------------------------------------------------------------------------------
 (3) _send                                                 1     1      0      22
                                              1 COMRAM     1     1      0
 ---------------------------------------------------------------------------------
 (1) _UARTinit                                             0     0      0       0
 ---------------------------------------------------------------------------------
 (1) _PWM_DutyCycleCCP2                                    9     9      0    3145
                                             50 COMRAM     9     9      0
                            ___flmul
                            ___fltol
                           ___xxtofl
 ---------------------------------------------------------------------------------
 (1) _PWM_DutyCycleCCP1                                    9     9      0    3145
                                             50 COMRAM     9     9      0
                            ___flmul
                            ___fltol
                           ___xxtofl
 ---------------------------------------------------------------------------------
 (2) ___xxtofl                                            14    10      4     474
                                              1 COMRAM    14    10      4
 ---------------------------------------------------------------------------------
 (2) ___fltol                                             10     6      4     381
                                             40 COMRAM    10     6      4
                            ___flmul (ARG)
                           ___xxtofl (ARG)
 ---------------------------------------------------------------------------------
 (2) ___flmul                                             25    17      8    2200
                                             15 COMRAM    25    17      8
                           ___xxtofl (ARG)
 ---------------------------------------------------------------------------------
 (1) _PWM_CCP2_init                                        0     0      0       0
 ---------------------------------------------------------------------------------
 (1) _PWM_CCP1_init                                        0     0      0       0
 ---------------------------------------------------------------------------------
 Estimated maximum stack depth 3
 ---------------------------------------------------------------------------------
 (Depth) Function   	        Calls       Base Space   Used Autos Params    Refs
 ---------------------------------------------------------------------------------
 (6) _low_isr                                              1     1      0       0
                                              0 COMRAM     1     1      0
 ---------------------------------------------------------------------------------
 Estimated maximum stack depth 6
 ---------------------------------------------------------------------------------
 (Depth) Function   	        Calls       Base Space   Used Autos Params    Refs
 ---------------------------------------------------------------------------------
 (7) _high_isr                                             0     0      0       0
 ---------------------------------------------------------------------------------
 Estimated maximum stack depth 7
 ---------------------------------------------------------------------------------

 Call Graph Graphs:

 _main (ROOT)
   _PWM_CCP1_init
   _PWM_CCP2_init
   _PWM_DutyCycleCCP1
     ___flmul
       ___xxtofl (ARG)
     ___fltol
       ___flmul (ARG)
         ___xxtofl (ARG)
       ___xxtofl (ARG)
     ___xxtofl
   _PWM_DutyCycleCCP2
     ___flmul
       ___xxtofl (ARG)
     ___fltol
       ___flmul (ARG)
         ___xxtofl (ARG)
       ___xxtofl (ARG)
     ___xxtofl
   _UARTinit
   _borrarTodasCoordenadas
     _printf
       _send
   _habilitarIntTMR0
   _habilitarIntTMR1
   _imprimirCoordenadas
     _printf
       _send
     _send
   _introducirCoordNueva
     _printf
       _send
     _receiveNum
       _printf
         _send
     _send
   _modificarCoordenada
     _imprimirCoordenadas
       _printf
         _send
       _send
     _introducirCoordNueva
       _printf
         _send
       _receiveNum
         _printf
           _send
       _send
     _printf
       _send
     _receiveNum
       _printf
         _send
     _send
   _motorXinit
   _motorYinit
   _portInit
   _printf
     _send
   _receive
   _receiveNum
     _printf
       _send
   _scanf
     _receive
   _tmr0Init
   _tmr1Init

 _low_isr (ROOT)

 _high_isr (ROOT)

 Address spaces:
Name               Size   Autos  Total    Cost      Usage
BIGRAM             7FF      0       0      21        0.0%
EEDATA             100      0       0       0        0.0%
BITBANK7           100      0       0      18        0.0%
BANK7              100      0       0      19        0.0%
BITBANK6           100      0       0      16        0.0%
BANK6              100      0       0      17        0.0%
BITBANK5           100      0       0      14        0.0%
BANK5              100      0       0      15        0.0%
BITBANK4           100      0       0      12        0.0%
BANK4              100      0       0      13        0.0%
BITBANK3           100      0       0      10        0.0%
BANK3              100      0       0      11        0.0%
BITBANK2           100      0       0       8        0.0%
BANK2              100      0       0       9        0.0%
BITBANK1           100      0       0       6        0.0%
BANK1              100      0       0       7        0.0%
BITBANK0            A0      0       0       4        0.0%
BANK0               A0      0      58       5       55.0%
BITCOMRAM           5E      0       0       0        0.0%
COMRAM              5E     46      5B       1       96.8%
BITSFR               0      0       0     200        0.0%
SFR                  0      0       0     200        0.0%
STACK                0      0       0       2        0.0%
NULL                 0      0       0       0        0.0%
ABS                  0      0      B3      20        0.0%
DATA                 0      0      B3       3        0.0%
CODE                 0      0       0       0        0.0%


Microchip Technology PIC18 Macro Assembler V2.10 build 88905656 
Symbol Table                                                                                   Thu Nov 28 13:01:30 2019

                     _introducirCoordNueva 0456                                         l22 1230  
                                       l25 1254                                         l50 11EA  
                                       l19 125E                                         l44 1204  
                                       l53 1234                                         l71 11B6  
                                       l47 11D2                                         l56 1246  
                                       l49 11E0                                         l74 0EF0  
                                       l92 0FA4                                         l89 1198  
                                       u90 11E0                                         u91 11DC  
                                       bsr 000FE0                                        l140 126A  
                                      l137 126E                                        l161 1150  
                                      l155 1120                                        l173 10C0  
                                      l261 1052                                        l166 105C  
                                      l255 0C7E                                        l168 106A  
                                      l249 073A                                        l266 0E3C  
                                      l196 121A                                        l199 11D0  
                                      l679 0D84                                        l996 00F0  
                                      _PR2 000FCB                                        u800 1082  
                                      u801 107E                                        u810 1092  
                                      u811 108E                                        u900 0046  
                                      u820 10AE                                        u901 0042  
                                      u821 10AA                                        u910 0058  
                                      u830 10BE                                        u911 0054  
                                      u831 10BA                                        u920 0068  
                                      u760 1242                                        u840 046E  
                                      u921 0064                                        u761 123E  
                                      u841 046A                                        u930 00A8  
                                      u770 10EE                                        u850 047E  
                                      u931 00A4                                        u771 10EA  
                                      u851 047A                                        u940 00BA  
                                      u780 1120                                        u860 061E  
                                      u941 00B6                                        u781 111C  
                                      u861 061A                                        u950 00CA  
                                      u790 106A                                        u870 0634  
                                      u951 00C6                                        u791 1066  
                                      u871 0630                                        u960 0100  
                                      u880 0714                                        u961 00FC  
                                      u881 0710                                        u970 0110  
                                      u890 0C7E                                        u971 010C  
                                      u891 0C7A                                        u980 028A  
                                      u990 02E4                                        u991 02E0  
                                      u985 0280                                        wreg 000FE8  
                               _TXSTA1bits 000FAC                               ___flmul@aexp 0021  
                             ___flmul@bexp 0022                               ___flmul@sign 001C  
                             ___flmul@temp 0027                               ___flmul@prod 0023  
                             __CFG_LVP$OFF 000000                               ___fltol@exp1 0032  
                             __CFG_WDT$OFF 000000                                       l1000 0454  
                                     l1003 02E6                                       l1013 0416  
                                     l1005 035E                                       l1006 034C  
                                     l1040 0B62                                       l1051 0AFA  
                                     l1044 0A9E                                       l2021 0D64  
                                     l2005 0D10                                       l1037 0A06  
                                     l2101 0FC8                                       l2023 0D74  
                                     l2015 0D38                                       l2007 0D1A  
                                     l2031 09D0                                       l2111 1038  
                                     l2103 0FE6                                       l2017 0D44  
                                     l2009 0D24                                       l2041 0A48  
                                     l2033 0A16                                       l2121 104E  
                                     l2113 103E                                       l2105 1020  
                                     l2201 08A8                                       l2019 0D54  
                                     l2051 0AD0                                       l2043 0A54  
                                     l2035 0A2C                                       l2027 09B2  
                                     l2131 0E1A                                       l2123 0D86  
                                     l2115 1042                                       l2107 102C  
                                     l2211 08F4                                       l2203 08C0  
                                     l2061 0B0E                                       l2053 0ADC  
                                     l2045 0A86                                       l2029 09C2  
                                     l2133 0E1C                                       l2117 1046  
                                     l2109 1032                                       l1501 1206  
                                     l2213 0906                                       l2221 093E  
                                     l2205 08D2                                       l2141 074C  
                                     l2063 0B32                                       l2055 0AEA  
                                     l2047 0A88                                       l2039 0A40  
                                     l2135 0E2C                                       l2119 104A  
                                     l1095 11D2                                       l1503 1210  
                                     l1511 11CE                                       l2231 098C  
                                     l2223 0950                                       l2215 0918  
                                     l2207 08D6                                       l2151 076C  
                                     l2143 0752                                       l2065 0B42  
                                     l2057 0B08                                       l2049 0A94  
                                     l2081 0F78                                       l2073 0E40  
                                     l2137 0E30                                       l2129 0D8A  
                                     l1441 121C                                       l1097 11E4  
                                     l1505 1218                                       l2225 095C  
                                     l2217 092A                                       l2209 08E8  
                                     l2233 099C                                       l2161 078C  
                                     l2153 0770                                       l2145 0758  
                                     l2067 0B50                                       l2059 0B0A  
                                     l2083 0F8C                                       l2075 0EC4  
                                     l1451 11F6                                       l1443 1248  
                                     l2091 113E                                       l1507 11B8  
                                     l2227 096E                                       l2219 0932  
                                     l2171 07E8                                       l2163 07A0  
                                     l2155 0774                                       l2147 075C  
                                     l2139 073C                                       l2069 0B52  
                                     l2077 0ED8                                       l1461 1200  
                                     l1453 11F8                                       l1445 11EC  
                                     l2093 0FA6                                       l2085 1122  
                                     l1509 11C6                                       l2229 097A  
                                     l2181 0820                                       l2173 07FA  
                                     l2165 07B2                                       l2157 077C  
                                     l2149 0768                                       l2079 0EF4  
                                     l1463 1202                                       l1455 11FA  
                                     l1447 11F0                                       l1711 10F2  
                                     l2095 0FAE                                       l1439 1256  
                                     l2087 112A                                       l2191 0870  
                                     l2183 0830                                       l2175 0806  
                                     l2167 07C4                                       l2159 0780  
                                     l1481 1196                                       l1465 119A  
                                     l1457 11FC                                       l1449 11F4  
                                     l1713 110E                                       l1705 10C6  
                                     l1721 1072                                       l1801 0722  
                                     l2097 0FB2                                       l2089 113C  
                                     l2193 0874                                       l2185 0840  
                                     l2177 0810                                       l2169 07D6  
                                     l1467 119C                                       l1459 11FE  
                                     l1715 1110                                       l1491 1268  
                                     l1811 0B76                                       l1731 10BE  
                                     l1723 1082                                       l1803 072E  
                                     l2099 0FBE                                       l2195 0886  
                                     l2187 0852                                       l1477 1178  
                                     l1469 11B4                                       l1901 015C  
                                     l1821 0BA4                                       l1813 0B7C  
                                     l1805 0B64                                       l1725 1092  
                                     l1717 1054                                       l1741 047E  
                                     l2197 0892                                       l2189 085E  
                                     l1479 117A                                       l1911 01A6  
                                     l1903 0174                                       l1831 0BEC  
                                     l1823 0BB0                                       l1815 0B88  
                                     l1807 0B64                                       l1719 106E  
                                     l1727 109E                                       l1751 0502  
                                     l1743 048A                                       l1735 0456  
                                     l2199 0896                                       l1921 01FC  
                                     l1913 01B6                                       l1905 0180  
                                     l1489 126C                                       l1841 0C3A  
                                     l1833 0BFE                                       l1825 0BC2  
                                     l1817 0B90                                       l1809 0B6A  
                                     l1729 10AE                                       l1761 05AC  
                                     l1753 050E                                       l1745 049C  
                                     l1737 045E                                       l1931 02A0  
                                     l1923 0218                                       l1915 01C2  
                                     l1907 018C                                       l1843 0C4C  
                                     l1835 0C10                                       l1827 0BD4  
                                     l1819 0B9C                                       l1851 0C6C  
                                     l1771 0650                                       l1763 0608  
                                     l1755 0520                                       l1747 04AE  
                                     l1739 046E                                       l1941 02F6  
                                     l1933 02AE                                       l1925 0224  
                                     l1917 01D2                                       l1909 019A  
                                     l1861 0058                                       l1853 002C  
                                     l1845 0C5E                                       l1837 0C22  
                                     l1829 0BE6                                       l1781 069E  
                                     l1773 0662                                       l1765 061E  
                                     l1757 0532                                       l1749 04C0  
                                     l1943 0304                                       l1935 02CC  
                                     l1927 0240                                       l1919 01EC  
                                     l1871 0094                                       l1863 0068  
                                     l1855 0038                                       l1695 1234  
                                     l1847 0C64                                       l1839 0C28  
                                     l1791 06EC                                       l1783 06B0  
                                     l1775 0674                                       l1767 0634  
                                     l1759 0550                                       l1953 036E  
                                     l1961 03B6                                       l1945 0308  
                                     l1937 02D6                                       l1929 026A  
                                     l1881 00CA                                       l1873 009A  
                                     l1865 0078                                       l1857 0046  
                                     l1697 1242                                       l1849 0C6A  
                                     l1793 06FE                                       l1785 06C2  
                                     l1777 0686                                       l1769 0644  
                                     l1971 042A                                       l1963 03D0  
                                     l1955 037A                                       l1947 0316  
                                     l1939 02E4                                       l1883 00DA  
                                     l1875 00A8                                       l1867 007E  
                                     l1859 0048                                       l1699 10C2  
                                     l1795 0704                                       l1787 06C8  
                                     l1779 068C                                       l1973 0438  
                                     l1965 03E4                                       l1957 0388  
                                     l1949 0344                                       l1893 0124  
                                     l1885 00E0                                       l1877 00AA  
                                     l1869 008E                                       l1797 0714  
                                     l1789 06DA                                       l1975 043A  
                                     l1967 03FE                                       l1959 03B2  
                                     l1895 0130                                       l1887 0100  
                                     l1879 00BA                                       l1991 0CD4  
                                     l1983 0C80                                       l1799 0720  
                                     l1969 041A                                       l1977 0440  
                                     l1897 013A                                       l1889 0110  
                                     l1993 0CD6                                       l1985 0C96  
                                     l1979 0444                                       l1899 0150  
                                     l1995 0CE6                                       l1997 0CEA  
                                     l1989 0CAA                                       l1999 0CF8  
                                     STR_1 7DB6                                       STR_2 7B9F  
                                     STR_3 7F97                                       STR_4 7FA5  
                                     STR_5 7EE7                                       STR_6 7F08  
                                     STR_7 7E6E                                       STR_8 7E99  
                                     STR_9 7CDA                                       u1000 0304  
                                     u1001 0300                                       u1010 0316  
                                     u1011 0312                                       u1020 0344  
                                     u1100 0CCA                                       u1021 0340  
                                     u1030 035A                                       u1110 0CF8  
                                     u1031 0356                                       u1111 0CF4  
                                     u1040 036E                                       u1120 0D0C  
                                     u1200 0ACC                                       u1041 036A  
                                     u1121 0D08                                       u1105 0CC0  
                                     u1201 0AC8                                       u1050 0388  
                                     u1130 0D34                                       u1210 0AEA  
                                     u1051 0384                                       u1131 0D30  
                                     u1211 0AE6                                       u1060 03D0  
                                     u1140 0D54                                       u1220 0AFA  
                                     u1300 07C4                                       u1061 03CC  
                                     u1141 0D50                                       u1221 0AF6  
                                     u1301 07C0                                       u1070 03FE  
                                     u1150 0D64                                       u1230 0B08  
                                     u1310 07D6                                       u1071 03FA  
                                     u1151 0D60                                       u1231 0B04  
                                     u1311 07D2                                       u1080 0438  
                                     u1240 0B42                                       u1160 09C2  
                                     u1400 08D2                                       u1320 07E8  
                                     u1081 0434                                       u1241 0B3E  
                                     u1161 09BE                                       u1401 08CE  
                                     u1321 07E4                                       u1090 0C96  
                                     u1250 0B50                                       u1170 09D0  
                                     u1410 08E8                                       u1330 07FA  
                                     u1091 0C92                                       u1251 0B4C  
                                     u1171 09CC                                       u1411 08E4  
                                     u1331 07F6                                       u1180 0A2C  
                                     u1260 1150                                       u1420 0906  
                                     u1340 0830                                       u1181 0A28  
                                     u1261 114C                                       u1421 0902  
                                     u1341 082C                                       u1190 0A82  
                                     u1270 1020                                       u1430 092A  
                                     u1350 0840                                       u1191 0A7E  
                                     u1271 101C                                       u1431 0926  
                                     u1351 083C                                       u1280 0E2C  
                                     u1440 0950                                       u1360 0852  
                                     u1281 0E28                                       u1441 094C  
                                     u1361 084E                                       u1450 096E  
                                     u1370 0870                                       u1290 07B2  
                                     u1451 096A                                       u1371 086C  
                                     u1291 07AE                                       u1460 098C  
                                     u1380 0886                                       u1461 0988  
                                     u1381 0882                                       u1390 08A8  
                                     u1391 08A4                                       _TMR0 000FD6  
                                     _TMR1 000FCE                                       _TMR2 000FCC  
                                     _main 073C                                       _send 1232  
                                     indf2 000FDF                                       fsr2l 000FD9  
                                     btemp 005C                           scanf@guardarscan 0003  
                             main@pActMenu 003E                                       prodh 000FF4  
                                     prodl 000FF3                                       start 0028  
                    ?_introducirCoordNueva 0001                               ___param_bank 000000  
                             main@decision 0045                              ___fltol@sign1 0031  
                                    ?_main 0001                                      ?_send 0001  
                                    STR_10 7FE7                                      STR_11 7F29  
                                    STR_12 7FF3                                      STR_20 7ACB  
                                    STR_13 7FF0                                      STR_21 7EC2  
                                    STR_30 7FCD                                      STR_22 7F7B  
                                    STR_14 7E14                                      STR_31 7FDA  
                                    STR_23 7E42                                      STR_15 7C5B  
                                    STR_24 7DE6                                      STR_16 7C9F  
                                    STR_32 7C10                                      STR_25 7F89  
                                    STR_17 7F49                                      STR_26 7FB3  
                                    STR_18 7D86                                      STR_27 7D4D  
                                    STR_19 7D14                                      STR_28 7F68  
                                    STR_29 7FC0                            __end_of___flmul 0456  
                          __end_of___fltol 0D86                                      i1l352 0020  
                                    i2l347 1264                                      _TMR0H 000FD7  
                                    _TMR1H 000FCF                                      _TMR0L 000FD6  
                                    _TMR1L 000FCE                                      _SPBRG 000FAF  
              __end_of_modificarCoordenada 1054                           __end_of_UARTinit 1206  
                          _coordenadaNueva 005B                                      _scanf 1122  
                          __end_of_receive 11EC                            __end_of_low_isr 0028  
                          ??_PWM_CCP1_init 0002                            ??_PWM_CCP2_init 0002  
                                    tablat 000FF5                                      ttemp5 005D  
                                    ttemp6 0060                                      ttemp7 0064  
                                    status 000FD8                                      wtemp8 005D  
                           __CFG_MCLRE$OFF 000000                            __initialization 1152  
                             __end_of_main 09B0                               __end_of_send 1248  
                                   ??_main 003C                                     ??_send 0002  
                            __activetblptr 000002                           _habilitarIntTMR0 126C  
                         _habilitarIntTMR1 1268              PWM_DutyCycleCCP1@PWMDutyValue 003A  
                                   ?_scanf 0003                                     _ADRESH 000FC4  
                                   _ADRESL 000FC3                                     _CCPR1L 000FBE  
                                   _CCPR2L 000FBB                                     i1l1597 001E  
                                   i2l1595 1262                                     _RCREG1 000FAE  
                                   _OSCCON 000FD3                                     _TXREG1 000FAD  
                         __end_of___xxtofl 0B64    modificarCoordenada@coordenadaNuevaCopia 0019  
                   ??_introducirCoordNueva 0009                           __end_of_high_isr 1268  
                                ??___flmul 0018                                  ??___fltol 002D  
                            main@opcionsel 0046                                     clear_0 1158  
                                   clear_1 1164                __end_of_imprimirCoordenadas 0C80  
                                   _printf 10C2                           __end_of_tmr0Init 121C  
                         __end_of_tmr1Init 11D2                                     scanf@i 0006  
                                ??_receive 0002                               __mediumconst 7ACA  
                         __end_of_portInit 1260                                  ??_low_isr 0001  
                                   tblptrh 000FF7                                     tblptrl 000FF6  
                                   tblptru 000FF8                               ___xxtofl@arg 000C  
                             ___xxtofl@exp 000B                               ___xxtofl@val 0002  
                               __accesstop 0060                    __end_of__initialization 116A  
                            ___rparam_used 000001                          _presionarZDecenas 006A  
                               ___fltol@f1 0029                             __pcstackCOMRAM 0001  
                            __end_of_scanf 1152                                  ?_UARTinit 0001  
                              _CurrentPosX 0055                                _CurrentPosY 0051  
            PWM_DutyCycleCCP2@PWMDutyValue 003A                                    ??_scanf 0006  
                               __pbssBANK0 0060                          _habilitarModCoord 005A  
                       receiveNum@recibido 0008                                 ??_UARTinit 0002  
                                  ?_printf 0003                                  ?___xxtofl 0002  
                                ?_high_isr 0001  borrarTodasCoordenadas@impresionCoordenada 0008  
                                ?_tmr0Init 0001                                  ?_tmr1Init 0001  
                               _xToAdvance 0057                   __end_of_habilitarIntTMR0 1270  
                 __end_of_habilitarIntTMR1 126C                                    __Hparam 0000  
                                  __Lparam 0000                   ??_borrarTodasCoordenadas 0008  
                               _yToAdvance 0053                                  ?_portInit 0001  
                                  ___flmul 002C                                    ___fltol 0C80  
                                  __pcinit 1152                                    __ramtop 0800  
                                  __ptext0 073C                                    __ptext1 11B8  
                                  __ptext2 1206                                    __ptext3 1122  
                                  __ptext4 11D2                                    __ptext5 1256  
                                  __ptext6 1248                                    __ptext7 121C  
                                  __ptext8 0FA6                                    __ptext9 0456  
                          __size_of_printf 0060                                  _T0CONbits 000FD5  
                                _T1CONbits 000FCD                                  _T2CONbits 000FCA  
                               ??___xxtofl 0006                                    _receive 11D2  
                               _receiveNum 1054                                    _low_isr 0018  
                               ??_high_isr 0001                             __pintcode_body 1260  
                     end_of_initialization 116A                                    _working 0059  
             __size_of_modificarCoordenada 00AE                              __Lmediumconst 7ACA  
                    __end_of_PWM_CCP1_init 119A                                    int_func 1260  
                    __end_of_PWM_CCP2_init 11B8                                 ??_tmr0Init 0002  
                               ??_tmr1Init 0002                                    printf@i 0007  
                               ??_portInit 0002                                    postinc0 000FEE  
                               _motorXinit 121C                                 _motorYinit 1248  
                          receive@recibido 0002                              ___xxtofl@sign 000A  
                                _TRISAbits 000F92                                  _TRISBbits 000F93  
                                _TRISCbits 000F94                                  _TRISDbits 000F95  
                              ___flmul@grs 001D                                _CCP1CONbits 000FBD  
                              _CCP2CONbits 000FBA                         _presionarZCentenas 0074  
            __size_of_introducirCoordNueva 02E6            __size_of_borrarTodasCoordenadas 00B8  
                              _BAUDCONbits 000FB8                          __size_of_UARTinit 001A  
                           __end_of_printf 1122                                ?_receiveNum 0001  
                      start_initialization 1152                         _presionarZUnidades 0060  
             __size_of_imprimirCoordenadas 011C                            main@activarmenu 0040  
                              ?_motorXinit 0001                                ?_motorYinit 0001  
                                 ??_printf 0005                                  ___flmul@a 0014  
                                ___flmul@b 0010                                __pbssCOMRAM 0047  
                             send@enviarpc 0002                     _borrarTodasCoordenadas 0D86  
                        __size_of___xxtofl 01B4                          __size_of_high_isr 1260  
                        _PWM_DutyCycleCCP1 0EF2                          _PWM_DutyCycleCCP2 0E3E  
                       ?_PWM_DutyCycleCCP1 0001                         ?_PWM_DutyCycleCCP2 0001  
                        ?_habilitarIntTMR0 0001                          ?_habilitarIntTMR1 0001  
                      __size_of_receiveNum 006E                          __size_of_tmr0Init 0016  
                        __size_of_tmr1Init 001A                                  __pintcode 0008  
                            __pmediumconst 7ACA                         ??_habilitarIntTMR0 0002  
                       ??_habilitarIntTMR1 0002     imprimirCoordenadas@impresionCoordenada 0009  
                                 ?___flmul 0010                                   ?___fltol 0029  
                      ??_PWM_DutyCycleCCP1 0033                        ??_PWM_DutyCycleCCP2 0033  
                              __pintcodelo 0018                          __size_of_portInit 000A  
                      _modificarCoordenada 0FA6                                   ?_receive 0001  
                                 ?_low_isr 0001                             __size_of_scanf 0030  
                      __size_of_motorXinit 0016                  __end_of_PWM_DutyCycleCCP1 0FA6  
                __end_of_PWM_DutyCycleCCP2 0EF2                        __size_of_motorYinit 000E  
        imprimirCoordenadas@numCoordenadas 0008                       ?_modificarCoordenada 0001  
                                 _LATAbits 000F89                                   _LATCbits 000F8B  
                                 _LATDbits 000F8C                                   _PIE1bits 000F9D  
                                 _PIR1bits 000F9E                                   _RCONbits 000FD0  
              modificarCoordenada@modCoord 001A                                   _UARTinit 11EC  
                               _ADCON0bits 000FC2                                 _ADCON1bits 000FC1  
                               _ADCON2bits 000FC0                                _coordinates 00B0  
                              _INTCON2bits 000FF1                                _INTCON3bits 000FF0  
                       scanf@numcaracteres 0005                      ??_modificarCoordenada 0012  
                                 __Hrparam 0000                        _imprimirCoordenadas 0B64  
                                 __Lrparam 0000                           __size_of___flmul 042A  
                         __size_of___fltol 0106                     __size_of_PWM_CCP1_init 0022  
                        printf@PointString 0003                     __size_of_PWM_CCP2_init 001E  
                             ??_receiveNum 0008                                   ___xxtofl 09B0  
                          main@tamanoarray 003C                       ?_imprimirCoordenadas 0001  
             __end_of_introducirCoordNueva 073C                           __size_of_receive 001A  
                         __size_of_low_isr 0010                                   __ptext10 1054  
                                 __ptext11 0B64                                   __ptext20 09B0  
                                 __ptext12 1268                                   __ptext21 0C80  
                                 __ptext13 126C                                   __ptext22 002C  
                                 __ptext14 0D86                                   __ptext23 119A  
                                 __ptext15 10C2                                   __ptext24 1178  
                                 __ptext16 1232                                   __ptext17 11EC  
                                 __ptext18 0E3E                                   __ptext19 0EF2  
                                 _high_isr 0008           PWM_DutyCycleCCP1@WantedDutyCycle 0039  
               __size_of_PWM_DutyCycleCCP1 00B4                 __size_of_PWM_DutyCycleCCP2 00B4  
        introducirCoordNueva@validarCoordX 000E          introducirCoordNueva@validarCoordY 0010  
                            __size_of_main 0274                              __size_of_send 0016  
                                 _tmr0Init 1206                                   _tmr1Init 11B8  
                       __end_of_receiveNum 10C2                                   _portInit 1256  
                                 int$flags 005C                               ??_motorXinit 0002  
                             ??_motorYinit 0002                    ?_borrarTodasCoordenadas 0001  
                               _INTCONbits 000FF2                      ??_imprimirCoordenadas 0008  
                   _PWM_DutyCycleCCP1$2261 0035                     _PWM_DutyCycleCCP2$2260 0035  
                                 intlevel1 0000                                   intlevel2 0000  
                       __end_of_motorXinit 1232                         __end_of_motorYinit 1256  
                           _coordXCentenas 0047                              _PWM_CCP1_init 1178  
                            _PWM_CCP2_init 119A                                 _RCSTA1bits 000FAB  
                           _coordYCentenas 0092           PWM_DutyCycleCCP2@WantedDutyCycle 0039  
           __end_of_borrarTodasCoordenadas 0E3E                        __CFG_FOSC$INTOSC_EC 000000  
                            _coordXDecenas 00A6                              _coordYDecenas 0088  
                __size_of_habilitarIntTMR0 0004                  __size_of_habilitarIntTMR1 0004  
                           _coordXUnidades 009C                             _coordYUnidades 007E  
                           ?_PWM_CCP1_init 0001                             ?_PWM_CCP2_init 0001  
